---
triple:          'x86_64-apple-darwin'
binary-path:     './build/macos-arm64_x86_64/powersync-sqlite-core.framework/Versions/A/powersync-sqlite-core'
relocations:
  - { offset: 0x1E, size: 0x8, addend: 0x0, symName: _rust_eh_personality, symObjAddr: 0x0, symBinAddr: 0x640, symSize: 0x6 }
  - { offset: 0x30, size: 0x8, addend: 0x0, symName: _rust_eh_personality, symObjAddr: 0x0, symBinAddr: 0x640, symSize: 0x6 }
  - { offset: 0x4E, size: 0x8, addend: 0x0, symName: __RNvCsk8UOdKf0bkt_7___rustc14___rust_realloc, symObjAddr: 0x6, symBinAddr: 0x646, symSize: 0x4D }
  - { offset: 0x8B15, size: 0x8, addend: 0x0, symName: __ZN4core3fmt5write17ha3b3d8dcca7bfd43E, symObjAddr: 0xAB6, symBinAddr: 0x105A, symSize: 0x1B2 }
  - { offset: 0x906E, size: 0x8, addend: 0x0, symName: __ZN4core3fmt5write17ha3b3d8dcca7bfd43E, symObjAddr: 0xAB6, symBinAddr: 0x105A, symSize: 0x1B2 }
  - { offset: 0x94BC, size: 0x8, addend: 0x0, symName: __ZN4core3fmt8getcount17hba9743e5d2f2bff3E, symObjAddr: 0xC68, symBinAddr: 0x120C, symSize: 0x29 }
  - { offset: 0x9604, size: 0x8, addend: 0x0, symName: __ZN4core3fmt9Formatter12pad_integral12write_prefix17hf0f32b8c76804ba5E, symObjAddr: 0x106D, symBinAddr: 0x1611, symSize: 0x59 }
  - { offset: 0x96F4, size: 0x8, addend: 0x0, symName: '__ZN43_$LT$bool$u20$as$u20$core..fmt..Display$GT$3fmt17hf38c9bf3332768f3E', symObjAddr: 0x1613, symBinAddr: 0x1BB7, symSize: 0x2F }
  - { offset: 0x9761, size: 0x8, addend: 0x0, symName: '__ZN43_$LT$char$u20$as$u20$core..fmt..Display$GT$3fmt17h3c304ead897e0ccaE', symObjAddr: 0x1884, symBinAddr: 0x1E28, symSize: 0xBE }
  - { offset: 0x986F, size: 0x8, addend: 0x0, symName: '__ZN44_$LT$$RF$T$u20$as$u20$core..fmt..Display$GT$3fmt17hbb805247f0d1743cE', symObjAddr: 0x1942, symBinAddr: 0x1EE6, symSize: 0x17 }
  - { offset: 0x9FDB, size: 0x8, addend: 0x0, symName: '__ZN81_$LT$core..str..iter..Chars$u20$as$u20$core..iter..traits..iterator..Iterator$GT$5count17h5d472b0536cd3cdeE', symObjAddr: 0xEE2, symBinAddr: 0x1486, symSize: 0x18B }
  - { offset: 0xA936, size: 0x8, addend: 0x0, symName: '__ZN81_$LT$core..str..iter..Chars$u20$as$u20$core..iter..traits..iterator..Iterator$GT$4next17hcc211d09c9a7ddafE.149', symObjAddr: 0x12C2, symBinAddr: 0x1866, symSize: 0x83 }
  - { offset: 0xA979, size: 0x8, addend: 0x0, symName: '__ZN81_$LT$core..str..iter..Chars$u20$as$u20$core..iter..traits..iterator..Iterator$GT$4next17hcc211d09c9a7ddafE.149', symObjAddr: 0x12C2, symBinAddr: 0x1866, symSize: 0x83 }
  - { offset: 0xAD2D, size: 0x8, addend: 0x0, symName: '__ZN4core3str6traits66_$LT$impl$u20$core..ops..index..Index$LT$I$GT$$u20$for$u20$str$GT$5index17ha29ea71512804610E', symObjAddr: 0x1642, symBinAddr: 0x1BE6, symSize: 0x41 }
  - { offset: 0xAD6D, size: 0x8, addend: 0x0, symName: '__ZN4core3str6traits66_$LT$impl$u20$core..ops..index..Index$LT$I$GT$$u20$for$u20$str$GT$5index17ha29ea71512804610E', symObjAddr: 0x1642, symBinAddr: 0x1BE6, symSize: 0x41 }
  - { offset: 0xAD8F, size: 0x8, addend: 0x0, symName: '__ZN4core3str6traits66_$LT$impl$u20$core..ops..index..Index$LT$I$GT$$u20$for$u20$str$GT$5index17ha29ea71512804610E', symObjAddr: 0x1642, symBinAddr: 0x1BE6, symSize: 0x41 }
  - { offset: 0xB9D7, size: 0x8, addend: 0x0, symName: '__ZN4core4char7methods22_$LT$impl$u20$char$GT$16escape_debug_ext17h47d08239fbc9ae0cE', symObjAddr: 0x1683, symBinAddr: 0x1C27, symSize: 0x201 }
  - { offset: 0xCE1C, size: 0x8, addend: 0x0, symName: __ZN4core3fmt11PostPadding5write17hfd66656d266347f0E, symObjAddr: 0xC91, symBinAddr: 0x1235, symSize: 0x5D }
  - { offset: 0xCF34, size: 0x8, addend: 0x0, symName: __ZN4core3fmt9Formatter12pad_integral17h360e095ffcfd2d56E, symObjAddr: 0xCEE, symBinAddr: 0x1292, symSize: 0x1F4 }
  - { offset: 0xD1F8, size: 0x8, addend: 0x0, symName: __ZN4core3fmt9Formatter7padding17ha68286823ef82370E, symObjAddr: 0x10C6, symBinAddr: 0x166A, symSize: 0x9E }
  - { offset: 0xD36D, size: 0x8, addend: 0x0, symName: __ZN4core3fmt9Formatter3pad17hcf80b1b7ae4103dcE, symObjAddr: 0x1164, symBinAddr: 0x1708, symSize: 0x15E }
  - { offset: 0xD79F, size: 0x8, addend: 0x0, symName: __ZN4core3fmt9Formatter19pad_formatted_parts17h9405234e09d35548E, symObjAddr: 0x1345, symBinAddr: 0x18E9, symSize: 0x1A0 }
  - { offset: 0xDB1D, size: 0x8, addend: 0x0, symName: __ZN4core3fmt9Formatter21write_formatted_parts17h60e7104bf0853c89E, symObjAddr: 0x14E5, symBinAddr: 0x1A89, symSize: 0x12E }
  - { offset: 0x13ABC, size: 0x8, addend: 0x0, symName: '__ZN4core3f6421_$LT$impl$u20$f64$GT$8classify17h3708b7e7a51f78a1E', symObjAddr: 0x3662, symBinAddr: 0x3BDA, symSize: 0x40 }
  - { offset: 0x13AF0, size: 0x8, addend: 0x0, symName: __ZN4core3num7flt2dec8strategy5grisu12CACHED_POW1017h95b80a54f91ab6e9E, symObjAddr: 0x52748, symBinAddr: 0x50E60, symSize: 0x0 }
  - { offset: 0x13FC3, size: 0x8, addend: 0x0, symName: __ZN4core3num7flt2dec8strategy5grisu12cached_power17h568c0bd71b763bbdE, symObjAddr: 0x36A2, symBinAddr: 0x3C1A, symSize: 0x4E }
  - { offset: 0x1408C, size: 0x8, addend: 0x0, symName: __ZN4core3num7flt2dec8strategy5grisu22max_pow10_no_more_than17h2ffff7e6b98e53f0E, symObjAddr: 0x37DF, symBinAddr: 0x3D57, symSize: 0x87 }
  - { offset: 0x140BC, size: 0x8, addend: 0x0, symName: __ZN4core3num7flt2dec8strategy5grisu19format_shortest_opt14round_and_weed17h73ea6eead5753524E, symObjAddr: 0x387E, symBinAddr: 0x3DF6, symSize: 0xE9 }
  - { offset: 0x141FE, size: 0x8, addend: 0x0, symName: __ZN4core3num7flt2dec8strategy5grisu16format_exact_opt14possibly_round17h3a40c127aa8348b3E, symObjAddr: 0x3967, symBinAddr: 0x3EDF, symSize: 0xE8 }
  - { offset: 0x148BD, size: 0x8, addend: 0x0, symName: '__ZN108_$LT$core..ops..range..RangeTo$LT$usize$GT$$u20$as$u20$core..slice..index..SliceIndex$LT$$u5b$T$u5d$$GT$$GT$9index_mut17hb104325c40abcb6fE.235', symObjAddr: 0x3866, symBinAddr: 0x3DDE, symSize: 0x18 }
  - { offset: 0x14A69, size: 0x8, addend: 0x0, symName: '__ZN4core3f6421_$LT$impl$u20$f64$GT$8classify17h3708b7e7a51f78a1E', symObjAddr: 0x3662, symBinAddr: 0x3BDA, symSize: 0x40 }
  - { offset: 0x14C46, size: 0x8, addend: 0x0, symName: __ZN4core3num9diy_float2Fp9normalize17h5925cdc04ce79f3dE, symObjAddr: 0x36F0, symBinAddr: 0x3C68, symSize: 0x9B }
  - { offset: 0x14CA2, size: 0x8, addend: 0x0, symName: __ZN4core3num9diy_float2Fp3mul17h6d6b2df5c7047175E, symObjAddr: 0x378B, symBinAddr: 0x3D03, symSize: 0x54 }
  - { offset: 0x7D02, size: 0x8, addend: 0x0, symName: '__ZN5alloc6borrow12Cow$LT$B$GT$10into_owned17h4fdcacb995e665d1E', symObjAddr: 0xA04, symBinAddr: 0xFA8, symSize: 0x34 }
  - { offset: 0x82CC, size: 0x8, addend: 0x0, symName: '__ZN5alloc6borrow12Cow$LT$B$GT$10into_owned17h4fdcacb995e665d1E', symObjAddr: 0xA04, symBinAddr: 0xFA8, symSize: 0x34 }
  - { offset: 0x1B71C5, size: 0x8, addend: 0x0, symName: __ZN3ryu6pretty8format6417h1f6cab8a97b8523cE, symObjAddr: 0x495A2, symBinAddr: 0x4807A, symSize: 0x606 }
  - { offset: 0x1B71EA, size: 0x8, addend: 0x0, symName: __ZN3ryu14d2s_full_table21DOUBLE_POW5_INV_SPLIT17h55a3cd907a55db4aE, symObjAddr: 0x5AC58, symBinAddr: 0x59370, symSize: 0x0 }
  - { offset: 0x1B7206, size: 0x8, addend: 0x0, symName: __ZN3ryu14d2s_full_table17DOUBLE_POW5_SPLIT17h42f6ee6f8b719cc9E, symObjAddr: 0x5C1B8, symBinAddr: 0x5A8D0, symSize: 0x0 }
  - { offset: 0x1B7624, size: 0x8, addend: 0x0, symName: __ZN3ryu14d2s_intrinsics16mul_shift_all_6417h7139393db36e755fE, symObjAddr: 0x49BA8, symBinAddr: 0x48680, symSize: 0xD0 }
  - { offset: 0x1B77C5, size: 0x8, addend: 0x0, symName: __ZN3ryu14d2s_intrinsics22multiple_of_power_of_517heb9483316d99ceb9E, symObjAddr: 0x49C78, symBinAddr: 0x48750, symSize: 0x2F }
  - { offset: 0x1B7864, size: 0x8, addend: 0x0, symName: __ZN3ryu6pretty8format6417h1f6cab8a97b8523cE, symObjAddr: 0x495A2, symBinAddr: 0x4807A, symSize: 0x606 }
  - { offset: 0x1B857E, size: 0x8, addend: 0x0, symName: __ZN3ryu6pretty8mantissa19write_mantissa_long17h49efb674b6ea3669E, symObjAddr: 0x49CA7, symBinAddr: 0x4877F, symSize: 0x124 }
  - { offset: 0x1B8816, size: 0x8, addend: 0x0, symName: __ZN3ryu6pretty8exponent15write_exponent317h9dd2d65abb87db4eE, symObjAddr: 0x49DCB, symBinAddr: 0x488A3, symSize: 0x74 }
  - { offset: 0x8E756, size: 0x8, addend: 0x0, symName: '__ZN41_$LT$T$u20$as$u20$serde..de..Expected$GT$3fmt17h06553a2d63b4296eE', symObjAddr: 0xE91C, symBinAddr: 0xEE1C, symSize: 0x23 }
  - { offset: 0x8E813, size: 0x8, addend: 0x0, symName: '__ZN45_$LT$T$u20$as$u20$alloc..string..ToString$GT$9to_string17he2a296976a4dd0edE', symObjAddr: 0x117FF, symBinAddr: 0x1121F, symSize: 0x1F1 }
  - { offset: 0x8F416, size: 0x8, addend: 0x0, symName: '__ZN5alloc5slice29_$LT$impl$u20$$u5b$T$u5d$$GT$11sort_by_key28_$u7b$$u7b$closure$u7d$$u7d$17h0d59735c8e90aa4fE', symObjAddr: 0xEBB3, symBinAddr: 0xF0B3, symSize: 0xA }
  - { offset: 0x8FEC3, size: 0x8, addend: 0x0, symName: '__ZN4core3ptr45drop_in_place$LT$serde_json..value..Value$GT$17h284d0b8556d2e056E', symObjAddr: 0x1178D, symBinAddr: 0x111AD, symSize: 0x5F }
  - { offset: 0x8FF66, size: 0x8, addend: 0x0, symName: '__ZN4core3ptr105drop_in_place$LT$core..option..Option$LT$$LP$alloc..string..String$C$serde_json..value..Value$RP$$GT$$GT$17h6d96377a7cb356dcE', symObjAddr: 0x117EC, symBinAddr: 0x1120C, symSize: 0x13 }
  - { offset: 0x8FF95, size: 0x8, addend: 0x0, symName: '__ZN4core3ptr77drop_in_place$LT$$LP$alloc..string..String$C$serde_json..value..Value$RP$$GT$17h9e15b0fc627eb026E', symObjAddr: 0x119F0, symBinAddr: 0x11410, symSize: 0x20 }
  - { offset: 0x900DD, size: 0x8, addend: 0x0, symName: '__ZN4core3ptr57drop_in_place$LT$powersync_core..sync..line..SyncLine$GT$17he37d6cb9cbe1b1afE', symObjAddr: 0x11A10, symBinAddr: 0x11430, symSize: 0x9A }
  - { offset: 0x90E80, size: 0x8, addend: 0x0, symName: '__ZN4core3cmp5impls70_$LT$impl$u20$core..cmp..PartialOrd$LT$$RF$B$GT$$u20$for$u20$$RF$A$GT$2lt17h964cba702d6cc6dfE', symObjAddr: 0xEBA5, symBinAddr: 0xF0A5, symSize: 0xE }
  - { offset: 0x948FC, size: 0x8, addend: 0x0, symName: '__ZN4core5slice29_$LT$impl$u20$$u5b$T$u5d$$GT$7reverse17h57ff9d8750990d4eE', symObjAddr: 0xEB63, symBinAddr: 0xF063, symSize: 0x42 }
  - { offset: 0x94BD4, size: 0x8, addend: 0x0, symName: '__ZN108_$LT$core..ops..range..RangeTo$LT$usize$GT$$u20$as$u20$core..slice..index..SliceIndex$LT$$u5b$T$u5d$$GT$$GT$9index_mut17h627a0236eddc4186E', symObjAddr: 0xEBCB, symBinAddr: 0xF0CB, symSize: 0x18 }
  - { offset: 0x94DF7, size: 0x8, addend: 0x0, symName: '__ZN110_$LT$core..ops..range..RangeFrom$LT$usize$GT$$u20$as$u20$core..slice..index..SliceIndex$LT$$u5b$T$u5d$$GT$$GT$9index_mut17h43408cd276309c74E', symObjAddr: 0xF138, symBinAddr: 0xF638, symSize: 0x1C }
  - { offset: 0x94F22, size: 0x8, addend: 0x0, symName: '__ZN110_$LT$core..ops..range..RangeFrom$LT$usize$GT$$u20$as$u20$core..slice..index..SliceIndex$LT$$u5b$T$u5d$$GT$$GT$9index_mut17hba8a6fb8b5f569ffE', symObjAddr: 0xF6B1, symBinAddr: 0xFBB1, symSize: 0x22 }
  - { offset: 0x950B2, size: 0x8, addend: 0x0, symName: __ZN4core5slice4sort6stable5drift16stable_quicksort17h0dccd9e8234b3e14E, symObjAddr: 0xEBE3, symBinAddr: 0xF0E3, symSize: 0x23 }
  - { offset: 0x951B3, size: 0x8, addend: 0x0, symName: __ZN4core5slice4sort6stable5drift16stable_quicksort17h735bb392e6e3b31bE, symObjAddr: 0xEC06, symBinAddr: 0xF106, symSize: 0x23 }
  - { offset: 0x952B4, size: 0x8, addend: 0x0, symName: __ZN4core5slice4sort6stable5drift16stable_quicksort17hc4b3cfa3d53c5d51E, symObjAddr: 0xEC29, symBinAddr: 0xF129, symSize: 0x23 }
  - { offset: 0x953B5, size: 0x8, addend: 0x0, symName: __ZN4core5slice4sort6stable5drift16stable_quicksort17hf52529e7e893514aE, symObjAddr: 0xEC4C, symBinAddr: 0xF14C, symSize: 0x23 }
  - { offset: 0x9569F, size: 0x8, addend: 0x0, symName: __ZN4core5slice4sort6stable5drift4sort17h4cdc9b6a2aced9dbE, symObjAddr: 0xEC6F, symBinAddr: 0xF16F, symSize: 0x4C9 }
  - { offset: 0x96206, size: 0x8, addend: 0x0, symName: __ZN4core5slice4sort6stable5drift4sort17h6a9cedb1f2f221adE, symObjAddr: 0xF154, symBinAddr: 0xF654, symSize: 0x55D }
  - { offset: 0x9705C, size: 0x8, addend: 0x0, symName: __ZN4core5slice4sort6stable5drift4sort17h7ef81949a9db3ea0E, symObjAddr: 0xF6D3, symBinAddr: 0xFBD3, symSize: 0x4C9 }
  - { offset: 0x97BC3, size: 0x8, addend: 0x0, symName: __ZN4core5slice4sort6stable5drift4sort17hac3c64fc9217c6e3E, symObjAddr: 0xFB9C, symBinAddr: 0x1009C, symSize: 0x4C9 }
  - { offset: 0x9885E, size: 0x8, addend: 0x0, symName: __ZN4core3ops8function5FnMut8call_mut17hee366136b98d65d5E, symObjAddr: 0xEBBD, symBinAddr: 0xF0BD, symSize: 0xE }
  - { offset: 0x99827, size: 0x8, addend: 0x0, symName: '__ZN189_$LT$powersync_core..sync..line.._..$LT$impl$u20$serde..de..Deserialize$u20$for$u20$powersync_core..sync..line..Checkpoint$GT$..deserialize..__FieldVisitor$u20$as$u20$serde..de..Visitor$GT$9visit_str17h27439421f7e306c2E', symObjAddr: 0x15A6A, symBinAddr: 0x1548A, symSize: 0xA1 }
  - { offset: 0x99A00, size: 0x8, addend: 0x0, symName: '__ZN196_$LT$powersync_core..sync..line.._..$LT$impl$u20$serde..de..Deserialize$u20$for$u20$powersync_core..sync..line..StreamDescription$GT$..deserialize..__FieldVisitor$u20$as$u20$serde..de..Visitor$GT$9visit_str17hdc3cb32baa20ac4dE', symObjAddr: 0x15B0B, symBinAddr: 0x1552B, symSize: 0x82 }
  - { offset: 0x99B75, size: 0x8, addend: 0x0, symName: '__ZN202_$LT$powersync_core..sync..line.._..$LT$impl$u20$serde..de..Deserialize$u20$for$u20$powersync_core..sync..line..StreamSubscriptionError$GT$..deserialize..__FieldVisitor$u20$as$u20$serde..de..Visitor$GT$9visit_str17h0d817fcded45e1eaE', symObjAddr: 0x15B8D, symBinAddr: 0x155AD, symSize: 0x63 }
  - { offset: 0x99C86, size: 0x8, addend: 0x0, symName: '__ZN193_$LT$powersync_core..sync..line.._..$LT$impl$u20$serde..de..Deserialize$u20$for$u20$powersync_core..sync..line..CheckpointDiff$GT$..deserialize..__FieldVisitor$u20$as$u20$serde..de..Visitor$GT$9visit_str17he0abd309052ae271E', symObjAddr: 0x15BF0, symBinAddr: 0x15610, symSize: 0xA1 }
  - { offset: 0x99E5F, size: 0x8, addend: 0x0, symName: '__ZN206_$LT$powersync_core..sync..line.._..$LT$impl$u20$serde..de..Deserialize$u20$for$u20$powersync_core..sync..line..CheckpointPartiallyComplete$GT$..deserialize..__FieldVisitor$u20$as$u20$serde..de..Visitor$GT$9visit_str17h70c6cc52f83696e0E', symObjAddr: 0x15C91, symBinAddr: 0x156B1, symSize: 0x30 }
  - { offset: 0x99F0C, size: 0x8, addend: 0x0, symName: '__ZN193_$LT$powersync_core..sync..line.._..$LT$impl$u20$serde..de..Deserialize$u20$for$u20$powersync_core..sync..line..BucketChecksum$GT$..deserialize..__FieldVisitor$u20$as$u20$serde..de..Visitor$GT$9visit_str17h7f7a62c3aaaf971cE', symObjAddr: 0x15CC1, symBinAddr: 0x156E1, symSize: 0xC3 }
  - { offset: 0x9A181, size: 0x8, addend: 0x0, symName: '__ZN187_$LT$powersync_core..sync..line.._..$LT$impl$u20$serde..de..Deserialize$u20$for$u20$powersync_core..sync..line..DataLine$GT$..deserialize..__FieldVisitor$u20$as$u20$serde..de..Visitor$GT$9visit_str17h1fd3d05ea02bab9eE', symObjAddr: 0x1656A, symBinAddr: 0x15F8A, symSize: 0x63 }
  - { offset: 0x9A294, size: 0x8, addend: 0x0, symName: '__ZN189_$LT$powersync_core..sync..line.._..$LT$impl$u20$serde..de..Deserialize$u20$for$u20$powersync_core..sync..line..OplogEntry$GT$..deserialize..__FieldVisitor$u20$as$u20$serde..de..Visitor$GT$9visit_str17hff6260624a44761cE', symObjAddr: 0x165CD, symBinAddr: 0x15FED, symSize: 0x107 }
  - { offset: 0x9A5E0, size: 0x8, addend: 0x0, symName: '__ZN185_$LT$powersync_core..sync..line.._..$LT$impl$u20$serde..de..Deserialize$u20$for$u20$powersync_core..sync..line..OpType$GT$..deserialize..__FieldVisitor$u20$as$u20$serde..de..Visitor$GT$9visit_str17h33636d7175e0e800E', symObjAddr: 0x16F6C, symBinAddr: 0x1698C, symSize: 0xB9 }
  - { offset: 0x9A7C1, size: 0x8, addend: 0x0, symName: '__ZN185_$LT$powersync_core..sync..line.._..$LT$impl$u20$serde..de..Deserialize$u20$for$u20$powersync_core..sync..line..OpType$GT$..deserialize..__FieldVisitor$u20$as$u20$serde..de..Visitor$GT$11visit_bytes17h68ff51bf9b816d73E', symObjAddr: 0x17025, symBinAddr: 0x16A45, symSize: 0x23F }
  - { offset: 0x9BB5C, size: 0x8, addend: 0x0, symName: '__ZN14powersync_core4sync4line1_91_$LT$impl$u20$serde..de..Deserialize$u20$for$u20$powersync_core..sync..line..Checkpoint$GT$11deserialize17h344382b1000ff97dE', symObjAddr: 0x151A4, symBinAddr: 0x14BC4, symSize: 0x8C6 }
  - { offset: 0x9C5A7, size: 0x8, addend: 0x0, symName: '__ZN14powersync_core4sync4line1_89_$LT$impl$u20$serde..de..Deserialize$u20$for$u20$powersync_core..sync..line..DataLine$GT$11deserialize17hed1ae0844d406f7cE', symObjAddr: 0x15D84, symBinAddr: 0x157A4, symSize: 0x7E6 }
  - { offset: 0x9CC3C, size: 0x8, addend: 0x0, symName: '__ZN14powersync_core4sync4line1_87_$LT$impl$u20$serde..de..Deserialize$u20$for$u20$powersync_core..sync..line..OpType$GT$11deserialize17h4d583bb0069c8f2dE', symObjAddr: 0x166D4, symBinAddr: 0x160F4, symSize: 0x698 }
  - { offset: 0x9D484, size: 0x8, addend: 0x0, symName: '__ZN14powersync_core4sync4line1_87_$LT$impl$u20$serde..de..Deserialize$u20$for$u20$powersync_core..sync..line..OpType$GT$11deserialize17hb1df1ca64eafe129E', symObjAddr: 0x16D6C, symBinAddr: 0x1678C, symSize: 0x200 }
  - { offset: 0x9DAE5, size: 0x8, addend: 0x0, symName: '__ZN147_$LT$$LT$powersync_core..sync..line..SyncLine$u20$as$u20$serde..de..Deserialize$GT$..deserialize..SyncLineVisitor$u20$as$u20$serde..de..Visitor$GT$10visit_enum17h110a9bf9a9a28813E', symObjAddr: 0x11AAA, symBinAddr: 0x114CA, symSize: 0x3246 }
  - { offset: 0xA26DD, size: 0x8, addend: 0x0, symName: '__ZN99_$LT$powersync_core..sync..line..StreamSubscriptionErrorCause$u20$as$u20$serde..de..Deserialize$GT$11deserialize17hb43e90ed03fe4823E', symObjAddr: 0x14CF0, symBinAddr: 0x14710, symSize: 0x228 }
  - { offset: 0xA297C, size: 0x8, addend: 0x0, symName: '__ZN99_$LT$powersync_core..sync..line..StreamSubscriptionErrorCause$u20$as$u20$serde..de..Deserialize$GT$11deserialize17he0407585f57c288bE', symObjAddr: 0x14F18, symBinAddr: 0x14938, symSize: 0x28C }
  - { offset: 0xA3AD7, size: 0x8, addend: 0x0, symName: __ZN14powersync_core4diff14powersync_diff17h4e7ee0e63aa658deE, symObjAddr: 0x10B45, symBinAddr: 0x10565, symSize: 0xC03 }
  - { offset: 0xA558C, size: 0x8, addend: 0x0, symName: __ZN5serde2de7Visitor10visit_bool17hef8aba2ccd5c48a9E, symObjAddr: 0x10065, symBinAddr: 0x4E955, symSize: 0x39 }
  - { offset: 0xA55DC, size: 0x8, addend: 0x0, symName: __ZN5serde2de7Visitor11visit_bytes17h07b5cba04c22b166E, symObjAddr: 0x1009E, symBinAddr: 0x4E98E, symSize: 0x3D }
  - { offset: 0xA562C, size: 0x8, addend: 0x0, symName: __ZN5serde2de7Visitor11visit_bytes17h162cfe39d79b7d79E, symObjAddr: 0x100DB, symBinAddr: 0x4E9CB, symSize: 0x43 }
  - { offset: 0xA567C, size: 0x8, addend: 0x0, symName: __ZN5serde2de7Visitor11visit_bytes17h32b2556fff6b3d01E, symObjAddr: 0x1011E, symBinAddr: 0x4EA0E, symSize: 0x43 }
  - { offset: 0xA56CC, size: 0x8, addend: 0x0, symName: __ZN5serde2de7Visitor11visit_bytes17h3b4eccbb603de0ecE, symObjAddr: 0x10161, symBinAddr: 0x4EA51, symSize: 0x39 }
  - { offset: 0xA571C, size: 0x8, addend: 0x0, symName: __ZN5serde2de7Visitor11visit_bytes17h5b06767d94257b04E, symObjAddr: 0x1019A, symBinAddr: 0x4EA8A, symSize: 0x3C }
  - { offset: 0xA576C, size: 0x8, addend: 0x0, symName: __ZN5serde2de7Visitor11visit_bytes17h7d0b695afd700d56E, symObjAddr: 0x101D6, symBinAddr: 0x4EAC6, symSize: 0x43 }
  - { offset: 0xA57BC, size: 0x8, addend: 0x0, symName: __ZN5serde2de7Visitor11visit_bytes17h8b2484ed034f5728E, symObjAddr: 0x10219, symBinAddr: 0x4EB09, symSize: 0x30 }
  - { offset: 0xA580C, size: 0x8, addend: 0x0, symName: __ZN5serde2de7Visitor11visit_bytes17h95582303e7ab908dE, symObjAddr: 0x10249, symBinAddr: 0x4EB39, symSize: 0x3C }
  - { offset: 0xA585C, size: 0x8, addend: 0x0, symName: __ZN5serde2de7Visitor11visit_bytes17hda4fb388b4541815E, symObjAddr: 0x10285, symBinAddr: 0x4EB75, symSize: 0x3D }
  - { offset: 0xA58AC, size: 0x8, addend: 0x0, symName: __ZN5serde2de7Visitor11visit_bytes17hda8dab3fa9a9fc04E, symObjAddr: 0x102C2, symBinAddr: 0x4EBB2, symSize: 0x3D }
  - { offset: 0xA58FC, size: 0x8, addend: 0x0, symName: __ZN5serde2de7Visitor11visit_bytes17hdd1a2e44041b0733E, symObjAddr: 0x102FF, symBinAddr: 0x4EBEF, symSize: 0x3D }
  - { offset: 0xA594C, size: 0x8, addend: 0x0, symName: __ZN5serde2de7Visitor11visit_bytes17he0b77468cf5f3605E, symObjAddr: 0x1033C, symBinAddr: 0x4EC2C, symSize: 0x3D }
  - { offset: 0xA599C, size: 0x8, addend: 0x0, symName: __ZN5serde2de7Visitor11visit_bytes17he4c98bce2e96d2f7E, symObjAddr: 0x10379, symBinAddr: 0x4EC69, symSize: 0x3D }
  - { offset: 0xA59EC, size: 0x8, addend: 0x0, symName: __ZN5serde2de7Visitor9visit_i6417h6f424747ebd74470E, symObjAddr: 0x103B6, symBinAddr: 0x4ECA6, symSize: 0x38 }
  - { offset: 0xA5A3C, size: 0x8, addend: 0x0, symName: __ZN5serde2de7Visitor9visit_i6417h02d9caa016c8ed8cE, symObjAddr: 0x103EE, symBinAddr: 0x4ECDE, symSize: 0x39 }
  - { offset: 0xA5A8C, size: 0x8, addend: 0x0, symName: __ZN5serde2de7Visitor9visit_i6417h87e01f66fa54f199E, symObjAddr: 0x10427, symBinAddr: 0x4ED17, symSize: 0x3F }
  - { offset: 0xA5ADC, size: 0x8, addend: 0x0, symName: __ZN5serde2de7Visitor9visit_i6417h88502877fc3809f7E, symObjAddr: 0x10466, symBinAddr: 0x4ED56, symSize: 0x35 }
  - { offset: 0xA5B2C, size: 0x8, addend: 0x0, symName: __ZN5serde2de7Visitor9visit_i6417hc630066d67ed37c0E, symObjAddr: 0x1049B, symBinAddr: 0x4ED8B, symSize: 0x2C }
  - { offset: 0xA5B7C, size: 0x8, addend: 0x0, symName: __ZN5serde2de7Visitor9visit_i6417h33c6b85669e1e5bfE, symObjAddr: 0x104C7, symBinAddr: 0x4EDB7, symSize: 0x35 }
  - { offset: 0xA5BCC, size: 0x8, addend: 0x0, symName: __ZN5serde2de7Visitor9visit_i6417h653dc0c1f78cf40fE, symObjAddr: 0x104FC, symBinAddr: 0x4EDEC, symSize: 0x39 }
  - { offset: 0xA5C1C, size: 0x8, addend: 0x0, symName: __ZN5serde2de7Visitor9visit_i6417h316b0319dbbcdafbE, symObjAddr: 0x10535, symBinAddr: 0x4EE25, symSize: 0x3F }
  - { offset: 0xA5C6C, size: 0x8, addend: 0x0, symName: __ZN5serde2de7Visitor9visit_i6417heeb922740bb981afE, symObjAddr: 0x10574, symBinAddr: 0x4EE64, symSize: 0x35 }
  - { offset: 0xA5CBC, size: 0x8, addend: 0x0, symName: __ZN5serde2de7Visitor9visit_i6417he17afd601b4c09f8E, symObjAddr: 0x105A9, symBinAddr: 0x4EE99, symSize: 0x35 }
  - { offset: 0xA5D0C, size: 0x8, addend: 0x0, symName: __ZN5serde2de7Visitor9visit_i6417h4fb22e5ecaa83451E, symObjAddr: 0x105DE, symBinAddr: 0x4EECE, symSize: 0x39 }
  - { offset: 0xA5D5C, size: 0x8, addend: 0x0, symName: __ZN5serde2de7Visitor9visit_i6417h05423b2e707f215aE, symObjAddr: 0x10617, symBinAddr: 0x4EF07, symSize: 0x35 }
  - { offset: 0xA5DAD, size: 0x8, addend: 0x0, symName: __ZN5serde2de7Visitor9visit_i6417h6b78561bb11e3ea2E, symObjAddr: 0x1064C, symBinAddr: 0x4EF3C, symSize: 0x3F }
  - { offset: 0xA5DFD, size: 0x8, addend: 0x0, symName: __ZN5serde2de7Visitor9visit_i6417h462efd28f7be0770E, symObjAddr: 0x1068B, symBinAddr: 0x4EF7B, symSize: 0x38 }
  - { offset: 0xA5E4D, size: 0x8, addend: 0x0, symName: __ZN5serde2de7Visitor9visit_i6417hebdc39a4c89150f2E, symObjAddr: 0x106C3, symBinAddr: 0x4EFB3, symSize: 0x35 }
  - { offset: 0xA5E9D, size: 0x8, addend: 0x0, symName: __ZN5serde2de7Visitor9visit_i6417hdac2ff8f83de7218E, symObjAddr: 0x106F8, symBinAddr: 0x4EFE8, symSize: 0x35 }
  - { offset: 0xA5EED, size: 0x8, addend: 0x0, symName: __ZN5serde2de7Visitor9visit_i6417hb1ae90ba6df66b9fE, symObjAddr: 0x1072D, symBinAddr: 0x4F01D, symSize: 0x39 }
  - { offset: 0xA5F3D, size: 0x8, addend: 0x0, symName: __ZN5serde2de7Visitor9visit_i6417hddfb51c860b25bc7E, symObjAddr: 0x10766, symBinAddr: 0x4F056, symSize: 0x2C }
  - { offset: 0xA5F8D, size: 0x8, addend: 0x0, symName: __ZN5serde2de7Visitor9visit_i6417hec01b215c74dd591E, symObjAddr: 0x10792, symBinAddr: 0x4F082, symSize: 0x35 }
  - { offset: 0xA5FDD, size: 0x8, addend: 0x0, symName: __ZN5serde2de7Visitor9visit_i6417h77c01da9a704ab1cE, symObjAddr: 0x107C7, symBinAddr: 0x4F0B7, symSize: 0x39 }
  - { offset: 0xA602D, size: 0x8, addend: 0x0, symName: __ZN5serde2de7Visitor9visit_i6417h51130f4088d71d29E, symObjAddr: 0x10800, symBinAddr: 0x4F0F0, symSize: 0x35 }
  - { offset: 0xA607D, size: 0x8, addend: 0x0, symName: __ZN5serde2de7Visitor9visit_i6417hfce90d6494d43005E, symObjAddr: 0x10835, symBinAddr: 0x4F125, symSize: 0x35 }
  - { offset: 0xA60CD, size: 0x8, addend: 0x0, symName: __ZN5serde2de7Visitor9visit_str17h06511d42ef514705E, symObjAddr: 0x1086A, symBinAddr: 0x4F15A, symSize: 0x43 }
  - { offset: 0xA611D, size: 0x8, addend: 0x0, symName: __ZN5serde2de7Visitor9visit_str17h08a71f3078aaf60eE, symObjAddr: 0x108AD, symBinAddr: 0x4F19D, symSize: 0x3D }
  - { offset: 0xA616D, size: 0x8, addend: 0x0, symName: __ZN5serde2de7Visitor9visit_str17h12dd905add2c1740E, symObjAddr: 0x108EA, symBinAddr: 0x4F1DA, symSize: 0x3D }
  - { offset: 0xA61BD, size: 0x8, addend: 0x0, symName: __ZN5serde2de7Visitor9visit_str17h2b5b785242a2df08E, symObjAddr: 0x10927, symBinAddr: 0x4F217, symSize: 0x43 }
  - { offset: 0xA620D, size: 0x8, addend: 0x0, symName: __ZN5serde2de7Visitor9visit_str17h2ddf094425122f4aE, symObjAddr: 0x1096A, symBinAddr: 0x4F25A, symSize: 0x3C }
  - { offset: 0xA625D, size: 0x8, addend: 0x0, symName: __ZN5serde2de7Visitor9visit_str17h369bd49eb301ca63E, symObjAddr: 0x109A6, symBinAddr: 0x4F296, symSize: 0x3C }
  - { offset: 0xA62AD, size: 0x8, addend: 0x0, symName: __ZN5serde2de7Visitor9visit_str17h3bde1e120f2cf0e1E, symObjAddr: 0x109E2, symBinAddr: 0x4F2D2, symSize: 0x3D }
  - { offset: 0xA62FD, size: 0x8, addend: 0x0, symName: __ZN5serde2de7Visitor9visit_str17h52b31aeaaa3c6ff0E, symObjAddr: 0x10A1F, symBinAddr: 0x4F30F, symSize: 0x3D }
  - { offset: 0xA634D, size: 0x8, addend: 0x0, symName: __ZN5serde2de7Visitor9visit_str17hae1ecc004f1f444bE, symObjAddr: 0x10A5C, symBinAddr: 0x4F34C, symSize: 0x39 }
  - { offset: 0xA639D, size: 0x8, addend: 0x0, symName: __ZN5serde2de7Visitor9visit_str17hb89dae19a406235bE, symObjAddr: 0x10A95, symBinAddr: 0x4F385, symSize: 0x3D }
  - { offset: 0xA63ED, size: 0x8, addend: 0x0, symName: __ZN5serde2de7Visitor9visit_str17hbd123ad21d93c955E, symObjAddr: 0x10AD2, symBinAddr: 0x4F3C2, symSize: 0x43 }
  - { offset: 0xA643D, size: 0x8, addend: 0x0, symName: __ZN5serde2de7Visitor9visit_str17hfa7a5c837399a7d6E, symObjAddr: 0x10B15, symBinAddr: 0x4F405, symSize: 0x30 }
  - { offset: 0xA81EF, size: 0x8, addend: 0x0, symName: '__ZN41_$LT$T$u20$as$u20$serde..de..Expected$GT$3fmt17h06553a2d63b4296eE', symObjAddr: 0xE91C, symBinAddr: 0xEE1C, symSize: 0x23 }
  - { offset: 0xA8267, size: 0x8, addend: 0x0, symName: '__ZN41_$LT$T$u20$as$u20$serde..de..Expected$GT$3fmt17h15bb326eec0809fdE', symObjAddr: 0xE93F, symBinAddr: 0xEE3F, symSize: 0x23 }
  - { offset: 0xA82DF, size: 0x8, addend: 0x0, symName: '__ZN41_$LT$T$u20$as$u20$serde..de..Expected$GT$3fmt17h1ff77eefc98b56d3E', symObjAddr: 0xE962, symBinAddr: 0xEE62, symSize: 0x42 }
  - { offset: 0xA8357, size: 0x8, addend: 0x0, symName: '__ZN41_$LT$T$u20$as$u20$serde..de..Expected$GT$3fmt17h287beef18ba701c0E', symObjAddr: 0xE9A4, symBinAddr: 0xEEA4, symSize: 0x23 }
  - { offset: 0xA83CF, size: 0x8, addend: 0x0, symName: '__ZN41_$LT$T$u20$as$u20$serde..de..Expected$GT$3fmt17h3566372a64f5b57eE', symObjAddr: 0xE9C7, symBinAddr: 0xEEC7, symSize: 0x42 }
  - { offset: 0xA8447, size: 0x8, addend: 0x0, symName: '__ZN41_$LT$T$u20$as$u20$serde..de..Expected$GT$3fmt17h35d3f313092687ecE', symObjAddr: 0xEA09, symBinAddr: 0xEF09, symSize: 0x23 }
  - { offset: 0xA84BF, size: 0x8, addend: 0x0, symName: '__ZN41_$LT$T$u20$as$u20$serde..de..Expected$GT$3fmt17h3856213061272c8fE', symObjAddr: 0xEA2C, symBinAddr: 0xEF2C, symSize: 0x23 }
  - { offset: 0xA8537, size: 0x8, addend: 0x0, symName: '__ZN41_$LT$T$u20$as$u20$serde..de..Expected$GT$3fmt17h41386963a61e2e15E', symObjAddr: 0xEA4F, symBinAddr: 0xEF4F, symSize: 0x23 }
  - { offset: 0xA85AF, size: 0x8, addend: 0x0, symName: '__ZN41_$LT$T$u20$as$u20$serde..de..Expected$GT$3fmt17h681054db4d96356bE', symObjAddr: 0xEA72, symBinAddr: 0xEF72, symSize: 0x42 }
  - { offset: 0xA8627, size: 0x8, addend: 0x0, symName: '__ZN41_$LT$T$u20$as$u20$serde..de..Expected$GT$3fmt17h7a669123b923e34aE', symObjAddr: 0xEAB4, symBinAddr: 0xEFB4, symSize: 0x23 }
  - { offset: 0xA869F, size: 0x8, addend: 0x0, symName: '__ZN41_$LT$T$u20$as$u20$serde..de..Expected$GT$3fmt17h99efed7242e93b6dE', symObjAddr: 0xEAD7, symBinAddr: 0xEFD7, symSize: 0x23 }
  - { offset: 0xA8717, size: 0x8, addend: 0x0, symName: '__ZN41_$LT$T$u20$as$u20$serde..de..Expected$GT$3fmt17hae7f9fce0898a523E', symObjAddr: 0xEAFA, symBinAddr: 0xEFFA, symSize: 0x23 }
  - { offset: 0xA8790, size: 0x8, addend: 0x0, symName: '__ZN41_$LT$T$u20$as$u20$serde..de..Expected$GT$3fmt17hc2644a768bffc4f6E', symObjAddr: 0xEB1D, symBinAddr: 0xF01D, symSize: 0x23 }
  - { offset: 0xA8809, size: 0x8, addend: 0x0, symName: '__ZN41_$LT$T$u20$as$u20$serde..de..Expected$GT$3fmt17hf4d62d0000d006deE', symObjAddr: 0xEB40, symBinAddr: 0xF040, symSize: 0x23 }
  - { offset: 0xAA45E, size: 0x8, addend: 0x0, symName: '__ZN4core6result19Result$LT$T$C$E$GT$7map_err17h4d651604dfc5351fE', symObjAddr: 0x11748, symBinAddr: 0x11168, symSize: 0x45 }
  - { offset: 0x1C9AA1, size: 0x8, addend: 0x0, symName: __ZN5alloc5alloc15exchange_malloc17hfa6ae3466b5796e3E.2903, symObjAddr: 0x4C8CC, symBinAddr: 0x4AFFC, symSize: 0x1E }
  - { offset: 0x1C9C59, size: 0x8, addend: 0x0, symName: '__ZN74_$LT$alloc..string..String$u20$as$u20$core..ops..index..Index$LT$I$GT$$GT$5index17hb9245835c10a9b33E', symObjAddr: 0x4D153, symBinAddr: 0x4B827, symSize: 0x2B }
  - { offset: 0x1C9C98, size: 0x8, addend: 0x0, symName: '__ZN74_$LT$alloc..string..String$u20$as$u20$core..ops..index..Index$LT$I$GT$$GT$5index17hb9245835c10a9b33E', symObjAddr: 0x4D153, symBinAddr: 0x4B827, symSize: 0x2B }
  - { offset: 0x1C9CB9, size: 0x8, addend: 0x0, symName: '__ZN74_$LT$alloc..string..String$u20$as$u20$core..ops..index..Index$LT$I$GT$$GT$5index17hb9245835c10a9b33E', symObjAddr: 0x4D153, symBinAddr: 0x4B827, symSize: 0x2B }
  - { offset: 0x1C9CF9, size: 0x8, addend: 0x0, symName: '__ZN74_$LT$alloc..string..String$u20$as$u20$core..ops..index..Index$LT$I$GT$$GT$5index17hb9245835c10a9b33E', symObjAddr: 0x4D153, symBinAddr: 0x4B827, symSize: 0x2B }
  - { offset: 0x1C9DF2, size: 0x8, addend: 0x0, symName: '__ZN74_$LT$alloc..string..String$u20$as$u20$core..ops..index..Index$LT$I$GT$$GT$5index17h82f6944429953a2bE', symObjAddr: 0x4D17E, symBinAddr: 0x4B852, symSize: 0x41 }
  - { offset: 0x1C9E31, size: 0x8, addend: 0x0, symName: '__ZN74_$LT$alloc..string..String$u20$as$u20$core..ops..index..Index$LT$I$GT$$GT$5index17h82f6944429953a2bE', symObjAddr: 0x4D17E, symBinAddr: 0x4B852, symSize: 0x41 }
  - { offset: 0x1C9E54, size: 0x8, addend: 0x0, symName: '__ZN74_$LT$alloc..string..String$u20$as$u20$core..ops..index..Index$LT$I$GT$$GT$5index17h82f6944429953a2bE', symObjAddr: 0x4D17E, symBinAddr: 0x4B852, symSize: 0x41 }
  - { offset: 0x1CA0C3, size: 0x8, addend: 0x0, symName: __ZN5alloc5alloc15exchange_malloc17hfa6ae3466b5796e3E.2903, symObjAddr: 0x4C8CC, symBinAddr: 0x4AFFC, symSize: 0x1E }
  - { offset: 0x1CAAA5, size: 0x8, addend: 0x0, symName: '__ZN4core3num62_$LT$impl$u20$core..str..traits..FromStr$u20$for$u20$usize$GT$8from_str17h792ebecc31c4ca49E', symObjAddr: 0x4D1BF, symBinAddr: 0x4B893, symSize: 0xB9 }
  - { offset: 0x1CC380, size: 0x8, addend: 0x0, symName: '__ZN61_$LT$serde_json..error..Error$u20$as$u20$serde..de..Error$GT$6custom17h21ec2c9c0f343653E', symObjAddr: 0x4CC48, symBinAddr: 0x50790, symSize: 0x2A }
  - { offset: 0x1CC45F, size: 0x8, addend: 0x0, symName: '__ZN61_$LT$serde_json..error..Error$u20$as$u20$serde..de..Error$GT$6custom17h9093cbb492133826E', symObjAddr: 0x4D278, symBinAddr: 0x507BC, symSize: 0x3C }
  - { offset: 0x1CC580, size: 0x8, addend: 0x0, symName: '__ZN61_$LT$serde_json..error..Error$u20$as$u20$serde..de..Error$GT$12invalid_type17h2aec33a3780ffbc9E', symObjAddr: 0x4D2B4, symBinAddr: 0x507F8, symSize: 0x81 }
  - { offset: 0x1CC5DE, size: 0x8, addend: 0x0, symName: '__ZN61_$LT$serde_json..error..Error$u20$as$u20$serde..de..Error$GT$13invalid_value17hccb779d8ceea92b8E', symObjAddr: 0x4D441, symBinAddr: 0x50879, symSize: 0x81 }
  - { offset: 0x1CC642, size: 0x8, addend: 0x0, symName: '__ZN67_$LT$serde_json..error..ErrorCode$u20$as$u20$core..fmt..Display$GT$3fmt17h85920a6b51692ba6E', symObjAddr: 0x4C91E, symBinAddr: 0x4B01A, symSize: 0x2B2 }
  - { offset: 0x1CC9C1, size: 0x8, addend: 0x0, symName: '__ZN67_$LT$serde_json..error..ErrorImpl$u20$as$u20$core..fmt..Display$GT$3fmt17hd84c2e35f058d97aE', symObjAddr: 0x4CBD0, symBinAddr: 0x4B2CC, symSize: 0x78 }
  - { offset: 0x1CCB0B, size: 0x8, addend: 0x0, symName: __ZN10serde_json5error10make_error17h27a1c0c48cdce453E, symObjAddr: 0x4CC72, symBinAddr: 0x4B346, symSize: 0x311 }
  - { offset: 0x1CD174, size: 0x8, addend: 0x0, symName: '__ZN72_$LT$serde_json..error..JsonUnexpected$u20$as$u20$core..fmt..Display$GT$3fmt17hc4ddb9fa9cd597cbE', symObjAddr: 0x4D335, symBinAddr: 0x4B94D, symSize: 0x10C }
  - { offset: 0x1CD654, size: 0x8, addend: 0x0, symName: __ZN10serde_json5error5Error12fix_position17h02faea3b05fd816cE, symObjAddr: 0x4C8EA, symBinAddr: 0x5075A, symSize: 0x34 }
  - { offset: 0x1CDA72, size: 0x8, addend: 0x0, symName: __ZN4core3str7pattern14TwoWaySearcher9next_back17h70dcf54af786cdd0E, symObjAddr: 0x4CF83, symBinAddr: 0x4B657, symSize: 0x1D0 }
  - { offset: 0x1F226, size: 0x8, addend: 0x0, symName: __ZN6memchr4arch6x86_646memchr11memrchr_raw6detect17h2947c7aa4fb3db19E, symObjAddr: 0x4937, symBinAddr: 0x4E83, symSize: 0x18 }
  - { offset: 0x1F25A, size: 0x8, addend: 0x0, symName: __ZN6memchr4arch6x86_646memchr11memrchr_raw2FN17h926724f316c72283E, symObjAddr: 0x5EE60, symBinAddr: 0x60088, symSize: 0x0 }
  - { offset: 0x1F267, size: 0x8, addend: 0x0, symName: __ZN6memchr4arch6x86_646memchr11memrchr_raw6detect17h2947c7aa4fb3db19E, symObjAddr: 0x4937, symBinAddr: 0x4E83, symSize: 0x18 }
  - { offset: 0x1F313, size: 0x8, addend: 0x0, symName: __ZN6memchr4arch6x86_646memchr11memrchr_raw9find_sse217h7faa0a55c2d049d9E, symObjAddr: 0x494F, symBinAddr: 0x4E9B, symSize: 0x174 }
  - { offset: 0x1FB52, size: 0x8, addend: 0x0, symName: __ZN6memchr4arch6x86_646memchr9count_raw2FN17h5dc1661d282dea8cE, symObjAddr: 0x5EE68, symBinAddr: 0x60090, symSize: 0x0 }
  - { offset: 0x1FB60, size: 0x8, addend: 0x0, symName: __ZN6memchr4arch6x86_646memchr9count_raw6detect17h7fb75fbae86c88efE, symObjAddr: 0x4AC3, symBinAddr: 0x500F, symSize: 0x18 }
  - { offset: 0x1FC0C, size: 0x8, addend: 0x0, symName: __ZN6memchr4arch6x86_646memchr9count_raw9find_sse217h11fb5a1c953d56beE, symObjAddr: 0x4ADB, symBinAddr: 0x5027, symSize: 0x239 }
  - { offset: 0x18D0D, size: 0x8, addend: 0x0, symName: __ZN4core3num7flt2dec8strategy6dragon9mul_pow1017hbe3a5146403aed72E, symObjAddr: 0x411A, symBinAddr: 0x4686, symSize: 0xDA }
  - { offset: 0x18D41, size: 0x8, addend: 0x0, symName: __ZN4core3num7flt2dec8strategy6dragon5POW1017h9864bcdaf9028ff3E, symObjAddr: 0x52FFC, symBinAddr: 0x51714, symSize: 0x0 }
  - { offset: 0x18D5C, size: 0x8, addend: 0x0, symName: __ZN4core3num7flt2dec8strategy6dragon8POW5TO1617h7d31e047277feb6fE, symObjAddr: 0x53024, symBinAddr: 0x5173C, symSize: 0x0 }
  - { offset: 0x18D77, size: 0x8, addend: 0x0, symName: __ZN4core3num7flt2dec8strategy6dragon8POW5TO3217h2a944344718f6d6aE, symObjAddr: 0x5302C, symBinAddr: 0x51744, symSize: 0x0 }
  - { offset: 0x18D92, size: 0x8, addend: 0x0, symName: __ZN4core3num7flt2dec8strategy6dragon8POW5TO6417h3991c3145ff97acbE, symObjAddr: 0x53038, symBinAddr: 0x51750, symSize: 0x0 }
  - { offset: 0x18DAD, size: 0x8, addend: 0x0, symName: __ZN4core3num7flt2dec8strategy6dragon9POW5TO12817h9f17e02f9ff49a0cE, symObjAddr: 0x5304C, symBinAddr: 0x51764, symSize: 0x0 }
  - { offset: 0x18DC8, size: 0x8, addend: 0x0, symName: __ZN4core3num7flt2dec8strategy6dragon9POW5TO25617h437dcca6f0ff7263E, symObjAddr: 0x53074, symBinAddr: 0x5178C, symSize: 0x0 }
  - { offset: 0x19056, size: 0x8, addend: 0x0, symName: __ZN4core3num7flt2dec8strategy6dragon9mul_pow1017hbe3a5146403aed72E, symObjAddr: 0x411A, symBinAddr: 0x4686, symSize: 0xDA }
  - { offset: 0x19253, size: 0x8, addend: 0x0, symName: __ZN4core7unicode12unicode_data15grapheme_extend17SHORT_OFFSET_RUNS17h3620b342bde3322aE, symObjAddr: 0x530C0, symBinAddr: 0x517D8, symSize: 0x0 }
  - { offset: 0x1926F, size: 0x8, addend: 0x0, symName: __ZN4core7unicode12unicode_data15grapheme_extend7OFFSETS17h957932a27b3f40caE, symObjAddr: 0x52D0D, symBinAddr: 0x51425, symSize: 0x0 }
  - { offset: 0x1927D, size: 0x8, addend: 0x0, symName: __ZN4core7unicode12unicode_data15grapheme_extend11lookup_slow17hd41a60dc96010350E, symObjAddr: 0x4240, symBinAddr: 0x47AC, symSize: 0xAA }
  - { offset: 0x197A2, size: 0x8, addend: 0x0, symName: __ZN4core3cmp10PartialOrd2ge17h7981a6ed6c2c1373E, symObjAddr: 0x41F4, symBinAddr: 0x4760, symSize: 0x10 }
  - { offset: 0x19A1F, size: 0x8, addend: 0x0, symName: '__ZN106_$LT$core..ops..range..Range$LT$usize$GT$$u20$as$u20$core..slice..index..SliceIndex$LT$$u5b$T$u5d$$GT$$GT$9index_mut17h98a4e920c36d609aE', symObjAddr: 0x4219, symBinAddr: 0x4785, symSize: 0x27 }
  - { offset: 0x19B39, size: 0x8, addend: 0x0, symName: '__ZN108_$LT$core..ops..range..RangeTo$LT$usize$GT$$u20$as$u20$core..slice..index..SliceIndex$LT$$u5b$T$u5d$$GT$$GT$9index_mut17hb104325c40abcb6fE.282', symObjAddr: 0x4204, symBinAddr: 0x4770, symSize: 0x15 }
  - { offset: 0x1D68B, size: 0x8, addend: 0x0, symName: __ZN4core3num9diy_float2Fp12normalize_to17h03f2534e13308e72E, symObjAddr: 0x4741, symBinAddr: 0x4C95, symSize: 0x46 }
  - { offset: 0x1D6D9, size: 0x8, addend: 0x0, symName: '__ZN87_$LT$core..str..lossy..Utf8Chunks$u20$as$u20$core..iter..traits..iterator..Iterator$GT$4next17hd01dfaf29a7d659eE', symObjAddr: 0x4787, symBinAddr: 0x4CDB, symSize: 0x19A }
  - { offset: 0x1EB6E, size: 0x8, addend: 0x0, symName: __ZN4core4cell22panic_already_borrowed17h502cf963f7e84ed2E, symObjAddr: 0x4921, symBinAddr: 0x4E8FD, symSize: 0x9 }
  - { offset: 0x1EF3C, size: 0x8, addend: 0x0, symName: __ZN4core3num9diy_float2Fp12normalize_to17h03f2534e13308e72E, symObjAddr: 0x4741, symBinAddr: 0x4C95, symSize: 0x46 }
  - { offset: 0x1F07E, size: 0x8, addend: 0x0, symName: __ZN4core3ffi5c_str4CStr6to_str17hfd1287cf1bf4977eE, symObjAddr: 0x492A, symBinAddr: 0x4E76, symSize: 0xD }
  - { offset: 0x1E73, size: 0x8, addend: 0x0, symName: '__ZN42_$LT$$RF$T$u20$as$u20$core..fmt..Debug$GT$3fmt17h72b11f3e7e8f5239E', symObjAddr: 0x17D, symBinAddr: 0x7BD, symSize: 0x1B6 }
  - { offset: 0x1E97, size: 0x8, addend: 0x0, symName: '__ZN42_$LT$$RF$T$u20$as$u20$core..fmt..Debug$GT$3fmt17h72b11f3e7e8f5239E', symObjAddr: 0x17D, symBinAddr: 0x7BD, symSize: 0x1B6 }
  - { offset: 0x2EC6, size: 0x8, addend: 0x0, symName: '__ZN132_$LT$alloc..vec..Vec$LT$T$C$A$GT$$u20$as$u20$alloc..vec..spec_extend..SpecExtend$LT$$RF$T$C$core..slice..iter..Iter$LT$T$GT$$GT$$GT$11spec_extend17hbe93796566fd0ad5E', symObjAddr: 0x425, symBinAddr: 0xA65, symSize: 0x45 }
  - { offset: 0x3465, size: 0x8, addend: 0x0, symName: __ZN5alloc3fmt6format12format_inner17h9900233c2f3e798cE, symObjAddr: 0x333, symBinAddr: 0x973, symSize: 0xA6 }
  - { offset: 0x3719, size: 0x8, addend: 0x0, symName: '__ZN5alloc5slice29_$LT$impl$u20$$u5b$T$u5d$$GT$9to_vec_in17h338682fcc3cd803fE', symObjAddr: 0x495, symBinAddr: 0xAD5, symSize: 0x5D }
  - { offset: 0x3B8F, size: 0x8, addend: 0x0, symName: '__ZN5alloc3vec16Vec$LT$T$C$A$GT$16with_capacity_in17hb521b08048e4df81E', symObjAddr: 0x3D9, symBinAddr: 0xA19, symSize: 0x4C }
  - { offset: 0x3E37, size: 0x8, addend: 0x0, symName: '__ZN5alloc3vec16Vec$LT$T$C$A$GT$7reserve17h3732144779c8f159E', symObjAddr: 0x46A, symBinAddr: 0xAAA, symSize: 0x2B }
  - { offset: 0x40EB, size: 0x8, addend: 0x0, symName: '__ZN5alloc3vec16Vec$LT$T$C$A$GT$16into_boxed_slice17h51f76aa602586f19E', symObjAddr: 0x4F2, symBinAddr: 0xB32, symSize: 0x5A }
  - { offset: 0xC26D0, size: 0x8, addend: 0x0, symName: '__ZN108_$LT$alloc..collections..btree..map..Iter$LT$K$C$V$GT$$u20$as$u20$core..iter..traits..iterator..Iterator$GT$4next17h3479f10f26bed824E', symObjAddr: 0x1B0D1, symBinAddr: 0x1AAF1, symSize: 0xE5 }
  - { offset: 0xC27EC, size: 0x8, addend: 0x0, symName: '__ZN99_$LT$core..array..iter..IntoIter$LT$T$C$_$GT$$u20$as$u20$core..iter..traits..iterator..Iterator$GT$4next17hd22ea89b938f621dE', symObjAddr: 0x1BC24, symBinAddr: 0x1B644, symSize: 0x29 }
  - { offset: 0xC2C9A, size: 0x8, addend: 0x0, symName: __ZN4core3cmp9PartialEq2ne17h4a9595e5d4e12cf0E, symObjAddr: 0x1B516, symBinAddr: 0x1AF36, symSize: 0xD }
  - { offset: 0xC70D0, size: 0x8, addend: 0x0, symName: '__ZN110_$LT$core..ops..range..RangeFrom$LT$usize$GT$$u20$as$u20$core..slice..index..SliceIndex$LT$$u5b$T$u5d$$GT$$GT$5index17h1bdc6b95f40459d5E.1029', symObjAddr: 0x1CD4B, symBinAddr: 0x1C76B, symSize: 0x1E }
  - { offset: 0xC7937, size: 0x8, addend: 0x0, symName: __ZN4core5slice4sort6shared9smallsort11insert_tail17h5ac39e25c489160aE, symObjAddr: 0x1B724, symBinAddr: 0x1B144, symSize: 0x9F }
  - { offset: 0xC7A9C, size: 0x8, addend: 0x0, symName: __ZN4core5slice4sort6shared9smallsort11insert_tail17ha07e9f65b404bb19E, symObjAddr: 0x1B7C3, symBinAddr: 0x1B1E3, symSize: 0x72 }
  - { offset: 0xC7BE4, size: 0x8, addend: 0x0, symName: __ZN4core5slice4sort6shared9smallsort12sort4_stable17h0b5a008e53711a4cE, symObjAddr: 0x1B850, symBinAddr: 0x1B270, symSize: 0x16F }
  - { offset: 0xC809C, size: 0x8, addend: 0x0, symName: __ZN4core5slice4sort6shared9smallsort12sort4_stable17h60076ec87e6d15eeE, symObjAddr: 0x1B9BF, symBinAddr: 0x1B3DF, symSize: 0x108 }
  - { offset: 0xC8381, size: 0x8, addend: 0x0, symName: __ZN4core5slice4sort6shared9smallsort12sort8_stable17h01f286db7decb15fE, symObjAddr: 0x1BAC7, symBinAddr: 0x1B4E7, symSize: 0x43 }
  - { offset: 0xC8514, size: 0x8, addend: 0x0, symName: __ZN4core5slice4sort6shared9smallsort19bidirectional_merge17h62c99fe02cb27967E, symObjAddr: 0x1BB0A, symBinAddr: 0x1B52A, symSize: 0x11A }
  - { offset: 0xCA25D, size: 0x8, addend: 0x0, symName: '__ZN4core4hash5impls52_$LT$impl$u20$core..hash..Hash$u20$for$u20$$RF$T$GT$4hash17ha692bd47af8bc299E', symObjAddr: 0x1CBC0, symBinAddr: 0x1C5E0, symSize: 0x18B }
  - { offset: 0xCB315, size: 0x8, addend: 0x0, symName: '__ZN92_$LT$powersync_core..sync..checkpoint..OwnedBucketChecksum$u20$as$u20$core..clone..Clone$GT$5clone17hf03a454f973c4828E', symObjAddr: 0x1CF49, symBinAddr: 0x1C969, symSize: 0x6E }
  - { offset: 0xCC93C, size: 0x8, addend: 0x0, symName: '__ZN110_$LT$alloc..collections..btree..map..Values$LT$K$C$V$GT$$u20$as$u20$core..iter..traits..iterator..Iterator$GT$4next17hdba11bdec7c3941cE', symObjAddr: 0x1B37D, symBinAddr: 0x1AD9D, symSize: 0x12 }
  - { offset: 0xCD225, size: 0x8, addend: 0x0, symName: '__ZN108_$LT$alloc..collections..btree..map..Iter$LT$K$C$V$GT$$u20$as$u20$core..iter..traits..iterator..Iterator$GT$4next17h3479f10f26bed824E', symObjAddr: 0x1B0D1, symBinAddr: 0x1AAF1, symSize: 0xE5 }
  - { offset: 0xCD844, size: 0x8, addend: 0x0, symName: '__ZN108_$LT$alloc..collections..btree..map..Iter$LT$K$C$V$GT$$u20$as$u20$core..iter..traits..iterator..Iterator$GT$4next17h35702926aa360574E', symObjAddr: 0x1B1B6, symBinAddr: 0x1ABD6, symSize: 0xE7 }
  - { offset: 0xCDE78, size: 0x8, addend: 0x0, symName: '__ZN108_$LT$alloc..collections..btree..map..Iter$LT$K$C$V$GT$$u20$as$u20$core..iter..traits..iterator..Iterator$GT$4next17hc489981fa151ff81E', symObjAddr: 0x1B29D, symBinAddr: 0x1ACBD, symSize: 0xE0 }
  - { offset: 0xCE82F, size: 0x8, addend: 0x0, symName: '__ZN99_$LT$alloc..collections..btree..map..BTreeMap$LT$K$C$V$C$A$GT$$u20$as$u20$core..ops..drop..Drop$GT$4drop17h620b218e77b227b7E', symObjAddr: 0x1BC99, symBinAddr: 0x1B6B9, symSize: 0x55 }
  - { offset: 0xCE949, size: 0x8, addend: 0x0, symName: '__ZN99_$LT$alloc..collections..btree..map..BTreeMap$LT$K$C$V$C$A$GT$$u20$as$u20$core..ops..drop..Drop$GT$4drop17h103a668a13a26d46E', symObjAddr: 0x1CFB7, symBinAddr: 0x1C9D7, symSize: 0x1DE }
  - { offset: 0xCF124, size: 0x8, addend: 0x0, symName: '__ZN99_$LT$alloc..collections..btree..map..BTreeMap$LT$K$C$V$C$A$GT$$u20$as$u20$core..ops..drop..Drop$GT$4drop17h320bfabb0df2dc7aE', symObjAddr: 0x1D195, symBinAddr: 0x1CBB5, symSize: 0x1D3 }
  - { offset: 0xCF918, size: 0x8, addend: 0x0, symName: '__ZN99_$LT$alloc..collections..btree..map..BTreeMap$LT$K$C$V$C$A$GT$$u20$as$u20$core..ops..drop..Drop$GT$4drop17h526133f6138e7322E', symObjAddr: 0x1D368, symBinAddr: 0x1CD88, symSize: 0x184 }
  - { offset: 0xCFEE7, size: 0x8, addend: 0x0, symName: '__ZN99_$LT$alloc..collections..btree..map..BTreeMap$LT$K$C$V$C$A$GT$$u20$as$u20$core..ops..drop..Drop$GT$4drop17hc9bacf7373857f8cE', symObjAddr: 0x1D4EC, symBinAddr: 0x1CF0C, symSize: 0x1A1 }
  - { offset: 0xD0602, size: 0x8, addend: 0x0, symName: '__ZN99_$LT$alloc..collections..btree..map..IntoIter$LT$K$C$V$C$A$GT$$u20$as$u20$core..ops..drop..Drop$GT$4drop17hcd26831a6cfeb9a5E', symObjAddr: 0x1BCEE, symBinAddr: 0x1B70E, symSize: 0x45 }
  - { offset: 0xD0D93, size: 0x8, addend: 0x0, symName: '__ZN96_$LT$alloc..collections..btree..map..BTreeMap$LT$K$C$V$C$A$GT$$u20$as$u20$core..clone..Clone$GT$5clone13clone_subtree17h683bf39c111f9c12E', symObjAddr: 0x1CD69, symBinAddr: 0x1C789, symSize: 0x1E0 }
  - { offset: 0xD430C, size: 0x8, addend: 0x0, symName: '__ZN5alloc5slice29_$LT$impl$u20$$u5b$T$u5d$$GT$11sort_by_key28_$u7b$$u7b$closure$u7d$$u7d$17h0d59735c8e90aa4fE.994', symObjAddr: 0x1B835, symBinAddr: 0x1B255, symSize: 0x1B }
  - { offset: 0xD4913, size: 0x8, addend: 0x0, symName: '__ZN65_$LT$serde_json..value..Value$u20$as$u20$core..cmp..PartialEq$GT$2eq17he3103a7ef4174614E', symObjAddr: 0x1B523, symBinAddr: 0x1AF43, symSize: 0x201 }
  - { offset: 0xD652E, size: 0x8, addend: 0x0, symName: '__ZN5alloc11collections5btree3map25IntoIter$LT$K$C$V$C$A$GT$10dying_next17hefc126d01c7ee045E', symObjAddr: 0x1B38F, symBinAddr: 0x1ADAF, symSize: 0x187 }
  - { offset: 0xD6ED8, size: 0x8, addend: 0x0, symName: '__ZN5alloc11collections5btree3map25BTreeMap$LT$K$C$V$C$A$GT$16extract_if_inner17h73f579c8899d25f8E', symObjAddr: 0x1BC4D, symBinAddr: 0x1B66D, symSize: 0x4C }
  - { offset: 0xD6EFB, size: 0x8, addend: 0x0, symName: '__ZN5alloc11collections5btree3map25BTreeMap$LT$K$C$V$C$A$GT$16extract_if_inner17h73f579c8899d25f8E', symObjAddr: 0x1BC4D, symBinAddr: 0x1B66D, symSize: 0x4C }
  - { offset: 0xD6F19, size: 0x8, addend: 0x0, symName: '__ZN5alloc11collections5btree3map25BTreeMap$LT$K$C$V$C$A$GT$16extract_if_inner17h73f579c8899d25f8E', symObjAddr: 0x1BC4D, symBinAddr: 0x1B66D, symSize: 0x4C }
  - { offset: 0xD7313, size: 0x8, addend: 0x0, symName: '__ZN5alloc11collections5btree3map25BTreeMap$LT$K$C$V$C$A$GT$6insert17hbcbbd1538ab2e0a0E', symObjAddr: 0x1BD33, symBinAddr: 0x1B753, symSize: 0x6C2 }
  - { offset: 0xD85E2, size: 0x8, addend: 0x0, symName: '__ZN5alloc11collections5btree3map25BTreeMap$LT$K$C$V$C$A$GT$6insert17hde2d2cff0fcfecb9E', symObjAddr: 0x1C3F5, symBinAddr: 0x1BE15, symSize: 0x71A }
  - { offset: 0xD9C94, size: 0x8, addend: 0x0, symName: '__ZN5alloc11collections5btree3map25BTreeMap$LT$K$C$V$C$A$GT$7get_mut17h292da2b34e9db219E', symObjAddr: 0x1CB0F, symBinAddr: 0x1C52F, symSize: 0xB1 }
  - { offset: 0xD9CC7, size: 0x8, addend: 0x0, symName: '__ZN5alloc11collections5btree3map25BTreeMap$LT$K$C$V$C$A$GT$7get_mut17h292da2b34e9db219E', symObjAddr: 0x1CB0F, symBinAddr: 0x1C52F, symSize: 0xB1 }
  - { offset: 0xDAA23, size: 0x8, addend: 0x0, symName: __ZN14powersync_core4bson6parser6Parser5error17h2394f2f5029f96adE, symObjAddr: 0x1D68D, symBinAddr: 0x4F435, symSize: 0x1A }
  - { offset: 0xDAB99, size: 0x8, addend: 0x0, symName: __ZN14powersync_core4bson6parser6Parser10read_int3217h0cbd3c5fafb5a312E, symObjAddr: 0x1D6A7, symBinAddr: 0x1D0AF, symSize: 0x52 }
  - { offset: 0xDAD66, size: 0x8, addend: 0x0, symName: __ZN14powersync_core4bson6parser6Parser15advance_checked17hb3a5970e8d0381c1E, symObjAddr: 0x1D6F9, symBinAddr: 0x1D101, symSize: 0x59 }
  - { offset: 0xDAEBB, size: 0x8, addend: 0x0, symName: __ZN14powersync_core4bson6parser6Parser10read_int6417h4dfe0ed3d27adf96E, symObjAddr: 0x1D752, symBinAddr: 0x1D15A, symSize: 0x19 }
  - { offset: 0xDAF80, size: 0x8, addend: 0x0, symName: __ZN14powersync_core4bson6parser6Parser13advance_bytes17h6435f50950460adaE, symObjAddr: 0x1D76B, symBinAddr: 0x1D173, symSize: 0x46 }
  - { offset: 0xDB08D, size: 0x8, addend: 0x0, symName: __ZN14powersync_core4bson6parser6Parser11read_double17h9e1dd2bef2d5ab48E, symObjAddr: 0x1D7B1, symBinAddr: 0x1D1B9, symSize: 0x33 }
  - { offset: 0xDB145, size: 0x8, addend: 0x0, symName: __ZN14powersync_core4bson6parser6Parser9read_bool17h9ca33b2f50316f38E, symObjAddr: 0x1D7E4, symBinAddr: 0x1D1EC, symSize: 0x41 }
  - { offset: 0xDB261, size: 0x8, addend: 0x0, symName: __ZN14powersync_core4bson6parser6Parser12advance_byte17hc31488489e1250bcE, symObjAddr: 0x1D825, symBinAddr: 0x1D22D, symSize: 0x5B }
  - { offset: 0xDB387, size: 0x8, addend: 0x0, symName: __ZN14powersync_core4bson6parser6Parser14read_object_id17hfdc6e60a8e20b6eeE, symObjAddr: 0x1D880, symBinAddr: 0x1D288, symSize: 0x14 }
  - { offset: 0xDB409, size: 0x8, addend: 0x0, symName: __ZN14powersync_core4bson6parser6Parser11read_string17h65f66f4028dad157E, symObjAddr: 0x1D894, symBinAddr: 0x1D29C, symSize: 0xCA }
  - { offset: 0xDB645, size: 0x8, addend: 0x0, symName: __ZN14powersync_core4bson6parser6Parser11read_length17h98fa8956454ea948E, symObjAddr: 0x1D95E, symBinAddr: 0x1D366, symSize: 0x5F }
  - { offset: 0xDB6D8, size: 0x8, addend: 0x0, symName: __ZN14powersync_core4bson6parser6Parser11read_binary17h25277655b0408a1fE, symObjAddr: 0x1D9BD, symBinAddr: 0x1D3C5, symSize: 0x8C }
  - { offset: 0xDB7FF, size: 0x8, addend: 0x0, symName: __ZN14powersync_core4bson6parser6Parser9subreader17h3e9b6eeb08c7b303E, symObjAddr: 0x1DA49, symBinAddr: 0x1D451, symSize: 0x42 }
  - { offset: 0xDB8E9, size: 0x8, addend: 0x0, symName: __ZN14powersync_core4bson6parser6Parser13skip_document17h175d0569ffff90f7E, symObjAddr: 0x1DA8B, symBinAddr: 0x1D493, symSize: 0x8C }
  - { offset: 0x165D29, size: 0x8, addend: 0x0, symName: '__ZN4core3ptr115drop_in_place$LT$powersync_core..sync..streaming_sync..StreamingSyncIteration..run..$u7b$$u7b$closure$u7d$$u7d$$GT$17h4aa91b16d296a085E', symObjAddr: 0x37CDE, symBinAddr: 0x36C4E, symSize: 0x46 }
  - { offset: 0x165ECC, size: 0x8, addend: 0x0, symName: '__ZN14powersync_core4sync14streaming_sync22StreamingSyncIteration3run28_$u7b$$u7b$closure$u7d$$u7d$17h232d18ada7ae9cf4E', symObjAddr: 0x37D24, symBinAddr: 0x36C94, symSize: 0x4B70 }
  - { offset: 0x16E6E8, size: 0x8, addend: 0x0, symName: '__ZN105_$LT$powersync_core..sync..streaming_sync..RequestedStreamSubscriptions$u20$as$u20$core..clone..Clone$GT$5clone17hd19d425fd988ab35E', symObjAddr: 0x3CC69, symBinAddr: 0x3BBD9, symSize: 0x18 }
  - { offset: 0x16E82D, size: 0x8, addend: 0x0, symName: '__ZN92_$LT$powersync_core..sync..streaming_sync..OwnedCheckpoint$u20$as$u20$core..clone..Clone$GT$5clone17ha80e4c054976a34bE', symObjAddr: 0x3E840, symBinAddr: 0x3D7B0, symSize: 0x5E }
  - { offset: 0x1724FD, size: 0x8, addend: 0x0, symName: '__ZN67_$LT$alloc..rc..Rc$LT$T$C$A$GT$$u20$as$u20$core..cmp..PartialEq$GT$2ne17h55ec69b57078dea8E', symObjAddr: 0x3CA90, symBinAddr: 0x3BA00, symSize: 0xC6 }
  - { offset: 0x173916, size: 0x8, addend: 0x0, symName: '__ZN4core3ptr115drop_in_place$LT$powersync_core..sync..streaming_sync..StreamingSyncIteration..run..$u7b$$u7b$closure$u7d$$u7d$$GT$17h4aa91b16d296a085E', symObjAddr: 0x37CDE, symBinAddr: 0x36C4E, symSize: 0x46 }
  - { offset: 0x173A67, size: 0x8, addend: 0x0, symName: '__ZN4core3ptr87drop_in_place$LT$powersync_core..sync..streaming_sync..RequestedStreamSubscriptions$GT$17h919534d37e6983d2E', symObjAddr: 0x3C894, symBinAddr: 0x3B804, symSize: 0x2D }
  - { offset: 0x173CE9, size: 0x8, addend: 0x0, symName: '__ZN4core3ptr69drop_in_place$LT$powersync_core..sync..streaming_sync..SyncTarget$GT$17h77307a9be951732aE', symObjAddr: 0x3C904, symBinAddr: 0x3B874, symSize: 0x38 }
  - { offset: 0x173E50, size: 0x8, addend: 0x0, symName: '__ZN4core3ptr57drop_in_place$LT$powersync_core..sync..line..SyncLine$GT$17he37d6cb9cbe1b1afE.2317', symObjAddr: 0x3C93C, symBinAddr: 0x3B8AC, symSize: 0x9E }
  - { offset: 0x1740AF, size: 0x8, addend: 0x0, symName: '__ZN4core3ptr86drop_in_place$LT$core..option..Option$LT$powersync_core..error..PowerSyncError$GT$$GT$17h733982399426b4ceE', symObjAddr: 0x3C9DA, symBinAddr: 0x3B94A, symSize: 0xB6 }
  - { offset: 0x1742DC, size: 0x8, addend: 0x0, symName: '__ZN4core3ptr81drop_in_place$LT$powersync_core..sync..streaming_sync..StreamingSyncIteration$GT$17h4dccf69e7fd29fbdE', symObjAddr: 0x3CB56, symBinAddr: 0x3BAC6, symSize: 0x70 }
  - { offset: 0x1745B9, size: 0x8, addend: 0x0, symName: '__ZN4core3ptr69drop_in_place$LT$powersync_core..sync..interface..StartSyncStream$GT$17h6cda0b681926ab7aE.2320', symObjAddr: 0x3CBC6, symBinAddr: 0x3BB36, symSize: 0x5E }
  - { offset: 0x1746DE, size: 0x8, addend: 0x0, symName: '__ZN4core3ptr102drop_in_place$LT$core..option..Option$LT$powersync_core..sync..streaming_sync..OwnedCheckpoint$GT$$GT$17h2b2834b37a54d977E', symObjAddr: 0x3CC24, symBinAddr: 0x3BB94, symSize: 0x15 }
  - { offset: 0x174789, size: 0x8, addend: 0x0, symName: '__ZN4core3ptr102drop_in_place$LT$core..option..Option$LT$powersync_core..sync..checkpoint..OwnedBucketChecksum$GT$$GT$17h5b848a30dc44f66eE', symObjAddr: 0x3CC39, symBinAddr: 0x3BBA9, symSize: 0x30 }
  - { offset: 0x174A22, size: 0x8, addend: 0x0, symName: '__ZN4core3ptr76drop_in_place$LT$powersync_core..sync..streaming_sync..TrackedCheckpoint$GT$17hbbbc970d00cd89d3E', symObjAddr: 0x3E89E, symBinAddr: 0x3D80E, symSize: 0x6D }
  - { offset: 0x174BF8, size: 0x8, addend: 0x0, symName: '__ZN4core3ptr76drop_in_place$LT$powersync_core..sync..storage_adapter..CheckpointResult$GT$17ha9df4e6327a3a4c1E', symObjAddr: 0x3FCCC, symBinAddr: 0x3EC3C, symSize: 0x29 }
  - { offset: 0x174C67, size: 0x8, addend: 0x0, symName: '__ZN4core3ptr75drop_in_place$LT$powersync_core..sync..storage_adapter..SyncLocalResult$GT$17h262aa4cb87d44ab1E', symObjAddr: 0x3FDA6, symBinAddr: 0x3ED16, symSize: 0x1B }
  - { offset: 0x174CB5, size: 0x8, addend: 0x0, symName: '__ZN4core3ptr70drop_in_place$LT$powersync_core..sync..streaming_sync..ActiveEvent$GT$17h2c776fbaabe0f96fE', symObjAddr: 0x3FFD9, symBinAddr: 0x3EF49, symSize: 0x30 }
  - { offset: 0x174CE6, size: 0x8, addend: 0x0, symName: '__ZN4core3ptr63drop_in_place$LT$powersync_core..sync..interface..SyncEvent$GT$17hd44b6e6c25eea2a8E', symObjAddr: 0x40009, symBinAddr: 0x3EF79, symSize: 0x15 }
  - { offset: 0x174D50, size: 0x8, addend: 0x0, symName: '__ZN4core3ptr78drop_in_place$LT$powersync_core..sync..streaming_sync..SyncIterationHandle$GT$17hc25e8d7365399d6fE', symObjAddr: 0x4001E, symBinAddr: 0x3EF8E, symSize: 0x32 }
  - { offset: 0x174E31, size: 0x8, addend: 0x0, symName: '__ZN4core3ptr70drop_in_place$LT$powersync_core..sync..streaming_sync..ClientState$GT$17h2d0c1a446de002c0E', symObjAddr: 0x40050, symBinAddr: 0x3EFC0, symSize: 0x11 }
  - { offset: 0x178A91, size: 0x8, addend: 0x0, symName: __ZN4core3ops8function6FnOnce9call_once17h9b20db9a79ebdcb9E, symObjAddr: 0x40061, symBinAddr: 0x3EFD1, symSize: 0xF }
  - { offset: 0x178ACF, size: 0x8, addend: 0x0, symName: __ZN4core3ops8function6FnOnce9call_once17hca3a803ec4c2fb7aE, symObjAddr: 0x40070, symBinAddr: 0x3EFE0, symSize: 0x6 }
  - { offset: 0x179F15, size: 0x8, addend: 0x0, symName: '__ZN44_$LT$$RF$T$u20$as$u20$core..fmt..Display$GT$3fmt17h431c66ed0e06cc2bE', symObjAddr: 0x3FDC1, symBinAddr: 0x3ED31, symSize: 0x9D }
  - { offset: 0x17BEF1, size: 0x8, addend: 0x0, symName: '__ZN5alloc3vec16Vec$LT$T$C$A$GT$4push17hc1d1d2364debd2daE', symObjAddr: 0x3C8C1, symBinAddr: 0x3B831, symSize: 0x43 }
  - { offset: 0x17C2CE, size: 0x8, addend: 0x0, symName: __ZN14powersync_core4sync14streaming_sync22StreamingSyncIteration13load_progress17h4f0d2d9c06cfdceaE, symObjAddr: 0x3CC81, symBinAddr: 0x3BBF1, symSize: 0xD0F }
  - { offset: 0x17F1C7, size: 0x8, addend: 0x0, symName: __ZN14powersync_core4sync14streaming_sync22StreamingSyncIteration26resolve_subscription_state17hd1e0e87403cdde6aE, symObjAddr: 0x3D990, symBinAddr: 0x3C900, symSize: 0xEB0 }
  - { offset: 0x181924, size: 0x8, addend: 0x0, symName: __ZN14powersync_core4sync14streaming_sync22StreamingSyncIteration10sync_local17hb711686fce44988bE, symObjAddr: 0x3E90B, symBinAddr: 0x3D87B, symSize: 0x13C1 }
  - { offset: 0x1836D5, size: 0x8, addend: 0x0, symName: __ZN14powersync_core4sync14streaming_sync22StreamingSyncIteration25handle_checkpoint_applied17h8e327e2a67425691E, symObjAddr: 0x3FCF5, symBinAddr: 0x3EC65, symSize: 0xB1 }
  - { offset: 0x183928, size: 0x8, addend: 0x0, symName: __ZN14powersync_core4sync14streaming_sync11ClientState9tear_down17h4f7c11723599e38fE, symObjAddr: 0x3FE5E, symBinAddr: 0x3EDCE, symSize: 0xD6 }
  - { offset: 0x183A94, size: 0x8, addend: 0x0, symName: __ZN14powersync_core4sync14streaming_sync19SyncIterationHandle3run17h2ade9eca90e297aeE, symObjAddr: 0x3FF34, symBinAddr: 0x3EEA4, symSize: 0xA5 }
  - { offset: 0x1D7AE0, size: 0x8, addend: 0x0, symName: '__ZN4core3ptr73drop_in_place$LT$core..option..Option$LT$serde_json..value..Value$GT$$GT$17hed9fb6992e20a0e1E', symObjAddr: 0x4E4E3, symBinAddr: 0x4C8EF, symSize: 0x65 }
  - { offset: 0x1D7D01, size: 0x8, addend: 0x0, symName: '__ZN4core3ptr73drop_in_place$LT$core..option..Option$LT$serde_json..value..Value$GT$$GT$17hed9fb6992e20a0e1E', symObjAddr: 0x4E4E3, symBinAddr: 0x4C8EF, symSize: 0x65 }
  - { offset: 0x14F10, size: 0x8, addend: 0x0, symName: '__ZN62_$LT$core..char..EscapeDebug$u20$as$u20$core..fmt..Display$GT$3fmt17h7962f1f8ea1069f1E', symObjAddr: 0x3A4F, symBinAddr: 0x3FC7, symSize: 0x3E }
  - { offset: 0x14FD0, size: 0x8, addend: 0x0, symName: '__ZN62_$LT$core..char..EscapeDebug$u20$as$u20$core..fmt..Display$GT$3fmt17h7962f1f8ea1069f1E', symObjAddr: 0x3A4F, symBinAddr: 0x3FC7, symSize: 0x3E }
  - { offset: 0x15669, size: 0x8, addend: 0x0, symName: __ZN4core5slice4sort6stable5drift11sqrt_approx17h41057115ff2c9545E, symObjAddr: 0x3A8D, symBinAddr: 0x4005, symSize: 0x2B }
  - { offset: 0x54493, size: 0x8, addend: 0x0, symName: '__ZN4core3ptr111drop_in_place$LT$alloc..rc..Rc$LT$alloc..vec..Vec$LT$powersync_core..sync..subscriptions..StreamKey$GT$$GT$$GT$17h5f8083ff807c4a31E', symObjAddr: 0x8508, symBinAddr: 0x8A54, symSize: 0x11 }
  - { offset: 0x548D2, size: 0x8, addend: 0x0, symName: __ZN5serde2de12Deserializer21__deserialize_content17h98dd350a9ed5fc63E, symObjAddr: 0x8C76, symBinAddr: 0x91C2, symSize: 0x849 }
  - { offset: 0x552BE, size: 0x8, addend: 0x0, symName: '__ZN81_$LT$core..marker..PhantomData$LT$T$GT$$u20$as$u20$serde..de..DeserializeSeed$GT$11deserialize17hedfdcf9d63bc3ae3E', symObjAddr: 0x9627, symBinAddr: 0x9B73, symSize: 0x58 }
  - { offset: 0x5CFCA, size: 0x8, addend: 0x0, symName: '__ZN93_$LT$$RF$mut$u20$serde_json..de..Deserializer$LT$R$GT$$u20$as$u20$serde..de..Deserializer$GT$15deserialize_str17h4feab84145496274E', symObjAddr: 0x9DCA, symBinAddr: 0xA316, symSize: 0x120 }
  - { offset: 0x5D20E, size: 0x8, addend: 0x0, symName: '__ZN93_$LT$$RF$mut$u20$serde_json..de..Deserializer$LT$R$GT$$u20$as$u20$serde..de..Deserializer$GT$15deserialize_str17h4c3b7982b1c23832E', symObjAddr: 0x9EEA, symBinAddr: 0xA436, symSize: 0x156 }
  - { offset: 0x5D51E, size: 0x8, addend: 0x0, symName: '__ZN93_$LT$$RF$mut$u20$serde_json..de..Deserializer$LT$R$GT$$u20$as$u20$serde..de..Deserializer$GT$15deserialize_str17he13583dcdee72089E', symObjAddr: 0xA040, symBinAddr: 0xA58C, symSize: 0x120 }
  - { offset: 0x5DC39, size: 0x8, addend: 0x0, symName: '__ZN93_$LT$$RF$mut$u20$serde_json..de..Deserializer$LT$R$GT$$u20$as$u20$serde..de..Deserializer$GT$15deserialize_map17he3fd11e7a8f85287E', symObjAddr: 0xA328, symBinAddr: 0xA84C, symSize: 0x295C }
  - { offset: 0x60F5E, size: 0x8, addend: 0x0, symName: '__ZN93_$LT$$RF$mut$u20$serde_json..de..Deserializer$LT$R$GT$$u20$as$u20$serde..de..Deserializer$GT$15deserialize_str17h959bd630652b1b07E', symObjAddr: 0xCD1C, symBinAddr: 0xD240, symSize: 0xE1 }
  - { offset: 0x636DC, size: 0x8, addend: 0x0, symName: '__ZN75_$LT$serde_json..de..MapAccess$LT$R$GT$$u20$as$u20$serde..de..MapAccess$GT$15next_value_seed17h0f729cc520849365E', symObjAddr: 0x95E8, symBinAddr: 0x9B34, symSize: 0x3F }
  - { offset: 0x63744, size: 0x8, addend: 0x0, symName: '__ZN75_$LT$serde_json..de..MapAccess$LT$R$GT$$u20$as$u20$serde..de..MapAccess$GT$15next_value_seed17h13557c4b7a89b2ceE', symObjAddr: 0x967F, symBinAddr: 0x9BCB, symSize: 0x38 }
  - { offset: 0x637C9, size: 0x8, addend: 0x0, symName: '__ZN75_$LT$serde_json..de..MapAccess$LT$R$GT$$u20$as$u20$serde..de..MapAccess$GT$15next_value_seed17h1d8a589838f8f611E', symObjAddr: 0x96B7, symBinAddr: 0x9C03, symSize: 0x3F }
  - { offset: 0x63850, size: 0x8, addend: 0x0, symName: '__ZN75_$LT$serde_json..de..MapAccess$LT$R$GT$$u20$as$u20$serde..de..MapAccess$GT$15next_value_seed17h437e14af2c70aaa3E', symObjAddr: 0x96F6, symBinAddr: 0x9C42, symSize: 0x28 }
  - { offset: 0x638F5, size: 0x8, addend: 0x0, symName: '__ZN75_$LT$serde_json..de..MapAccess$LT$R$GT$$u20$as$u20$serde..de..MapAccess$GT$15next_value_seed17h664b20d8731eddf4E', symObjAddr: 0x971E, symBinAddr: 0x9C6A, symSize: 0x38 }
  - { offset: 0x6397A, size: 0x8, addend: 0x0, symName: '__ZN75_$LT$serde_json..de..MapAccess$LT$R$GT$$u20$as$u20$serde..de..MapAccess$GT$15next_value_seed17h86b1c4c831ae4147E', symObjAddr: 0x9756, symBinAddr: 0x9CA2, symSize: 0x38 }
  - { offset: 0x639FF, size: 0x8, addend: 0x0, symName: '__ZN75_$LT$serde_json..de..MapAccess$LT$R$GT$$u20$as$u20$serde..de..MapAccess$GT$15next_value_seed17h9aebc7bf3a216d9bE', symObjAddr: 0x978E, symBinAddr: 0x9CDA, symSize: 0x3F }
  - { offset: 0x63A86, size: 0x8, addend: 0x0, symName: '__ZN75_$LT$serde_json..de..MapAccess$LT$R$GT$$u20$as$u20$serde..de..MapAccess$GT$15next_value_seed17hae956048edaf773aE', symObjAddr: 0x97CD, symBinAddr: 0x9D19, symSize: 0x3F }
  - { offset: 0x63B0D, size: 0x8, addend: 0x0, symName: '__ZN75_$LT$serde_json..de..MapAccess$LT$R$GT$$u20$as$u20$serde..de..MapAccess$GT$15next_value_seed17hb38054f89686539fE', symObjAddr: 0x980C, symBinAddr: 0x9D58, symSize: 0x35 }
  - { offset: 0x63BB5, size: 0x8, addend: 0x0, symName: '__ZN75_$LT$serde_json..de..MapAccess$LT$R$GT$$u20$as$u20$serde..de..MapAccess$GT$15next_value_seed17hc457b2b72211fd3bE', symObjAddr: 0x9841, symBinAddr: 0x9D8D, symSize: 0x35 }
  - { offset: 0x63C3A, size: 0x8, addend: 0x0, symName: '__ZN75_$LT$serde_json..de..MapAccess$LT$R$GT$$u20$as$u20$serde..de..MapAccess$GT$15next_value_seed17hffc8f541d5c1a732E', symObjAddr: 0x9876, symBinAddr: 0x9DC2, symSize: 0x3F }
  - { offset: 0x660EE, size: 0x8, addend: 0x0, symName: '__ZN75_$LT$serde_json..de..SeqAccess$LT$R$GT$$u20$as$u20$serde..de..SeqAccess$GT$17next_element_seed17h3c5f07780a35af2eE', symObjAddr: 0x98B5, symBinAddr: 0x9E01, symSize: 0x81 }
  - { offset: 0x66158, size: 0x8, addend: 0x0, symName: '__ZN75_$LT$serde_json..de..SeqAccess$LT$R$GT$$u20$as$u20$serde..de..SeqAccess$GT$17next_element_seed17h5f15fbee0fffa144E', symObjAddr: 0x9936, symBinAddr: 0x9E82, symSize: 0x74 }
  - { offset: 0x661C2, size: 0x8, addend: 0x0, symName: '__ZN75_$LT$serde_json..de..SeqAccess$LT$R$GT$$u20$as$u20$serde..de..SeqAccess$GT$17next_element_seed17h5f92d1bfd12c7ea8E', symObjAddr: 0x99AA, symBinAddr: 0x9EF6, symSize: 0x76 }
  - { offset: 0x6622C, size: 0x8, addend: 0x0, symName: '__ZN75_$LT$serde_json..de..SeqAccess$LT$R$GT$$u20$as$u20$serde..de..SeqAccess$GT$17next_element_seed17h72f784454a541832E', symObjAddr: 0x9A20, symBinAddr: 0x9F6C, symSize: 0x75 }
  - { offset: 0x66296, size: 0x8, addend: 0x0, symName: '__ZN75_$LT$serde_json..de..SeqAccess$LT$R$GT$$u20$as$u20$serde..de..SeqAccess$GT$17next_element_seed17h75e30bddfcc40951E', symObjAddr: 0x9A95, symBinAddr: 0x9FE1, symSize: 0x81 }
  - { offset: 0x662E3, size: 0x8, addend: 0x0, symName: '__ZN75_$LT$serde_json..de..SeqAccess$LT$R$GT$$u20$as$u20$serde..de..SeqAccess$GT$17next_element_seed17h788a083bfec45f7cE', symObjAddr: 0x9B16, symBinAddr: 0xA062, symSize: 0x74 }
  - { offset: 0x6634D, size: 0x8, addend: 0x0, symName: '__ZN75_$LT$serde_json..de..SeqAccess$LT$R$GT$$u20$as$u20$serde..de..SeqAccess$GT$17next_element_seed17h9fb76c305d2179b3E', symObjAddr: 0x9B8A, symBinAddr: 0xA0D6, symSize: 0x76 }
  - { offset: 0x663B7, size: 0x8, addend: 0x0, symName: '__ZN75_$LT$serde_json..de..SeqAccess$LT$R$GT$$u20$as$u20$serde..de..SeqAccess$GT$17next_element_seed17hd0fc83e63485c0c5E', symObjAddr: 0x9C00, symBinAddr: 0xA14C, symSize: 0x81 }
  - { offset: 0x66421, size: 0x8, addend: 0x0, symName: '__ZN75_$LT$serde_json..de..SeqAccess$LT$R$GT$$u20$as$u20$serde..de..SeqAccess$GT$17next_element_seed17hd34db2074b43829eE', symObjAddr: 0x9C81, symBinAddr: 0xA1CD, symSize: 0x68 }
  - { offset: 0x6648B, size: 0x8, addend: 0x0, symName: '__ZN75_$LT$serde_json..de..SeqAccess$LT$R$GT$$u20$as$u20$serde..de..SeqAccess$GT$17next_element_seed17he15d1fd56324933cE', symObjAddr: 0x9CE9, symBinAddr: 0xA235, symSize: 0x81 }
  - { offset: 0x6767D, size: 0x8, addend: 0x0, symName: '__ZN80_$LT$serde_json..de..VariantAccess$LT$R$GT$$u20$as$u20$serde..de..EnumAccess$GT$12variant_seed17h0cdbf50a0384d86aE', symObjAddr: 0x9D6A, symBinAddr: 0xA2B6, symSize: 0x60 }
  - { offset: 0x678A1, size: 0x8, addend: 0x0, symName: '__ZN83_$LT$serde_json..de..VariantAccess$LT$R$GT$$u20$as$u20$serde..de..VariantAccess$GT$12unit_variant17h122fe8d02869eeeeE', symObjAddr: 0xA160, symBinAddr: 0xA6AC, symSize: 0x8F }
  - { offset: 0x679BC, size: 0x8, addend: 0x0, symName: '__ZN83_$LT$serde_json..de..VariantAccess$LT$R$GT$$u20$as$u20$serde..de..VariantAccess$GT$20newtype_variant_seed17h171995655aa00d5fE', symObjAddr: 0xA1EF, symBinAddr: 0xA73B, symSize: 0xCA }
  - { offset: 0x67D92, size: 0x8, addend: 0x0, symName: '__ZN84_$LT$serde_json..de..UnitVariantAccess$LT$R$GT$$u20$as$u20$serde..de..EnumAccess$GT$12variant_seed17h03ff5844927217b6E', symObjAddr: 0xA2B9, symBinAddr: 0xA805, symSize: 0x47 }
  - { offset: 0x67F5D, size: 0x8, addend: 0x0, symName: '__ZN87_$LT$serde_json..de..UnitVariantAccess$LT$R$GT$$u20$as$u20$serde..de..VariantAccess$GT$20newtype_variant_seed17h3b4e674daf6b0c4bE', symObjAddr: 0xA300, symBinAddr: 0x4E908, symSize: 0x28 }
  - { offset: 0x690CF, size: 0x8, addend: 0x0, symName: '__ZN4core3ptr111drop_in_place$LT$alloc..rc..Rc$LT$alloc..vec..Vec$LT$powersync_core..sync..subscriptions..StreamKey$GT$$GT$$GT$17h5f8083ff807c4a31E', symObjAddr: 0x8508, symBinAddr: 0x8A54, symSize: 0x11 }
  - { offset: 0x6919C, size: 0x8, addend: 0x0, symName: '__ZN4core3ptr65drop_in_place$LT$alloc..vec..Vec$LT$alloc..string..String$GT$$GT$17hdb4a17b87a0c488bE', symObjAddr: 0x8519, symBinAddr: 0x8A65, symSize: 0x29 }
  - { offset: 0x691EC, size: 0x8, addend: 0x0, symName: '__ZN4core3ptr51drop_in_place$LT$powersync_core..schema..Schema$GT$17h7159abf39aaa8fb2E', symObjAddr: 0x8542, symBinAddr: 0x8A8E, symSize: 0x20 }
  - { offset: 0x6923C, size: 0x8, addend: 0x0, symName: '__ZN4core3ptr85drop_in_place$LT$alloc..vec..Vec$LT$powersync_core..schema..table_info..Table$GT$$GT$17hdf0937d655541219E', symObjAddr: 0x8562, symBinAddr: 0x8AAE, symSize: 0x29 }
  - { offset: 0x692AB, size: 0x8, addend: 0x0, symName: '__ZN4core3ptr88drop_in_place$LT$alloc..vec..Vec$LT$powersync_core..schema..table_info..RawTable$GT$$GT$17he5bd00a43204be54E', symObjAddr: 0x858B, symBinAddr: 0x8AD7, symSize: 0x29 }
  - { offset: 0x69358, size: 0x8, addend: 0x0, symName: '__ZN4core3ptr67drop_in_place$LT$powersync_core..sync..subscriptions..StreamKey$GT$17hf87e7189873a835bE', symObjAddr: 0x85B4, symBinAddr: 0x8B00, symSize: 0x28 }
  - { offset: 0x693D3, size: 0x8, addend: 0x0, symName: '__ZN4core3ptr59drop_in_place$LT$powersync_core..sync..line..Checkpoint$GT$17h24419290e7598299E', symObjAddr: 0x85DC, symBinAddr: 0x8B28, symSize: 0x24 }
  - { offset: 0x69423, size: 0x8, addend: 0x0, symName: '__ZN4core3ptr86drop_in_place$LT$alloc..vec..Vec$LT$powersync_core..sync..line..BucketChecksum$GT$$GT$17h60a304db75882fb1E', symObjAddr: 0x8600, symBinAddr: 0x8B4C, symSize: 0x29 }
  - { offset: 0x69492, size: 0x8, addend: 0x0, symName: '__ZN4core3ptr89drop_in_place$LT$alloc..vec..Vec$LT$powersync_core..sync..line..StreamDescription$GT$$GT$17h9f436a93a38f3582E', symObjAddr: 0x8629, symBinAddr: 0x8B75, symSize: 0x29 }
  - { offset: 0x694E2, size: 0x8, addend: 0x0, symName: '__ZN4core3ptr63drop_in_place$LT$powersync_core..sync..line..CheckpointDiff$GT$17h3bb64569f9c30196E', symObjAddr: 0x8652, symBinAddr: 0x8B9E, symSize: 0x24 }
  - { offset: 0x69513, size: 0x8, addend: 0x0, symName: '__ZN4core3ptr57drop_in_place$LT$powersync_core..sync..line..DataLine$GT$17h910f682131a3c3f4E', symObjAddr: 0x8676, symBinAddr: 0x8BC2, symSize: 0x24 }
  - { offset: 0x69544, size: 0x8, addend: 0x0, symName: '__ZN4core3ptr50drop_in_place$LT$alloc..borrow..Cow$LT$str$GT$$GT$17h33cd2db2c1ccc3ebE', symObjAddr: 0x869A, symBinAddr: 0x8BE6, symSize: 0x14 }
  - { offset: 0x695D0, size: 0x8, addend: 0x0, symName: '__ZN4core3ptr82drop_in_place$LT$alloc..vec..Vec$LT$powersync_core..sync..line..OplogEntry$GT$$GT$17h84cfd3ef16237f60E', symObjAddr: 0x86AE, symBinAddr: 0x8BFA, symSize: 0x29 }
  - { offset: 0x6963F, size: 0x8, addend: 0x0, symName: '__ZN4core3ptr73drop_in_place$LT$alloc..vec..Vec$LT$alloc..borrow..Cow$LT$str$GT$$GT$$GT$17h21f9fc3c5d91b266E', symObjAddr: 0x86D7, symBinAddr: 0x8C23, symSize: 0x29 }
  - { offset: 0x6968F, size: 0x8, addend: 0x0, symName: '__ZN4core3ptr62drop_in_place$LT$powersync_core..schema..table_info..Table$GT$17h4ef958739be4a80eE', symObjAddr: 0x8700, symBinAddr: 0x8C4C, symSize: 0x46 }
  - { offset: 0x69729, size: 0x8, addend: 0x0, symName: '__ZN4core3ptr86drop_in_place$LT$alloc..vec..Vec$LT$powersync_core..schema..table_info..Column$GT$$GT$17hb2156da9fc962738E', symObjAddr: 0x8746, symBinAddr: 0x8C92, symSize: 0x29 }
  - { offset: 0x69798, size: 0x8, addend: 0x0, symName: '__ZN4core3ptr85drop_in_place$LT$alloc..vec..Vec$LT$powersync_core..schema..table_info..Index$GT$$GT$17h9704a9774907b92aE', symObjAddr: 0x876F, symBinAddr: 0x8CBB, symSize: 0x29 }
  - { offset: 0x69807, size: 0x8, addend: 0x0, symName: '__ZN4core3ptr99drop_in_place$LT$core..option..Option$LT$powersync_core..schema..table_info..DiffIncludeOld$GT$$GT$17h7dc2f8036dce6f5fE', symObjAddr: 0x8798, symBinAddr: 0x8CE4, symSize: 0x1B }
  - { offset: 0x6984B, size: 0x8, addend: 0x0, symName: '__ZN4core3ptr69drop_in_place$LT$powersync_core..sync..interface..StartSyncStream$GT$17h6cda0b681926ab7aE', symObjAddr: 0x87B3, symBinAddr: 0x8CFF, symSize: 0x26 }
  - { offset: 0x698BA, size: 0x8, addend: 0x0, symName: '__ZN4core3ptr125drop_in_place$LT$core..option..Option$LT$serde_json..map..Map$LT$alloc..string..String$C$serde_json..value..Value$GT$$GT$$GT$17h21b25a50537c0fe6E', symObjAddr: 0x87D9, symBinAddr: 0x8D25, symSize: 0x15 }
  - { offset: 0x699A1, size: 0x8, addend: 0x0, symName: '__ZN4core3ptr59drop_in_place$LT$serde..__private..de..content..Content$GT$17h361298bf0af0ae7aE', symObjAddr: 0x94BF, symBinAddr: 0x9A0B, symSize: 0xDD }
  - { offset: 0x69AB6, size: 0x8, addend: 0x0, symName: '__ZN4core3ptr45drop_in_place$LT$serde_json..error..Error$GT$17h299b00e647248fb6E', symObjAddr: 0x959C, symBinAddr: 0x9AE8, symSize: 0x2D }
  - { offset: 0x69CB8, size: 0x8, addend: 0x0, symName: '__ZN4core3ptr84drop_in_place$LT$alloc..boxed..Box$LT$serde..__private..de..content..Content$GT$$GT$17h8749e01c4ac1a14eE', symObjAddr: 0x95C9, symBinAddr: 0x9B15, symSize: 0x1F }
  - { offset: 0x69E6C, size: 0x8, addend: 0x0, symName: '__ZN4core3ptr159drop_in_place$LT$alloc..vec..Vec$LT$core..option..Option$LT$$LP$serde..__private..de..content..Content$C$serde..__private..de..content..Content$RP$$GT$$GT$$GT$17hf95f329a58d44434E', symObjAddr: 0xCC84, symBinAddr: 0xD1A8, symSize: 0x46 }
  - { offset: 0x69F25, size: 0x8, addend: 0x0, symName: '__ZN4core3ptr93drop_in_place$LT$alloc..vec..Vec$LT$powersync_core..schema..table_info..IndexedColumn$GT$$GT$17h475dc2ab71a4b82dE', symObjAddr: 0xCCCA, symBinAddr: 0xD1EE, symSize: 0x29 }
  - { offset: 0x69F94, size: 0x8, addend: 0x0, symName: '__ZN4core3ptr101drop_in_place$LT$alloc..vec..Vec$LT$powersync_core..schema..table_info..PendingStatementValue$GT$$GT$17h82c5131357cd02e1E', symObjAddr: 0xCCF3, symBinAddr: 0xD217, symSize: 0x29 }
  - { offset: 0x69FE4, size: 0x8, addend: 0x0, symName: '__ZN4core3ptr78drop_in_place$LT$core..option..Option$LT$alloc..borrow..Cow$LT$str$GT$$GT$$GT$17hb7085eca01baaea1E', symObjAddr: 0xCDFD, symBinAddr: 0xD321, symSize: 0x1B }
  - { offset: 0x6A010, size: 0x8, addend: 0x0, symName: '__ZN4core3ptr114drop_in_place$LT$core..option..Option$LT$alloc..vec..Vec$LT$powersync_core..sync..line..BucketChecksum$GT$$GT$$GT$17h361a1d35242d5b4eE', symObjAddr: 0xCE18, symBinAddr: 0xD33C, symSize: 0x13 }
  - { offset: 0x6A03F, size: 0x8, addend: 0x0, symName: '__ZN4core3ptr117drop_in_place$LT$core..option..Option$LT$alloc..vec..Vec$LT$powersync_core..sync..line..StreamDescription$GT$$GT$$GT$17h62349ac1b99301d5E', symObjAddr: 0xCE2B, symBinAddr: 0xD34F, symSize: 0x13 }
  - { offset: 0x6A06E, size: 0x8, addend: 0x0, symName: '__ZN4core3ptr116drop_in_place$LT$core..option..Option$LT$alloc..vec..Vec$LT$powersync_core..schema..table_info..RawTable$GT$$GT$$GT$17h56b8b16f95ab4acdE', symObjAddr: 0xCE3E, symBinAddr: 0xD362, symSize: 0x13 }
  - { offset: 0x6A09D, size: 0x8, addend: 0x0, symName: '__ZN4core3ptr70drop_in_place$LT$powersync_core..schema..table_info..IndexedColumn$GT$17hc4fb3352bffb7f54E', symObjAddr: 0xCE51, symBinAddr: 0xD375, symSize: 0x28 }
  - { offset: 0x6A162, size: 0x8, addend: 0x0, symName: '__ZN4core3ptr73drop_in_place$LT$powersync_core..schema..table_info..PendingStatement$GT$17h19d17355cff92b83E', symObjAddr: 0xCE79, symBinAddr: 0xD39D, symSize: 0x27 }
  - { offset: 0x6A1DD, size: 0x8, addend: 0x0, symName: '__ZN4core3ptr65drop_in_place$LT$powersync_core..schema..table_info..RawTable$GT$17h3f75d50c360c116bE', symObjAddr: 0xCEA0, symBinAddr: 0xD3C4, symSize: 0x30 }
  - { offset: 0x6A258, size: 0x8, addend: 0x0, symName: '__ZN4core3ptr101drop_in_place$LT$core..option..Option$LT$powersync_core..schema..table_info..PendingStatement$GT$$GT$17h4d7ac38fcbdb9175E', symObjAddr: 0xCED0, symBinAddr: 0xD3F4, symSize: 0x13 }
  - { offset: 0x6A287, size: 0x8, addend: 0x0, symName: '__ZN4core3ptr127drop_in_place$LT$core..option..Option$LT$core..option..Option$LT$alloc..boxed..Box$LT$serde_json..raw..RawValue$GT$$GT$$GT$$GT$17h7ab875c11dc47eebE', symObjAddr: 0xCEE3, symBinAddr: 0xD407, symSize: 0x1C }
  - { offset: 0x6A2B8, size: 0x8, addend: 0x0, symName: '__ZN4core3ptr63drop_in_place$LT$powersync_core..schema..table_info..Column$GT$17hab92e5d5792c20aeE', symObjAddr: 0xCEFF, symBinAddr: 0xD423, symSize: 0x28 }
  - { offset: 0x6A37D, size: 0x8, addend: 0x0, symName: '__ZN4core3ptr153drop_in_place$LT$core..option..Option$LT$core..option..Option$LT$serde_json..map..Map$LT$alloc..string..String$C$serde_json..value..Value$GT$$GT$$GT$$GT$17h69961850d237a278E', symObjAddr: 0xCF4E, symBinAddr: 0xD472, symSize: 0x11 }
  - { offset: 0x6A3AC, size: 0x8, addend: 0x0, symName: '__ZN4core3ptr79drop_in_place$LT$core..option..Option$LT$powersync_core..schema..Schema$GT$$GT$17hf29eb7e167ca9b8bE', symObjAddr: 0xCF5F, symBinAddr: 0xD483, symSize: 0x13 }
  - { offset: 0x6A3DB, size: 0x8, addend: 0x0, symName: '__ZN4core3ptr139drop_in_place$LT$core..option..Option$LT$alloc..rc..Rc$LT$alloc..vec..Vec$LT$powersync_core..sync..subscriptions..StreamKey$GT$$GT$$GT$$GT$17hbfc7bceb25e0af25E', symObjAddr: 0xCF72, symBinAddr: 0xD496, symSize: 0x11 }
  - { offset: 0x6A407, size: 0x8, addend: 0x0, symName: '__ZN4core3ptr62drop_in_place$LT$powersync_core..schema..table_info..Index$GT$17hec0128b589efc05aE', symObjAddr: 0xCF83, symBinAddr: 0xD4A7, symSize: 0x27 }
  - { offset: 0x6A482, size: 0x8, addend: 0x0, symName: '__ZN4core3ptr63drop_in_place$LT$powersync_core..sync..line..BucketChecksum$GT$17hc9da22cfccd29866E', symObjAddr: 0xCFAA, symBinAddr: 0xD4CE, symSize: 0x25 }
  - { offset: 0x6A4B3, size: 0x8, addend: 0x0, symName: '__ZN4core3ptr145drop_in_place$LT$core..option..Option$LT$alloc..rc..Rc$LT$alloc..vec..Vec$LT$powersync_core..sync..line..BucketSubscriptionReason$GT$$GT$$GT$$GT$17h5b8bd44e854e2b9eE', symObjAddr: 0xCFCF, symBinAddr: 0xD4F3, symSize: 0x11 }
  - { offset: 0x6A4DF, size: 0x8, addend: 0x0, symName: '__ZN4core3ptr117drop_in_place$LT$alloc..rc..Rc$LT$alloc..vec..Vec$LT$powersync_core..sync..line..BucketSubscriptionReason$GT$$GT$$GT$17h540d014fb4c79dd6E', symObjAddr: 0xCFE0, symBinAddr: 0xD504, symSize: 0x11 }
  - { offset: 0x6A58D, size: 0x8, addend: 0x0, symName: '__ZN4core3ptr59drop_in_place$LT$powersync_core..sync..line..OplogEntry$GT$17h01dffb7b08024e53E', symObjAddr: 0xCFF1, symBinAddr: 0xD515, symSize: 0x42 }
  - { offset: 0x6A5BE, size: 0x8, addend: 0x0, symName: '__ZN4core3ptr106drop_in_place$LT$core..option..Option$LT$core..option..Option$LT$alloc..borrow..Cow$LT$str$GT$$GT$$GT$$GT$17h720cfbc4ae177e5dE', symObjAddr: 0xD033, symBinAddr: 0xD557, symSize: 0x1B }
  - { offset: 0x6A5EA, size: 0x8, addend: 0x0, symName: '__ZN4core3ptr66drop_in_place$LT$powersync_core..sync..line..StreamDescription$GT$17h2a5ff91975214b63E', symObjAddr: 0xD04E, symBinAddr: 0xD572, symSize: 0x24 }
  - { offset: 0x6A61B, size: 0x8, addend: 0x0, symName: '__ZN4core3ptr116drop_in_place$LT$alloc..rc..Rc$LT$alloc..vec..Vec$LT$powersync_core..sync..line..StreamSubscriptionError$GT$$GT$$GT$17h9e626ad654e20f12E', symObjAddr: 0xD072, symBinAddr: 0xD596, symSize: 0x11 }
  - { offset: 0x75CD1, size: 0x8, addend: 0x0, symName: '__ZN65_$LT$alloc..rc..Rc$LT$T$GT$$u20$as$u20$core..default..Default$GT$7default17hc1ffb03e19ec6103E', symObjAddr: 0xCF27, symBinAddr: 0xD44B, symSize: 0x27 }
  - { offset: 0x762AE, size: 0x8, addend: 0x0, symName: __ZN10serde_json2de12ParserNumber5visit17h22fa572cd781320bE, symObjAddr: 0x87EE, symBinAddr: 0x8D3A, symSize: 0x6F }
  - { offset: 0x7639F, size: 0x8, addend: 0x0, symName: __ZN10serde_json2de12ParserNumber5visit17h3a78e276e122752fE, symObjAddr: 0x885D, symBinAddr: 0x8DA9, symSize: 0x94 }
  - { offset: 0x7648D, size: 0x8, addend: 0x0, symName: __ZN10serde_json2de12ParserNumber5visit17h3bfcdb51890ab900E, symObjAddr: 0x88F1, symBinAddr: 0x8E3D, symSize: 0x73 }
  - { offset: 0x7653A, size: 0x8, addend: 0x0, symName: __ZN10serde_json2de12ParserNumber5visit17h696dc47f9b944513E, symObjAddr: 0x8964, symBinAddr: 0x8EB0, symSize: 0x74 }
  - { offset: 0x76633, size: 0x8, addend: 0x0, symName: __ZN10serde_json2de12ParserNumber5visit17h75cdb9359e0e34c6E, symObjAddr: 0x89D8, symBinAddr: 0x8F24, symSize: 0x132 }
  - { offset: 0x767E3, size: 0x8, addend: 0x0, symName: __ZN10serde_json2de12ParserNumber5visit17h7edd9146743d0319E, symObjAddr: 0x8B0A, symBinAddr: 0x9056, symSize: 0x84 }
  - { offset: 0x76998, size: 0x8, addend: 0x0, symName: __ZN10serde_json2de12ParserNumber5visit17h8d43e45ef9484c6cE, symObjAddr: 0x8B8E, symBinAddr: 0x90DA, symSize: 0x74 }
  - { offset: 0x76A44, size: 0x8, addend: 0x0, symName: __ZN10serde_json2de12ParserNumber5visit17hcc45fc7d28e418beE, symObjAddr: 0x8C02, symBinAddr: 0x914E, symSize: 0x74 }
  - { offset: 0xF0DAE, size: 0x8, addend: 0x0, symName: '__ZN41_$LT$T$u20$as$u20$serde..de..Expected$GT$3fmt17h2c7c51999edab7b3E', symObjAddr: 0x21D4A, symBinAddr: 0x21586, symSize: 0x23 }
  - { offset: 0xF0E95, size: 0x8, addend: 0x0, symName: '__ZN45_$LT$T$u20$as$u20$alloc..string..ToString$GT$9to_string17ha58971185835a1d5E', symObjAddr: 0x23F2A, symBinAddr: 0x23766, symSize: 0x71 }
  - { offset: 0xF0F7F, size: 0x8, addend: 0x0, symName: '__ZN58_$LT$alloc..string..String$u20$as$u20$core..fmt..Write$GT$10write_char17h0320242de565228dE.1235', symObjAddr: 0x24131, symBinAddr: 0x2396D, symSize: 0x101 }
  - { offset: 0xF1A95, size: 0x8, addend: 0x0, symName: '__ZN63_$LT$alloc..alloc..Global$u20$as$u20$core..alloc..Allocator$GT$8allocate17h81f82aafe2cf0d62E.1193', symObjAddr: 0x222B5, symBinAddr: 0x21AF1, symSize: 0x10 }
  - { offset: 0xF1B92, size: 0x8, addend: 0x0, symName: __ZN5alloc5alloc15exchange_malloc17hfa6ae3466b5796e3E.1216, symObjAddr: 0x222DD, symBinAddr: 0x21B19, symSize: 0x15 }
  - { offset: 0xF28F5, size: 0x8, addend: 0x0, symName: '__ZN5alloc5boxed16Box$LT$T$C$A$GT$13new_uninit_in17h5bd937e6ce147e45E', symObjAddr: 0x222C5, symBinAddr: 0x21B01, symSize: 0x18 }
  - { offset: 0xF2A59, size: 0x8, addend: 0x0, symName: '__ZN69_$LT$alloc..boxed..Box$LT$T$C$A$GT$$u20$as$u20$core..fmt..Display$GT$3fmt17hd420978de6a02ab0E', symObjAddr: 0x2233F, symBinAddr: 0x21B7B, symSize: 0x301 }
  - { offset: 0xF5804, size: 0x8, addend: 0x0, symName: '__ZN4core3ptr65drop_in_place$LT$powersync_core..checkpoint..CheckpointResult$GT$17h0adcbe1b287b45faE', symObjAddr: 0x22DB3, symBinAddr: 0x225EF, symSize: 0x29 }
  - { offset: 0xF5892, size: 0x8, addend: 0x0, symName: '__ZN4core3ptr97drop_in_place$LT$alloc..vec..Vec$LT$powersync_core..sync..checkpoint..OwnedBucketChecksum$GT$$GT$17he4f4a09780269a49E', symObjAddr: 0x22DDC, symBinAddr: 0x22618, symSize: 0x57 }
  - { offset: 0xF5A0F, size: 0x8, addend: 0x0, symName: '__ZN4core3ptr59drop_in_place$LT$powersync_core..sync..line..Checkpoint$GT$17h24419290e7598299E.1222', symObjAddr: 0x22E33, symBinAddr: 0x2266F, symSize: 0x46 }
  - { offset: 0xF5B95, size: 0x8, addend: 0x0, symName: '__ZN4core3ptr58drop_in_place$LT$powersync_core..error..PowerSyncError$GT$17hd29299de401eb52fE', symObjAddr: 0x23F9B, symBinAddr: 0x237D7, symSize: 0xB1 }
  - { offset: 0xF5E64, size: 0x8, addend: 0x0, symName: '__ZN4core3ptr63drop_in_place$LT$powersync_core..error..PowerSyncErrorCause$GT$17hcf68e05f13fd28a0E', symObjAddr: 0x240C0, symBinAddr: 0x238FC, symSize: 0x5D }
  - { offset: 0xF6073, size: 0x8, addend: 0x0, symName: '__ZN4core3ptr42drop_in_place$LT$alloc..string..String$GT$17h673bb484b7cc3d96E.1233', symObjAddr: 0x2411D, symBinAddr: 0x23959, symSize: 0x14 }
  - { offset: 0xF626D, size: 0x8, addend: 0x0, symName: '__ZN4core3ptr74drop_in_place$LT$powersync_core..sync..sync_status..DownloadSyncStatus$GT$17hfe6fb0a554a94e26E', symObjAddr: 0x27688, symBinAddr: 0x26EC4, symSize: 0x46 }
  - { offset: 0xF6371, size: 0x8, addend: 0x0, symName: '__ZN4core3ptr81drop_in_place$LT$alloc..sync..Arc$LT$powersync_core..state..DatabaseState$GT$$GT$17hb33384360713e919E', symObjAddr: 0x276CE, symBinAddr: 0x26F0A, symSize: 0x18 }
  - { offset: 0xF646C, size: 0x8, addend: 0x0, symName: '__ZN4core3ptr88drop_in_place$LT$alloc..vec..Vec$LT$powersync_core..sync..interface..Instruction$GT$$GT$17hd7647835a65c959eE', symObjAddr: 0x27704, symBinAddr: 0x26F40, symSize: 0x29 }
  - { offset: 0xF6B0B, size: 0x8, addend: 0x0, symName: '__ZN44_$LT$$RF$T$u20$as$u20$core..fmt..Display$GT$3fmt17h8cdb6c75a3d56c46E', symObjAddr: 0x21D90, symBinAddr: 0x215CC, symSize: 0x1F }
  - { offset: 0xFAE95, size: 0x8, addend: 0x0, symName: __ZN4core3ops8function6FnOnce9call_once17h169c78c40428b88dE, symObjAddr: 0x222F2, symBinAddr: 0x21B2E, symSize: 0x2E }
  - { offset: 0xFB62F, size: 0x8, addend: 0x0, symName: __ZN14powersync_core15operations_vtab6MODULE17he181bbe71b89ac46E, symObjAddr: 0x51588, symBinAddr: 0x5EF08, symSize: 0x0 }
  - { offset: 0xFB681, size: 0x8, addend: 0x0, symName: __ZN14powersync_core15operations_vtab7connect17h3bbaf5a556bb17a0E, symObjAddr: 0x22FA7, symBinAddr: 0x227E3, symSize: 0x72 }
  - { offset: 0xFB7AB, size: 0x8, addend: 0x0, symName: __ZN14powersync_core15operations_vtab10disconnect17h6e93498f55ff0948E, symObjAddr: 0x23019, symBinAddr: 0x22855, symSize: 0xD }
  - { offset: 0xFB8BA, size: 0x8, addend: 0x0, symName: __ZN14powersync_core15operations_vtab6update17hb61c24e3023092b9E, symObjAddr: 0x23052, symBinAddr: 0x2288E, symSize: 0xEBF }
  - { offset: 0xFD68C, size: 0x8, addend: 0x0, symName: __ZN14powersync_core4sync9interface8register7control17ha79d8d758791de4aE, symObjAddr: 0x24232, symBinAddr: 0x23A6E, symSize: 0x325E }
  - { offset: 0x101555, size: 0x8, addend: 0x0, symName: __ZN14powersync_core4sync9interface8register7destroy17h1f6583e95feda6d6E, symObjAddr: 0x27490, symBinAddr: 0x26CCC, symSize: 0x4D }
  - { offset: 0x101BE2, size: 0x8, addend: 0x0, symName: __ZN14powersync_core4sync9interface29powersync_offline_sync_status17ha50df4999c50d224E, symObjAddr: 0x274DD, symBinAddr: 0x26D19, symSize: 0x1AB }
  - { offset: 0x102848, size: 0x8, addend: 0x0, symName: '__ZN14powersync_core6schema1_83_$LT$impl$u20$serde..de..Deserialize$u20$for$u20$powersync_core..schema..Schema$GT$11deserialize17h550df19738e6845eE', symObjAddr: 0x27DCA, symBinAddr: 0x27606, symSize: 0x7C4 }
  - { offset: 0x103391, size: 0x8, addend: 0x0, symName: __ZN14powersync_core10checkpoint29powersync_validate_checkpoint17he9f2d9d64d7e6557E, symObjAddr: 0x22640, symBinAddr: 0x21E7C, symSize: 0x6C1 }
  - { offset: 0x1047FB, size: 0x8, addend: 0x0, symName: __ZN14powersync_core9vtab_util12vtab_no_open17h07bac2669c488e53E, symObjAddr: 0x23026, symBinAddr: 0x22862, symSize: 0xB }
  - { offset: 0x10482F, size: 0x8, addend: 0x0, symName: __ZN14powersync_core9vtab_util14vtab_no_filter17h93711491b291bdb4E, symObjAddr: 0x23031, symBinAddr: 0x2286D, symSize: 0xB }
  - { offset: 0x104884, size: 0x8, addend: 0x0, symName: __ZN14powersync_core9vtab_util11vtab_no_eof17h8f5b1659cd5692f4E, symObjAddr: 0x2303C, symBinAddr: 0x22878, symSize: 0xB }
  - { offset: 0x1048AD, size: 0x8, addend: 0x0, symName: __ZN14powersync_core9vtab_util14vtab_no_column17hff31b0e94fc164faE, symObjAddr: 0x23047, symBinAddr: 0x22883, symSize: 0xB }
  - { offset: 0x104996, size: 0x8, addend: 0x0, symName: __ZN14powersync_core9vtab_util11vtab_result17hf41cdde519090c32E, symObjAddr: 0x2404C, symBinAddr: 0x23888, symSize: 0x74 }
  - { offset: 0x104B47, size: 0x8, addend: 0x0, symName: __ZN14powersync_core12update_hooks22powersync_update_hooks17hac7193fbc7e0b948E, symObjAddr: 0x2772D, symBinAddr: 0x26F69, symSize: 0x304 }
  - { offset: 0x105606, size: 0x8, addend: 0x0, symName: __ZN14powersync_core12update_hooks16destroy_function17hc9b339b1b1c90e7dE, symObjAddr: 0x27A31, symBinAddr: 0x2726D, symSize: 0x7A }
  - { offset: 0x105780, size: 0x8, addend: 0x0, symName: __ZN14powersync_core12update_hooks14check_previous17h9df08dd7e29c4731E, symObjAddr: 0x27AAB, symBinAddr: 0x272E7, symSize: 0x2B }
  - { offset: 0x1057D7, size: 0x8, addend: 0x0, symName: __ZN14powersync_core12update_hooks14check_previous17h9df08dd7e29c4731E, symObjAddr: 0x27AAB, symBinAddr: 0x272E7, symSize: 0x2B }
  - { offset: 0x1057EE, size: 0x8, addend: 0x0, symName: __ZN14powersync_core12update_hooks14check_previous17h9df08dd7e29c4731E, symObjAddr: 0x27AAB, symBinAddr: 0x272E7, symSize: 0x2B }
  - { offset: 0x105806, size: 0x8, addend: 0x0, symName: __ZN14powersync_core12update_hooks14check_previous17h9df08dd7e29c4731E, symObjAddr: 0x27AAB, symBinAddr: 0x272E7, symSize: 0x2B }
  - { offset: 0x105901, size: 0x8, addend: 0x0, symName: __ZN14powersync_core12update_hooks16update_hook_impl17h921d5f01a8039934E, symObjAddr: 0x27AD6, symBinAddr: 0x27312, symSize: 0x11D }
  - { offset: 0x105DCE, size: 0x8, addend: 0x0, symName: __ZN14powersync_core12update_hooks16commit_hook_impl17hc0df2312f88c8a17E, symObjAddr: 0x27BF3, symBinAddr: 0x2742F, symSize: 0x194 }
  - { offset: 0x1063E3, size: 0x8, addend: 0x0, symName: __ZN14powersync_core12update_hooks18rollback_hook_impl17hfbf8fc2f345a2c0bE, symObjAddr: 0x27D87, symBinAddr: 0x275C3, symSize: 0x43 }
  - { offset: 0x106CD0, size: 0x8, addend: 0x0, symName: '__ZN96_$LT$$BP$mut$u20$sqlite3_capi..bindings..sqlite3_value$u20$as$u20$sqlite_nostd..nostd..Value$GT$10value_type17h362f6ed8e98afdb8E', symObjAddr: 0x23F11, symBinAddr: 0x2374D, symSize: 0x19 }
  - { offset: 0x106DE4, size: 0x8, addend: 0x0, symName: '__ZN100_$LT$$BP$mut$u20$sqlite3_capi..bindings..sqlite3_context$u20$as$u20$sqlite_nostd..nostd..Context$GT$9user_data17hd5a845e63b2470baE', symObjAddr: 0x276E6, symBinAddr: 0x26F22, symSize: 0x1E }
  - { offset: 0x106E12, size: 0x8, addend: 0x0, symName: '__ZN100_$LT$$BP$mut$u20$sqlite3_capi..bindings..sqlite3_context$u20$as$u20$sqlite_nostd..nostd..Context$GT$9user_data17hd5a845e63b2470baE', symObjAddr: 0x276E6, symBinAddr: 0x26F22, symSize: 0x1E }
  - { offset: 0x107134, size: 0x8, addend: 0x0, symName: '__ZN86_$LT$serde_json..ser..Compound$LT$W$C$F$GT$$u20$as$u20$serde..ser..SerializeStruct$GT$15serialize_field17h981b989d30458a19E.1225', symObjAddr: 0x22ED7, symBinAddr: 0x22713, symSize: 0x3D }
  - { offset: 0x10724A, size: 0x8, addend: 0x0, symName: '__ZN86_$LT$serde_json..ser..Compound$LT$W$C$F$GT$$u20$as$u20$serde..ser..SerializeStruct$GT$3end17hb7a7071789cc5175E.1226', symObjAddr: 0x22F14, symBinAddr: 0x22750, symSize: 0x1E }
  - { offset: 0x107680, size: 0x8, addend: 0x0, symName: '__ZN86_$LT$serde_json..ser..Compound$LT$W$C$F$GT$$u20$as$u20$serde..ser..SerializeStruct$GT$15serialize_field17hac2e4c584cdca94fE', symObjAddr: 0x2862E, symBinAddr: 0x27E6A, symSize: 0x75 }
  - { offset: 0x1078CC, size: 0x8, addend: 0x0, symName: '__ZN95_$LT$$RF$mut$u20$serde_json..ser..Serializer$LT$W$C$F$GT$$u20$as$u20$serde..ser..Serializer$GT$16serialize_struct17h31ac4a9fe26dc360E.1224', symObjAddr: 0x22E79, symBinAddr: 0x226B5, symSize: 0x5E }
  - { offset: 0x107993, size: 0x8, addend: 0x0, symName: '__ZN95_$LT$$RF$mut$u20$serde_json..ser..Serializer$LT$W$C$F$GT$$u20$as$u20$serde..ser..Serializer$GT$13serialize_map17hdddfb01c14bbc56fE.1229', symObjAddr: 0x22F51, symBinAddr: 0x2278D, symSize: 0x45 }
  - { offset: 0x107BB9, size: 0x8, addend: 0x0, symName: '__ZN95_$LT$$RF$mut$u20$serde_json..ser..Serializer$LT$W$C$F$GT$$u20$as$u20$serde..ser..Serializer$GT$24serialize_struct_variant17hf3f54bbea0327a9aE', symObjAddr: 0x2858E, symBinAddr: 0x27DCA, symSize: 0x5C }
  - { offset: 0x107CD2, size: 0x8, addend: 0x0, symName: __ZN10serde_json3ser9Formatter10end_object17h934f1c64d013de4eE.1227, symObjAddr: 0x22F32, symBinAddr: 0x2276E, symSize: 0x11 }
  - { offset: 0x107D1D, size: 0x8, addend: 0x0, symName: __ZN10serde_json3ser9Formatter12begin_object17he9d348112f6ef168E, symObjAddr: 0x22F96, symBinAddr: 0x227D2, symSize: 0x11 }
  - { offset: 0x107D68, size: 0x8, addend: 0x0, symName: __ZN10serde_json3ser9Formatter18begin_object_value17hf25f210e6bb469b8E, symObjAddr: 0x285EA, symBinAddr: 0x27E26, symSize: 0x11 }
  - { offset: 0x108050, size: 0x8, addend: 0x0, symName: '__ZN93_$LT$serde_json..ser..Compound$LT$W$C$F$GT$$u20$as$u20$serde..ser..SerializeStructVariant$GT$3end17h157973837902de08E', symObjAddr: 0x285FB, symBinAddr: 0x27E37, symSize: 0x33 }
  - { offset: 0x10878E, size: 0x8, addend: 0x0, symName: '__ZN60_$LT$$RF$mut$u20$W$u20$as$u20$serde_json..io..imp..Write$GT$9write_all17h52a4b6c4a9816834E.1228', symObjAddr: 0x22F43, symBinAddr: 0x2277F, symSize: 0xE }
  - { offset: 0x109334, size: 0x8, addend: 0x0, symName: '__ZN41_$LT$T$u20$as$u20$serde..de..Expected$GT$3fmt17h2c7c51999edab7b3E', symObjAddr: 0x21D4A, symBinAddr: 0x21586, symSize: 0x23 }
  - { offset: 0x1093AC, size: 0x8, addend: 0x0, symName: '__ZN41_$LT$T$u20$as$u20$serde..de..Expected$GT$3fmt17h85fafef68dfc966eE', symObjAddr: 0x21D6D, symBinAddr: 0x215A9, symSize: 0x23 }
  - { offset: 0x109784, size: 0x8, addend: 0x0, symName: '__ZN5alloc11collections5btree3map5entry28VacantEntry$LT$K$C$V$C$A$GT$12insert_entry17hd2f57089ad35edb9E', symObjAddr: 0x21DAF, symBinAddr: 0x215EB, symSize: 0x506 }
  - { offset: 0x10A25E, size: 0x8, addend: 0x0, symName: '__ZN4core6result19Result$LT$T$C$E$GT$3map17h1a1c029af8cefd8fE', symObjAddr: 0x22320, symBinAddr: 0x21B5C, symSize: 0x1F }
  - { offset: 0x10A7AC, size: 0x8, addend: 0x0, symName: '__ZN5alloc7raw_vec20RawVecInner$LT$A$GT$16with_capacity_in17h33cb4903e72ca979E.1220', symObjAddr: 0x22D01, symBinAddr: 0x2253D, symSize: 0x3E }
  - { offset: 0x10A874, size: 0x8, addend: 0x0, symName: '__ZN5alloc3vec12Vec$LT$T$GT$13with_capacity17hfc075f958c64b6b9E', symObjAddr: 0x22D3F, symBinAddr: 0x2257B, symSize: 0x2C }
  - { offset: 0x10A8DA, size: 0x8, addend: 0x0, symName: '__ZN4core6result19Result$LT$T$C$E$GT$7map_err17hfaf593f920ebe4f1E', symObjAddr: 0x22D6B, symBinAddr: 0x225A7, symSize: 0x48 }
  - { offset: 0x1CE0EE, size: 0x8, addend: 0x0, symName: __ZN10serde_json3ser9Formatter10end_object17hf141c06599f18413E, symObjAddr: 0x4D4C2, symBinAddr: 0x4BA5A, symSize: 0x26 }
  - { offset: 0x1CEB6B, size: 0x8, addend: 0x0, symName: __ZN10serde_json3ser9Formatter10end_object17hf141c06599f18413E, symObjAddr: 0x4D4C2, symBinAddr: 0x4BA5A, symSize: 0x26 }
  - { offset: 0xF155, size: 0x8, addend: 0x0, symName: __ZN4core3str8converts9from_utf817h1030e63789c90a25E, symObjAddr: 0x1ADB, symBinAddr: 0x207F, symSize: 0x1E6 }
  - { offset: 0xF3A0, size: 0x8, addend: 0x0, symName: __ZN4core3str8converts9from_utf817h1030e63789c90a25E, symObjAddr: 0x1ADB, symBinAddr: 0x207F, symSize: 0x1E6 }
  - { offset: 0xF7F5, size: 0x8, addend: 0x0, symName: '__ZN4core3fmt3num3imp51_$LT$impl$u20$core..fmt..Display$u20$for$u20$u8$GT$3fmt17h09577cec19195accE', symObjAddr: 0x1CC1, symBinAddr: 0x2265, symSize: 0x15 }
  - { offset: 0xF837, size: 0x8, addend: 0x0, symName: '__ZN4core3fmt3num3imp20_$LT$impl$u20$u8$GT$4_fmt17hc9489feac4144aedE', symObjAddr: 0x1CD6, symBinAddr: 0x227A, symSize: 0x80 }
  - { offset: 0xFA90, size: 0x8, addend: 0x0, symName: '__ZN4core3fmt3num3imp52_$LT$impl$u20$core..fmt..Display$u20$for$u20$u32$GT$3fmt17h73ab39c71a4893caE', symObjAddr: 0x1D56, symBinAddr: 0x22FA, symSize: 0x14 }
  - { offset: 0xFAD2, size: 0x8, addend: 0x0, symName: '__ZN4core3fmt3num3imp21_$LT$impl$u20$u32$GT$4_fmt17hd6f830966622613eE', symObjAddr: 0x1D6A, symBinAddr: 0x230E, symSize: 0xDD }
  - { offset: 0xFDD5, size: 0x8, addend: 0x0, symName: '__ZN4core3fmt3num3imp52_$LT$impl$u20$core..fmt..Display$u20$for$u20$i32$GT$3fmt17h43a942a97abd6097E', symObjAddr: 0x1E47, symBinAddr: 0x23EB, symSize: 0x1B }
  - { offset: 0xFE50, size: 0x8, addend: 0x0, symName: '__ZN4core3fmt3num3imp52_$LT$impl$u20$core..fmt..Display$u20$for$u20$u64$GT$3fmt17h2d83bda442a5ff94E', symObjAddr: 0x1E62, symBinAddr: 0x2406, symSize: 0x15 }
  - { offset: 0xFE92, size: 0x8, addend: 0x0, symName: '__ZN4core3fmt3num3imp21_$LT$impl$u20$u64$GT$4_fmt17h3193d5913f57dd88E', symObjAddr: 0x1E77, symBinAddr: 0x241B, symSize: 0xFA }
  - { offset: 0x10165, size: 0x8, addend: 0x0, symName: '__ZN4core3fmt3num3imp52_$LT$impl$u20$core..fmt..Display$u20$for$u20$i64$GT$3fmt17hed5183c39f97d1b9E', symObjAddr: 0x1F71, symBinAddr: 0x2515, symSize: 0x23 }
  - { offset: 0x102BB, size: 0x8, addend: 0x0, symName: '__ZN4core3fmt3num3imp54_$LT$impl$u20$core..fmt..Display$u20$for$u20$usize$GT$3fmt17he3ed93f4497117bbE', symObjAddr: 0x1F94, symBinAddr: 0x2538, symSize: 0xEB }
  - { offset: 0xB7E, size: 0x8, addend: 0x0, symName: __ZN4core3fmt5Write9write_fmt17h6b374158bdabe037E, symObjAddr: 0x53, symBinAddr: 0x693, symSize: 0x19 }
  - { offset: 0xC51, size: 0x8, addend: 0x0, symName: '__ZN58_$LT$alloc..string..String$u20$as$u20$core..fmt..Write$GT$9write_str17h18aa0b66352b657aE', symObjAddr: 0x6C, symBinAddr: 0x6AC, symSize: 0x10 }
  - { offset: 0xD67, size: 0x8, addend: 0x0, symName: '__ZN58_$LT$alloc..string..String$u20$as$u20$core..fmt..Write$GT$10write_char17h0320242de565228dE', symObjAddr: 0x7C, symBinAddr: 0x6BC, symSize: 0x101 }
  - { offset: 0x1637, size: 0x8, addend: 0x0, symName: __ZN4core3fmt5Write9write_fmt17h6b374158bdabe037E, symObjAddr: 0x53, symBinAddr: 0x693, symSize: 0x19 }
  - { offset: 0x19222C, size: 0x8, addend: 0x0, symName: '__ZN41_$LT$T$u20$as$u20$serde..de..Expected$GT$3fmt17h155551a78af78b16E', symObjAddr: 0x41DE9, symBinAddr: 0x40D59, symSize: 0x23 }
  - { offset: 0x19234B, size: 0x8, addend: 0x0, symName: '__ZN45_$LT$T$u20$as$u20$alloc..string..ToString$GT$9to_string17ha58971185835a1d5E.2531', symObjAddr: 0x447D2, symBinAddr: 0x43372, symSize: 0x5F }
  - { offset: 0x1923EC, size: 0x8, addend: 0x0, symName: '__ZN45_$LT$T$u20$as$u20$alloc..string..ToString$GT$9to_string17h1b2f77fb3adb7ddbE', symObjAddr: 0x44A53, symBinAddr: 0x435F3, symSize: 0x8A }
  - { offset: 0x1925B7, size: 0x8, addend: 0x0, symName: '__ZN58_$LT$alloc..string..String$u20$as$u20$core..fmt..Write$GT$10write_char17h0320242de565228dE.2540', symObjAddr: 0x44952, symBinAddr: 0x434F2, symSize: 0x101 }
  - { offset: 0x192E9E, size: 0x8, addend: 0x0, symName: '__ZN63_$LT$alloc..alloc..Global$u20$as$u20$core..alloc..Allocator$GT$8allocate17h81f82aafe2cf0d62E.2471', symObjAddr: 0x420D1, symBinAddr: 0x41041, symSize: 0x21 }
  - { offset: 0x192F9B, size: 0x8, addend: 0x0, symName: __ZN5alloc5alloc15exchange_malloc17hfa6ae3466b5796e3E.2474, symObjAddr: 0x420F2, symBinAddr: 0x41062, symSize: 0x15 }
  - { offset: 0x19561D, size: 0x8, addend: 0x0, symName: '__ZN4core3ptr58drop_in_place$LT$powersync_core..error..PowerSyncError$GT$17hd29299de401eb52fE.2532', symObjAddr: 0x44831, symBinAddr: 0x433D1, symSize: 0xA3 }
  - { offset: 0x195768, size: 0x8, addend: 0x0, symName: '__ZN4core3ptr50drop_in_place$LT$alloc..borrow..Cow$LT$str$GT$$GT$17h33cd2db2c1ccc3ebE.2534', symObjAddr: 0x448D4, symBinAddr: 0x43474, symSize: 0x13 }
  - { offset: 0x1958AE, size: 0x8, addend: 0x0, symName: '__ZN4core3ptr63drop_in_place$LT$powersync_core..error..PowerSyncErrorCause$GT$17hcf68e05f13fd28a0E.2535', symObjAddr: 0x448E7, symBinAddr: 0x43487, symSize: 0x5A }
  - { offset: 0x195D0A, size: 0x8, addend: 0x0, symName: '__ZN4core3ptr62drop_in_place$LT$powersync_core..schema..table_info..Table$GT$17h4ef958739be4a80eE.2602', symObjAddr: 0x46D6C, symBinAddr: 0x458E4, symSize: 0x75 }
  - { offset: 0x196426, size: 0x8, addend: 0x0, symName: '__ZN44_$LT$$RF$T$u20$as$u20$core..fmt..Display$GT$3fmt17h1952627b5d13e58bE', symObjAddr: 0x41E0C, symBinAddr: 0x40D7C, symSize: 0x15A }
  - { offset: 0x196578, size: 0x8, addend: 0x0, symName: '__ZN44_$LT$$RF$T$u20$as$u20$core..fmt..Display$GT$3fmt17hfd25887595c1a093E', symObjAddr: 0x41F99, symBinAddr: 0x40F09, symSize: 0x138 }
  - { offset: 0x196718, size: 0x8, addend: 0x0, symName: '__ZN115_$LT$core..iter..adapters..filter_map..FilterMap$LT$I$C$F$GT$$u20$as$u20$core..iter..traits..iterator..Iterator$GT$4next17h22edaa27a2b89626E', symObjAddr: 0x46DE1, symBinAddr: 0x45959, symSize: 0xEA }
  - { offset: 0x196E08, size: 0x8, addend: 0x0, symName: '__ZN91_$LT$core..slice..iter..Iter$LT$T$GT$$u20$as$u20$core..iter..traits..iterator..Iterator$GT$4next17h48a82b5a9d9fe1ffE', symObjAddr: 0x46F1F, symBinAddr: 0x45A97, symSize: 0x1A }
  - { offset: 0x1996CB, size: 0x8, addend: 0x0, symName: __ZN14powersync_core5views18powersync_view_sql17hfe3df4029e33907cE, symObjAddr: 0x4511D, symBinAddr: 0x43C95, symSize: 0x437 }
  - { offset: 0x19A033, size: 0x8, addend: 0x0, symName: __ZN14powersync_core5views28powersync_trigger_delete_sql17he585a58bafa3196eE, symObjAddr: 0x45554, symBinAddr: 0x440CC, symSize: 0x698 }
  - { offset: 0x19AC70, size: 0x8, addend: 0x0, symName: __ZN14powersync_core5views28powersync_trigger_insert_sql17h084099602a0af3e2E, symObjAddr: 0x45BEC, symBinAddr: 0x44764, symSize: 0x44A }
  - { offset: 0x19B3BA, size: 0x8, addend: 0x0, symName: __ZN14powersync_core5views28powersync_trigger_update_sql17hd3e59063658b34e4E, symObjAddr: 0x46036, symBinAddr: 0x44BAE, symSize: 0x9F2 }
  - { offset: 0x19C33F, size: 0x8, addend: 0x0, symName: __ZN14powersync_core5views20json_object_fragment17he9f1cbf4c2c15b66E, symObjAddr: 0x46A64, symBinAddr: 0x455DC, symSize: 0x308 }
  - { offset: 0x19CDE6, size: 0x8, addend: 0x0, symName: '__ZN75_$LT$powersync_core..bson..error..BsonError$u20$as$u20$serde..de..Error$GT$6custom17hefb2bd37b6a1a442E', symObjAddr: 0x42353, symBinAddr: 0x41263, symSize: 0x29 }
  - { offset: 0x19CE59, size: 0x8, addend: 0x0, symName: '__ZN75_$LT$powersync_core..bson..error..BsonError$u20$as$u20$serde..de..Error$GT$6custom17h11f83210a7194ea3E', symObjAddr: 0x44CD4, symBinAddr: 0x4384C, symSize: 0x30 }
  - { offset: 0x19CFB4, size: 0x8, addend: 0x0, symName: '__ZN77_$LT$powersync_core..bson..error..ErrorKind$u20$as$u20$core..fmt..Display$GT$3fmt17hf1f76527aea9dbe2E', symObjAddr: 0x44B07, symBinAddr: 0x4367F, symSize: 0x1CD }
  - { offset: 0x19DFE0, size: 0x8, addend: 0x0, symName: '__ZN76_$LT$powersync_core..error..PowerSyncError$u20$as$u20$core..fmt..Display$GT$3fmt17hb2c607942f95246cE', symObjAddr: 0x450D4, symBinAddr: 0x43C4C, symSize: 0x17 }
  - { offset: 0x19E00C, size: 0x8, addend: 0x0, symName: '__ZN125_$LT$powersync_core..error..PowerSyncError$u20$as$u20$core..convert..From$LT$powersync_core..error..RawPowerSyncError$GT$$GT$4from17hafd6b73dcd0748d1E', symObjAddr: 0x44DD9, symBinAddr: 0x43951, symSize: 0x26 }
  - { offset: 0x19E05D, size: 0x8, addend: 0x0, symName: '__ZN116_$LT$powersync_core..error..PowerSyncError$u20$as$u20$core..convert..From$LT$sqlite_nostd..nostd..ResultCode$GT$$GT$4from17hbeef482870a115c5E', symObjAddr: 0x450EB, symBinAddr: 0x43C63, symSize: 0x32 }
  - { offset: 0x19E587, size: 0x8, addend: 0x0, symName: '__ZN62_$LT$serde_json..error..Error$u20$as$u20$serde..ser..Error$GT$6custom17h073e4c48204a341cE', symObjAddr: 0x44ADD, symBinAddr: 0x502D1, symSize: 0x2A }
  - { offset: 0x19EB61, size: 0x8, addend: 0x0, symName: '__ZN5serde2de5impls75_$LT$impl$u20$serde..de..Deserialize$u20$for$u20$alloc..rc..Rc$LT$T$GT$$GT$11deserialize17h016844d746ddf3b4E', symObjAddr: 0x42733, symBinAddr: 0x412D3, symSize: 0xC29 }
  - { offset: 0x19FD2C, size: 0x8, addend: 0x0, symName: '__ZN5serde2de5impls75_$LT$impl$u20$serde..de..Deserialize$u20$for$u20$alloc..rc..Rc$LT$T$GT$$GT$11deserialize17h1b46fad64830d2c3E', symObjAddr: 0x4335C, symBinAddr: 0x41EFC, symSize: 0x814 }
  - { offset: 0x1A0940, size: 0x8, addend: 0x0, symName: '__ZN5serde2de5impls75_$LT$impl$u20$serde..de..Deserialize$u20$for$u20$alloc..rc..Rc$LT$T$GT$$GT$11deserialize17hb7fc2282dfb941e7E', symObjAddr: 0x43B90, symBinAddr: 0x42730, symSize: 0x619 }
  - { offset: 0x1A126D, size: 0x8, addend: 0x0, symName: '__ZN5serde2de5impls75_$LT$impl$u20$serde..de..Deserialize$u20$for$u20$alloc..rc..Rc$LT$T$GT$$GT$11deserialize17hf82fcc6278974bf7E', symObjAddr: 0x441A9, symBinAddr: 0x42D49, symSize: 0x3E7 }
  - { offset: 0x1A19A9, size: 0x8, addend: 0x0, symName: '__ZN5serde2de5impls75_$LT$impl$u20$serde..de..Deserialize$u20$for$u20$alloc..rc..Rc$LT$T$GT$$GT$11deserialize17hf86a50c0fb1d4fdcE', symObjAddr: 0x44590, symBinAddr: 0x43130, symSize: 0x242 }
  - { offset: 0x1A2135, size: 0x8, addend: 0x0, symName: '__ZN41_$LT$T$u20$as$u20$serde..de..Expected$GT$3fmt17h155551a78af78b16E', symObjAddr: 0x41DE9, symBinAddr: 0x40D59, symSize: 0x23 }
  - { offset: 0x1A21B4, size: 0x8, addend: 0x0, symName: __ZN5serde2de5Error12invalid_type17h4344aa5da34cef47E, symObjAddr: 0x422F2, symBinAddr: 0x4FEFA, symSize: 0x61 }
  - { offset: 0x1A2217, size: 0x8, addend: 0x0, symName: __ZN5serde2de5Error13invalid_value17h95718117bc069641E, symObjAddr: 0x423C0, symBinAddr: 0x4FF5C, symSize: 0x61 }
  - { offset: 0x1A227A, size: 0x8, addend: 0x0, symName: __ZN5serde2de5Error13missing_field17h9c1f637f5ee1b8f2E, symObjAddr: 0x42421, symBinAddr: 0x4FFBD, symSize: 0x57 }
  - { offset: 0x1A22D1, size: 0x8, addend: 0x0, symName: __ZN5serde2de5Error13missing_field17he1ab27cb04b62266E, symObjAddr: 0x42478, symBinAddr: 0x50014, symSize: 0x57 }
  - { offset: 0x1A2328, size: 0x8, addend: 0x0, symName: __ZN5serde2de5Error14invalid_length17h7e3e274d2838b720E, symObjAddr: 0x424CF, symBinAddr: 0x5006B, symSize: 0x6F }
  - { offset: 0x1A238B, size: 0x8, addend: 0x0, symName: __ZN5serde2de5Error14invalid_length17hf3dab609bcb9a07eE, symObjAddr: 0x4253E, symBinAddr: 0x500DA, symSize: 0x6F }
  - { offset: 0x1A23EE, size: 0x8, addend: 0x0, symName: __ZN5serde2de5Error15duplicate_field17h153405bd93433935E, symObjAddr: 0x425AD, symBinAddr: 0x50149, symSize: 0x57 }
  - { offset: 0x1A2445, size: 0x8, addend: 0x0, symName: __ZN5serde2de5Error15duplicate_field17h6293605331dad177E, symObjAddr: 0x42604, symBinAddr: 0x501A0, symSize: 0x57 }
  - { offset: 0x1A249C, size: 0x8, addend: 0x0, symName: __ZN5serde2de5Error15unknown_variant17h325cf37b1153ddb9E, symObjAddr: 0x4265B, symBinAddr: 0x501F7, symSize: 0x6C }
  - { offset: 0x1A24FF, size: 0x8, addend: 0x0, symName: __ZN5serde2de5Error15unknown_variant17hde9f7692a804a6c1E, symObjAddr: 0x426C7, symBinAddr: 0x50263, symSize: 0x6C }
  - { offset: 0x1A2F27, size: 0x8, addend: 0x0, symName: __ZN4core3fmt9Formatter9write_fmt17h7952cafa4f6a45f0E.2467, symObjAddr: 0x41F66, symBinAddr: 0x40ED6, symSize: 0x33 }
  - { offset: 0x1A3269, size: 0x8, addend: 0x0, symName: '__ZN5alloc2rc15Rc$LT$T$C$A$GT$11from_box_in17h93930befd2c7b24fE', symObjAddr: 0x42107, symBinAddr: 0x41077, symSize: 0x50 }
  - { offset: 0x1A372B, size: 0x8, addend: 0x0, symName: '__ZN5alloc2rc15Rc$LT$T$C$A$GT$9drop_slow17h09c112a4973d3d25E', symObjAddr: 0x42157, symBinAddr: 0x410C7, symSize: 0x44 }
  - { offset: 0x1A39B9, size: 0x8, addend: 0x0, symName: '__ZN5alloc2rc15Rc$LT$T$C$A$GT$9drop_slow17h18b08d277848a7e4E', symObjAddr: 0x4219B, symBinAddr: 0x4110B, symSize: 0x37 }
  - { offset: 0x1A3C5C, size: 0x8, addend: 0x0, symName: '__ZN5alloc2rc15Rc$LT$T$C$A$GT$9drop_slow17h1eb6fd49a4823c79E', symObjAddr: 0x421D2, symBinAddr: 0x41142, symSize: 0x44 }
  - { offset: 0x1A3F33, size: 0x8, addend: 0x0, symName: '__ZN5alloc2rc15Rc$LT$T$C$A$GT$9drop_slow17haa28aff839199522E', symObjAddr: 0x42216, symBinAddr: 0x41186, symSize: 0x61 }
  - { offset: 0x1A428B, size: 0x8, addend: 0x0, symName: '__ZN5alloc2rc15Rc$LT$T$C$A$GT$9drop_slow17hac50958dd34129f0E', symObjAddr: 0x42277, symBinAddr: 0x411E7, symSize: 0x44 }
  - { offset: 0x1A44FA, size: 0x8, addend: 0x0, symName: '__ZN5alloc2rc15Rc$LT$T$C$A$GT$9drop_slow17hf53fc8342d89325aE', symObjAddr: 0x422BB, symBinAddr: 0x4122B, symSize: 0x37 }
  - { offset: 0x1A46DA, size: 0x8, addend: 0x0, symName: __ZN14powersync_core4bson5error9BsonError3new17h1e9a5a51fefac27cE, symObjAddr: 0x4237C, symBinAddr: 0x4128C, symSize: 0x44 }
  - { offset: 0x1A47EE, size: 0x8, addend: 0x0, symName: '__ZN4core6result19Result$LT$T$C$E$GT$3map17h3368c1de9943b7a4E', symObjAddr: 0x43B70, symBinAddr: 0x42710, symSize: 0x20 }
  - { offset: 0x1A4CF5, size: 0x8, addend: 0x0, symName: '__ZN4core6result19Result$LT$T$C$E$GT$6expect17hdad4f71d9e39d6c3E.2537', symObjAddr: 0x44941, symBinAddr: 0x434E1, symSize: 0x11 }
  - { offset: 0x1A5034, size: 0x8, addend: 0x0, symName: __ZN14powersync_core5error14PowerSyncError6errstr17hf4938890a125ebaeE, symObjAddr: 0x44D04, symBinAddr: 0x4387C, symSize: 0xD5 }
  - { offset: 0x1A53ED, size: 0x8, addend: 0x0, symName: __ZN14powersync_core5error14PowerSyncError14argument_error17hba5331b143606b1eE, symObjAddr: 0x44DFF, symBinAddr: 0x43977, symSize: 0x3E }
  - { offset: 0x1A5436, size: 0x8, addend: 0x0, symName: __ZN14powersync_core5error14PowerSyncError17as_argument_error17hf840c79fd3e7c9bcE, symObjAddr: 0x44E3D, symBinAddr: 0x439B5, symSize: 0x44 }
  - { offset: 0x1A547F, size: 0x8, addend: 0x0, symName: __ZN14powersync_core5error14PowerSyncError11state_error17h20d7ab6db53c34b6E, symObjAddr: 0x44E81, symBinAddr: 0x439F9, symSize: 0x2F }
  - { offset: 0x1A54BF, size: 0x8, addend: 0x0, symName: __ZN14powersync_core5error14PowerSyncError19sync_protocol_error17hfffd4b606d68e432E, symObjAddr: 0x44EB0, symBinAddr: 0x43A28, symSize: 0x37 }
  - { offset: 0x1A5532, size: 0x8, addend: 0x0, symName: __ZN14powersync_core5error14PowerSyncError16unknown_internal17h7814b9f3ec4a59dbE, symObjAddr: 0x44EE7, symBinAddr: 0x43A5F, symSize: 0x2C }
  - { offset: 0x1A5581, size: 0x8, addend: 0x0, symName: __ZN14powersync_core5error14PowerSyncError8internal17hdd36980067513af2E, symObjAddr: 0x44F13, symBinAddr: 0x43A8B, symSize: 0x30 }
  - { offset: 0x1A55E4, size: 0x8, addend: 0x0, symName: __ZN14powersync_core5error14PowerSyncError12apply_to_ctx17hf3447418845353c7E, symObjAddr: 0x44F43, symBinAddr: 0x43ABB, symSize: 0x92 }
  - { offset: 0x1A5755, size: 0x8, addend: 0x0, symName: __ZN5alloc6string6String10insert_str17ha373f59cdba0afb8E, symObjAddr: 0x44FD5, symBinAddr: 0x43B4D, symSize: 0x82 }
  - { offset: 0x1A592F, size: 0x8, addend: 0x0, symName: __ZN14powersync_core5error14PowerSyncError17sqlite_error_code17heedc0f43c393bc47E, symObjAddr: 0x45057, symBinAddr: 0x43BCF, symSize: 0x7D }
  - { offset: 0x1A6077, size: 0x8, addend: 0x0, symName: '__ZN4core6result19Result$LT$T$C$E$GT$7map_err17hab1253191142a9dbE', symObjAddr: 0x46A28, symBinAddr: 0x455A0, symSize: 0x3C }
  - { offset: 0x1A621E, size: 0x8, addend: 0x0, symName: '__ZN5alloc3vec16Vec$LT$T$C$A$GT$4push17h9728e4802cb17fd8E.2605', symObjAddr: 0x46ECB, symBinAddr: 0x45A43, symSize: 0x54 }
  - { offset: 0x6856, size: 0x8, addend: 0x0, symName: __ZN5alloc3ffi5c_str7CString19_from_vec_unchecked17h76068b10ab4cb402E, symObjAddr: 0x801, symBinAddr: 0xDA5, symSize: 0xE8 }
  - { offset: 0x6CB4, size: 0x8, addend: 0x0, symName: '__ZN72_$LT$$RF$str$u20$as$u20$alloc..ffi..c_str..CString..new..SpecNewImpl$GT$13spec_new_impl17h3bca8c8927a838a3E', symObjAddr: 0x8E9, symBinAddr: 0xE8D, symSize: 0x11B }
  - { offset: 0x7694, size: 0x8, addend: 0x0, symName: __ZN5alloc3ffi5c_str7CString19_from_vec_unchecked17h76068b10ab4cb402E, symObjAddr: 0x801, symBinAddr: 0xDA5, symSize: 0xE8 }
  - { offset: 0x1E2FEB, size: 0x8, addend: 0x0, symName: '__ZN99_$LT$sqlite3_allocator..allocator..SQLite3Allocator$u20$as$u20$core..alloc..global..GlobalAlloc$GT$5alloc17hbdb5276264b966f2E', symObjAddr: 0x4F26C, symBinAddr: 0x4D66C, symSize: 0x1E }
  - { offset: 0x1E323F, size: 0x8, addend: 0x0, symName: '__ZN99_$LT$sqlite3_allocator..allocator..SQLite3Allocator$u20$as$u20$core..alloc..global..GlobalAlloc$GT$5alloc17hbdb5276264b966f2E', symObjAddr: 0x4F26C, symBinAddr: 0x4D66C, symSize: 0x1E }
  - { offset: 0x1E327B, size: 0x8, addend: 0x0, symName: '__ZN99_$LT$sqlite3_allocator..allocator..SQLite3Allocator$u20$as$u20$core..alloc..global..GlobalAlloc$GT$5alloc17hbdb5276264b966f2E', symObjAddr: 0x4F26C, symBinAddr: 0x4D66C, symSize: 0x1E }
  - { offset: 0x1E32AB, size: 0x8, addend: 0x0, symName: '__ZN99_$LT$sqlite3_allocator..allocator..SQLite3Allocator$u20$as$u20$core..alloc..global..GlobalAlloc$GT$7dealloc17h5197a4b6694587e1E', symObjAddr: 0x4F28A, symBinAddr: 0x4D68A, symSize: 0x1E }
  - { offset: 0x1E32EE, size: 0x8, addend: 0x0, symName: '__ZN99_$LT$sqlite3_allocator..allocator..SQLite3Allocator$u20$as$u20$core..alloc..global..GlobalAlloc$GT$7dealloc17h5197a4b6694587e1E', symObjAddr: 0x4F28A, symBinAddr: 0x4D68A, symSize: 0x1E }
  - { offset: 0x1B438, size: 0x8, addend: 0x0, symName: __ZN4core5slice6memchr14memchr_aligned17hf37fce8dfc6f7282E, symObjAddr: 0x442D, symBinAddr: 0x4989, symSize: 0xB9 }
  - { offset: 0x1B534, size: 0x8, addend: 0x0, symName: __ZN4core7unicode9printable5check17h87a90ee55412d205E, symObjAddr: 0x4676, symBinAddr: 0x4BCA, symSize: 0xCB }
  - { offset: 0x1BEB4, size: 0x8, addend: 0x0, symName: __ZN4core5slice6memchr14memchr_aligned17hf37fce8dfc6f7282E, symObjAddr: 0x442D, symBinAddr: 0x4989, symSize: 0xB9 }
  - { offset: 0x1C103, size: 0x8, addend: 0x0, symName: __ZN4core5slice6memchr12memchr_naive17hd628ef7aeb9cd9aeE, symObjAddr: 0x44E6, symBinAddr: 0x4A42, symSize: 0x29 }
  - { offset: 0x1C4C4, size: 0x8, addend: 0x0, symName: __ZN4core3str16slice_error_fail17h6551338c5448e997E, symObjAddr: 0x450F, symBinAddr: 0x4E8F3, symSize: 0x9 }
  - { offset: 0x1C56E, size: 0x8, addend: 0x0, symName: '__ZN4core3str21_$LT$impl$u20$str$GT$19floor_char_boundary17h2a07ffae27de6127E', symObjAddr: 0x4617, symBinAddr: 0x4B6B, symSize: 0x49 }
  - { offset: 0x1C75F, size: 0x8, addend: 0x0, symName: '__ZN4core3str21_$LT$impl$u20$str$GT$9ends_with17h6cd31483f1b75851E', symObjAddr: 0x4660, symBinAddr: 0x4BB4, symSize: 0x16 }
  - { offset: 0x1CB45, size: 0x8, addend: 0x0, symName: __ZN4core3str19slice_error_fail_rt17he7d504dedb2e94d6E, symObjAddr: 0x4518, symBinAddr: 0x4A6C, symSize: 0xFF }
  - { offset: 0x1C2DF4, size: 0x8, addend: 0x0, symName: __ZN10serde_json2de12ParserNumber5visit17h84b1c258e60b21f0E, symObjAddr: 0x4A810, symBinAddr: 0x492E8, symSize: 0x8F }
  - { offset: 0x1C2E1A, size: 0x8, addend: 0x0, symName: __ZN10serde_json2de5POW1017h9bdc1a53c4f031d4E, symObjAddr: 0x5D6E8, symBinAddr: 0x5BE00, symSize: 0x0 }
  - { offset: 0x1C33FA, size: 0x8, addend: 0x0, symName: '__ZN75_$LT$serde_json..de..SeqAccess$LT$R$GT$$u20$as$u20$serde..de..SeqAccess$GT$17next_element_seed16has_next_element17h62467d9cb8507581E', symObjAddr: 0x4BA91, symBinAddr: 0x4A1C1, symSize: 0xEC }
  - { offset: 0x1C38AC, size: 0x8, addend: 0x0, symName: '__ZN75_$LT$serde_json..de..MapAccess$LT$R$GT$$u20$as$u20$serde..de..MapAccess$GT$13next_key_seed17h9564410fe1c461eeE', symObjAddr: 0x4C62E, symBinAddr: 0x4AD5E, symSize: 0xB0 }
  - { offset: 0x1C3AA4, size: 0x8, addend: 0x0, symName: '__ZN75_$LT$serde_json..de..MapAccess$LT$R$GT$$u20$as$u20$serde..de..MapAccess$GT$13next_key_seed12has_next_key17h84f3cbf52786c5daE', symObjAddr: 0x4C6DE, symBinAddr: 0x4AE0E, symSize: 0x10E }
  - { offset: 0x1C3B4E, size: 0x8, addend: 0x0, symName: '__ZN75_$LT$serde_json..de..MapAccess$LT$R$GT$$u20$as$u20$serde..de..MapAccess$GT$15next_value_seed17h5822870b0033825cE', symObjAddr: 0x4C7EC, symBinAddr: 0x4AF1C, symSize: 0x35 }
  - { offset: 0x1C3CD4, size: 0x8, addend: 0x0, symName: __ZN10serde_json2de8from_str17h7d684980a707bb1aE, symObjAddr: 0x4C821, symBinAddr: 0x4AF51, symSize: 0xAB }
  - { offset: 0x1C444B, size: 0x8, addend: 0x0, symName: '__ZN10serde_json5value2de77_$LT$impl$u20$serde..de..Deserialize$u20$for$u20$serde_json..value..Value$GT$11deserialize17h89f175d79353fe44E', symObjAddr: 0x4BB7D, symBinAddr: 0x4A2AD, symSize: 0xAB1 }
  - { offset: 0x1C5720, size: 0x8, addend: 0x0, symName: '__ZN4core3ptr45drop_in_place$LT$serde_json..value..Value$GT$17hf0d2086978beb3a9E', symObjAddr: 0x4A89F, symBinAddr: 0x49377, symSize: 0x36 }
  - { offset: 0x1C57E5, size: 0x8, addend: 0x0, symName: '__ZN4core3ptr68drop_in_place$LT$alloc..vec..Vec$LT$serde_json..value..Value$GT$$GT$17h324642fe3308c9dcE', symObjAddr: 0x4A8D5, symBinAddr: 0x493AD, symSize: 0x20 }
  - { offset: 0x1C6ED2, size: 0x8, addend: 0x0, symName: __ZN10serde_json2de12ParserNumber5visit17h84b1c258e60b21f0E, symObjAddr: 0x4A810, symBinAddr: 0x492E8, symSize: 0x8F }
  - { offset: 0x1C708F, size: 0x8, addend: 0x0, symName: __ZN10serde_json2de12ParserNumber12invalid_type17h4a641a11dffc3f02E, symObjAddr: 0x4A8F5, symBinAddr: 0x493CD, symSize: 0x53 }
  - { offset: 0x1C7115, size: 0x8, addend: 0x0, symName: '__ZN10serde_json2de21Deserializer$LT$R$GT$3end17h516fc63ad4a8069eE', symObjAddr: 0x4A948, symBinAddr: 0x49420, symSize: 0x4F }
  - { offset: 0x1C715C, size: 0x8, addend: 0x0, symName: '__ZN10serde_json2de21Deserializer$LT$R$GT$16parse_whitespace17hbd363bd8beaea2a5E', symObjAddr: 0x4A997, symBinAddr: 0x4946F, symSize: 0x4C }
  - { offset: 0x1C7255, size: 0x8, addend: 0x0, symName: '__ZN10serde_json2de21Deserializer$LT$R$GT$10peek_error17haa1f3fca80ef5504E', symObjAddr: 0x4A9E3, symBinAddr: 0x5039F, symSize: 0x5F }
  - { offset: 0x1C737D, size: 0x8, addend: 0x0, symName: '__ZN10serde_json2de21Deserializer$LT$R$GT$9next_char17h26344f4bf5a7f527E', symObjAddr: 0x4AA42, symBinAddr: 0x494BE, symSize: 0x2F }
  - { offset: 0x1C73A1, size: 0x8, addend: 0x0, symName: '__ZN10serde_json2de21Deserializer$LT$R$GT$9next_char17h26344f4bf5a7f527E', symObjAddr: 0x4AA42, symBinAddr: 0x494BE, symSize: 0x2F }
  - { offset: 0x1C73BE, size: 0x8, addend: 0x0, symName: '__ZN10serde_json2de21Deserializer$LT$R$GT$9next_char17h26344f4bf5a7f527E', symObjAddr: 0x4AA42, symBinAddr: 0x494BE, symSize: 0x2F }
  - { offset: 0x1C7430, size: 0x8, addend: 0x0, symName: '__ZN10serde_json2de21Deserializer$LT$R$GT$17next_char_or_null17h7fc74e4fbb7211f7E', symObjAddr: 0x4AA71, symBinAddr: 0x494ED, symSize: 0x47 }
  - { offset: 0x1C7494, size: 0x8, addend: 0x0, symName: '__ZN10serde_json2de21Deserializer$LT$R$GT$5error17h4fde2893b9e2faeaE', symObjAddr: 0x4AAB8, symBinAddr: 0x50400, symSize: 0x4A }
  - { offset: 0x1C75ED, size: 0x8, addend: 0x0, symName: '__ZN10serde_json2de21Deserializer$LT$R$GT$17peek_invalid_type17hf558f3a334d177f5E', symObjAddr: 0x4AB02, symBinAddr: 0x5044A, symSize: 0x1DD }
  - { offset: 0x1C79B5, size: 0x8, addend: 0x0, symName: '__ZN10serde_json2de21Deserializer$LT$R$GT$11parse_ident17h74f3a496b1b41e23E', symObjAddr: 0x4ACDF, symBinAddr: 0x49537, symSize: 0x83 }
  - { offset: 0x1C7A95, size: 0x8, addend: 0x0, symName: '__ZN10serde_json2de21Deserializer$LT$R$GT$13parse_integer17hb705adfffa10f4faE', symObjAddr: 0x4AD62, symBinAddr: 0x495BA, symSize: 0x176 }
  - { offset: 0x1C7CC9, size: 0x8, addend: 0x0, symName: '__ZN10serde_json2de21Deserializer$LT$R$GT$12parse_number17h6b594cb50068bdf3E', symObjAddr: 0x4AED8, symBinAddr: 0x49730, symSize: 0xC0 }
  - { offset: 0x1C7DAB, size: 0x8, addend: 0x0, symName: '__ZN10serde_json2de21Deserializer$LT$R$GT$18parse_long_integer17h18966f193fea458dE', symObjAddr: 0x4AF98, symBinAddr: 0x50628, symSize: 0x63 }
  - { offset: 0x1C7F0A, size: 0x8, addend: 0x0, symName: '__ZN10serde_json2de21Deserializer$LT$R$GT$14f64_from_parts17h367ee9937f9b7d6fE', symObjAddr: 0x4AFFB, symBinAddr: 0x497F3, symSize: 0xCB }
  - { offset: 0x1C8055, size: 0x8, addend: 0x0, symName: '__ZN10serde_json2de21Deserializer$LT$R$GT$13parse_decimal17hc16014c1824a5db3E', symObjAddr: 0x4B0C6, symBinAddr: 0x498BE, symSize: 0x11B }
  - { offset: 0x1C8280, size: 0x8, addend: 0x0, symName: '__ZN10serde_json2de21Deserializer$LT$R$GT$14parse_exponent17h01b089e8dce0a16dE', symObjAddr: 0x4B1E1, symBinAddr: 0x499D9, symSize: 0x188 }
  - { offset: 0x1C8604, size: 0x8, addend: 0x0, symName: '__ZN10serde_json2de21Deserializer$LT$R$GT$23parse_exponent_overflow17h29d9b4100dbce13aE', symObjAddr: 0x4B369, symBinAddr: 0x5068D, symSize: 0x80 }
  - { offset: 0x1C8731, size: 0x8, addend: 0x0, symName: '__ZN10serde_json2de21Deserializer$LT$R$GT$22parse_decimal_overflow17ha558d871b357dba9E', symObjAddr: 0x4B3E9, symBinAddr: 0x5070D, symSize: 0x4B }
  - { offset: 0x1C885A, size: 0x8, addend: 0x0, symName: '__ZN10serde_json2de21Deserializer$LT$R$GT$18parse_object_colon17h3e3470d3b7150ec3E', symObjAddr: 0x4B434, symBinAddr: 0x49B64, symSize: 0x66 }
  - { offset: 0x1C88EE, size: 0x8, addend: 0x0, symName: '__ZN10serde_json2de21Deserializer$LT$R$GT$7end_seq17hc7a14e91a4859537E', symObjAddr: 0x4B49A, symBinAddr: 0x49BCA, symSize: 0xD6 }
  - { offset: 0x1C89EE, size: 0x8, addend: 0x0, symName: '__ZN10serde_json2de21Deserializer$LT$R$GT$7end_map17h77c69e4542008be8E', symObjAddr: 0x4B570, symBinAddr: 0x49CA0, symSize: 0x77 }
  - { offset: 0x1C8A75, size: 0x8, addend: 0x0, symName: '__ZN10serde_json2de21Deserializer$LT$R$GT$12ignore_value17hdec72dac724c5655E', symObjAddr: 0x4B5E7, symBinAddr: 0x49D17, symSize: 0x2A9 }
  - { offset: 0x1C91FC, size: 0x8, addend: 0x0, symName: '__ZN10serde_json2de21Deserializer$LT$R$GT$14ignore_integer17hb8119a977f950701E', symObjAddr: 0x4B890, symBinAddr: 0x49FC0, symSize: 0x136 }
  - { offset: 0x1C9554, size: 0x8, addend: 0x0, symName: '__ZN5alloc3vec16Vec$LT$T$C$A$GT$3pop17h9b7ad5e37c46231dE', symObjAddr: 0x4B9C6, symBinAddr: 0x4A0F6, symSize: 0x27 }
  - { offset: 0x1C9611, size: 0x8, addend: 0x0, symName: '__ZN10serde_json2de21Deserializer$LT$R$GT$15ignore_exponent17hdab63982dd382402E', symObjAddr: 0x4B9ED, symBinAddr: 0x4A11D, symSize: 0xA4 }
  - { offset: 0x1BB7AC, size: 0x8, addend: 0x0, symName: '__ZN5alloc11collections5btree4node21LeafNode$LT$K$C$V$GT$3new17h6a8acfe70cedbf8dE', symObjAddr: 0x4A518, symBinAddr: 0x48FF0, symSize: 0x2A }
  - { offset: 0x1BE4C6, size: 0x8, addend: 0x0, symName: __ZN5alloc11collections5btree4node12slice_insert17h158941687707a572E, symObjAddr: 0x4A60C, symBinAddr: 0x490E4, symSize: 0x73 }
  - { offset: 0x1BE61D, size: 0x8, addend: 0x0, symName: __ZN5alloc11collections5btree4node12slice_insert17h8bb53e0b59220f89E, symObjAddr: 0x4A67F, symBinAddr: 0x49157, symSize: 0x67 }
  - { offset: 0x1BE772, size: 0x8, addend: 0x0, symName: __ZN5alloc11collections5btree4node13move_to_slice17h3f28e8c06a63f1beE, symObjAddr: 0x4A6E6, symBinAddr: 0x491BE, symSize: 0x26 }
  - { offset: 0x1BE7E7, size: 0x8, addend: 0x0, symName: __ZN5alloc11collections5btree4node13move_to_slice17h8eabd9d8f2231cafE, symObjAddr: 0x4A70C, symBinAddr: 0x491E4, symSize: 0x26 }
  - { offset: 0x1BE85A, size: 0x8, addend: 0x0, symName: __ZN5alloc11collections5btree4node13move_to_slice17ha1f6fe813db2bb0cE, symObjAddr: 0x4A732, symBinAddr: 0x4920A, symSize: 0x26 }
  - { offset: 0x1C09BD, size: 0x8, addend: 0x0, symName: '__ZN5alloc11collections5btree4node21LeafNode$LT$K$C$V$GT$3new17h6a8acfe70cedbf8dE', symObjAddr: 0x4A518, symBinAddr: 0x48FF0, symSize: 0x2A }
  - { offset: 0x1C0C57, size: 0x8, addend: 0x0, symName: '__ZN5alloc11collections5btree4node119NodeRef$LT$alloc..collections..btree..node..marker..Mut$C$K$C$V$C$alloc..collections..btree..node..marker..Internal$GT$30correct_childrens_parent_links17hce394a6429a0b9d2E', symObjAddr: 0x4A542, symBinAddr: 0x4901A, symSize: 0x26 }
  - { offset: 0x1C0EDB, size: 0x8, addend: 0x0, symName: '__ZN5alloc11collections5btree4node25InternalNode$LT$K$C$V$GT$3new17h174f58c11aba0452E', symObjAddr: 0x4A568, symBinAddr: 0x49040, symSize: 0x2A }
  - { offset: 0x1C1168, size: 0x8, addend: 0x0, symName: '__ZN5alloc11collections5btree4node121NodeRef$LT$alloc..collections..btree..node..marker..Owned$C$K$C$V$C$alloc..collections..btree..node..marker..Internal$GT$17from_new_internal17h5c319fef4402bec6E', symObjAddr: 0x4A592, symBinAddr: 0x4906A, symSize: 0x4C }
  - { offset: 0x1C1505, size: 0x8, addend: 0x0, symName: '__ZN5alloc11collections5btree4node127NodeRef$LT$alloc..collections..btree..node..marker..Dying$C$K$C$V$C$alloc..collections..btree..node..marker..LeafOrInternal$GT$21deallocate_and_ascend17h2ef6b5cfac90242aE', symObjAddr: 0x4A5DE, symBinAddr: 0x490B6, symSize: 0x2E }
  - { offset: 0x1C177C, size: 0x8, addend: 0x0, symName: '__ZN5alloc11collections5btree4node214Handle$LT$alloc..collections..btree..node..NodeRef$LT$alloc..collections..btree..node..marker..Mut$C$K$C$V$C$alloc..collections..btree..node..marker..Internal$GT$$C$alloc..collections..btree..node..marker..Edge$GT$10insert_fit17h072d8be649f33d1aE', symObjAddr: 0x4A758, symBinAddr: 0x49230, symSize: 0xB8 }
  - { offset: 0x127DCB, size: 0x8, addend: 0x0, symName: __ZN10serde_json3ser18format_escaped_str17h8815c16fdbf01273E, symObjAddr: 0x3149C, symBinAddr: 0x30C08, symSize: 0x124 }
  - { offset: 0x127F17, size: 0x8, addend: 0x0, symName: '__ZN67_$LT$serde_json..raw..RawValue$u20$as$u20$serde..ser..Serialize$GT$9serialize17hbea56d9b4fde1f96E', symObjAddr: 0x320C8, symBinAddr: 0x317CC, symSize: 0x1A }
  - { offset: 0x128C1C, size: 0x8, addend: 0x0, symName: '__ZN83_$LT$serde_json..ser..Compound$LT$W$C$F$GT$$u20$as$u20$serde..ser..SerializeMap$GT$13serialize_key17h135e604420594a05E', symObjAddr: 0x31E68, symBinAddr: 0x3156C, symSize: 0x54 }
  - { offset: 0x128D3D, size: 0x8, addend: 0x0, symName: '__ZN83_$LT$serde_json..ser..Compound$LT$W$C$F$GT$$u20$as$u20$serde..ser..SerializeMap$GT$13serialize_key17h4ccb3dbc22c643c4E', symObjAddr: 0x31EF2, symBinAddr: 0x315F6, symSize: 0x54 }
  - { offset: 0x129770, size: 0x8, addend: 0x0, symName: '__ZN83_$LT$serde_json..ser..Compound$LT$W$C$F$GT$$u20$as$u20$serde..ser..SerializeSeq$GT$3end17h2d28de212a22bce8E', symObjAddr: 0x31A58, symBinAddr: 0x3115C, symSize: 0x24 }
  - { offset: 0x1297D7, size: 0x8, addend: 0x0, symName: '__ZN83_$LT$serde_json..ser..Compound$LT$W$C$F$GT$$u20$as$u20$serde..ser..SerializeSeq$GT$17serialize_element17h1de297bfa71ac42fE', symObjAddr: 0x31A94, symBinAddr: 0x31198, symSize: 0x52 }
  - { offset: 0x129B97, size: 0x8, addend: 0x0, symName: '__ZN95_$LT$$RF$mut$u20$serde_json..ser..Serializer$LT$W$C$F$GT$$u20$as$u20$serde..ser..Serializer$GT$13serialize_seq17haacef7692bf52fe3E', symObjAddr: 0x319F0, symBinAddr: 0x310F4, symSize: 0x68 }
  - { offset: 0x129C8E, size: 0x8, addend: 0x0, symName: '__ZN95_$LT$$RF$mut$u20$serde_json..ser..Serializer$LT$W$C$F$GT$$u20$as$u20$serde..ser..Serializer$GT$14serialize_unit17hd8c2e2773ffa1fd3E', symObjAddr: 0x31DE0, symBinAddr: 0x314E4, symSize: 0x18 }
  - { offset: 0x129D48, size: 0x8, addend: 0x0, symName: '__ZN95_$LT$$RF$mut$u20$serde_json..ser..Serializer$LT$W$C$F$GT$$u20$as$u20$serde..ser..Serializer$GT$14serialize_bool17h944bba7bf763ed95E', symObjAddr: 0x31DF8, symBinAddr: 0x314FC, symSize: 0x2A }
  - { offset: 0x12A23B, size: 0x8, addend: 0x0, symName: __ZN10serde_json3ser9Formatter9end_array17h1b83dffa80d7757aE, symObjAddr: 0x31A7C, symBinAddr: 0x31180, symSize: 0x18 }
  - { offset: 0x12A382, size: 0x8, addend: 0x0, symName: __ZN10serde_json3ser9Formatter18begin_object_value17hf25f210e6bb469b8E.1542, symObjAddr: 0x31EBC, symBinAddr: 0x315C0, symSize: 0x18 }
  - { offset: 0x12A436, size: 0x8, addend: 0x0, symName: __ZN10serde_json3ser9Formatter16begin_object_key17he53d6508cbf33e2fE, symObjAddr: 0x31ED4, symBinAddr: 0x315D8, symSize: 0x1E }
  - { offset: 0x12A58B, size: 0x8, addend: 0x0, symName: '__ZN91_$LT$serde_json..ser..RawValueStrEmitter$LT$W$C$F$GT$$u20$as$u20$serde..ser..Serializer$GT$14serialize_bool17heec9334d8028e224E', symObjAddr: 0x321AC, symBinAddr: 0x4F75C, symSize: 0x1B }
  - { offset: 0x12A844, size: 0x8, addend: 0x0, symName: __ZN10serde_json3ser18format_escaped_str17h8815c16fdbf01273E, symObjAddr: 0x3149C, symBinAddr: 0x30C08, symSize: 0x124 }
  - { offset: 0x12B3CD, size: 0x8, addend: 0x0, symName: '__ZN10serde_json5value3ser76_$LT$impl$u20$serde..ser..Serialize$u20$for$u20$serde_json..value..Value$GT$9serialize17h049df581cdd8d9dcE', symObjAddr: 0x31B68, symBinAddr: 0x3126C, symSize: 0x278 }
  - { offset: 0x12BD8E, size: 0x8, addend: 0x0, symName: '__ZN189_$LT$serde_with..de..impls..$LT$impl$u20$serde_with..de..DeserializeAs$LT$T$GT$$u20$for$u20$serde_with..DisplayFromStr$GT$..deserialize_as..Helper$LT$S$GT$$u20$as$u20$serde..de..Visitor$GT$9visit_str17hbbf47ce6cb56633bE', symObjAddr: 0x3172F, symBinAddr: 0x30E9B, symSize: 0x4F }
  - { offset: 0x12E9C8, size: 0x8, addend: 0x0, symName: '__ZN4core3str21_$LT$impl$u20$str$GT$5parse17ha82dea3bf5cbded5E', symObjAddr: 0x31602, symBinAddr: 0x30D6E, symSize: 0x12D }
  - { offset: 0x12F282, size: 0x8, addend: 0x0, symName: __ZN4core5slice4sort6shared5pivot11median3_rec17h0b35bc6f0fa8657dE, symObjAddr: 0x3177E, symBinAddr: 0x30EEA, symSize: 0x106 }
  - { offset: 0x12F3EB, size: 0x8, addend: 0x0, symName: __ZN4core5slice4sort6shared5pivot11median3_rec17h2391ab9f9f2435deE, symObjAddr: 0x31884, symBinAddr: 0x30FF0, symSize: 0x104 }
  - { offset: 0x132707, size: 0x8, addend: 0x0, symName: '__ZN124_$LT$core..result..Result$LT$T$C$sqlite_nostd..nostd..ResultCode$GT$$u20$as$u20$powersync_core..error..PSResult$LT$T$GT$$GT$14into_db_result17h1ed02b3f48f9f5d8E', symObjAddr: 0x321C7, symBinAddr: 0x318B3, symSize: 0x62 }
  - { offset: 0x1327D4, size: 0x8, addend: 0x0, symName: '__ZN124_$LT$core..result..Result$LT$T$C$sqlite_nostd..nostd..ResultCode$GT$$u20$as$u20$powersync_core..error..PSResult$LT$T$GT$$GT$14into_db_result17h845370ac1d3af609E', symObjAddr: 0x32229, symBinAddr: 0x31915, symSize: 0x52 }
  - { offset: 0x132884, size: 0x8, addend: 0x0, symName: '__ZN124_$LT$core..result..Result$LT$T$C$sqlite_nostd..nostd..ResultCode$GT$$u20$as$u20$powersync_core..error..PSResult$LT$T$GT$$GT$14into_db_result17h9b0c134cd1ad2f92E', symObjAddr: 0x3227B, symBinAddr: 0x31967, symSize: 0x48 }
  - { offset: 0x132C0C, size: 0x8, addend: 0x0, symName: __ZN5serde2de7Visitor11visit_bytes17hadfa9248a17a2921E, symObjAddr: 0x31988, symBinAddr: 0x4F6F4, symSize: 0x36 }
  - { offset: 0x132C5C, size: 0x8, addend: 0x0, symName: __ZN5serde2de7Visitor9visit_i6417h40e3560286918365E, symObjAddr: 0x319BE, symBinAddr: 0x4F72A, symSize: 0x32 }
  - { offset: 0x132D57, size: 0x8, addend: 0x0, symName: '__ZN41_$LT$T$u20$as$u20$serde..de..Expected$GT$3fmt17h5ae2a0462f11d736E', symObjAddr: 0x315C0, symBinAddr: 0x30D2C, symSize: 0x42 }
  - { offset: 0x13355B, size: 0x8, addend: 0x0, symName: __ZN5serde3ser12SerializeMap15serialize_entry17ha5090184c7764f6fE, symObjAddr: 0x31E22, symBinAddr: 0x31526, symSize: 0x46 }
  - { offset: 0x1335FC, size: 0x8, addend: 0x0, symName: __ZN5serde3ser12SerializeMap15serialize_entry17h1002d69c76c4e893E, symObjAddr: 0x31F46, symBinAddr: 0x3164A, symSize: 0x64 }
  - { offset: 0x133722, size: 0x8, addend: 0x0, symName: __ZN5serde3ser12SerializeMap15serialize_entry17h1c4a0ead9b5c621bE, symObjAddr: 0x31FAA, symBinAddr: 0x316AE, symSize: 0x5E }
  - { offset: 0x133807, size: 0x8, addend: 0x0, symName: __ZN5serde3ser12SerializeMap15serialize_entry17h30bf8d9760addbabE, symObjAddr: 0x32008, symBinAddr: 0x3170C, symSize: 0x3C }
  - { offset: 0x1338A5, size: 0x8, addend: 0x0, symName: __ZN5serde3ser12SerializeMap15serialize_entry17h3731c009bbea8fbfE, symObjAddr: 0x32044, symBinAddr: 0x31748, symSize: 0x3A }
  - { offset: 0x133958, size: 0x8, addend: 0x0, symName: __ZN5serde3ser12SerializeMap15serialize_entry17h396e3a0f4acbc8d0E, symObjAddr: 0x3207E, symBinAddr: 0x31782, symSize: 0x4A }
  - { offset: 0x133A2A, size: 0x8, addend: 0x0, symName: __ZN5serde3ser12SerializeMap15serialize_entry17ha33ac1371649f025E, symObjAddr: 0x320E2, symBinAddr: 0x317E6, symSize: 0x75 }
  - { offset: 0x1344A5, size: 0x8, addend: 0x0, symName: __ZN5serde3ser10Serializer11collect_seq17hd9eeb42b8b2cbf4aE, symObjAddr: 0x31AE6, symBinAddr: 0x311EA, symSize: 0x82 }
  - { offset: 0x135520, size: 0x8, addend: 0x0, symName: '__ZN86_$LT$alloc..vec..into_iter..IntoIter$LT$T$C$A$GT$$u20$as$u20$core..ops..drop..Drop$GT$4drop17h75981ab82960dddfE', symObjAddr: 0x32157, symBinAddr: 0x3185B, symSize: 0x55 }
  - { offset: 0x1E3369, size: 0x8, addend: 0x0, symName: __ZN12sqlite3_capi4capi8bind_int17hc37e911f5aa6a21bE, symObjAddr: 0x4F2A8, symBinAddr: 0x4D6A8, symSize: 0x1B }
  - { offset: 0x1E90B4, size: 0x8, addend: 0x0, symName: __ZN12sqlite3_capi4capi11SQLITE3_API17h21a8c0ee71a870daE.0, symObjAddr: 0x6573D0, symBinAddr: 0x600A0, symSize: 0x0 }
  - { offset: 0x1E9244, size: 0x8, addend: 0x0, symName: __ZN12sqlite3_capi4capi8bind_int17hc37e911f5aa6a21bE, symObjAddr: 0x4F2A8, symBinAddr: 0x4D6A8, symSize: 0x1B }
  - { offset: 0x1E92A6, size: 0x8, addend: 0x0, symName: __ZN12sqlite3_capi4capi10bind_int6417h2097f398cff80fecE, symObjAddr: 0x4F2C3, symBinAddr: 0x4D6C3, symSize: 0x1B }
  - { offset: 0x1E9308, size: 0x8, addend: 0x0, symName: __ZN12sqlite3_capi4capi9bind_null17h3cb8ea07c7781673E, symObjAddr: 0x4F2DE, symBinAddr: 0x4D6DE, symSize: 0x1B }
  - { offset: 0x1E935B, size: 0x8, addend: 0x0, symName: __ZN12sqlite3_capi4capi9bind_text17h039ceff4c640ba45E, symObjAddr: 0x4F2F9, symBinAddr: 0x4D6F9, symSize: 0x1E }
  - { offset: 0x1E93DC, size: 0x8, addend: 0x0, symName: __ZN12sqlite3_capi4capi20bind_parameter_count17hbf6099bbdc499335E, symObjAddr: 0x4F317, symBinAddr: 0x4D717, symSize: 0x1B }
  - { offset: 0x1E9420, size: 0x8, addend: 0x0, symName: __ZN12sqlite3_capi4capi12column_bytes17h26a6dbc67fcf59e4E, symObjAddr: 0x4F332, symBinAddr: 0x4D732, symSize: 0x1E }
  - { offset: 0x1E9476, size: 0x8, addend: 0x0, symName: __ZN12sqlite3_capi4capi15column_text_ptr17ha5e12f335e9d06c7E, symObjAddr: 0x4F350, symBinAddr: 0x4D750, symSize: 0x1E }
  - { offset: 0x1E94CC, size: 0x8, addend: 0x0, symName: __ZN12sqlite3_capi4capi10column_int17h4d967cb47418780eE, symObjAddr: 0x4F36E, symBinAddr: 0x4D76E, symSize: 0x1E }
  - { offset: 0x1E9522, size: 0x8, addend: 0x0, symName: __ZN12sqlite3_capi4capi12column_int6417hb2194158ba7fb69bE, symObjAddr: 0x4F38C, symBinAddr: 0x4D78C, symSize: 0x1E }
  - { offset: 0x1E9577, size: 0x8, addend: 0x0, symName: __ZN12sqlite3_capi4capi17context_db_handle17h4f5da23b20f8fc36E, symObjAddr: 0x4F3AA, symBinAddr: 0x4D7AA, symSize: 0x1E }
  - { offset: 0x1E95BD, size: 0x8, addend: 0x0, symName: __ZN12sqlite3_capi4capi16create_module_v217h5f8974318e3bfba0E, symObjAddr: 0x4F3C8, symBinAddr: 0x4D7C8, symSize: 0x25 }
  - { offset: 0x1E9640, size: 0x8, addend: 0x0, symName: __ZN12sqlite3_capi4capi4exec17h207870f7753776a6E, symObjAddr: 0x4F3ED, symBinAddr: 0x4D7ED, symSize: 0x25 }
  - { offset: 0x1E9696, size: 0x8, addend: 0x0, symName: __ZN12sqlite3_capi4capi10prepare_v217he3d2d55c4f399020E, symObjAddr: 0x4F412, symBinAddr: 0x4D812, symSize: 0x1E }
  - { offset: 0x1E971C, size: 0x8, addend: 0x0, symName: __ZN12sqlite3_capi4capi11result_null17hcaff7f96e6873ba6E, symObjAddr: 0x4F430, symBinAddr: 0x4D830, symSize: 0x1E }
  - { offset: 0x1E975E, size: 0x8, addend: 0x0, symName: __ZN12sqlite3_capi4capi12result_error17hd2be942f0f6e1fcaE, symObjAddr: 0x4F44E, symBinAddr: 0x4D84E, symSize: 0x1E }
  - { offset: 0x1E97C0, size: 0x8, addend: 0x0, symName: __ZN12sqlite3_capi4capi17result_error_code17h05dd96f8232a6c8eE, symObjAddr: 0x4F46C, symBinAddr: 0x4D86C, symSize: 0x1E }
  - { offset: 0x1E9812, size: 0x8, addend: 0x0, symName: __ZN12sqlite3_capi4capi11result_text17h9121b352d2a1f7e6E, symObjAddr: 0x4F48A, symBinAddr: 0x4D88A, symSize: 0x21 }
  - { offset: 0x1E9885, size: 0x8, addend: 0x0, symName: __ZN12sqlite3_capi4capi14result_subtype17hab1dac7d2ae165f4E, symObjAddr: 0x4F4AB, symBinAddr: 0x4D8AB, symSize: 0x1E }
  - { offset: 0x1E98D6, size: 0x8, addend: 0x0, symName: __ZN12sqlite3_capi4capi10value_text17h3016939b118e40f3E, symObjAddr: 0x4F4C9, symBinAddr: 0x4D8C9, symSize: 0x37 }
  - { offset: 0x1E9950, size: 0x8, addend: 0x0, symName: __ZN12sqlite3_capi4capi11value_bytes17h1b2b7432e5d554f9E, symObjAddr: 0x4F500, symBinAddr: 0x4D900, symSize: 0x1E }
  - { offset: 0x1E9996, size: 0x8, addend: 0x0, symName: __ZN12sqlite3_capi4capi10value_type17h5c3f40468614617fE, symObjAddr: 0x4F51E, symBinAddr: 0x4D91E, symSize: 0x1E }
  - { offset: 0x15224D, size: 0x8, addend: 0x0, symName: '__ZN10serde_with2de41_$LT$impl$u20$serde_with..As$LT$T$GT$$GT$11deserialize17h223d8a268bc3552cE', symObjAddr: 0x356FC, symBinAddr: 0x34DB0, symSize: 0x7C }
  - { offset: 0x153107, size: 0x8, addend: 0x0, symName: '__ZN5serde2de5impls74_$LT$impl$u20$serde..de..Deserialize$u20$for$u20$alloc..string..String$GT$11deserialize17h30dc088ed2f0e153E', symObjAddr: 0x3674F, symBinAddr: 0x35E03, symSize: 0x28D }
  - { offset: 0x15349B, size: 0x8, addend: 0x0, symName: '__ZN5serde2de5impls74_$LT$impl$u20$serde..de..Deserialize$u20$for$u20$alloc..string..String$GT$11deserialize17h922c47e5504680f8E', symObjAddr: 0x369DC, symBinAddr: 0x36090, symSize: 0x101 }
  - { offset: 0x1536CC, size: 0x8, addend: 0x0, symName: '__ZN5serde2de5impls60_$LT$impl$u20$serde..de..Deserialize$u20$for$u20$$RF$str$GT$11deserialize17hb88a2db5fe071f9eE', symObjAddr: 0x36661, symBinAddr: 0x35D15, symSize: 0xEE }
  - { offset: 0x153914, size: 0x8, addend: 0x0, symName: '__ZN67_$LT$serde..de..impls..StrVisitor$u20$as$u20$serde..de..Visitor$GT$20visit_borrowed_bytes17h21ee8e75577c633aE', symObjAddr: 0x37221, symBinAddr: 0x36191, symSize: 0x6A }
  - { offset: 0x153A0F, size: 0x8, addend: 0x0, symName: '__ZN5serde2de5impls57_$LT$impl$u20$serde..de..Deserialize$u20$for$u20$bool$GT$11deserialize17h2c5beef548589435E', symObjAddr: 0x36350, symBinAddr: 0x35A04, symSize: 0x248 }
  - { offset: 0x153CDF, size: 0x8, addend: 0x0, symName: '__ZN5serde2de5impls57_$LT$impl$u20$serde..de..Deserialize$u20$for$u20$bool$GT$11deserialize17h6a994f429a00ae9bE', symObjAddr: 0x36598, symBinAddr: 0x35C4C, symSize: 0xC9 }
  - { offset: 0x153E84, size: 0x8, addend: 0x0, symName: '__ZN70_$LT$serde..de..impls..StringVisitor$u20$as$u20$serde..de..Visitor$GT$11visit_bytes17h6c178a3f883e0993E', symObjAddr: 0x3728B, symBinAddr: 0x361FB, symSize: 0x84 }
  - { offset: 0x154FB5, size: 0x8, addend: 0x0, symName: __ZN5serde2de7Visitor11visit_bytes17h2b5e3b5d25f3c4a9E, symObjAddr: 0x36ADD, symBinAddr: 0x4F7B5, symSize: 0x36 }
  - { offset: 0x155006, size: 0x8, addend: 0x0, symName: __ZN5serde2de7Visitor11visit_bytes17h4c2c97a8e3ea6b61E, symObjAddr: 0x36B13, symBinAddr: 0x4F7EB, symSize: 0x36 }
  - { offset: 0x155057, size: 0x8, addend: 0x0, symName: __ZN5serde2de7Visitor11visit_bytes17h606c7e1f620e7030E, symObjAddr: 0x36B49, symBinAddr: 0x4F821, symSize: 0x43 }
  - { offset: 0x1550A7, size: 0x8, addend: 0x0, symName: __ZN5serde2de7Visitor11visit_bytes17h6dc319026b9db7ecE, symObjAddr: 0x36B8C, symBinAddr: 0x4F864, symSize: 0x43 }
  - { offset: 0x1550F7, size: 0x8, addend: 0x0, symName: __ZN5serde2de7Visitor11visit_bytes17h7455878e145a6074E, symObjAddr: 0x36BCF, symBinAddr: 0x4F8A7, symSize: 0x43 }
  - { offset: 0x155147, size: 0x8, addend: 0x0, symName: __ZN5serde2de7Visitor11visit_bytes17h9147026b1c93108dE, symObjAddr: 0x36C12, symBinAddr: 0x4F8EA, symSize: 0x43 }
  - { offset: 0x155197, size: 0x8, addend: 0x0, symName: __ZN5serde2de7Visitor11visit_bytes17h9266c7591e02429eE, symObjAddr: 0x36C55, symBinAddr: 0x4F92D, symSize: 0x3C }
  - { offset: 0x1551E8, size: 0x8, addend: 0x0, symName: __ZN5serde2de7Visitor11visit_bytes17h95b1cbd9e7e7ac57E, symObjAddr: 0x36C91, symBinAddr: 0x4F969, symSize: 0x43 }
  - { offset: 0x155238, size: 0x8, addend: 0x0, symName: __ZN5serde2de7Visitor11visit_bytes17hcd6a8bc20f4eb53eE, symObjAddr: 0x36CD4, symBinAddr: 0x4F9AC, symSize: 0x43 }
  - { offset: 0x155288, size: 0x8, addend: 0x0, symName: __ZN5serde2de7Visitor11visit_bytes17hfd155ff6ce1ef096E, symObjAddr: 0x36D17, symBinAddr: 0x4F9EF, symSize: 0x39 }
  - { offset: 0x1552D9, size: 0x8, addend: 0x0, symName: __ZN5serde2de7Visitor9visit_i6417h92bf6c89c5d70200E, symObjAddr: 0x36D50, symBinAddr: 0x4FA28, symSize: 0x35 }
  - { offset: 0x15532A, size: 0x8, addend: 0x0, symName: __ZN5serde2de7Visitor9visit_i6417h7475bdb0d54f72e7E, symObjAddr: 0x36D85, symBinAddr: 0x4FA5D, symSize: 0x36 }
  - { offset: 0x15537B, size: 0x8, addend: 0x0, symName: __ZN5serde2de7Visitor9visit_i6417h1740c9d6db38f920E, symObjAddr: 0x36DBB, symBinAddr: 0x4FA93, symSize: 0x3F }
  - { offset: 0x1553CB, size: 0x8, addend: 0x0, symName: __ZN5serde2de7Visitor9visit_i6417h6156c717f9a66316E, symObjAddr: 0x36DFA, symBinAddr: 0x4FAD2, symSize: 0x3F }
  - { offset: 0x15541B, size: 0x8, addend: 0x0, symName: __ZN5serde2de7Visitor9visit_i6417hc8ac7783e0738001E, symObjAddr: 0x36E39, symBinAddr: 0x4FB11, symSize: 0x3F }
  - { offset: 0x15546B, size: 0x8, addend: 0x0, symName: __ZN5serde2de7Visitor9visit_i6417hb710784537ffe35cE, symObjAddr: 0x36E78, symBinAddr: 0x4FB50, symSize: 0x3F }
  - { offset: 0x1554BC, size: 0x8, addend: 0x0, symName: __ZN5serde2de7Visitor9visit_i6417hc5ac9198381192c7E, symObjAddr: 0x36EB7, symBinAddr: 0x4FB8F, symSize: 0x3F }
  - { offset: 0x15550C, size: 0x8, addend: 0x0, symName: __ZN5serde2de7Visitor9visit_i6417hf3795df30eaba716E, symObjAddr: 0x36EF6, symBinAddr: 0x4FBCE, symSize: 0x3F }
  - { offset: 0x15555C, size: 0x8, addend: 0x0, symName: __ZN5serde2de7Visitor9visit_i6417h16c4c4567efd767eE, symObjAddr: 0x36F35, symBinAddr: 0x4FC0D, symSize: 0x3F }
  - { offset: 0x1555AC, size: 0x8, addend: 0x0, symName: __ZN5serde2de7Visitor9visit_str17h30a4bba285520dfaE, symObjAddr: 0x36F74, symBinAddr: 0x4FC4C, symSize: 0x43 }
  - { offset: 0x1555FC, size: 0x8, addend: 0x0, symName: __ZN5serde2de7Visitor9visit_str17h3597443cec16cb2cE, symObjAddr: 0x36FB7, symBinAddr: 0x4FC8F, symSize: 0x36 }
  - { offset: 0x15564D, size: 0x8, addend: 0x0, symName: __ZN5serde2de7Visitor9visit_str17h3ab01ea3c71e391bE, symObjAddr: 0x36FED, symBinAddr: 0x4FCC5, symSize: 0x43 }
  - { offset: 0x15569D, size: 0x8, addend: 0x0, symName: __ZN5serde2de7Visitor9visit_str17h4fe5d5714249f94dE, symObjAddr: 0x37030, symBinAddr: 0x4FD08, symSize: 0x36 }
  - { offset: 0x1556EE, size: 0x8, addend: 0x0, symName: __ZN5serde2de7Visitor9visit_str17h569dcbd6311bd668E, symObjAddr: 0x37066, symBinAddr: 0x4FD3E, symSize: 0x43 }
  - { offset: 0x15573E, size: 0x8, addend: 0x0, symName: __ZN5serde2de7Visitor9visit_str17h5dbf4f806679f9f3E, symObjAddr: 0x370A9, symBinAddr: 0x4FD81, symSize: 0x39 }
  - { offset: 0x15578F, size: 0x8, addend: 0x0, symName: __ZN5serde2de7Visitor9visit_str17h5e5809ec6b2f0f0cE, symObjAddr: 0x370E2, symBinAddr: 0x4FDBA, symSize: 0x3A }
  - { offset: 0x1557E0, size: 0x8, addend: 0x0, symName: __ZN5serde2de7Visitor9visit_str17h9423c7c50064bcbbE, symObjAddr: 0x3711C, symBinAddr: 0x4FDF4, symSize: 0x43 }
  - { offset: 0x155830, size: 0x8, addend: 0x0, symName: __ZN5serde2de7Visitor9visit_str17haee32950d43076a6E, symObjAddr: 0x3715F, symBinAddr: 0x4FE37, symSize: 0x43 }
  - { offset: 0x155880, size: 0x8, addend: 0x0, symName: __ZN5serde2de7Visitor9visit_str17hd9aa3eece199b4dcE, symObjAddr: 0x371A2, symBinAddr: 0x4FE7A, symSize: 0x3C }
  - { offset: 0x1558D1, size: 0x8, addend: 0x0, symName: __ZN5serde2de7Visitor9visit_str17he8e5f8eef41e7e6aE, symObjAddr: 0x371DE, symBinAddr: 0x4FEB6, symSize: 0x43 }
  - { offset: 0x1562E4, size: 0x8, addend: 0x0, symName: '__ZN41_$LT$T$u20$as$u20$serde..de..Expected$GT$3fmt17h108a94f6c51459dfE', symObjAddr: 0x35C1A, symBinAddr: 0x352CE, symSize: 0x23 }
  - { offset: 0x15635C, size: 0x8, addend: 0x0, symName: '__ZN41_$LT$T$u20$as$u20$serde..de..Expected$GT$3fmt17h1237dd0421f20468E', symObjAddr: 0x35C3D, symBinAddr: 0x352F1, symSize: 0x23 }
  - { offset: 0x1563D5, size: 0x8, addend: 0x0, symName: '__ZN41_$LT$T$u20$as$u20$serde..de..Expected$GT$3fmt17h1b87d602cc56fa99E', symObjAddr: 0x35C60, symBinAddr: 0x35314, symSize: 0x23 }
  - { offset: 0x15644D, size: 0x8, addend: 0x0, symName: '__ZN41_$LT$T$u20$as$u20$serde..de..Expected$GT$3fmt17h3304412abaef032eE', symObjAddr: 0x35C83, symBinAddr: 0x35337, symSize: 0x23 }
  - { offset: 0x1564C5, size: 0x8, addend: 0x0, symName: '__ZN41_$LT$T$u20$as$u20$serde..de..Expected$GT$3fmt17h348ad2c39f660a10E', symObjAddr: 0x35CA6, symBinAddr: 0x3535A, symSize: 0x23 }
  - { offset: 0x15653E, size: 0x8, addend: 0x0, symName: '__ZN41_$LT$T$u20$as$u20$serde..de..Expected$GT$3fmt17h3b95f6ea3cbf81d0E', symObjAddr: 0x35CC9, symBinAddr: 0x3537D, symSize: 0x23 }
  - { offset: 0x1565B6, size: 0x8, addend: 0x0, symName: '__ZN41_$LT$T$u20$as$u20$serde..de..Expected$GT$3fmt17h4065bee0ed391a36E', symObjAddr: 0x35CEC, symBinAddr: 0x353A0, symSize: 0x23 }
  - { offset: 0x15662F, size: 0x8, addend: 0x0, symName: '__ZN41_$LT$T$u20$as$u20$serde..de..Expected$GT$3fmt17h4db128ec31bd629cE', symObjAddr: 0x35D0F, symBinAddr: 0x353C3, symSize: 0x23 }
  - { offset: 0x1566A7, size: 0x8, addend: 0x0, symName: '__ZN41_$LT$T$u20$as$u20$serde..de..Expected$GT$3fmt17h65cf9e1a8a0304caE', symObjAddr: 0x35D32, symBinAddr: 0x353E6, symSize: 0x23 }
  - { offset: 0x156720, size: 0x8, addend: 0x0, symName: '__ZN41_$LT$T$u20$as$u20$serde..de..Expected$GT$3fmt17h6ede99582eefbd97E', symObjAddr: 0x35D55, symBinAddr: 0x35409, symSize: 0x23 }
  - { offset: 0x156798, size: 0x8, addend: 0x0, symName: '__ZN41_$LT$T$u20$as$u20$serde..de..Expected$GT$3fmt17h7f9ed02517cc3b00E', symObjAddr: 0x35D78, symBinAddr: 0x3542C, symSize: 0x23 }
  - { offset: 0x156810, size: 0x8, addend: 0x0, symName: '__ZN41_$LT$T$u20$as$u20$serde..de..Expected$GT$3fmt17h932298e01173b71bE', symObjAddr: 0x35D9B, symBinAddr: 0x3544F, symSize: 0x23 }
  - { offset: 0x156888, size: 0x8, addend: 0x0, symName: '__ZN41_$LT$T$u20$as$u20$serde..de..Expected$GT$3fmt17h982d922c0e5abe49E', symObjAddr: 0x35DBE, symBinAddr: 0x35472, symSize: 0x23 }
  - { offset: 0x156900, size: 0x8, addend: 0x0, symName: '__ZN41_$LT$T$u20$as$u20$serde..de..Expected$GT$3fmt17h9f4f27303da4a880E', symObjAddr: 0x35DE1, symBinAddr: 0x35495, symSize: 0x23 }
  - { offset: 0x156978, size: 0x8, addend: 0x0, symName: '__ZN41_$LT$T$u20$as$u20$serde..de..Expected$GT$3fmt17ha9b91d2840006bb5E', symObjAddr: 0x35E04, symBinAddr: 0x354B8, symSize: 0x23 }
  - { offset: 0x1569F0, size: 0x8, addend: 0x0, symName: '__ZN41_$LT$T$u20$as$u20$serde..de..Expected$GT$3fmt17hb750595ca85b62cfE', symObjAddr: 0x35E27, symBinAddr: 0x354DB, symSize: 0x5D }
  - { offset: 0x157AC8, size: 0x8, addend: 0x0, symName: '__ZN14powersync_core6schema10table_info1_105_$LT$impl$u20$serde..de..Deserialize$u20$for$u20$powersync_core..schema..table_info..PendingStatement$GT$11deserialize17h212b09ee95da3b90E', symObjAddr: 0x3758B, symBinAddr: 0x364FB, symSize: 0x73F }
  - { offset: 0x1597BB, size: 0x8, addend: 0x0, symName: '__ZN81_$LT$alloc..vec..Vec$LT$T$C$A$GT$$u20$as$u20$core..ops..index..Index$LT$I$GT$$GT$5index17h55659718b816acd5E', symObjAddr: 0x35EE2, symBinAddr: 0x35596, symSize: 0x16 }
  - { offset: 0x15A93B, size: 0x8, addend: 0x0, symName: '__ZN5alloc5slice29_$LT$impl$u20$$u5b$T$u5d$$GT$4join17hae381a531c14cf36E', symObjAddr: 0x361E2, symBinAddr: 0x35896, symSize: 0x16E }
  - { offset: 0x15B3AA, size: 0x8, addend: 0x0, symName: __ZN5alloc3fmt6format17h00833a3c5a22acb1E.2272, symObjAddr: 0x373C3, symBinAddr: 0x36333, symSize: 0x35 }
  - { offset: 0x15BE6B, size: 0x8, addend: 0x0, symName: '__ZN4core3ptr91drop_in_place$LT$core..option..Option$LT$powersync_core..sync..line..BucketChecksum$GT$$GT$17h724825f4e8b6faf3E', symObjAddr: 0x359F0, symBinAddr: 0x350A4, symSize: 0x2B }
  - { offset: 0x15BF47, size: 0x8, addend: 0x0, symName: '__ZN4core3ptr87drop_in_place$LT$core..option..Option$LT$powersync_core..sync..line..OplogEntry$GT$$GT$17haead5414c97f748cE', symObjAddr: 0x35A5E, symBinAddr: 0x35112, symSize: 0x5E }
  - { offset: 0x15C032, size: 0x8, addend: 0x0, symName: '__ZN4core3ptr94drop_in_place$LT$core..option..Option$LT$powersync_core..sync..line..StreamDescription$GT$$GT$17hb9712ec63b452a43E', symObjAddr: 0x35AFF, symBinAddr: 0x351B3, symSize: 0x3F }
  - { offset: 0x15C1A8, size: 0x8, addend: 0x0, symName: '__ZN4core3ptr95drop_in_place$LT$alloc..vec..Vec$LT$powersync_core..sync..line..StreamSubscriptionError$GT$$GT$17h1b770db7a85cce03E', symObjAddr: 0x35B92, symBinAddr: 0x35246, symSize: 0x29 }
  - { offset: 0x15C246, size: 0x8, addend: 0x0, symName: '__ZN4core3ptr100drop_in_place$LT$core..option..Option$LT$powersync_core..sync..line..StreamSubscriptionError$GT$$GT$17h86e995be979ed29fE', symObjAddr: 0x35BFE, symBinAddr: 0x352B2, symSize: 0x1C }
  - { offset: 0x15C31E, size: 0x8, addend: 0x0, symName: '__ZN4core3ptr101drop_in_place$LT$core..option..Option$LT$powersync_core..sync_local..PreparedPendingStatement$GT$$GT$17h58d97fc541b5c135E', symObjAddr: 0x35ECE, symBinAddr: 0x35582, symSize: 0x14 }
  - { offset: 0x15C42F, size: 0x8, addend: 0x0, symName: '__ZN4core3ptr59drop_in_place$LT$serde..__private..de..content..Content$GT$17h361298bf0af0ae7aE.2280', symObjAddr: 0x3748F, symBinAddr: 0x363FF, symSize: 0xDD }
  - { offset: 0x15C4C8, size: 0x8, addend: 0x0, symName: '__ZN4core3ptr84drop_in_place$LT$alloc..boxed..Box$LT$serde..__private..de..content..Content$GT$$GT$17h8749e01c4ac1a14eE.2281', symObjAddr: 0x3756C, symBinAddr: 0x364DC, symSize: 0x1F }
  - { offset: 0x15C5B1, size: 0x8, addend: 0x0, symName: '__ZN4core3ptr78drop_in_place$LT$powersync_core..schema..table_info..PendingStatementValue$GT$17h149bf4a4331894bfE', symObjAddr: 0x37CCA, symBinAddr: 0x36C3A, symSize: 0x14 }
  - { offset: 0x160BEE, size: 0x8, addend: 0x0, symName: '__ZN4core5slice29_$LT$impl$u20$$u5b$T$u5d$$GT$20binary_search_by_key28_$u7b$$u7b$closure$u7d$$u7d$17h783e8d9c821fe276E', symObjAddr: 0x35EF8, symBinAddr: 0x355AC, symSize: 0x1C }
  - { offset: 0x160DD4, size: 0x8, addend: 0x0, symName: __ZN4core5slice4sort6stable14driftsort_main17h3666c56d73dc04c1E, symObjAddr: 0x35F14, symBinAddr: 0x355C8, symSize: 0xB3 }
  - { offset: 0x161036, size: 0x8, addend: 0x0, symName: __ZN4core5slice4sort6stable14driftsort_main17h5f87969023e1ebfcE, symObjAddr: 0x35FC7, symBinAddr: 0x3567B, symSize: 0xB5 }
  - { offset: 0x161274, size: 0x8, addend: 0x0, symName: __ZN4core5slice4sort6stable14driftsort_main17h7e0950a2e1f79fceE, symObjAddr: 0x3607C, symBinAddr: 0x35730, symSize: 0xB3 }
  - { offset: 0x1614D6, size: 0x8, addend: 0x0, symName: __ZN4core5slice4sort6stable14driftsort_main17h9a7f94bf40945e14E, symObjAddr: 0x3612F, symBinAddr: 0x357E3, symSize: 0xB3 }
  - { offset: 0x161C8F, size: 0x8, addend: 0x0, symName: '__ZN44_$LT$$RF$T$u20$as$u20$core..fmt..Display$GT$3fmt17h2b48094752f0f28aE', symObjAddr: 0x35EC1, symBinAddr: 0x35575, symSize: 0xD }
  - { offset: 0x161D3F, size: 0x8, addend: 0x0, symName: __ZN4core4iter6traits8iterator8Iterator7collect17h82e6f9e14c8859d8E, symObjAddr: 0x373F8, symBinAddr: 0x36368, symSize: 0x97 }
  - { offset: 0x1643B2, size: 0x8, addend: 0x0, symName: '__ZN10serde_with2de41_$LT$impl$u20$serde_with..As$LT$T$GT$$GT$11deserialize17h223d8a268bc3552cE', symObjAddr: 0x356FC, symBinAddr: 0x34DB0, symSize: 0x7C }
  - { offset: 0x1644F7, size: 0x8, addend: 0x0, symName: '__ZN10serde_with2de41_$LT$impl$u20$serde_with..As$LT$T$GT$$GT$11deserialize17h70df4791125d7845E', symObjAddr: 0x35778, symBinAddr: 0x34E2C, symSize: 0x153 }
  - { offset: 0x164731, size: 0x8, addend: 0x0, symName: '__ZN10serde_with2de41_$LT$impl$u20$serde_with..As$LT$T$GT$$GT$11deserialize17hdc3cb351e4060b0eE', symObjAddr: 0x358CB, symBinAddr: 0x34F7F, symSize: 0x59 }
  - { offset: 0x16487D, size: 0x8, addend: 0x0, symName: '__ZN5alloc7raw_vec20RawVecInner$LT$A$GT$16with_capacity_in17h33cb4903e72ca979E.1811', symObjAddr: 0x35924, symBinAddr: 0x34FD8, symSize: 0x3D }
  - { offset: 0x1649AB, size: 0x8, addend: 0x0, symName: '__ZN5alloc3vec16Vec$LT$T$C$A$GT$4push17h35e3d240f7ab7523E', symObjAddr: 0x35961, symBinAddr: 0x35015, symSize: 0x49 }
  - { offset: 0x164B0F, size: 0x8, addend: 0x0, symName: '__ZN5alloc3vec16Vec$LT$T$C$A$GT$4push17hdf25903793fa29b6E', symObjAddr: 0x359AA, symBinAddr: 0x3505E, symSize: 0x46 }
  - { offset: 0x164BEF, size: 0x8, addend: 0x0, symName: '__ZN5alloc3vec16Vec$LT$T$C$A$GT$4push17ha961564797dd62c3E', symObjAddr: 0x35A1B, symBinAddr: 0x350CF, symSize: 0x43 }
  - { offset: 0x164CE9, size: 0x8, addend: 0x0, symName: '__ZN5alloc3vec16Vec$LT$T$C$A$GT$4push17h9d17a3b94fba56beE', symObjAddr: 0x35ABC, symBinAddr: 0x35170, symSize: 0x43 }
  - { offset: 0x164F56, size: 0x8, addend: 0x0, symName: '__ZN5alloc3vec16Vec$LT$T$C$A$GT$4push17h778fc7ec978f0087E', symObjAddr: 0x35B3E, symBinAddr: 0x351F2, symSize: 0x54 }
  - { offset: 0x1650C6, size: 0x8, addend: 0x0, symName: '__ZN5alloc3vec16Vec$LT$T$C$A$GT$4push17h77a443b762687ea5E', symObjAddr: 0x35BBB, symBinAddr: 0x3526F, symSize: 0x43 }
  - { offset: 0x165271, size: 0x8, addend: 0x0, symName: __ZN4core3fmt9Arguments6as_str17h447c24186ac4c0d1E.1924, symObjAddr: 0x35E84, symBinAddr: 0x35538, symSize: 0x3D }
  - { offset: 0x1653BA, size: 0x8, addend: 0x0, symName: __ZN14powersync_core6schema10table_info5Table9from_json17hb339276af364b7b2E, symObjAddr: 0x3730F, symBinAddr: 0x3627F, symSize: 0xB4 }
  - { offset: 0x10BBCA, size: 0x8, addend: 0x0, symName: '__ZN5alloc7raw_vec20RawVecInner$LT$A$GT$7reserve17h53afb71c213847ddE', symObjAddr: 0x286A3, symBinAddr: 0x27EDF, symSize: 0x24 }
  - { offset: 0x10D41B, size: 0x8, addend: 0x0, symName: '__ZN4core3ptr208drop_in_place$LT$powersync_core..sync..streaming_sync..StreamingSyncIteration..resolve_subscription_state..LocalAndServerSubscription$LT$powersync_core..sync..subscriptions..LocallyTrackedSubscription$GT$$GT$17h25450f6e3e8c9eb0E', symObjAddr: 0x28756, symBinAddr: 0x27F92, symSize: 0x29 }
  - { offset: 0x10D4D4, size: 0x8, addend: 0x0, symName: '__ZN4core3ptr106drop_in_place$LT$core..option..Option$LT$alloc..boxed..Box$LT$powersync_core..util..JsonString$GT$$GT$$GT$17h29a5c7490bbf8790E', symObjAddr: 0x2877F, symBinAddr: 0x27FBB, symSize: 0x1F }
  - { offset: 0x10D891, size: 0x8, addend: 0x0, symName: '__ZN4core3ptr136drop_in_place$LT$core..option..Option$LT$$LP$serde..__private..de..content..Content$C$serde..__private..de..content..Content$RP$$GT$$GT$17hc0edbc1d5d84b732E', symObjAddr: 0x30F90, symBinAddr: 0x306FC, symSize: 0x11 }
  - { offset: 0x10D8C0, size: 0x8, addend: 0x0, symName: '__ZN4core3ptr108drop_in_place$LT$$LP$serde..__private..de..content..Content$C$serde..__private..de..content..Content$RP$$GT$17hb7f707082674ba45E', symObjAddr: 0x30FA1, symBinAddr: 0x3070D, symSize: 0x20 }
  - { offset: 0x10D96D, size: 0x8, addend: 0x0, symName: '__ZN4core3ptr59drop_in_place$LT$serde..__private..de..content..Content$GT$17h361298bf0af0ae7aE.1425', symObjAddr: 0x30FC1, symBinAddr: 0x3072D, symSize: 0xDB }
  - { offset: 0x10DA25, size: 0x8, addend: 0x0, symName: '__ZN4core3ptr84drop_in_place$LT$alloc..boxed..Box$LT$serde..__private..de..content..Content$GT$$GT$17h8749e01c4ac1a14eE.1428', symObjAddr: 0x310C4, symBinAddr: 0x30830, symSize: 0x1F }
  - { offset: 0x10DCDF, size: 0x8, addend: 0x0, symName: '__ZN4core3ptr73drop_in_place$LT$powersync_core..schema..table_info..PendingStatement$GT$17h19d17355cff92b83E.1442', symObjAddr: 0x3122E, symBinAddr: 0x3099A, symSize: 0x36 }
  - { offset: 0x111F3D, size: 0x8, addend: 0x0, symName: '__ZN115_$LT$core..iter..adapters..filter_map..FilterMap$LT$I$C$F$GT$$u20$as$u20$core..iter..traits..iterator..Iterator$GT$4next17h4c21912b14d38e47E', symObjAddr: 0x28720, symBinAddr: 0x27F5C, symSize: 0x36 }
  - { offset: 0x1133F3, size: 0x8, addend: 0x0, symName: '__ZN5serde2de5impls82_$LT$impl$u20$serde..de..Deserialize$u20$for$u20$core..option..Option$LT$T$GT$$GT$11deserialize17h0518e5053c2c242eE', symObjAddr: 0x3014F, symBinAddr: 0x2F98B, symSize: 0x124 }
  - { offset: 0x1135EF, size: 0x8, addend: 0x0, symName: '__ZN5serde2de5impls82_$LT$impl$u20$serde..de..Deserialize$u20$for$u20$core..option..Option$LT$T$GT$$GT$11deserialize17h08124c166b9e0e15E', symObjAddr: 0x30273, symBinAddr: 0x2FAAF, symSize: 0x7B }
  - { offset: 0x113728, size: 0x8, addend: 0x0, symName: '__ZN5serde2de5impls82_$LT$impl$u20$serde..de..Deserialize$u20$for$u20$core..option..Option$LT$T$GT$$GT$11deserialize17h159f5827c02c87e3E', symObjAddr: 0x302EE, symBinAddr: 0x2FB2A, symSize: 0x148 }
  - { offset: 0x1139BA, size: 0x8, addend: 0x0, symName: '__ZN5serde2de5impls82_$LT$impl$u20$serde..de..Deserialize$u20$for$u20$core..option..Option$LT$T$GT$$GT$11deserialize17h37283740ca92fcc4E', symObjAddr: 0x30436, symBinAddr: 0x2FC72, symSize: 0xA2 }
  - { offset: 0x113B18, size: 0x8, addend: 0x0, symName: '__ZN5serde2de5impls82_$LT$impl$u20$serde..de..Deserialize$u20$for$u20$core..option..Option$LT$T$GT$$GT$11deserialize17h3d89e3b98557d385E', symObjAddr: 0x304D8, symBinAddr: 0x2FD14, symSize: 0x35C }
  - { offset: 0x113F6B, size: 0x8, addend: 0x0, symName: '__ZN5serde2de5impls82_$LT$impl$u20$serde..de..Deserialize$u20$for$u20$core..option..Option$LT$T$GT$$GT$11deserialize17h5c97761853eb5927E', symObjAddr: 0x30834, symBinAddr: 0x30070, symSize: 0x87 }
  - { offset: 0x1140E5, size: 0x8, addend: 0x0, symName: '__ZN5serde2de5impls82_$LT$impl$u20$serde..de..Deserialize$u20$for$u20$core..option..Option$LT$T$GT$$GT$11deserialize17h795a82fb19a7acb6E', symObjAddr: 0x308BB, symBinAddr: 0x300F7, symSize: 0xAE }
  - { offset: 0x114253, size: 0x8, addend: 0x0, symName: '__ZN5serde2de5impls82_$LT$impl$u20$serde..de..Deserialize$u20$for$u20$core..option..Option$LT$T$GT$$GT$11deserialize17h7b5ac9347d0cd6fcE', symObjAddr: 0x30969, symBinAddr: 0x301A5, symSize: 0xA2 }
  - { offset: 0x114385, size: 0x8, addend: 0x0, symName: '__ZN5serde2de5impls82_$LT$impl$u20$serde..de..Deserialize$u20$for$u20$core..option..Option$LT$T$GT$$GT$11deserialize17hb0d24c2dec2d3e9fE', symObjAddr: 0x30A0B, symBinAddr: 0x30247, symSize: 0x7D }
  - { offset: 0x114490, size: 0x8, addend: 0x0, symName: '__ZN5serde2de5impls82_$LT$impl$u20$serde..de..Deserialize$u20$for$u20$core..option..Option$LT$T$GT$$GT$11deserialize17hdb9d36352bdc6503E', symObjAddr: 0x30A88, symBinAddr: 0x302C4, symSize: 0x264 }
  - { offset: 0x114F8A, size: 0x8, addend: 0x0, symName: '__ZN5serde2de5impls77_$LT$impl$u20$serde..de..Deserialize$u20$for$u20$alloc..vec..Vec$LT$T$GT$$GT$11deserialize17h1c6a08a50d8473b3E', symObjAddr: 0x2879E, symBinAddr: 0x27FDA, symSize: 0x4D0 }
  - { offset: 0x115600, size: 0x8, addend: 0x0, symName: '__ZN5serde2de5impls77_$LT$impl$u20$serde..de..Deserialize$u20$for$u20$alloc..vec..Vec$LT$T$GT$$GT$11deserialize17h338271ba48c22426E', symObjAddr: 0x28C6E, symBinAddr: 0x284AA, symSize: 0x1BF }
  - { offset: 0x1157F9, size: 0x8, addend: 0x0, symName: '__ZN5serde2de5impls77_$LT$impl$u20$serde..de..Deserialize$u20$for$u20$alloc..vec..Vec$LT$T$GT$$GT$11deserialize17h344bcd05222e2eafE', symObjAddr: 0x28E2D, symBinAddr: 0x28669, symSize: 0x1D7 }
  - { offset: 0x1159F4, size: 0x8, addend: 0x0, symName: '__ZN5serde2de5impls77_$LT$impl$u20$serde..de..Deserialize$u20$for$u20$alloc..vec..Vec$LT$T$GT$$GT$11deserialize17h481f09bc4c139eb2E', symObjAddr: 0x29004, symBinAddr: 0x28840, symSize: 0x8E4 }
  - { offset: 0x116646, size: 0x8, addend: 0x0, symName: '__ZN5serde2de5impls77_$LT$impl$u20$serde..de..Deserialize$u20$for$u20$alloc..vec..Vec$LT$T$GT$$GT$11deserialize17h79a0856003768d9cE', symObjAddr: 0x298E8, symBinAddr: 0x29124, symSize: 0x285 }
  - { offset: 0x1169E7, size: 0x8, addend: 0x0, symName: '__ZN5serde2de5impls77_$LT$impl$u20$serde..de..Deserialize$u20$for$u20$alloc..vec..Vec$LT$T$GT$$GT$11deserialize17h9716c51a5aba379fE', symObjAddr: 0x29B6D, symBinAddr: 0x293A9, symSize: 0x890 }
  - { offset: 0x117424, size: 0x8, addend: 0x0, symName: '__ZN5serde2de5impls77_$LT$impl$u20$serde..de..Deserialize$u20$for$u20$alloc..vec..Vec$LT$T$GT$$GT$11deserialize17ha9e2a10577c48482E', symObjAddr: 0x2A3FD, symBinAddr: 0x29C39, symSize: 0xE90 }
  - { offset: 0x1183CC, size: 0x8, addend: 0x0, symName: '__ZN5serde2de5impls77_$LT$impl$u20$serde..de..Deserialize$u20$for$u20$alloc..vec..Vec$LT$T$GT$$GT$11deserialize17ha9edaed0e4a0862aE', symObjAddr: 0x2B28D, symBinAddr: 0x2AAC9, symSize: 0x11CB }
  - { offset: 0x119DDF, size: 0x8, addend: 0x0, symName: '__ZN5serde2de5impls77_$LT$impl$u20$serde..de..Deserialize$u20$for$u20$alloc..vec..Vec$LT$T$GT$$GT$11deserialize17hc40cfc9edda87be4E', symObjAddr: 0x2C458, symBinAddr: 0x2BC94, symSize: 0xE28 }
  - { offset: 0x11B16C, size: 0x8, addend: 0x0, symName: '__ZN5serde2de5impls77_$LT$impl$u20$serde..de..Deserialize$u20$for$u20$alloc..vec..Vec$LT$T$GT$$GT$11deserialize17hc7dff80cde56918aE', symObjAddr: 0x2D280, symBinAddr: 0x2CABC, symSize: 0xB91 }
  - { offset: 0x11BD04, size: 0x8, addend: 0x0, symName: '__ZN5serde2de5impls77_$LT$impl$u20$serde..de..Deserialize$u20$for$u20$alloc..vec..Vec$LT$T$GT$$GT$11deserialize17hcd1752fd2f450e2aE', symObjAddr: 0x2DE11, symBinAddr: 0x2D64D, symSize: 0x2E0 }
  - { offset: 0x11C046, size: 0x8, addend: 0x0, symName: '__ZN5serde2de5impls77_$LT$impl$u20$serde..de..Deserialize$u20$for$u20$alloc..vec..Vec$LT$T$GT$$GT$11deserialize17hdc6b997681af7612E', symObjAddr: 0x2E0F1, symBinAddr: 0x2D92D, symSize: 0x36B }
  - { offset: 0x11C4D4, size: 0x8, addend: 0x0, symName: '__ZN5serde2de5impls77_$LT$impl$u20$serde..de..Deserialize$u20$for$u20$alloc..vec..Vec$LT$T$GT$$GT$11deserialize17he8ee813abaaafb11E', symObjAddr: 0x2E45C, symBinAddr: 0x2DC98, symSize: 0x1088 }
  - { offset: 0x11D9CB, size: 0x8, addend: 0x0, symName: '__ZN5serde2de5impls77_$LT$impl$u20$serde..de..Deserialize$u20$for$u20$alloc..vec..Vec$LT$T$GT$$GT$11deserialize17hfe249dbf307838bdE', symObjAddr: 0x2F4E4, symBinAddr: 0x2ED20, symSize: 0xC6B }
  - { offset: 0x11FE0C, size: 0x8, addend: 0x0, symName: __ZN5serde9__private2de13missing_field17h1752d7d1e9359b86E, symObjAddr: 0x30CEC, symBinAddr: 0x4F620, symSize: 0x29 }
  - { offset: 0x11FEC4, size: 0x8, addend: 0x0, symName: __ZN5serde9__private2de13missing_field17h21440de96dd592fcE, symObjAddr: 0x30D15, symBinAddr: 0x4F649, symSize: 0x29 }
  - { offset: 0x11FF7C, size: 0x8, addend: 0x0, symName: __ZN5serde9__private2de13missing_field17h9854ddefe5aca591E, symObjAddr: 0x30D3E, symBinAddr: 0x4F672, symSize: 0x2C }
  - { offset: 0x120089, size: 0x8, addend: 0x0, symName: __ZN5serde9__private2de13missing_field17hb0b108f8d0df3eb0E, symObjAddr: 0x30D6A, symBinAddr: 0x4F69E, symSize: 0x29 }
  - { offset: 0x120141, size: 0x8, addend: 0x0, symName: __ZN5serde9__private2de13missing_field17hd36f9b330274590dE, symObjAddr: 0x30D93, symBinAddr: 0x4F6C7, symSize: 0x2C }
  - { offset: 0x12062A, size: 0x8, addend: 0x0, symName: '__ZN70_$LT$alloc..vec..Vec$LT$T$C$A$GT$$u20$as$u20$core..ops..drop..Drop$GT$4drop17h0ec67983a0db093dE', symObjAddr: 0x30DBF, symBinAddr: 0x3052B, symSize: 0x3B }
  - { offset: 0x1206EB, size: 0x8, addend: 0x0, symName: '__ZN70_$LT$alloc..vec..Vec$LT$T$C$A$GT$$u20$as$u20$core..ops..drop..Drop$GT$4drop17h15e53dbf96c54739E', symObjAddr: 0x30DFA, symBinAddr: 0x30566, symSize: 0xA2 }
  - { offset: 0x12089F, size: 0x8, addend: 0x0, symName: '__ZN70_$LT$alloc..vec..Vec$LT$T$C$A$GT$$u20$as$u20$core..ops..drop..Drop$GT$4drop17h1acaf735569ef020E', symObjAddr: 0x30E9C, symBinAddr: 0x30608, symSize: 0x48 }
  - { offset: 0x12099E, size: 0x8, addend: 0x0, symName: '__ZN70_$LT$alloc..vec..Vec$LT$T$C$A$GT$$u20$as$u20$core..ops..drop..Drop$GT$4drop17h42963f3f1a99d4c9E', symObjAddr: 0x30EE4, symBinAddr: 0x30650, symSize: 0x2E }
  - { offset: 0x120A40, size: 0x8, addend: 0x0, symName: '__ZN70_$LT$alloc..vec..Vec$LT$T$C$A$GT$$u20$as$u20$core..ops..drop..Drop$GT$4drop17h19a54fd2d26990e6E', symObjAddr: 0x30F12, symBinAddr: 0x3067E, symSize: 0x3B }
  - { offset: 0x120B4B, size: 0x8, addend: 0x0, symName: '__ZN70_$LT$alloc..vec..Vec$LT$T$C$A$GT$$u20$as$u20$core..ops..drop..Drop$GT$4drop17h211fe6fc221f3ec9E', symObjAddr: 0x30F4D, symBinAddr: 0x306B9, symSize: 0x43 }
  - { offset: 0x120D05, size: 0x8, addend: 0x0, symName: '__ZN70_$LT$alloc..vec..Vec$LT$T$C$A$GT$$u20$as$u20$core..ops..drop..Drop$GT$4drop17hcd0f3b753cbfc1c5E', symObjAddr: 0x3109C, symBinAddr: 0x30808, symSize: 0x28 }
  - { offset: 0x120DCB, size: 0x8, addend: 0x0, symName: '__ZN70_$LT$alloc..vec..Vec$LT$T$C$A$GT$$u20$as$u20$core..ops..drop..Drop$GT$4drop17h5561723675a1e101E', symObjAddr: 0x310E3, symBinAddr: 0x3084F, symSize: 0x28 }
  - { offset: 0x120E91, size: 0x8, addend: 0x0, symName: '__ZN70_$LT$alloc..vec..Vec$LT$T$C$A$GT$$u20$as$u20$core..ops..drop..Drop$GT$4drop17h3cc9ad2339ccc78aE', symObjAddr: 0x3110B, symBinAddr: 0x30877, symSize: 0x48 }
  - { offset: 0x120F46, size: 0x8, addend: 0x0, symName: '__ZN70_$LT$alloc..vec..Vec$LT$T$C$A$GT$$u20$as$u20$core..ops..drop..Drop$GT$4drop17h966db948198ffdf8E', symObjAddr: 0x31153, symBinAddr: 0x308BF, symSize: 0x6D }
  - { offset: 0x120FFC, size: 0x8, addend: 0x0, symName: '__ZN70_$LT$alloc..vec..Vec$LT$T$C$A$GT$$u20$as$u20$core..ops..drop..Drop$GT$4drop17h40caccd95480f859E', symObjAddr: 0x311C0, symBinAddr: 0x3092C, symSize: 0x2E }
  - { offset: 0x1210B4, size: 0x8, addend: 0x0, symName: '__ZN70_$LT$alloc..vec..Vec$LT$T$C$A$GT$$u20$as$u20$core..ops..drop..Drop$GT$4drop17h59889dc507b080b8E', symObjAddr: 0x311EE, symBinAddr: 0x3095A, symSize: 0x40 }
  - { offset: 0x121177, size: 0x8, addend: 0x0, symName: '__ZN70_$LT$alloc..vec..Vec$LT$T$C$A$GT$$u20$as$u20$core..ops..drop..Drop$GT$4drop17he7551a862ee14d1eE', symObjAddr: 0x31264, symBinAddr: 0x309D0, symSize: 0x36 }
  - { offset: 0x121238, size: 0x8, addend: 0x0, symName: '__ZN70_$LT$alloc..vec..Vec$LT$T$C$A$GT$$u20$as$u20$core..ops..drop..Drop$GT$4drop17h60c2a6b60d779064E', symObjAddr: 0x3129A, symBinAddr: 0x30A06, symSize: 0x2E }
  - { offset: 0x1212F9, size: 0x8, addend: 0x0, symName: '__ZN70_$LT$alloc..vec..Vec$LT$T$C$A$GT$$u20$as$u20$core..ops..drop..Drop$GT$4drop17h6167ba8d00f1b835E', symObjAddr: 0x312C8, symBinAddr: 0x30A34, symSize: 0x44 }
  - { offset: 0x1213F5, size: 0x8, addend: 0x0, symName: '__ZN70_$LT$alloc..vec..Vec$LT$T$C$A$GT$$u20$as$u20$core..ops..drop..Drop$GT$4drop17h8680071660a72633E', symObjAddr: 0x3130C, symBinAddr: 0x30A78, symSize: 0x3B }
  - { offset: 0x121500, size: 0x8, addend: 0x0, symName: '__ZN70_$LT$alloc..vec..Vec$LT$T$C$A$GT$$u20$as$u20$core..ops..drop..Drop$GT$4drop17h88fb70901614c5c8E', symObjAddr: 0x31347, symBinAddr: 0x30AB3, symSize: 0xBD }
  - { offset: 0x121850, size: 0x8, addend: 0x0, symName: '__ZN70_$LT$alloc..vec..Vec$LT$T$C$A$GT$$u20$as$u20$core..ops..drop..Drop$GT$4drop17hb42eaca850cdb9e3E', symObjAddr: 0x31404, symBinAddr: 0x30B70, symSize: 0x33 }
  - { offset: 0x1218BC, size: 0x8, addend: 0x0, symName: '__ZN70_$LT$alloc..vec..Vec$LT$T$C$A$GT$$u20$as$u20$core..ops..drop..Drop$GT$4drop17hcb414479e4bd4cdfE', symObjAddr: 0x31437, symBinAddr: 0x30BA3, symSize: 0x2E }
  - { offset: 0x121914, size: 0x8, addend: 0x0, symName: '__ZN70_$LT$alloc..vec..Vec$LT$T$C$A$GT$$u20$as$u20$core..ops..drop..Drop$GT$4drop17hdbb856a9f0b3d873E', symObjAddr: 0x31465, symBinAddr: 0x30BD1, symSize: 0x37 }
  - { offset: 0x1254C4, size: 0x8, addend: 0x0, symName: '__ZN5alloc7raw_vec20RawVecInner$LT$A$GT$7reserve17h53afb71c213847ddE', symObjAddr: 0x286A3, symBinAddr: 0x27EDF, symSize: 0x24 }
  - { offset: 0x125575, size: 0x8, addend: 0x0, symName: '__ZN5alloc7raw_vec20RawVecInner$LT$A$GT$16with_capacity_in17h33cb4903e72ca979E.1247', symObjAddr: 0x286C7, symBinAddr: 0x27F03, symSize: 0x3E }
  - { offset: 0x125634, size: 0x8, addend: 0x0, symName: '__ZN5alloc3vec16Vec$LT$T$C$A$GT$7reserve17h81a66d38ee46f4e6E', symObjAddr: 0x28705, symBinAddr: 0x27F41, symSize: 0x1B }
  - { offset: 0x1D39C4, size: 0x8, addend: 0x0, symName: __ZN5serde3ser10Serializer11collect_seq17hbedcd6337e975be8E, symObjAddr: 0x4DEA4, symBinAddr: 0x4C2CC, symSize: 0xBE }
  - { offset: 0x1D3A65, size: 0x8, addend: 0x0, symName: __ZN10serde_json3ser9Formatter9end_array17h785eee7fdada2a20E, symObjAddr: 0x4DF62, symBinAddr: 0x4C38A, symSize: 0x26 }
  - { offset: 0x1D3C0F, size: 0x8, addend: 0x0, symName: __ZN10serde_json3ser9Formatter10end_object17hf141c06599f18413E.2968, symObjAddr: 0x4E148, symBinAddr: 0x4C570, symSize: 0x26 }
  - { offset: 0x1D3EB2, size: 0x8, addend: 0x0, symName: __ZN10serde_json3ser6ESCAPE17hfc58d68d60cd5326E, symObjAddr: 0x5E6F6, symBinAddr: 0x5CE0E, symSize: 0x0 }
  - { offset: 0x1D463C, size: 0x8, addend: 0x0, symName: __ZN10serde_json3ser18format_escaped_str17h44b1ab7d5d68e484E, symObjAddr: 0x4E1F6, symBinAddr: 0x4C61E, symSize: 0x142 }
  - { offset: 0x1D4C12, size: 0x8, addend: 0x0, symName: __ZN10serde_json3ser17invalid_raw_value17h9120ed26212a5783E, symObjAddr: 0x4E338, symBinAddr: 0x50A74, symSize: 0x1C }
  - { offset: 0x1D4D88, size: 0x8, addend: 0x0, symName: '__ZN10serde_json5value3ser76_$LT$impl$u20$serde..ser..Serialize$u20$for$u20$serde_json..value..Value$GT$9serialize17h063110492559b306E', symObjAddr: 0x4DF88, symBinAddr: 0x4C3B0, symSize: 0x1C0 }
  - { offset: 0x1D699E, size: 0x8, addend: 0x0, symName: __ZN5serde3ser10Serializer11collect_seq17hbedcd6337e975be8E, symObjAddr: 0x4DEA4, symBinAddr: 0x4C2CC, symSize: 0xBE }
  - { offset: 0x1D6D7D, size: 0x8, addend: 0x0, symName: __ZN5serde3ser12SerializeMap15serialize_entry17hbc190ef4291ed4ddE, symObjAddr: 0x4E16E, symBinAddr: 0x4C596, symSize: 0x88 }
  - { offset: 0x1D9564, size: 0x8, addend: 0x0, symName: __ZN3ryu6buffer6Buffer13format_finite17hd5b45dbd734b7252E, symObjAddr: 0x4E548, symBinAddr: 0x4C954, symSize: 0x1B }
  - { offset: 0x1D9A6C, size: 0x8, addend: 0x0, symName: '__ZN68_$LT$serde_json..number..Number$u20$as$u20$serde..ser..Serialize$GT$9serialize17h015af228f4877554E', symObjAddr: 0x4E563, symBinAddr: 0x4C96F, symSize: 0x8F }
  - { offset: 0x1DA2D5, size: 0x8, addend: 0x0, symName: __ZN3ryu6buffer6Buffer13format_finite17hd5b45dbd734b7252E, symObjAddr: 0x4E548, symBinAddr: 0x4C954, symSize: 0x1B }
  - { offset: 0xAA8FC, size: 0x8, addend: 0x0, symName: '__ZN4core4hash5impls50_$LT$impl$u20$core..hash..Hash$u20$for$u20$str$GT$4hash17h7dc5715f33b2f495E', symObjAddr: 0x17264, symBinAddr: 0x16C84, symSize: 0x18B }
  - { offset: 0xAAA52, size: 0x8, addend: 0x0, symName: '__ZN60_$LT$alloc..string..String$u20$as$u20$core..fmt..Display$GT$3fmt17h4439c72814b858fbE', symObjAddr: 0x1AD9E, symBinAddr: 0x1A7BE, symSize: 0x18 }
  - { offset: 0xAC6CD, size: 0x8, addend: 0x0, symName: __ZN5alloc3fmt6format17h00833a3c5a22acb1E, symObjAddr: 0x1A6DC, symBinAddr: 0x1A0FC, symSize: 0x45 }
  - { offset: 0xAC81C, size: 0x8, addend: 0x0, symName: '__ZN5alloc3str21_$LT$impl$u20$str$GT$7replace17h8be73937895b1369E', symObjAddr: 0x1AAF5, symBinAddr: 0x1A515, symSize: 0x2A9 }
  - { offset: 0xAD577, size: 0x8, addend: 0x0, symName: '__ZN4core3ptr104drop_in_place$LT$core..option..Option$LT$powersync_core..sync..sync_status..SyncDownloadProgress$GT$$GT$17h179b2ce63de0a09aE', symObjAddr: 0x18F91, symBinAddr: 0x189B1, symSize: 0x15 }
  - { offset: 0xAD6AC, size: 0x8, addend: 0x0, symName: '__ZN4core3ptr103drop_in_place$LT$alloc..vec..Vec$LT$powersync_core..sync..sync_status..ActiveStreamSubscription$GT$$GT$17ha1ad7762ad62d447E', symObjAddr: 0x1A6B3, symBinAddr: 0x1A0D3, symSize: 0x29 }
  - { offset: 0xAE0B0, size: 0x8, addend: 0x0, symName: '__ZN4core4hash5impls50_$LT$impl$u20$core..hash..Hash$u20$for$u20$str$GT$4hash17h7dc5715f33b2f495E', symObjAddr: 0x17264, symBinAddr: 0x16C84, symSize: 0x18B }
  - { offset: 0xAF395, size: 0x8, addend: 0x0, symName: '__ZN110_$LT$core..ops..range..RangeFrom$LT$usize$GT$$u20$as$u20$core..slice..index..SliceIndex$LT$$u5b$T$u5d$$GT$$GT$5index17h1bdc6b95f40459d5E', symObjAddr: 0x173EF, symBinAddr: 0x16E0F, symSize: 0x1E }
  - { offset: 0xAF4C0, size: 0x8, addend: 0x0, symName: '__ZN110_$LT$core..ops..range..RangeFrom$LT$usize$GT$$u20$as$u20$core..slice..index..SliceIndex$LT$$u5b$T$u5d$$GT$$GT$9index_mut17h43408cd276309c74E.960', symObjAddr: 0x17B10, symBinAddr: 0x17530, symSize: 0x1C }
  - { offset: 0xAF951, size: 0x8, addend: 0x0, symName: '__ZN4core5slice4sort6stable9quicksort9quicksort28_$u7b$$u7b$closure$u7d$$u7d$17h997befa0a90a6884E', symObjAddr: 0x1740D, symBinAddr: 0x16E2D, symSize: 0x1F }
  - { offset: 0xAFCCA, size: 0x8, addend: 0x0, symName: __ZN4core5slice4sort6stable9quicksort9quicksort17h1fd5c52dfa9385a4E, symObjAddr: 0x1742C, symBinAddr: 0x16E4C, symSize: 0x6E4 }
  - { offset: 0xB119D, size: 0x8, addend: 0x0, symName: __ZN4core5slice4sort6stable9quicksort9quicksort17h5c38f04d3dae17c0E, symObjAddr: 0x17B2C, symBinAddr: 0x1754C, symSize: 0x69D }
  - { offset: 0xB262B, size: 0x8, addend: 0x0, symName: __ZN4core5slice4sort6stable9quicksort9quicksort17h8010a4b1a9506718E, symObjAddr: 0x181C9, symBinAddr: 0x17BE9, symSize: 0x6E4 }
  - { offset: 0xB3A71, size: 0x8, addend: 0x0, symName: __ZN4core5slice4sort6stable9quicksort9quicksort17hcf3f8e1fad92e941E, symObjAddr: 0x188AD, symBinAddr: 0x182CD, symSize: 0x6E4 }
  - { offset: 0xB7D2B, size: 0x8, addend: 0x0, symName: '__ZN86_$LT$serde_json..ser..Compound$LT$W$C$F$GT$$u20$as$u20$serde..ser..SerializeStruct$GT$15serialize_field17h981b989d30458a19E', symObjAddr: 0x1A267, symBinAddr: 0x19C87, symSize: 0x3D }
  - { offset: 0xB7E41, size: 0x8, addend: 0x0, symName: '__ZN86_$LT$serde_json..ser..Compound$LT$W$C$F$GT$$u20$as$u20$serde..ser..SerializeStruct$GT$3end17hb7a7071789cc5175E', symObjAddr: 0x1A2A4, symBinAddr: 0x19CC4, symSize: 0x11 }
  - { offset: 0xB7E82, size: 0x8, addend: 0x0, symName: '__ZN86_$LT$serde_json..ser..Compound$LT$W$C$F$GT$$u20$as$u20$serde..ser..SerializeStruct$GT$15serialize_field17hfb574c4302327ca3E', symObjAddr: 0x1B018, symBinAddr: 0x1AA38, symSize: 0x9A }
  - { offset: 0xB8171, size: 0x8, addend: 0x0, symName: '__ZN86_$LT$serde_json..ser..Compound$LT$W$C$F$GT$$u20$as$u20$serde..ser..SerializeStruct$GT$15serialize_field17h5f1144eb33697d35E', symObjAddr: 0x1B0B2, symBinAddr: 0x1AAD2, symSize: 0x1F }
  - { offset: 0xB821B, size: 0x8, addend: 0x0, symName: __ZN10serde_json3ser9Formatter10end_object17h934f1c64d013de4eE, symObjAddr: 0x1A2D9, symBinAddr: 0x19CF9, symSize: 0x18 }
  - { offset: 0xB83B4, size: 0x8, addend: 0x0, symName: '__ZN95_$LT$$RF$mut$u20$serde_json..ser..Serializer$LT$W$C$F$GT$$u20$as$u20$serde..ser..Serializer$GT$16serialize_struct17h31ac4a9fe26dc360E', symObjAddr: 0x1A209, symBinAddr: 0x19C29, symSize: 0x5E }
  - { offset: 0xB847B, size: 0x8, addend: 0x0, symName: '__ZN95_$LT$$RF$mut$u20$serde_json..ser..Serializer$LT$W$C$F$GT$$u20$as$u20$serde..ser..Serializer$GT$13serialize_map17hdddfb01c14bbc56fE', symObjAddr: 0x1A2F1, symBinAddr: 0x19D11, symSize: 0x53 }
  - { offset: 0xB85FB, size: 0x8, addend: 0x0, symName: '__ZN83_$LT$serde_json..ser..Compound$LT$W$C$F$GT$$u20$as$u20$serde..ser..SerializeMap$GT$3end17h2f1ca280cc1fc5b7E', symObjAddr: 0x1A2B5, symBinAddr: 0x19CD5, symSize: 0x24 }
  - { offset: 0xB97DD, size: 0x8, addend: 0x0, symName: '__ZN95_$LT$powersync_core..sync..sync_status..DownloadSyncStatus$u20$as$u20$serde..ser..Serialize$GT$9serialize17hdc06ce554e1ca75eE', symObjAddr: 0x18FA6, symBinAddr: 0x189C6, symSize: 0x1263 }
  - { offset: 0xBD2D4, size: 0x8, addend: 0x0, symName: __ZN14powersync_core4util12quote_string17h7aa6177e5a98b09aE, symObjAddr: 0x1A7D1, symBinAddr: 0x1A1F1, symSize: 0x76 }
  - { offset: 0xBD3A5, size: 0x8, addend: 0x0, symName: '__ZN73_$LT$powersync_core..util..QuotedString$u20$as$u20$core..fmt..Display$GT$3fmt17h6198f68e46f8f220E', symObjAddr: 0x1A847, symBinAddr: 0x1A267, symSize: 0x1C8 }
  - { offset: 0xBD6B5, size: 0x8, addend: 0x0, symName: __ZN14powersync_core4util15quote_json_path17hac7782c71a355ab6E, symObjAddr: 0x1AA0F, symBinAddr: 0x1A42F, symSize: 0x7A }
  - { offset: 0xBD7DF, size: 0x8, addend: 0x0, symName: __ZN14powersync_core4util16quote_identifier17h4e669034663fe924E, symObjAddr: 0x1AA89, symBinAddr: 0x1A4A9, symSize: 0x6C }
  - { offset: 0xBD82B, size: 0x8, addend: 0x0, symName: __ZN14powersync_core4util19quote_internal_name17h2ce316010231f792E, symObjAddr: 0x1AF47, symBinAddr: 0x1A967, symSize: 0x3E }
  - { offset: 0xBD867, size: 0x8, addend: 0x0, symName: __ZN14powersync_core4util25quote_identifier_prefixed17h79d14985c4445032E, symObjAddr: 0x1AF85, symBinAddr: 0x1A9A5, symSize: 0x93 }
  - { offset: 0xBEF12, size: 0x8, addend: 0x0, symName: __ZN14powersync_core4sync11sync_status19SyncStatusContainer12emit_changes17h5166879ae521de9bE, symObjAddr: 0x1A344, symBinAddr: 0x19D64, symSize: 0x36F }
  - { offset: 0xC13EA, size: 0x8, addend: 0x0, symName: __ZN14powersync_core4sync11sync_status24ActiveStreamSubscription10from_local17h1680a74bad0d6a9dE, symObjAddr: 0x1A721, symBinAddr: 0x1A141, symSize: 0xB0 }
  - { offset: 0xC18B9, size: 0x8, addend: 0x0, symName: __ZN4core3str7pattern14TwoWaySearcher4next17hca97b770a1b08c90E, symObjAddr: 0x1ADB6, symBinAddr: 0x1A7D6, symSize: 0x191 }
  - { offset: 0x2104F, size: 0x8, addend: 0x0, symName: '__ZN5alloc11collections5btree4node125NodeRef$LT$alloc..collections..btree..node..marker..Mut$C$K$C$V$C$alloc..collections..btree..node..marker..LeafOrInternal$GT$16choose_parent_kv17h64af95f329650f22E', symObjAddr: 0x4D14, symBinAddr: 0x5260, symSize: 0x9E }
  - { offset: 0x2930E, size: 0x8, addend: 0x0, symName: '__ZN4core4iter5range110_$LT$impl$u20$core..iter..traits..iterator..Iterator$u20$for$u20$core..ops..range..RangeInclusive$LT$A$GT$$GT$4next17h90adad8d06f265e5E', symObjAddr: 0x661B, symBinAddr: 0x6B67, symSize: 0x32 }
  - { offset: 0x29608, size: 0x8, addend: 0x0, symName: '__ZN4core5array88_$LT$impl$u20$core..ops..index..IndexMut$LT$I$GT$$u20$for$u20$$u5b$T$u3b$$u20$N$u5d$$GT$9index_mut17ha146181744d151e8E', symObjAddr: 0x6BE2, symBinAddr: 0x712E, symSize: 0x1F }
  - { offset: 0x296C9, size: 0x8, addend: 0x0, symName: '__ZN4core5array88_$LT$impl$u20$core..ops..index..IndexMut$LT$I$GT$$u20$for$u20$$u5b$T$u3b$$u20$N$u5d$$GT$9index_mut17hf4f64882b89c7b50E', symObjAddr: 0x6C01, symBinAddr: 0x714D, symSize: 0x16 }
  - { offset: 0x29786, size: 0x8, addend: 0x0, symName: '__ZN4core5array88_$LT$impl$u20$core..ops..index..IndexMut$LT$I$GT$$u20$for$u20$$u5b$T$u3b$$u20$N$u5d$$GT$9index_mut17he4ddae462055a942E', symObjAddr: 0x6C17, symBinAddr: 0x7163, symSize: 0x1F }
  - { offset: 0x29847, size: 0x8, addend: 0x0, symName: '__ZN4core5array88_$LT$impl$u20$core..ops..index..IndexMut$LT$I$GT$$u20$for$u20$$u5b$T$u3b$$u20$N$u5d$$GT$9index_mut17h08c8f2bb13a42a62E', symObjAddr: 0x6C36, symBinAddr: 0x7182, symSize: 0x1F }
  - { offset: 0x29908, size: 0x8, addend: 0x0, symName: '__ZN4core5array88_$LT$impl$u20$core..ops..index..IndexMut$LT$I$GT$$u20$for$u20$$u5b$T$u3b$$u20$N$u5d$$GT$9index_mut17h9746ab1f8c508123E', symObjAddr: 0x6C55, symBinAddr: 0x71A1, symSize: 0x1F }
  - { offset: 0x299C9, size: 0x8, addend: 0x0, symName: '__ZN4core5array88_$LT$impl$u20$core..ops..index..IndexMut$LT$I$GT$$u20$for$u20$$u5b$T$u3b$$u20$N$u5d$$GT$9index_mut17h13200ccea2c2a192E', symObjAddr: 0x6C74, symBinAddr: 0x71C0, symSize: 0x1F }
  - { offset: 0x2C5FF, size: 0x8, addend: 0x0, symName: __ZN5alloc11collections5btree4node13move_to_slice17hf9cb981b1eec2a9aE, symObjAddr: 0x5B56, symBinAddr: 0x60A2, symSize: 0x12 }
  - { offset: 0x2C643, size: 0x8, addend: 0x0, symName: __ZN5alloc11collections5btree4node13move_to_slice17hbbb5240a9467421aE, symObjAddr: 0x5B68, symBinAddr: 0x60B4, symSize: 0x26 }
  - { offset: 0x2DBCB, size: 0x8, addend: 0x0, symName: __ZN5alloc11collections5btree4node13move_to_slice17hc00e418158b11031E, symObjAddr: 0x63A6, symBinAddr: 0x68F2, symSize: 0x26 }
  - { offset: 0x30519, size: 0x8, addend: 0x0, symName: __ZN5alloc11collections5btree4node12slice_insert17h064b0b3592d4df8bE, symObjAddr: 0x6A92, symBinAddr: 0x6FDE, symSize: 0x5C }
  - { offset: 0x30671, size: 0x8, addend: 0x0, symName: __ZN5alloc11collections5btree4node12slice_insert17h83d918ec49ac8003E, symObjAddr: 0x6AEE, symBinAddr: 0x703A, symSize: 0x5C }
  - { offset: 0x307C3, size: 0x8, addend: 0x0, symName: __ZN5alloc11collections5btree4node13move_to_slice17h031ce62dd9421de8E, symObjAddr: 0x6B4A, symBinAddr: 0x7096, symSize: 0x26 }
  - { offset: 0x30836, size: 0x8, addend: 0x0, symName: __ZN5alloc11collections5btree4node13move_to_slice17h5d9ee2dea7a24900E, symObjAddr: 0x6B70, symBinAddr: 0x70BC, symSize: 0x26 }
  - { offset: 0x308A9, size: 0x8, addend: 0x0, symName: __ZN5alloc11collections5btree4node13move_to_slice17hcfbd0ba1ec46ef02E, symObjAddr: 0x6B96, symBinAddr: 0x70E2, symSize: 0x26 }
  - { offset: 0x3091E, size: 0x8, addend: 0x0, symName: __ZN5alloc11collections5btree4node13move_to_slice17hd65dc622461b1fcfE, symObjAddr: 0x6BBC, symBinAddr: 0x7108, symSize: 0x26 }
  - { offset: 0x3A750, size: 0x8, addend: 0x0, symName: '__ZN5alloc11collections5btree4node125NodeRef$LT$alloc..collections..btree..node..marker..Mut$C$K$C$V$C$alloc..collections..btree..node..marker..LeafOrInternal$GT$16choose_parent_kv17h64af95f329650f22E', symObjAddr: 0x4D14, symBinAddr: 0x5260, symSize: 0x9E }
  - { offset: 0x3A777, size: 0x8, addend: 0x0, symName: '__ZN5alloc11collections5btree4node125NodeRef$LT$alloc..collections..btree..node..marker..Mut$C$K$C$V$C$alloc..collections..btree..node..marker..LeafOrInternal$GT$16choose_parent_kv17h64af95f329650f22E', symObjAddr: 0x4D14, symBinAddr: 0x5260, symSize: 0x9E }
  - { offset: 0x3A791, size: 0x8, addend: 0x0, symName: '__ZN5alloc11collections5btree4node125NodeRef$LT$alloc..collections..btree..node..marker..Mut$C$K$C$V$C$alloc..collections..btree..node..marker..LeafOrInternal$GT$16choose_parent_kv17h64af95f329650f22E', symObjAddr: 0x4D14, symBinAddr: 0x5260, symSize: 0x9E }
  - { offset: 0x3ADEA, size: 0x8, addend: 0x0, symName: '__ZN5alloc11collections5btree4node29BalancingContext$LT$K$C$V$GT$15bulk_steal_left17hf021d73b5356237cE', symObjAddr: 0x4DB2, symBinAddr: 0x52FE, symSize: 0x289 }
  - { offset: 0x3B6C7, size: 0x8, addend: 0x0, symName: '__ZN5alloc11collections5btree4node29BalancingContext$LT$K$C$V$GT$8do_merge17h3114a04262de7bb6E', symObjAddr: 0x503B, symBinAddr: 0x5587, symSize: 0x24C }
  - { offset: 0x3C07B, size: 0x8, addend: 0x0, symName: '__ZN5alloc11collections5btree4node29BalancingContext$LT$K$C$V$GT$16bulk_steal_right17he17e94cca4315161E', symObjAddr: 0x5287, symBinAddr: 0x57D3, symSize: 0x272 }
  - { offset: 0x3C9B3, size: 0x8, addend: 0x0, symName: '__ZN5alloc11collections5btree4node171Handle$LT$alloc..collections..btree..node..NodeRef$LT$alloc..collections..btree..node..marker..Mut$C$K$C$V$C$NodeType$GT$$C$alloc..collections..btree..node..marker..KV$GT$10replace_kv17h4d4d3351a9b4d2ffE', symObjAddr: 0x54F9, symBinAddr: 0x5A45, symSize: 0x99 }
  - { offset: 0x3CDEB, size: 0x8, addend: 0x0, symName: '__ZN5alloc11collections5btree4node125NodeRef$LT$alloc..collections..btree..node..marker..Mut$C$K$C$V$C$alloc..collections..btree..node..marker..LeafOrInternal$GT$16choose_parent_kv17h6e8c7270027d2de4E', symObjAddr: 0x5592, symBinAddr: 0x5ADE, symSize: 0x8F }
  - { offset: 0x3CE12, size: 0x8, addend: 0x0, symName: '__ZN5alloc11collections5btree4node125NodeRef$LT$alloc..collections..btree..node..marker..Mut$C$K$C$V$C$alloc..collections..btree..node..marker..LeafOrInternal$GT$16choose_parent_kv17h6e8c7270027d2de4E', symObjAddr: 0x5592, symBinAddr: 0x5ADE, symSize: 0x8F }
  - { offset: 0x3CE2C, size: 0x8, addend: 0x0, symName: '__ZN5alloc11collections5btree4node125NodeRef$LT$alloc..collections..btree..node..marker..Mut$C$K$C$V$C$alloc..collections..btree..node..marker..LeafOrInternal$GT$16choose_parent_kv17h6e8c7270027d2de4E', symObjAddr: 0x5592, symBinAddr: 0x5ADE, symSize: 0x8F }
  - { offset: 0x3D462, size: 0x8, addend: 0x0, symName: '__ZN5alloc11collections5btree4node29BalancingContext$LT$K$C$V$GT$15bulk_steal_left17h102a169753c94e57E', symObjAddr: 0x5621, symBinAddr: 0x5B6D, symSize: 0x1C9 }
  - { offset: 0x3DB44, size: 0x8, addend: 0x0, symName: '__ZN5alloc11collections5btree4node29BalancingContext$LT$K$C$V$GT$8do_merge17h0768befbbfd66b41E', symObjAddr: 0x57EA, symBinAddr: 0x5D36, symSize: 0x1A3 }
  - { offset: 0x3E1F9, size: 0x8, addend: 0x0, symName: '__ZN5alloc11collections5btree4node29BalancingContext$LT$K$C$V$GT$16bulk_steal_right17h2e0500b98a98c3f4E', symObjAddr: 0x598D, symBinAddr: 0x5ED9, symSize: 0x1C9 }
  - { offset: 0x3E935, size: 0x8, addend: 0x0, symName: '__ZN5alloc11collections5btree4node119NodeRef$LT$alloc..collections..btree..node..marker..Mut$C$K$C$V$C$alloc..collections..btree..node..marker..Internal$GT$30correct_childrens_parent_links17h367cd49811622fd4E', symObjAddr: 0x5B8E, symBinAddr: 0x60DA, symSize: 0x22 }
  - { offset: 0x3F051, size: 0x8, addend: 0x0, symName: '__ZN5alloc11collections5btree4node125NodeRef$LT$alloc..collections..btree..node..marker..Mut$C$K$C$V$C$alloc..collections..btree..node..marker..LeafOrInternal$GT$16choose_parent_kv17h46f41984a67b73f6E', symObjAddr: 0x5BB0, symBinAddr: 0x60FC, symSize: 0x8F }
  - { offset: 0x3F078, size: 0x8, addend: 0x0, symName: '__ZN5alloc11collections5btree4node125NodeRef$LT$alloc..collections..btree..node..marker..Mut$C$K$C$V$C$alloc..collections..btree..node..marker..LeafOrInternal$GT$16choose_parent_kv17h46f41984a67b73f6E', symObjAddr: 0x5BB0, symBinAddr: 0x60FC, symSize: 0x8F }
  - { offset: 0x3F092, size: 0x8, addend: 0x0, symName: '__ZN5alloc11collections5btree4node125NodeRef$LT$alloc..collections..btree..node..marker..Mut$C$K$C$V$C$alloc..collections..btree..node..marker..LeafOrInternal$GT$16choose_parent_kv17h46f41984a67b73f6E', symObjAddr: 0x5BB0, symBinAddr: 0x60FC, symSize: 0x8F }
  - { offset: 0x3F876, size: 0x8, addend: 0x0, symName: '__ZN5alloc11collections5btree4node29BalancingContext$LT$K$C$V$GT$15bulk_steal_left17h0c61f1a567b4abc6E', symObjAddr: 0x5C3F, symBinAddr: 0x618B, symSize: 0x2AF }
  - { offset: 0x403B3, size: 0x8, addend: 0x0, symName: '__ZN5alloc11collections5btree4node29BalancingContext$LT$K$C$V$GT$8do_merge17h59b025bb088534d0E', symObjAddr: 0x5EEE, symBinAddr: 0x643A, symSize: 0x21D }
  - { offset: 0x40D60, size: 0x8, addend: 0x0, symName: '__ZN5alloc11collections5btree4node29BalancingContext$LT$K$C$V$GT$16bulk_steal_right17h7e7c4b7dabedf888E', symObjAddr: 0x610B, symBinAddr: 0x6657, symSize: 0x29B }
  - { offset: 0x41804, size: 0x8, addend: 0x0, symName: '__ZN5alloc11collections5btree4node119NodeRef$LT$alloc..collections..btree..node..marker..Mut$C$K$C$V$C$alloc..collections..btree..node..marker..Internal$GT$30correct_childrens_parent_links17hc0c49eb2927e2c1dE', symObjAddr: 0x63CC, symBinAddr: 0x6918, symSize: 0x22 }
  - { offset: 0x41B73, size: 0x8, addend: 0x0, symName: '__ZN5alloc11collections5btree3fix176_$LT$impl$u20$alloc..collections..btree..node..NodeRef$LT$alloc..collections..btree..node..marker..Mut$C$K$C$V$C$alloc..collections..btree..node..marker..LeafOrInternal$GT$$GT$31fix_node_and_affected_ancestors17hccd81585f4906568E', symObjAddr: 0x63EE, symBinAddr: 0x693A, symSize: 0xB7 }
  - { offset: 0x41CDB, size: 0x8, addend: 0x0, symName: '__ZN5alloc11collections5btree4node115NodeRef$LT$alloc..collections..btree..node..marker..Mut$C$K$C$V$C$alloc..collections..btree..node..marker..Leaf$GT$16push_with_handle17h0b7b8d58e5bf7597E', symObjAddr: 0x64A5, symBinAddr: 0x69F1, symSize: 0x4F }
  - { offset: 0x41F22, size: 0x8, addend: 0x0, symName: '__ZN5alloc11collections5btree4node115NodeRef$LT$alloc..collections..btree..node..marker..Mut$C$K$C$V$C$alloc..collections..btree..node..marker..Leaf$GT$16push_with_handle17hf359b54bd9c16020E', symObjAddr: 0x64F4, symBinAddr: 0x6A40, symSize: 0x6D }
  - { offset: 0x421CC, size: 0x8, addend: 0x0, symName: '__ZN5alloc11collections5btree4node21LeafNode$LT$K$C$V$GT$3new17hee7515d9c1d31f95E', symObjAddr: 0x6561, symBinAddr: 0x6AAD, symSize: 0x2A }
  - { offset: 0x423F8, size: 0x8, addend: 0x0, symName: '__ZN5alloc11collections5btree4node21LeafNode$LT$K$C$V$GT$3new17h52abb367d4f94218E', symObjAddr: 0x658B, symBinAddr: 0x6AD7, symSize: 0x2A }
  - { offset: 0x426A7, size: 0x8, addend: 0x0, symName: '__ZN5alloc11collections5btree4node21LeafNode$LT$K$C$V$GT$3new17h2bbba6dc1b1ed7ecE', symObjAddr: 0x65B5, symBinAddr: 0x6B01, symSize: 0x26 }
  - { offset: 0x4286C, size: 0x8, addend: 0x0, symName: '__ZN5alloc11collections5btree4node117NodeRef$LT$alloc..collections..btree..node..marker..Owned$C$K$C$V$C$alloc..collections..btree..node..marker..Leaf$GT$8new_leaf17hd0d55bbec5976683E', symObjAddr: 0x65DB, symBinAddr: 0x6B27, symSize: 0xD }
  - { offset: 0x428E4, size: 0x8, addend: 0x0, symName: '__ZN5alloc11collections5btree4node21LeafNode$LT$K$C$V$GT$3new17h6b656dd973ace5c2E', symObjAddr: 0x65E8, symBinAddr: 0x6B34, symSize: 0x26 }
  - { offset: 0x42A8B, size: 0x8, addend: 0x0, symName: '__ZN5alloc11collections5btree4node117NodeRef$LT$alloc..collections..btree..node..marker..Owned$C$K$C$V$C$alloc..collections..btree..node..marker..Leaf$GT$8new_leaf17hddd3fa3b690060e7E', symObjAddr: 0x660E, symBinAddr: 0x6B5A, symSize: 0xD }
  - { offset: 0x42B96, size: 0x8, addend: 0x0, symName: '__ZN5alloc11collections5btree4node119NodeRef$LT$alloc..collections..btree..node..marker..Mut$C$K$C$V$C$alloc..collections..btree..node..marker..Internal$GT$4push17ha0b5f627b9e6a61aE', symObjAddr: 0x664D, symBinAddr: 0x6B99, symSize: 0x64 }
  - { offset: 0x42E9E, size: 0x8, addend: 0x0, symName: '__ZN5alloc11collections5btree4node119NodeRef$LT$alloc..collections..btree..node..marker..Mut$C$K$C$V$C$alloc..collections..btree..node..marker..Internal$GT$4push17hedd2f963dceb72a9E', symObjAddr: 0x66B1, symBinAddr: 0x6BFD, symSize: 0x81 }
  - { offset: 0x43190, size: 0x8, addend: 0x0, symName: '__ZN5alloc11collections5btree4node25InternalNode$LT$K$C$V$GT$3new17h6586033a1abc7193E', symObjAddr: 0x6732, symBinAddr: 0x6C7E, symSize: 0x2A }
  - { offset: 0x43572, size: 0x8, addend: 0x0, symName: '__ZN5alloc11collections5btree4node121NodeRef$LT$alloc..collections..btree..node..marker..Owned$C$K$C$V$C$alloc..collections..btree..node..marker..Internal$GT$17from_new_internal17h71a8730a924e3f34E', symObjAddr: 0x675C, symBinAddr: 0x6CA8, symSize: 0x60 }
  - { offset: 0x437E6, size: 0x8, addend: 0x0, symName: '__ZN5alloc11collections5btree4node25InternalNode$LT$K$C$V$GT$3new17h14f634dab33fa741E', symObjAddr: 0x67BC, symBinAddr: 0x6D08, symSize: 0x26 }
  - { offset: 0x43BA4, size: 0x8, addend: 0x0, symName: '__ZN5alloc11collections5btree4node121NodeRef$LT$alloc..collections..btree..node..marker..Owned$C$K$C$V$C$alloc..collections..btree..node..marker..Internal$GT$17from_new_internal17h692ca15d2265a684E', symObjAddr: 0x67E2, symBinAddr: 0x6D2E, symSize: 0x5C }
  - { offset: 0x43E18, size: 0x8, addend: 0x0, symName: '__ZN5alloc11collections5btree4node25InternalNode$LT$K$C$V$GT$3new17h45f403ebd9a06e82E', symObjAddr: 0x683E, symBinAddr: 0x6D8A, symSize: 0x2A }
  - { offset: 0x441DC, size: 0x8, addend: 0x0, symName: '__ZN5alloc11collections5btree4node121NodeRef$LT$alloc..collections..btree..node..marker..Owned$C$K$C$V$C$alloc..collections..btree..node..marker..Internal$GT$17from_new_internal17h9ab4204fc6d98c87E', symObjAddr: 0x6868, symBinAddr: 0x6DB4, symSize: 0x60 }
  - { offset: 0x44450, size: 0x8, addend: 0x0, symName: '__ZN5alloc11collections5btree4node25InternalNode$LT$K$C$V$GT$3new17h6aa3aa9c0a5cfd5fE', symObjAddr: 0x68C8, symBinAddr: 0x6E14, symSize: 0x26 }
  - { offset: 0x44683, size: 0x8, addend: 0x0, symName: '__ZN5alloc11collections5btree4node121NodeRef$LT$alloc..collections..btree..node..marker..Owned$C$K$C$V$C$alloc..collections..btree..node..marker..Internal$GT$17from_new_internal17h79e3a85e2ffda86fE', symObjAddr: 0x68EE, symBinAddr: 0x6E3A, symSize: 0x5C }
  - { offset: 0x449E9, size: 0x8, addend: 0x0, symName: '__ZN5alloc11collections5btree4node127NodeRef$LT$alloc..collections..btree..node..marker..Dying$C$K$C$V$C$alloc..collections..btree..node..marker..LeafOrInternal$GT$21deallocate_and_ascend17h17510d700d8bdb8bE', symObjAddr: 0x694A, symBinAddr: 0x6E96, symSize: 0x2A }
  - { offset: 0x44CBC, size: 0x8, addend: 0x0, symName: '__ZN5alloc11collections5btree4node127NodeRef$LT$alloc..collections..btree..node..marker..Dying$C$K$C$V$C$alloc..collections..btree..node..marker..LeafOrInternal$GT$21deallocate_and_ascend17h3b8c51395ad057e3E', symObjAddr: 0x6974, symBinAddr: 0x6EC0, symSize: 0x2E }
  - { offset: 0x44F3D, size: 0x8, addend: 0x0, symName: '__ZN5alloc11collections5btree4node127NodeRef$LT$alloc..collections..btree..node..marker..Dying$C$K$C$V$C$alloc..collections..btree..node..marker..LeafOrInternal$GT$21deallocate_and_ascend17hbf445840465b0333E', symObjAddr: 0x69A2, symBinAddr: 0x6EEE, symSize: 0x2A }
  - { offset: 0x45181, size: 0x8, addend: 0x0, symName: '__ZN5alloc11collections5btree4node127NodeRef$LT$alloc..collections..btree..node..marker..Owned$C$K$C$V$C$alloc..collections..btree..node..marker..LeafOrInternal$GT$18pop_internal_level17hb62f8dac9efac2c3E', symObjAddr: 0x69CC, symBinAddr: 0x6F18, symSize: 0x39 }
  - { offset: 0x453C0, size: 0x8, addend: 0x0, symName: '__ZN5alloc11collections5btree4node127NodeRef$LT$alloc..collections..btree..node..marker..Owned$C$K$C$V$C$alloc..collections..btree..node..marker..LeafOrInternal$GT$19push_internal_level17h9b925f2cb67d15f5E', symObjAddr: 0x6A05, symBinAddr: 0x6F51, symSize: 0x40 }
  - { offset: 0x455E1, size: 0x8, addend: 0x0, symName: '__ZN5alloc11collections5btree4node127NodeRef$LT$alloc..collections..btree..node..marker..Owned$C$K$C$V$C$alloc..collections..btree..node..marker..LeafOrInternal$GT$19push_internal_level17hefcbec36085a0996E', symObjAddr: 0x6A45, symBinAddr: 0x6F91, symSize: 0x40 }
  - { offset: 0x4576A, size: 0x8, addend: 0x0, symName: '__ZN5alloc11collections5btree4node127NodeRef$LT$alloc..collections..btree..node..marker..Owned$C$K$C$V$C$alloc..collections..btree..node..marker..LeafOrInternal$GT$3new17haa66b274db962a6dE', symObjAddr: 0x6A85, symBinAddr: 0x6FD1, symSize: 0xD }
  - { offset: 0x45909, size: 0x8, addend: 0x0, symName: '__ZN5alloc11collections5btree4node208Handle$LT$alloc..collections..btree..node..NodeRef$LT$alloc..collections..btree..node..marker..Mut$C$K$C$V$C$alloc..collections..btree..node..marker..Leaf$GT$$C$alloc..collections..btree..node..marker..KV$GT$6remove17h119926aaf3c98977E', symObjAddr: 0x6C93, symBinAddr: 0x71DF, symSize: 0xE3 }
  - { offset: 0x45CC4, size: 0x8, addend: 0x0, symName: '__ZN5alloc11collections5btree4node210Handle$LT$alloc..collections..btree..node..NodeRef$LT$alloc..collections..btree..node..marker..Mut$C$K$C$V$C$alloc..collections..btree..node..marker..Leaf$GT$$C$alloc..collections..btree..node..marker..Edge$GT$10insert_fit17h6c10882b24d124c9E', symObjAddr: 0x6D76, symBinAddr: 0x72C2, symSize: 0x97 }
  - { offset: 0x45F6A, size: 0x8, addend: 0x0, symName: '__ZN5alloc11collections5btree4node210Handle$LT$alloc..collections..btree..node..NodeRef$LT$alloc..collections..btree..node..marker..Mut$C$K$C$V$C$alloc..collections..btree..node..marker..Leaf$GT$$C$alloc..collections..btree..node..marker..Edge$GT$10insert_fit17h910865f7e4b7ac2aE', symObjAddr: 0x6E0D, symBinAddr: 0x7359, symSize: 0x7A }
  - { offset: 0x4611A, size: 0x8, addend: 0x0, symName: '__ZN5alloc11collections5btree4node210Handle$LT$alloc..collections..btree..node..NodeRef$LT$alloc..collections..btree..node..marker..Mut$C$K$C$V$C$alloc..collections..btree..node..marker..Leaf$GT$$C$alloc..collections..btree..node..marker..Edge$GT$10insert_fit17ha1c769171bccde62E', symObjAddr: 0x6E87, symBinAddr: 0x73D3, symSize: 0x5E }
  - { offset: 0x46312, size: 0x8, addend: 0x0, symName: '__ZN5alloc11collections5btree4node210Handle$LT$alloc..collections..btree..node..NodeRef$LT$alloc..collections..btree..node..marker..Mut$C$K$C$V$C$alloc..collections..btree..node..marker..Leaf$GT$$C$alloc..collections..btree..node..marker..Edge$GT$10insert_fit17hac56b5d68aa74a85E', symObjAddr: 0x6EE5, symBinAddr: 0x7431, symSize: 0x78 }
  - { offset: 0x46553, size: 0x8, addend: 0x0, symName: '__ZN5alloc11collections5btree4node214Handle$LT$alloc..collections..btree..node..NodeRef$LT$alloc..collections..btree..node..marker..Mut$C$K$C$V$C$alloc..collections..btree..node..marker..Internal$GT$$C$alloc..collections..btree..node..marker..Edge$GT$10insert_fit17h7b09b6f07d798140E', symObjAddr: 0x6F5D, symBinAddr: 0x74A9, symSize: 0xC6 }
  - { offset: 0x468EF, size: 0x8, addend: 0x0, symName: '__ZN5alloc11collections5btree4node214Handle$LT$alloc..collections..btree..node..NodeRef$LT$alloc..collections..btree..node..marker..Mut$C$K$C$V$C$alloc..collections..btree..node..marker..Internal$GT$$C$alloc..collections..btree..node..marker..Edge$GT$10insert_fit17h8cb820755aba47abE', symObjAddr: 0x7023, symBinAddr: 0x756F, symSize: 0xB9 }
  - { offset: 0x46B7B, size: 0x8, addend: 0x0, symName: '__ZN5alloc11collections5btree4node214Handle$LT$alloc..collections..btree..node..NodeRef$LT$alloc..collections..btree..node..marker..Mut$C$K$C$V$C$alloc..collections..btree..node..marker..Internal$GT$$C$alloc..collections..btree..node..marker..Edge$GT$10insert_fit17hf42b7d5546729b65E', symObjAddr: 0x70DC, symBinAddr: 0x7628, symSize: 0xF5 }
  - { offset: 0x4711F, size: 0x8, addend: 0x0, symName: '__ZN5alloc11collections5btree4node214Handle$LT$alloc..collections..btree..node..NodeRef$LT$alloc..collections..btree..node..marker..Mut$C$K$C$V$C$alloc..collections..btree..node..marker..Internal$GT$$C$alloc..collections..btree..node..marker..Edge$GT$10insert_fit17h23d69f1574c01f59E', symObjAddr: 0x71D1, symBinAddr: 0x771D, symSize: 0xC3 }
  - { offset: 0x474D8, size: 0x8, addend: 0x0, symName: '__ZN5alloc11collections5btree4node214Handle$LT$alloc..collections..btree..node..NodeRef$LT$alloc..collections..btree..node..marker..Mut$C$K$C$V$C$alloc..collections..btree..node..marker..Internal$GT$$C$alloc..collections..btree..node..marker..Edge$GT$10insert_fit17h1bc44b3ca28f2790E', symObjAddr: 0x7294, symBinAddr: 0x77E0, symSize: 0xA1 }
  - { offset: 0x4769E, size: 0x8, addend: 0x0, symName: '__ZN5alloc11collections5btree4node29BalancingContext$LT$K$C$V$GT$10steal_left17h8254cd792352e227E', symObjAddr: 0x7335, symBinAddr: 0x7881, symSize: 0x3F }
  - { offset: 0x4770A, size: 0x8, addend: 0x0, symName: '__ZN5alloc11collections5btree4node29BalancingContext$LT$K$C$V$GT$11steal_right17h29899fdbc7cef09cE', symObjAddr: 0x7374, symBinAddr: 0x78C0, symSize: 0x3C }
  - { offset: 0x47776, size: 0x8, addend: 0x0, symName: '__ZN5alloc11collections5btree4node29BalancingContext$LT$K$C$V$GT$8do_merge17hf97185967590d9dcE', symObjAddr: 0x73B0, symBinAddr: 0x78FC, symSize: 0x24B }
  - { offset: 0x4812B, size: 0x8, addend: 0x0, symName: '__ZN5alloc11collections5btree4node29BalancingContext$LT$K$C$V$GT$8do_merge17h92c831ea3a7b72b6E', symObjAddr: 0x75FB, symBinAddr: 0x7B47, symSize: 0x1A9 }
  - { offset: 0x487E1, size: 0x8, addend: 0x0, symName: '__ZN5alloc11collections5btree4node29BalancingContext$LT$K$C$V$GT$8do_merge17h7188afc5838ea160E', symObjAddr: 0x77A4, symBinAddr: 0x7CF0, symSize: 0x221 }
  - { offset: 0x49211, size: 0x8, addend: 0x0, symName: '__ZN5alloc11collections5btree4node29BalancingContext$LT$K$C$V$GT$25merge_tracking_child_edge17h23e8aef0a37ff5ecE', symObjAddr: 0x79C5, symBinAddr: 0x7F11, symSize: 0x6D }
  - { offset: 0x4943D, size: 0x8, addend: 0x0, symName: '__ZN5alloc11collections5btree4node29BalancingContext$LT$K$C$V$GT$25merge_tracking_child_edge17h75c2a00d4138e44dE', symObjAddr: 0x7A32, symBinAddr: 0x7F7E, symSize: 0x6D }
  - { offset: 0x4965A, size: 0x8, addend: 0x0, symName: '__ZN5alloc11collections5btree4node29BalancingContext$LT$K$C$V$GT$25merge_tracking_child_edge17h90f1d459558519b1E', symObjAddr: 0x7A9F, symBinAddr: 0x7FEB, symSize: 0x6D }
  - { offset: 0x4991B, size: 0x8, addend: 0x0, symName: '__ZN5alloc11collections5btree8navigate142_$LT$impl$u20$alloc..collections..btree..node..NodeRef$LT$BorrowType$C$K$C$V$C$alloc..collections..btree..node..marker..LeafOrInternal$GT$$GT$14last_leaf_edge17h61b2cb87b9ed78d6E', symObjAddr: 0x7B0C, symBinAddr: 0x8058, symSize: 0x30 }
  - { offset: 0x49C4A, size: 0x8, addend: 0x0, symName: '__ZN5alloc11collections5btree6remove259_$LT$impl$u20$alloc..collections..btree..node..Handle$LT$alloc..collections..btree..node..NodeRef$LT$alloc..collections..btree..node..marker..Mut$C$K$C$V$C$alloc..collections..btree..node..marker..Leaf$GT$$C$alloc..collections..btree..node..marker..KV$GT$$GT$14remove_leaf_kv17h3334778dde261839E', symObjAddr: 0x7B3C, symBinAddr: 0x8088, symSize: 0x156 }
  - { offset: 0x4A169, size: 0x8, addend: 0x0, symName: '__ZN5alloc11collections5btree6remove259_$LT$impl$u20$alloc..collections..btree..node..Handle$LT$alloc..collections..btree..node..NodeRef$LT$alloc..collections..btree..node..marker..Mut$C$K$C$V$C$alloc..collections..btree..node..marker..Leaf$GT$$C$alloc..collections..btree..node..marker..KV$GT$$GT$14remove_leaf_kv17h81ac3ea6e3c10fcaE', symObjAddr: 0x7C92, symBinAddr: 0x81DE, symSize: 0x328 }
  - { offset: 0x4A9C5, size: 0x8, addend: 0x0, symName: '__ZN5alloc11collections5btree6remove259_$LT$impl$u20$alloc..collections..btree..node..Handle$LT$alloc..collections..btree..node..NodeRef$LT$alloc..collections..btree..node..marker..Mut$C$K$C$V$C$alloc..collections..btree..node..marker..Leaf$GT$$C$alloc..collections..btree..node..marker..KV$GT$$GT$14remove_leaf_kv17ha38ab0c027c17503E', symObjAddr: 0x7FBA, symBinAddr: 0x8506, symSize: 0x2FF }
  - { offset: 0x4AF4E, size: 0x8, addend: 0x0, symName: '__ZN5alloc11collections5btree8navigate142_$LT$impl$u20$alloc..collections..btree..node..NodeRef$LT$BorrowType$C$K$C$V$C$alloc..collections..btree..node..marker..LeafOrInternal$GT$$GT$14last_leaf_edge17hb2f6e7c5ebbf9fa2E', symObjAddr: 0x82B9, symBinAddr: 0x8805, symSize: 0x30 }
  - { offset: 0x4B186, size: 0x8, addend: 0x0, symName: '__ZN5alloc11collections5btree8navigate227_$LT$impl$u20$alloc..collections..btree..node..Handle$LT$alloc..collections..btree..node..NodeRef$LT$BorrowType$C$K$C$V$C$alloc..collections..btree..node..marker..Leaf$GT$$C$alloc..collections..btree..node..marker..Edge$GT$$GT$7next_kv17h830448cfd710d3dfE', symObjAddr: 0x82E9, symBinAddr: 0x8835, symSize: 0x51 }
  - { offset: 0x4B3FE, size: 0x8, addend: 0x0, symName: '__ZN5alloc11collections5btree8navigate235_$LT$impl$u20$alloc..collections..btree..node..Handle$LT$alloc..collections..btree..node..NodeRef$LT$BorrowType$C$K$C$V$C$alloc..collections..btree..node..marker..LeafOrInternal$GT$$C$alloc..collections..btree..node..marker..KV$GT$$GT$14next_leaf_edge17hd0090bd3b1154229E', symObjAddr: 0x833A, symBinAddr: 0x8886, symSize: 0x50 }
  - { offset: 0x4BA0D, size: 0x8, addend: 0x0, symName: '__ZN5alloc11collections5btree6search142_$LT$impl$u20$alloc..collections..btree..node..NodeRef$LT$BorrowType$C$K$C$V$C$alloc..collections..btree..node..marker..LeafOrInternal$GT$$GT$11search_tree17h9ac2b045eba1534dE', symObjAddr: 0x838A, symBinAddr: 0x88D6, symSize: 0xBF }
  - { offset: 0x4BE9D, size: 0x8, addend: 0x0, symName: '__ZN5alloc11collections5btree6search142_$LT$impl$u20$alloc..collections..btree..node..NodeRef$LT$BorrowType$C$K$C$V$C$alloc..collections..btree..node..marker..LeafOrInternal$GT$$GT$11search_tree17he09f1bcb3b781106E', symObjAddr: 0x8449, symBinAddr: 0x8995, symSize: 0xBF }
  - { offset: 0x4403, size: 0x8, addend: 0x0, symName: '__ZN5alloc7raw_vec19RawVec$LT$T$C$A$GT$8grow_one17hca453feb17b536fdE', symObjAddr: 0x54C, symBinAddr: 0xB8C, symSize: 0x31 }
  - { offset: 0x529D, size: 0x8, addend: 0x0, symName: '__ZN5alloc7raw_vec20RawVecInner$LT$A$GT$7reserve21do_reserve_and_handle17h9b1f14d5c8766a93E', symObjAddr: 0x7DC, symBinAddr: 0x4E878, symSize: 0x25 }
  - { offset: 0x53FC, size: 0x8, addend: 0x0, symName: __ZN5alloc7raw_vec12handle_error17ha8dc5dbd4ba4818aE, symObjAddr: 0x658, symBinAddr: 0x4E7FC, symSize: 0x13 }
  - { offset: 0x54CB, size: 0x8, addend: 0x0, symName: __ZN5alloc7raw_vec11finish_grow17h788beb308c5b0588E, symObjAddr: 0x66B, symBinAddr: 0x4E80F, symSize: 0x67 }
  - { offset: 0x565B, size: 0x8, addend: 0x0, symName: '__ZN77_$LT$alloc..raw_vec..RawVec$LT$T$C$A$GT$$u20$as$u20$core..ops..drop..Drop$GT$4drop17h78729b0c87e8eea0E', symObjAddr: 0x6FD, symBinAddr: 0xCC5, symSize: 0x17 }
  - { offset: 0x5B7D, size: 0x8, addend: 0x0, symName: '__ZN5alloc7raw_vec19RawVec$LT$T$C$A$GT$8grow_one17hca453feb17b536fdE', symObjAddr: 0x54C, symBinAddr: 0xB8C, symSize: 0x31 }
  - { offset: 0x5DBD, size: 0x8, addend: 0x0, symName: '__ZN5alloc7raw_vec20RawVecInner$LT$A$GT$14grow_amortized17h0f6d2936f02daae4E', symObjAddr: 0x57D, symBinAddr: 0xBBD, symSize: 0xDB }
  - { offset: 0x5E14, size: 0x8, addend: 0x0, symName: '__ZN5alloc7raw_vec20RawVecInner$LT$A$GT$14grow_amortized17h0f6d2936f02daae4E', symObjAddr: 0x57D, symBinAddr: 0xBBD, symSize: 0xDB }
  - { offset: 0x62AF, size: 0x8, addend: 0x0, symName: __ZN5alloc5alloc6Global10alloc_impl17hf2f80dcc43d26c46E, symObjAddr: 0x6D2, symBinAddr: 0xC9A, symSize: 0x2B }
  - { offset: 0x634A, size: 0x8, addend: 0x0, symName: '__ZN5alloc7raw_vec20RawVecInner$LT$A$GT$10deallocate17hc8a31aa03e979d91E', symObjAddr: 0x714, symBinAddr: 0xCDC, symSize: 0x39 }
  - { offset: 0x646B, size: 0x8, addend: 0x0, symName: '__ZN5alloc7raw_vec20RawVecInner$LT$A$GT$15try_allocate_in17h073abbbb61615461E', symObjAddr: 0x74D, symBinAddr: 0xD15, symSize: 0x8F }
  - { offset: 0x1D737F, size: 0x8, addend: 0x0, symName: __ZN4itoa6Buffer6format17h15971c67fe5ffbd6E, symObjAddr: 0x4E354, symBinAddr: 0x4C760, symSize: 0xBA }
  - { offset: 0x1D7837, size: 0x8, addend: 0x0, symName: __ZN4itoa6Buffer6format17h15971c67fe5ffbd6E, symObjAddr: 0x4E354, symBinAddr: 0x4C760, symSize: 0xBA }
  - { offset: 0x1D798D, size: 0x8, addend: 0x0, symName: __ZN4itoa6Buffer6format17hcbda71068df66f2aE, symObjAddr: 0x4E40E, symBinAddr: 0x4C81A, symSize: 0xD5 }
  - { offset: 0xDF93, size: 0x8, addend: 0x0, symName: __ZN4core3num7flt2dec8round_up17hf55a1fe97afff470E, symObjAddr: 0x1959, symBinAddr: 0x1EFD, symSize: 0x6E }
  - { offset: 0xE002, size: 0x8, addend: 0x0, symName: __ZN4core3num7flt2dec8round_up17hf55a1fe97afff470E, symObjAddr: 0x1959, symBinAddr: 0x1EFD, symSize: 0x6E }
  - { offset: 0xE289, size: 0x8, addend: 0x0, symName: __ZN4core3num7flt2dec17digits_to_dec_str17hd1c47d84d5ad9cd3E, symObjAddr: 0x19C7, symBinAddr: 0x1F6B, symSize: 0x114 }
  - { offset: 0x83B0, size: 0x8, addend: 0x0, symName: '__ZN4core3fmt3num53_$LT$impl$u20$core..fmt..LowerHex$u20$for$u20$u32$GT$3fmt17h43a1841dbdce59ebE', symObjAddr: 0xA38, symBinAddr: 0xFDC, symSize: 0x7E }
  - { offset: 0x850F, size: 0x8, addend: 0x0, symName: '__ZN4core3fmt3num53_$LT$impl$u20$core..fmt..LowerHex$u20$for$u20$u32$GT$3fmt17h43a1841dbdce59ebE', symObjAddr: 0xA38, symBinAddr: 0xFDC, symSize: 0x7E }
  - { offset: 0x7800D, size: 0x8, addend: 0x0, symName: __ZN14powersync_core4bson2de12Deserializer15prepare_to_read17h0d7530312e06158aE, symObjAddr: 0xD083, symBinAddr: 0xD5A7, symSize: 0x18D }
  - { offset: 0x781B1, size: 0x8, addend: 0x0, symName: '__ZN5serde2de5impls80_$LT$impl$u20$serde..de..Deserialize$u20$for$u20$alloc..borrow..Cow$LT$T$GT$$GT$11deserialize17h03dbb033c178241eE', symObjAddr: 0xDC36, symBinAddr: 0xE15A, symSize: 0x58 }
  - { offset: 0x7A98B, size: 0x8, addend: 0x0, symName: __ZN5serde2de7Visitor20visit_borrowed_bytes17h3218b7a5d4f85147E, symObjAddr: 0xD624, symBinAddr: 0xDB48, symSize: 0x44 }
  - { offset: 0x7A9F7, size: 0x8, addend: 0x0, symName: __ZN5serde2de7Visitor20visit_borrowed_bytes17h60817376db10e75eE, symObjAddr: 0xD668, symBinAddr: 0xDB8C, symSize: 0x9F }
  - { offset: 0x7AA63, size: 0x8, addend: 0x0, symName: __ZN5serde2de7Visitor20visit_borrowed_bytes17he347025481985f7dE, symObjAddr: 0xD7D2, symBinAddr: 0xDCF6, symSize: 0x16E }
  - { offset: 0x7AACF, size: 0x8, addend: 0x0, symName: __ZN5serde2de7Visitor20visit_borrowed_bytes17h9c4363701e55adb6E, symObjAddr: 0xD940, symBinAddr: 0xDE64, symSize: 0x90 }
  - { offset: 0x7ABB3, size: 0x8, addend: 0x0, symName: __ZN5serde2de7Visitor20visit_borrowed_bytes17h4ee45142f1cbd510E, symObjAddr: 0xDBDC, symBinAddr: 0xE100, symSize: 0x5A }
  - { offset: 0x7AC1F, size: 0x8, addend: 0x0, symName: __ZN5serde2de7Visitor20visit_borrowed_bytes17h2fe502f64440b101E, symObjAddr: 0xDE02, symBinAddr: 0xE326, symSize: 0x1A6 }
  - { offset: 0x7AC8B, size: 0x8, addend: 0x0, symName: __ZN5serde2de7Visitor20visit_borrowed_bytes17hf3d4690d765262caE, symObjAddr: 0xE058, symBinAddr: 0xE57C, symSize: 0x1E4 }
  - { offset: 0x7ACF7, size: 0x8, addend: 0x0, symName: __ZN5serde2de7Visitor20visit_borrowed_bytes17h8935e1d35a1b5c07E, symObjAddr: 0xE23C, symBinAddr: 0xE760, symSize: 0x20D }
  - { offset: 0x7C73A, size: 0x8, addend: 0x0, symName: '__ZN94_$LT$$RF$mut$u20$powersync_core..bson..de..Deserializer$u20$as$u20$serde..de..Deserializer$GT$15deserialize_any17h3e7aad539793a3a7E', symObjAddr: 0xD3A3, symBinAddr: 0xD8C7, symSize: 0x281 }
  - { offset: 0x7CB87, size: 0x8, addend: 0x0, symName: '__ZN94_$LT$$RF$mut$u20$powersync_core..bson..de..Deserializer$u20$as$u20$serde..de..Deserializer$GT$15deserialize_any17h5ff23af0ab13cd9cE', symObjAddr: 0xD9D0, symBinAddr: 0xDEF4, symSize: 0x20C }
  - { offset: 0x81602, size: 0x8, addend: 0x0, symName: '__ZN79_$LT$powersync_core..bson..de..Deserializer$u20$as$u20$serde..de..SeqAccess$GT$17next_element_seed17hc0fc83d4684327bfE', symObjAddr: 0xD73D, symBinAddr: 0xDC61, symSize: 0x95 }
  - { offset: 0x816E1, size: 0x8, addend: 0x0, symName: '__ZN79_$LT$powersync_core..bson..de..Deserializer$u20$as$u20$serde..de..SeqAccess$GT$17next_element_seed17h7be225444a071b5bE', symObjAddr: 0xDCBD, symBinAddr: 0xE1E1, symSize: 0x95 }
  - { offset: 0x817C0, size: 0x8, addend: 0x0, symName: '__ZN79_$LT$powersync_core..bson..de..Deserializer$u20$as$u20$serde..de..SeqAccess$GT$17next_element_seed17h50dc8ec8f089aedeE', symObjAddr: 0xDD68, symBinAddr: 0xE28C, symSize: 0x9A }
  - { offset: 0x818CF, size: 0x8, addend: 0x0, symName: '__ZN79_$LT$powersync_core..bson..de..Deserializer$u20$as$u20$serde..de..SeqAccess$GT$17next_element_seed17h5d75397b9313fdfbE', symObjAddr: 0xDFC3, symBinAddr: 0xE4E7, symSize: 0x95 }
  - { offset: 0x82700, size: 0x8, addend: 0x0, symName: '__ZN92_$LT$$RF$mut$u20$powersync_core..bson..de..Deserializer$u20$as$u20$serde..de..EnumAccess$GT$12variant_seed17h6b824debde5f11b4E', symObjAddr: 0xE464, symBinAddr: 0xE988, symSize: 0x270 }
  - { offset: 0x82AC8, size: 0x8, addend: 0x0, symName: '__ZN95_$LT$$RF$mut$u20$powersync_core..bson..de..Deserializer$u20$as$u20$serde..de..VariantAccess$GT$12unit_variant17hfa79f196f7c30637E', symObjAddr: 0xE6D4, symBinAddr: 0x4E930, symSize: 0x24 }
  - { offset: 0x82AF3, size: 0x8, addend: 0x0, symName: '__ZN95_$LT$$RF$mut$u20$powersync_core..bson..de..Deserializer$u20$as$u20$serde..de..VariantAccess$GT$20newtype_variant_seed17hefb5d90b8f99ea2aE', symObjAddr: 0xE6F8, symBinAddr: 0xEBF8, symSize: 0x224 }
  - { offset: 0x8B73F, size: 0x8, addend: 0x0, symName: '__ZN4core3ptr117drop_in_place$LT$core..option..Option$LT$alloc..vec..Vec$LT$powersync_core..sync..line..StreamDescription$GT$$GT$$GT$17h62349ac1b99301d5E.402', symObjAddr: 0xD707, symBinAddr: 0xDC2B, symSize: 0x36 }
  - { offset: 0x8B7A4, size: 0x8, addend: 0x0, symName: '__ZN4core3ptr78drop_in_place$LT$core..option..Option$LT$alloc..borrow..Cow$LT$str$GT$$GT$$GT$17hb7085eca01baaea1E.404', symObjAddr: 0xDC8E, symBinAddr: 0xE1B2, symSize: 0x1B }
  - { offset: 0x8B82D, size: 0x8, addend: 0x0, symName: '__ZN4core3ptr50drop_in_place$LT$alloc..borrow..Cow$LT$str$GT$$GT$17h33cd2db2c1ccc3ebE.406', symObjAddr: 0xDCA9, symBinAddr: 0xE1CD, symSize: 0x14 }
  - { offset: 0x8B8B9, size: 0x8, addend: 0x0, symName: '__ZN4core3ptr145drop_in_place$LT$core..option..Option$LT$alloc..rc..Rc$LT$alloc..vec..Vec$LT$powersync_core..sync..line..BucketSubscriptionReason$GT$$GT$$GT$$GT$17h5b8bd44e854e2b9eE.407', symObjAddr: 0xDD52, symBinAddr: 0xE276, symSize: 0x16 }
  - { offset: 0x8B975, size: 0x8, addend: 0x0, symName: '__ZN4core3ptr106drop_in_place$LT$core..option..Option$LT$core..option..Option$LT$alloc..borrow..Cow$LT$str$GT$$GT$$GT$$GT$17h720cfbc4ae177e5dE.409', symObjAddr: 0xDFA8, symBinAddr: 0xE4CC, symSize: 0x1B }
  - { offset: 0x8D45A, size: 0x8, addend: 0x0, symName: '__ZN4core3cmp5impls69_$LT$impl$u20$core..cmp..PartialEq$LT$$RF$B$GT$$u20$for$u20$$RF$A$GT$2eq17hc4885f0888951a84E', symObjAddr: 0xE449, symBinAddr: 0xE96D, symSize: 0x1B }
  - { offset: 0x8DA19, size: 0x8, addend: 0x0, symName: __ZN14powersync_core4bson2de12Deserializer15prepare_to_read17h0d7530312e06158aE, symObjAddr: 0xD083, symBinAddr: 0xD5A7, symSize: 0x18D }
  - { offset: 0x8DC30, size: 0x8, addend: 0x0, symName: __ZN14powersync_core4bson2de12Deserializer21prepare_to_read_value17h436a1bc6c21dbba2E, symObjAddr: 0xD210, symBinAddr: 0xD734, symSize: 0x4E }
  - { offset: 0x8DCF1, size: 0x8, addend: 0x0, symName: __ZN14powersync_core4bson2de12Deserializer13object_reader17ha048b9a10132b0c6E, symObjAddr: 0xD25E, symBinAddr: 0xD782, symSize: 0x87 }
  - { offset: 0x8DDA8, size: 0x8, addend: 0x0, symName: __ZN14powersync_core4bson2de12Deserializer20advance_to_next_name17hb24323aa51e97d2aE, symObjAddr: 0xD2E5, symBinAddr: 0xD809, symSize: 0xBE }
  - { offset: 0x1A64C1, size: 0x8, addend: 0x0, symName: '__ZN104_$LT$core..iter..adapters..cloned..Cloned$LT$I$GT$$u20$as$u20$core..iter..traits..iterator..Iterator$GT$4next17h22cef48074d5f7dcE', symObjAddr: 0x46F39, symBinAddr: 0x45AB1, symSize: 0x40 }
  - { offset: 0x1A6791, size: 0x8, addend: 0x0, symName: '__ZN145_$LT$$LT$powersync_core..sync..checksum..Checksum$u20$as$u20$serde..de..Deserialize$GT$..deserialize..MyVisitor$u20$as$u20$serde..de..Visitor$GT$9visit_i6417h204c6982f4afdb01E', symObjAddr: 0x47A71, symBinAddr: 0x46549, symSize: 0x52 }
  - { offset: 0x1A68E2, size: 0x8, addend: 0x0, symName: '__ZN145_$LT$$LT$powersync_core..sync..checksum..Checksum$u20$as$u20$serde..de..Deserialize$GT$..deserialize..MyVisitor$u20$as$u20$serde..de..Visitor$GT$9visit_i6417hd7bae4277ab5de42E', symObjAddr: 0x47AC3, symBinAddr: 0x4659B, symSize: 0x52 }
  - { offset: 0x1A6A81, size: 0x8, addend: 0x0, symName: '__ZN83_$LT$powersync_core..sync..checksum..Checksum$u20$as$u20$serde..de..Deserialize$GT$11deserialize17h676418a2773ffbfbE', symObjAddr: 0x4761F, symBinAddr: 0x460F7, symSize: 0x355 }
  - { offset: 0x1A6E6D, size: 0x8, addend: 0x0, symName: '__ZN83_$LT$powersync_core..sync..checksum..Checksum$u20$as$u20$serde..de..Deserialize$GT$11deserialize17hc64ab79092a5b5b7E', symObjAddr: 0x47974, symBinAddr: 0x4644C, symSize: 0xFD }
  - { offset: 0x1A6FF1, size: 0x8, addend: 0x0, symName: '__ZN79_$LT$powersync_core..sync..checksum..Checksum$u20$as$u20$core..fmt..Display$GT$3fmt17h399fccea4efc80dcE', symObjAddr: 0x475BF, symBinAddr: 0x46097, symSize: 0x60 }
  - { offset: 0x1A7422, size: 0x8, addend: 0x0, symName: '__ZN14powersync_core4sync13subscriptions1_99_$LT$impl$u20$serde..de..Deserialize$u20$for$u20$powersync_core..sync..subscriptions..StreamKey$GT$11deserialize17h85f5b43a57119e8dE', symObjAddr: 0x48FCE, symBinAddr: 0x47AA6, symSize: 0x5D4 }
  - { offset: 0x1A8914, size: 0x8, addend: 0x0, symName: __ZN14powersync_core8fix_data39powersync_remove_duplicate_key_encoding17h79304bf98028928aE, symObjAddr: 0x47239, symBinAddr: 0x45D11, symSize: 0x2C7 }
  - { offset: 0x1A9884, size: 0x8, addend: 0x0, symName: '__ZN95_$LT$$BP$mut$u20$sqlite3_capi..bindings..sqlite3$u20$as$u20$sqlite_nostd..nostd..Connection$GT$9exec_safe17h08f7dd94c10754d5E.2744', symObjAddr: 0x48CBF, symBinAddr: 0x47797, symSize: 0x79 }
  - { offset: 0x1AA312, size: 0x8, addend: 0x0, symName: '__ZN4core3ptr67drop_in_place$LT$powersync_core..sync..subscriptions..StreamKey$GT$17hf87e7189873a835bE.2739', symObjAddr: 0x47B37, symBinAddr: 0x4660F, symSize: 0x37 }
  - { offset: 0x1AA503, size: 0x8, addend: 0x0, symName: '__ZN4core3ptr94drop_in_place$LT$core..option..Option$LT$powersync_core..sync_local..ParsedSchemaTable$GT$$GT$17h5edfc74fa834d623E', symObjAddr: 0x48C82, symBinAddr: 0x4775A, symSize: 0x3D }
  - { offset: 0x1AA5E4, size: 0x8, addend: 0x0, symName: '__ZN4core3ptr114drop_in_place$LT$core..option..Option$LT$powersync_core..sync_local..SyncOperation..apply..CachedStatement$GT$$GT$17h410b1769d777ca67E', symObjAddr: 0x48D38, symBinAddr: 0x47810, symSize: 0x33 }
  - { offset: 0x1AA717, size: 0x8, addend: 0x0, symName: '__ZN4core3ptr45drop_in_place$LT$serde_json..value..Value$GT$17h284d0b8556d2e056E.2746', symObjAddr: 0x48ECD, symBinAddr: 0x479A5, symSize: 0x60 }
  - { offset: 0x1AA804, size: 0x8, addend: 0x0, symName: '__ZN4core3ptr83drop_in_place$LT$powersync_core..sync..subscriptions..SubscriptionChangeRequest$GT$17h34cabde456e5a9f7E', symObjAddr: 0x48FB6, symBinAddr: 0x47A8E, symSize: 0x18 }
  - { offset: 0x1ACB48, size: 0x8, addend: 0x0, symName: '__ZN4core3str6traits66_$LT$impl$u20$core..ops..index..Index$LT$I$GT$$u20$for$u20$str$GT$5index17h640beb88d9286de5E', symObjAddr: 0x4714C, symBinAddr: 0x45C4C, symSize: 0x41 }
  - { offset: 0x1ACB88, size: 0x8, addend: 0x0, symName: '__ZN4core3str6traits66_$LT$impl$u20$core..ops..index..Index$LT$I$GT$$u20$for$u20$str$GT$5index17h640beb88d9286de5E', symObjAddr: 0x4714C, symBinAddr: 0x45C4C, symSize: 0x41 }
  - { offset: 0x1ACBAA, size: 0x8, addend: 0x0, symName: '__ZN4core3str6traits66_$LT$impl$u20$core..ops..index..Index$LT$I$GT$$u20$for$u20$str$GT$5index17h640beb88d9286de5E', symObjAddr: 0x4714C, symBinAddr: 0x45C4C, symSize: 0x41 }
  - { offset: 0x1ACCC5, size: 0x8, addend: 0x0, symName: '__ZN4core3str6traits66_$LT$impl$u20$core..ops..index..Index$LT$I$GT$$u20$for$u20$str$GT$5index17h2934e7c116ede358E', symObjAddr: 0x471B5, symBinAddr: 0x45C8D, symSize: 0x27 }
  - { offset: 0x1ACEE0, size: 0x8, addend: 0x0, symName: '__ZN4core3str6traits112_$LT$impl$u20$core..slice..index..SliceIndex$LT$str$GT$$u20$for$u20$core..ops..range..RangeFrom$LT$usize$GT$$GT$3get17h333e210e47577639E', symObjAddr: 0x4759A, symBinAddr: 0x46072, symSize: 0x25 }
  - { offset: 0x1AD19C, size: 0x8, addend: 0x0, symName: '__ZN102_$LT$core..str..iter..CharIndices$u20$as$u20$core..iter..traits..double_ended..DoubleEndedIterator$GT$9next_back17h0fc8d35a5fac0f2dE', symObjAddr: 0x47500, symBinAddr: 0x45FD8, symSize: 0x9A }
  - { offset: 0x1AD1F4, size: 0x8, addend: 0x0, symName: '__ZN102_$LT$core..str..iter..CharIndices$u20$as$u20$core..iter..traits..double_ended..DoubleEndedIterator$GT$9next_back17h0fc8d35a5fac0f2dE', symObjAddr: 0x47500, symBinAddr: 0x45FD8, symSize: 0x9A }
  - { offset: 0x1AF3A5, size: 0x8, addend: 0x0, symName: '__ZN44_$LT$$RF$T$u20$as$u20$core..fmt..Display$GT$3fmt17hd8406f1799384786E', symObjAddr: 0x47024, symBinAddr: 0x45B9C, symSize: 0x2B }
  - { offset: 0x1AF445, size: 0x8, addend: 0x0, symName: '__ZN44_$LT$$RF$T$u20$as$u20$core..fmt..Display$GT$3fmt17he50c67d344cd233cE', symObjAddr: 0x4704F, symBinAddr: 0x45BC7, symSize: 0xD }
  - { offset: 0x1AFD01, size: 0x8, addend: 0x0, symName: '__ZN4core5slice29_$LT$impl$u20$$u5b$T$u5d$$GT$15copy_from_slice17h969e43b9c268e324E', symObjAddr: 0x4705C, symBinAddr: 0x45BD4, symSize: 0x22 }
  - { offset: 0x1AFEF2, size: 0x8, addend: 0x0, symName: '__ZN104_$LT$core..iter..adapters..cloned..Cloned$LT$I$GT$$u20$as$u20$core..iter..traits..iterator..Iterator$GT$4next17h22cef48074d5f7dcE', symObjAddr: 0x46F39, symBinAddr: 0x45AB1, symSize: 0x40 }
  - { offset: 0x1B29FC, size: 0x8, addend: 0x0, symName: '__ZN41_$LT$T$u20$as$u20$serde..de..Expected$GT$3fmt17h0eeb5f747a26c1f4E', symObjAddr: 0x46F79, symBinAddr: 0x45AF1, symSize: 0x23 }
  - { offset: 0x1B2A74, size: 0x8, addend: 0x0, symName: '__ZN41_$LT$T$u20$as$u20$serde..de..Expected$GT$3fmt17h2775c3dd3eca7ec2E', symObjAddr: 0x46F9C, symBinAddr: 0x45B14, symSize: 0x42 }
  - { offset: 0x1B2AEC, size: 0x8, addend: 0x0, symName: '__ZN41_$LT$T$u20$as$u20$serde..de..Expected$GT$3fmt17h873047167999ab37E', symObjAddr: 0x46FDE, symBinAddr: 0x45B56, symSize: 0x23 }
  - { offset: 0x1B2B64, size: 0x8, addend: 0x0, symName: '__ZN41_$LT$T$u20$as$u20$serde..de..Expected$GT$3fmt17h874a480af0f130dbE', symObjAddr: 0x47001, symBinAddr: 0x45B79, symSize: 0x23 }
  - { offset: 0x1B2BE2, size: 0x8, addend: 0x0, symName: __ZN5serde2de7Visitor11visit_bytes17h5db1bc785a9be3e2E, symObjAddr: 0x470D4, symBinAddr: 0x502FC, symSize: 0x3C }
  - { offset: 0x1B2C33, size: 0x8, addend: 0x0, symName: __ZN5serde2de7Visitor9visit_str17hdb068704edf50ff9E, symObjAddr: 0x47110, symBinAddr: 0x50338, symSize: 0x3C }
  - { offset: 0x1B2D79, size: 0x8, addend: 0x0, symName: '__ZN89_$LT$serde..de..value..private..UnitOnly$LT$E$GT$$u20$as$u20$serde..de..VariantAccess$GT$20newtype_variant_seed17he093b1afdaae20faE', symObjAddr: 0x4718D, symBinAddr: 0x50375, symSize: 0x28 }
  - { offset: 0x1B377F, size: 0x8, addend: 0x0, symName: '__ZN5alloc4sync16Arc$LT$T$C$A$GT$9drop_slow17h82dfb9845eb24de2E', symObjAddr: 0x4707E, symBinAddr: 0x45BF6, symSize: 0x3D }
  - { offset: 0x1B3AB1, size: 0x8, addend: 0x0, symName: '__ZN5alloc4sync16Arc$LT$T$C$A$GT$9drop_slow17h97aea21b52cb1650E', symObjAddr: 0x470BB, symBinAddr: 0x45C33, symSize: 0x19 }
  - { offset: 0x1B3C6B, size: 0x8, addend: 0x0, symName: __ZN12sqlite_nostd5nostd11ManagedStmt11column_text17heaf08ede550e9d23E.2691, symObjAddr: 0x471DC, symBinAddr: 0x45CB4, symSize: 0x4C }
  - { offset: 0x1B3D24, size: 0x8, addend: 0x0, symName: __ZN12sqlite_nostd5nostd11ManagedStmt9bind_text17h4637dbf52e9a685fE.2695, symObjAddr: 0x47228, symBinAddr: 0x45D00, symSize: 0x11 }
  - { offset: 0x1B4245, size: 0x8, addend: 0x0, symName: __ZN12sqlite_nostd5nostd11ManagedStmt8bind_int17h14545f4aee364323E.2737, symObjAddr: 0x47B15, symBinAddr: 0x465ED, symSize: 0x11 }
  - { offset: 0x1B4285, size: 0x8, addend: 0x0, symName: __ZN12sqlite_nostd5nostd11ManagedStmt9bind_null17h61b6d128df76901fE.2738, symObjAddr: 0x47B26, symBinAddr: 0x465FE, symSize: 0x11 }
  - { offset: 0x1B4C80, size: 0x8, addend: 0x0, symName: __ZN14powersync_core10sync_local13SyncOperation5apply17h8abbce33eabe8b0aE, symObjAddr: 0x47B6E, symBinAddr: 0x46646, symSize: 0x1114 }
  - { offset: 0x1B6B9A, size: 0x8, addend: 0x0, symName: __ZN14powersync_core10sync_local28RawTableWithCachedStatements14prepare_lazily17hcd2667c427d5e27fE, symObjAddr: 0x48D6B, symBinAddr: 0x47843, symSize: 0x162 }
  - { offset: 0x1B6F60, size: 0x8, addend: 0x0, symName: __ZN14powersync_core10sync_local13SyncOperation10use_schema17h101be80bc2aef6dbE, symObjAddr: 0x48F2D, symBinAddr: 0x47A05, symSize: 0x89 }
  - { offset: 0x1DA425, size: 0x8, addend: 0x0, symName: '__ZN41_$LT$T$u20$as$u20$serde..de..Expected$GT$3fmt17h2dddaa7bdab07736E', symObjAddr: 0x4E5F2, symBinAddr: 0x4C9FE, symSize: 0x23 }
  - { offset: 0x1DA601, size: 0x8, addend: 0x0, symName: '__ZN71_$LT$serde_json..raw..BoxedFromString$u20$as$u20$serde..de..Visitor$GT$9visit_str17h507263a1b1fa9b14E', symObjAddr: 0x4F172, symBinAddr: 0x4D57E, symSize: 0x32 }
  - { offset: 0x1DA6B0, size: 0x8, addend: 0x0, symName: '__ZN68_$LT$serde_json..raw..RawValue$u20$as$u20$alloc..borrow..ToOwned$GT$8to_owned17hb342b344f8ad466dE', symObjAddr: 0x4F0CD, symBinAddr: 0x4D4D9, symSize: 0x2A }
  - { offset: 0x1DA85D, size: 0x8, addend: 0x0, symName: '__ZN81_$LT$serde_json..raw..BorrowedRawDeserializer$u20$as$u20$serde..de..MapAccess$GT$13next_key_seed17h4d3a31fa0930e459E', symObjAddr: 0x4F12F, symBinAddr: 0x4D53B, symSize: 0x43 }
  - { offset: 0x1DBDA9, size: 0x8, addend: 0x0, symName: '__ZN4core3cmp5impls69_$LT$impl$u20$core..cmp..PartialEq$LT$$RF$B$GT$$u20$for$u20$$RF$A$GT$2eq17h89d3809d40403062E', symObjAddr: 0x4F127, symBinAddr: 0x4D533, symSize: 0x8 }
  - { offset: 0x1DC0D4, size: 0x8, addend: 0x0, symName: '__ZN4core5slice3cmp56_$LT$impl$u20$core..cmp..Ord$u20$for$u20$$u5b$T$u5d$$GT$3cmp17hfbfa6365a5d1f8c9E', symObjAddr: 0x4E638, symBinAddr: 0x4CA44, symSize: 0x35 }
  - { offset: 0x1DC9C9, size: 0x8, addend: 0x0, symName: '__ZN99_$LT$alloc..collections..btree..map..BTreeMap$LT$K$C$V$C$A$GT$$u20$as$u20$core..ops..drop..Drop$GT$4drop17h254b282edaa97346E', symObjAddr: 0x4EF13, symBinAddr: 0x4D31F, symSize: 0x1BA }
  - { offset: 0x1DE0D2, size: 0x8, addend: 0x0, symName: '__ZN41_$LT$T$u20$as$u20$serde..de..Expected$GT$3fmt17h2dddaa7bdab07736E', symObjAddr: 0x4E5F2, symBinAddr: 0x4C9FE, symSize: 0x23 }
  - { offset: 0x1DE14A, size: 0x8, addend: 0x0, symName: '__ZN41_$LT$T$u20$as$u20$serde..de..Expected$GT$3fmt17h651f0a543208b5f8E', symObjAddr: 0x4E615, symBinAddr: 0x4CA21, symSize: 0x23 }
  - { offset: 0x1DE596, size: 0x8, addend: 0x0, symName: '__ZN5alloc11collections5btree3map25BTreeMap$LT$K$C$V$C$A$GT$3get17h6d2cdd3a7cc1579cE', symObjAddr: 0x4E66D, symBinAddr: 0x4CA79, symSize: 0xB1 }
  - { offset: 0x1DE5C5, size: 0x8, addend: 0x0, symName: '__ZN5alloc11collections5btree3map25BTreeMap$LT$K$C$V$C$A$GT$3get17h6d2cdd3a7cc1579cE', symObjAddr: 0x4E66D, symBinAddr: 0x4CA79, symSize: 0xB1 }
  - { offset: 0x1DEBE0, size: 0x8, addend: 0x0, symName: '__ZN5alloc11collections5btree3map25BTreeMap$LT$K$C$V$C$A$GT$6insert17h851743c7dabde8ceE', symObjAddr: 0x4E71E, symBinAddr: 0x4CB2A, symSize: 0x7D3 }
  - { offset: 0x1E0405, size: 0x8, addend: 0x0, symName: '__ZN5alloc11collections5btree8navigate142_$LT$impl$u20$alloc..collections..btree..node..NodeRef$LT$BorrowType$C$K$C$V$C$alloc..collections..btree..node..marker..LeafOrInternal$GT$$GT$15first_leaf_edge17h08687ed9f526b87bE', symObjAddr: 0x4EEF1, symBinAddr: 0x4D2FD, symSize: 0x22 }
  - { offset: 0x1E08AF, size: 0x8, addend: 0x0, symName: __ZN5alloc6string6String14into_boxed_str17hb40925c18109c4f0E, symObjAddr: 0x4F0F7, symBinAddr: 0x4D503, symSize: 0x30 }
  - { offset: 0x1ED60F, size: 0x8, addend: 0x0, symName: '__ZN42_$LT$$RF$T$u20$as$u20$core..fmt..Debug$GT$3fmt17hc8bf3b606bf04f22E', symObjAddr: 0x4F53C, symBinAddr: 0x4D93C, symSize: 0x9BC }
  - { offset: 0x1EE14D, size: 0x8, addend: 0x0, symName: '__ZN4core3ptr105drop_in_place$LT$core..result..Result$LT$alloc..ffi..c_str..CString$C$alloc..ffi..c_str..NulError$GT$$GT$17h0ba11ff75c381cc0E', symObjAddr: 0x50043, symBinAddr: 0x4E443, symSize: 0x2C }
  - { offset: 0x1EE67B, size: 0x8, addend: 0x0, symName: '__ZN42_$LT$$RF$T$u20$as$u20$core..fmt..Debug$GT$3fmt17hc8bf3b606bf04f22E', symObjAddr: 0x4F53C, symBinAddr: 0x4D93C, symSize: 0x9BC }
  - { offset: 0x1EE9C4, size: 0x8, addend: 0x0, symName: '__ZN95_$LT$$BP$mut$u20$sqlite3_capi..bindings..sqlite3$u20$as$u20$sqlite_nostd..nostd..Connection$GT$11commit_hook17hdda36be4672a0f5fE', symObjAddr: 0x4FF4D, symBinAddr: 0x4E34D, symSize: 0x1E }
  - { offset: 0x1EEA12, size: 0x8, addend: 0x0, symName: '__ZN95_$LT$$BP$mut$u20$sqlite3_capi..bindings..sqlite3$u20$as$u20$sqlite_nostd..nostd..Connection$GT$11commit_hook17hdda36be4672a0f5fE', symObjAddr: 0x4FF4D, symBinAddr: 0x4E34D, symSize: 0x1E }
  - { offset: 0x1EEA51, size: 0x8, addend: 0x0, symName: '__ZN95_$LT$$BP$mut$u20$sqlite3_capi..bindings..sqlite3$u20$as$u20$sqlite_nostd..nostd..Connection$GT$18create_function_v217h813f5f2ab12ce5deE', symObjAddr: 0x4FF6B, symBinAddr: 0x4E36B, symSize: 0xBB }
  - { offset: 0x1EEBB6, size: 0x8, addend: 0x0, symName: '__ZN95_$LT$$BP$mut$u20$sqlite3_capi..bindings..sqlite3$u20$as$u20$sqlite_nostd..nostd..Connection$GT$13rollback_hook17hc85e886dfa854db8E', symObjAddr: 0x5006F, symBinAddr: 0x4E46F, symSize: 0x1E }
  - { offset: 0x1EEC04, size: 0x8, addend: 0x0, symName: '__ZN95_$LT$$BP$mut$u20$sqlite3_capi..bindings..sqlite3$u20$as$u20$sqlite_nostd..nostd..Connection$GT$13rollback_hook17hc85e886dfa854db8E', symObjAddr: 0x5006F, symBinAddr: 0x4E46F, symSize: 0x1E }
  - { offset: 0x1EEC43, size: 0x8, addend: 0x0, symName: '__ZN95_$LT$$BP$mut$u20$sqlite3_capi..bindings..sqlite3$u20$as$u20$sqlite_nostd..nostd..Connection$GT$11update_hook17heb23b90a042e2a2fE', symObjAddr: 0x5008D, symBinAddr: 0x4E48D, symSize: 0x1E }
  - { offset: 0x1EEC91, size: 0x8, addend: 0x0, symName: '__ZN95_$LT$$BP$mut$u20$sqlite3_capi..bindings..sqlite3$u20$as$u20$sqlite_nostd..nostd..Connection$GT$11update_hook17heb23b90a042e2a2fE', symObjAddr: 0x5008D, symBinAddr: 0x4E48D, symSize: 0x1E }
  - { offset: 0x1EECCF, size: 0x8, addend: 0x0, symName: '__ZN95_$LT$$BP$mut$u20$sqlite3_capi..bindings..sqlite3$u20$as$u20$sqlite_nostd..nostd..Connection$GT$6errmsg17hd6294e14949c3ed0E', symObjAddr: 0x500AB, symBinAddr: 0x4E4AB, symSize: 0xF4 }
  - { offset: 0x1EEF98, size: 0x8, addend: 0x0, symName: '__ZN95_$LT$$BP$mut$u20$sqlite3_capi..bindings..sqlite3$u20$as$u20$sqlite_nostd..nostd..Connection$GT$14get_autocommit17h9e67be5e60f895afE', symObjAddr: 0x5019F, symBinAddr: 0x4E59F, symSize: 0x25 }
  - { offset: 0x1EF023, size: 0x8, addend: 0x0, symName: '__ZN70_$LT$sqlite_nostd..nostd..ResultCode$u20$as$u20$core..fmt..Display$GT$3fmt17ha19fc5ee4f3664adE', symObjAddr: 0x4FEF8, symBinAddr: 0x4E2F8, symSize: 0x55 }
  - { offset: 0x1EF0F6, size: 0x8, addend: 0x0, symName: __ZN12sqlite_nostd5nostd10convert_rc17h1332d85c3d812fbbE, symObjAddr: 0x50026, symBinAddr: 0x4E426, symSize: 0x1D }
  - { offset: 0x1EF1F9, size: 0x8, addend: 0x0, symName: '__ZN74_$LT$sqlite_nostd..nostd..ManagedStmt$u20$as$u20$core..ops..drop..Drop$GT$4drop17h3ad61788b13e0ab8E', symObjAddr: 0x5022E, symBinAddr: 0x4E62E, symSize: 0x1E }
  - { offset: 0x1EF223, size: 0x8, addend: 0x0, symName: '__ZN74_$LT$sqlite_nostd..nostd..ManagedStmt$u20$as$u20$core..ops..drop..Drop$GT$4drop17h3ad61788b13e0ab8E', symObjAddr: 0x5022E, symBinAddr: 0x4E62E, symSize: 0x1E }
  - { offset: 0x1EF25A, size: 0x8, addend: 0x0, symName: '__ZN94_$LT$$BP$mut$u20$sqlite3_capi..bindings..sqlite3_vtab$u20$as$u20$sqlite_nostd..nostd..VTab$GT$7set_err17h163cbfedaab72378E', symObjAddr: 0x5024C, symBinAddr: 0x4E64C, symSize: 0x45 }
  - { offset: 0x1EF2F2, size: 0x8, addend: 0x0, symName: __ZN12sqlite_nostd5nostd12declare_vtab17h8229b5f9e1420864E, symObjAddr: 0x50291, symBinAddr: 0x4E691, symSize: 0x90 }
  - { offset: 0x1EF48F, size: 0x8, addend: 0x0, symName: __ZN12sqlite_nostd5nostd11vtab_config17h89b1cfcb6e41c868E, symObjAddr: 0x50321, symBinAddr: 0x4E721, symSize: 0x22 }
  - { offset: 0x1EF4D0, size: 0x8, addend: 0x0, symName: __ZN12sqlite_nostd5nostd11vtab_config17h89b1cfcb6e41c868E, symObjAddr: 0x50321, symBinAddr: 0x4E721, symSize: 0x22 }
  - { offset: 0x1EFF73, size: 0x8, addend: 0x0, symName: __ZN12sqlite_nostd5nostd11ManagedStmt5reset17h47649aec8efaa99bE, symObjAddr: 0x501C4, symBinAddr: 0x4E5C4, symSize: 0x26 }
  - { offset: 0x1F002F, size: 0x8, addend: 0x0, symName: __ZN12sqlite_nostd5nostd11ManagedStmt4step17h8e07a63c45b1bfb8E, symObjAddr: 0x501EA, symBinAddr: 0x4E5EA, symSize: 0x44 }
  - { offset: 0x1A500, size: 0x8, addend: 0x0, symName: __ZN4core3num7flt2dec7decoder6decode17hf383d5938802b24eE, symObjAddr: 0x42EA, symBinAddr: 0x4856, symSize: 0xE6 }
  - { offset: 0x1A75E, size: 0x8, addend: 0x0, symName: '__ZN4core5slice29_$LT$impl$u20$$u5b$T$u5d$$GT$15copy_from_slice17len_mismatch_fail17hf4ae0fe636544654E', symObjAddr: 0x4424, symBinAddr: 0x4E8E8, symSize: 0x9 }
  - { offset: 0x1A87E, size: 0x8, addend: 0x0, symName: '__ZN73_$LT$$u5b$A$u5d$$u20$as$u20$core..slice..cmp..SlicePartialEq$LT$B$GT$$GT$5equal17ha9a4e909aab97664E', symObjAddr: 0x4403, symBinAddr: 0x4967, symSize: 0x21 }
  - { offset: 0x1ABB3, size: 0x8, addend: 0x0, symName: __ZN4core3num7flt2dec7decoder6decode17hf383d5938802b24eE, symObjAddr: 0x42EA, symBinAddr: 0x4856, symSize: 0xE6 }
  - { offset: 0x1AD60, size: 0x8, addend: 0x0, symName: __ZN4core3num14overflow_panic3add17hd638c249f3d12199E, symObjAddr: 0x43D0, symBinAddr: 0x4E8DC, symSize: 0x9 }
  - { offset: 0x1AFAA, size: 0x8, addend: 0x0, symName: __ZN4core4iter6traits8iterator8Iterator3sum17h0107acb8ca185f33E, symObjAddr: 0x43D9, symBinAddr: 0x493D, symSize: 0x2A }
  - { offset: 0x11D2D, size: 0x8, addend: 0x0, symName: __ZN4core6result13unwrap_failed17h644ecc1e180a1223E, symObjAddr: 0x2435, symBinAddr: 0x4E89D, symSize: 0x9 }
  - { offset: 0x11F9D, size: 0x8, addend: 0x0, symName: __ZN4core3fmt5float29float_to_decimal_common_exact17h433f491f21ad8550E, symObjAddr: 0x2471, symBinAddr: 0x29E9, symSize: 0x99B }
  - { offset: 0x128F3, size: 0x8, addend: 0x0, symName: __ZN4core3fmt5float32float_to_decimal_common_shortest17he91f1e91a78652deE, symObjAddr: 0x2E0C, symBinAddr: 0x3384, symSize: 0x81C }
  - { offset: 0x13018, size: 0x8, addend: 0x0, symName: '__ZN4core3fmt5float52_$LT$impl$u20$core..fmt..Display$u20$for$u20$f64$GT$3fmt17hce1a3508c8f83494E', symObjAddr: 0x3628, symBinAddr: 0x3BA0, symSize: 0x3A }
  - { offset: 0x130E9, size: 0x8, addend: 0x0, symName: __ZN4core9panicking18panic_nounwind_fmt17h5d22369f87180942E, symObjAddr: 0x244D, symBinAddr: 0x4E8A9, symSize: 0x6 }
  - { offset: 0x13167, size: 0x8, addend: 0x0, symName: __ZN4core9panicking5panic17he2a7c15ca0ddac1aE, symObjAddr: 0x2453, symBinAddr: 0x4E8AF, symSize: 0x9 }
  - { offset: 0x13192, size: 0x8, addend: 0x0, symName: __ZN4core9panicking13assert_failed17h29c5b57d8b6b5ec2E, symObjAddr: 0x245C, symBinAddr: 0x4E8B8, symSize: 0xC }
  - { offset: 0x131FA, size: 0x8, addend: 0x0, symName: __ZN4core9panicking19assert_failed_inner17hc75bc4d2e05f7e04E, symObjAddr: 0x2468, symBinAddr: 0x4E8C4, symSize: 0x9 }
  - { offset: 0x13315, size: 0x8, addend: 0x0, symName: __ZN4core6result13unwrap_failed17h644ecc1e180a1223E, symObjAddr: 0x2435, symBinAddr: 0x4E89D, symSize: 0x9 }
  - { offset: 0x1389A, size: 0x8, addend: 0x0, symName: __ZN4core3fmt9Formatter9write_fmt17h7952cafa4f6a45f0E.215, symObjAddr: 0x243E, symBinAddr: 0x29DA, symSize: 0xF }
  - { offset: 0xDC62C, size: 0x8, addend: 0x0, symName: '__ZN5serde9__private2de7content28ContentDeserializer$LT$E$GT$12invalid_type17hefdf2c7ec461c5eaE', symObjAddr: 0x1DB17, symBinAddr: 0x4F44F, symSize: 0x155 }
  - { offset: 0xDC708, size: 0x8, addend: 0x0, symName: __ZN5serde2de7Visitor11visit_bytes17h2c9fa2ea48b08caeE, symObjAddr: 0x1DE1B, symBinAddr: 0x4F5A7, symSize: 0x3C }
  - { offset: 0xDC759, size: 0x8, addend: 0x0, symName: __ZN5serde2de7Visitor9visit_str17he9711be35b05cdf6E, symObjAddr: 0x1DE57, symBinAddr: 0x4F5E3, symSize: 0x3C }
  - { offset: 0xDC9F0, size: 0x8, addend: 0x0, symName: '__ZN41_$LT$T$u20$as$u20$serde..de..Expected$GT$3fmt17h31b340d67efcc11aE', symObjAddr: 0x1DD6F, symBinAddr: 0x1D623, symSize: 0x23 }
  - { offset: 0xDCA68, size: 0x8, addend: 0x0, symName: '__ZN41_$LT$T$u20$as$u20$serde..de..Expected$GT$3fmt17h37265da9ec6eb735E', symObjAddr: 0x1DD92, symBinAddr: 0x1D646, symSize: 0x23 }
  - { offset: 0xDCEE8, size: 0x8, addend: 0x0, symName: '__ZN84_$LT$serde..__private..de..content..ContentVisitor$u20$as$u20$serde..de..Visitor$GT$9visit_str17h34002bf9bbea1c24E', symObjAddr: 0x1DED1, symBinAddr: 0x1D70D, symSize: 0x5D }
  - { offset: 0xDD531, size: 0x8, addend: 0x0, symName: '__ZN164_$LT$$LT$powersync_core..sync..bucket_priority..BucketPriority$u20$as$u20$serde..de..Deserialize$GT$..deserialize..PriorityVisitor$u20$as$u20$serde..de..Visitor$GT$9visit_i3217h3d2166e5af1c0f17E', symObjAddr: 0x21AE1, symBinAddr: 0x2131D, symSize: 0x68 }
  - { offset: 0xDD5FB, size: 0x8, addend: 0x0, symName: '__ZN164_$LT$$LT$powersync_core..sync..bucket_priority..BucketPriority$u20$as$u20$serde..de..Deserialize$GT$..deserialize..PriorityVisitor$u20$as$u20$serde..de..Visitor$GT$9visit_i3217h43daf38331ce7fd4E', symObjAddr: 0x21B49, symBinAddr: 0x21385, symSize: 0x66 }
  - { offset: 0xDD6ED, size: 0x8, addend: 0x0, symName: '__ZN96_$LT$powersync_core..sync..bucket_priority..BucketPriority$u20$as$u20$serde..de..Deserialize$GT$11deserialize17heb7b197233d87c11E', symObjAddr: 0x2179E, symBinAddr: 0x20FDA, symSize: 0x246 }
  - { offset: 0xDDA8F, size: 0x8, addend: 0x0, symName: '__ZN96_$LT$powersync_core..sync..bucket_priority..BucketPriority$u20$as$u20$serde..de..Deserialize$GT$11deserialize17hf3aad5cd3f3358c3E', symObjAddr: 0x219E4, symBinAddr: 0x21220, symSize: 0xFD }
  - { offset: 0xDDC3C, size: 0x8, addend: 0x0, symName: '__ZN107_$LT$powersync_core..sync..bucket_priority..BucketPriority$u20$as$u20$core..convert..TryFrom$LT$i32$GT$$GT$8try_from17h59fb4f37f409ee68E', symObjAddr: 0x21767, symBinAddr: 0x20FA3, symSize: 0x37 }
  - { offset: 0xDDC6F, size: 0x8, addend: 0x0, symName: '__ZN95_$LT$powersync_core..sync..bucket_priority..BucketPriority$u20$as$u20$serde..ser..Serialize$GT$9serialize17h4bdeaee3e4721c66E', symObjAddr: 0x21BAF, symBinAddr: 0x213EB, symSize: 0xCA }
  - { offset: 0xDE3AF, size: 0x8, addend: 0x0, symName: __ZN14powersync_core4sync10operations24insert_bucket_operations17h32c816174b59c56dE, symObjAddr: 0x1F57A, symBinAddr: 0x1EDB6, symSize: 0x927 }
  - { offset: 0xDF6B1, size: 0x8, addend: 0x0, symName: __ZN14powersync_core10operations13delete_bucket17h6d09319d28a08989E, symObjAddr: 0x1FF30, symBinAddr: 0x1F76C, symSize: 0x17D }
  - { offset: 0xDFC19, size: 0x8, addend: 0x0, symName: __ZN14powersync_core6schema10management24powersync_replace_schema17h1021d37a514e79c1E, symObjAddr: 0x200AD, symBinAddr: 0x1F8E9, symSize: 0x138 }
  - { offset: 0xE0561, size: 0x8, addend: 0x0, symName: __ZN14powersync_core6schema10management29powersync_replace_schema_impl17hb72725c9ff82143fE, symObjAddr: 0x201E5, symBinAddr: 0x1FA21, symSize: 0x153D }
  - { offset: 0xE26AE, size: 0x8, addend: 0x0, symName: __ZN14powersync_core2kv9client_id17he67552f7f0973383E, symObjAddr: 0x1DF2E, symBinAddr: 0x1D76A, symSize: 0xE1 }
  - { offset: 0xE2911, size: 0x8, addend: 0x0, symName: __ZN14powersync_core2kv19powersync_client_id17hfaf9b9bfc9f9569cE, symObjAddr: 0x1E834, symBinAddr: 0x1E070, symSize: 0x75 }
  - { offset: 0xE2B20, size: 0x8, addend: 0x0, symName: __ZN14powersync_core2kv24powersync_last_synced_at17h30792649c5a37705E, symObjAddr: 0x1E8A9, symBinAddr: 0x1E0E5, symSize: 0x136 }
  - { offset: 0xE2E51, size: 0x8, addend: 0x0, symName: __ZN14powersync_core10migrations17powersync_migrate17hff9acc1a573072d2E, symObjAddr: 0x1E9F0, symBinAddr: 0x1E22C, symSize: 0xAA9 }
  - { offset: 0xE3FA1, size: 0x8, addend: 0x0, symName: __ZN14powersync_core7version20powersync_rs_version17h89b8ec1f25df4b31E, symObjAddr: 0x21C79, symBinAddr: 0x214B5, symSize: 0xD1 }
  - { offset: 0xE4296, size: 0x8, addend: 0x0, symName: '__ZN95_$LT$$BP$mut$u20$sqlite3_capi..bindings..sqlite3$u20$as$u20$sqlite_nostd..nostd..Connection$GT$10prepare_v217h28658e57b293d8dbE', symObjAddr: 0x1E00F, symBinAddr: 0x1D84B, symSize: 0x7D9 }
  - { offset: 0xE435F, size: 0x8, addend: 0x0, symName: '__ZN95_$LT$$BP$mut$u20$sqlite3_capi..bindings..sqlite3$u20$as$u20$sqlite_nostd..nostd..Connection$GT$9exec_safe17h08f7dd94c10754d5E', symObjAddr: 0x1F499, symBinAddr: 0x1ECD5, symSize: 0x79 }
  - { offset: 0xE4D8F, size: 0x8, addend: 0x0, symName: '__ZN4core3ptr59drop_in_place$LT$serde..__private..de..content..Content$GT$17h361298bf0af0ae7aE.1064', symObjAddr: 0x1DC6C, symBinAddr: 0x1D520, symSize: 0xA4 }
  - { offset: 0xE4DDF, size: 0x8, addend: 0x0, symName: '__ZN4core3ptr131drop_in_place$LT$alloc..vec..Vec$LT$$LP$serde..__private..de..content..Content$C$serde..__private..de..content..Content$RP$$GT$$GT$17h5b4a66d395488e42E', symObjAddr: 0x1DD10, symBinAddr: 0x1D5C4, symSize: 0x20 }
  - { offset: 0xE4E2F, size: 0x8, addend: 0x0, symName: '__ZN4core3ptr84drop_in_place$LT$alloc..boxed..Box$LT$serde..__private..de..content..Content$GT$$GT$17h8749e01c4ac1a14eE.1065', symObjAddr: 0x1DD30, symBinAddr: 0x1D5E4, symSize: 0x1F }
  - { offset: 0xE4F37, size: 0x8, addend: 0x0, symName: '__ZN4core3ptr82drop_in_place$LT$alloc..vec..Vec$LT$serde..__private..de..content..Content$GT$$GT$17hf65af142464a7a4eE', symObjAddr: 0x1DD4F, symBinAddr: 0x1D603, symSize: 0x20 }
  - { offset: 0xE5129, size: 0x8, addend: 0x0, symName: '__ZN4core3ptr47drop_in_place$LT$alloc..ffi..c_str..CString$GT$17h25c43800e4c8a37bE', symObjAddr: 0x1F512, symBinAddr: 0x1ED4E, symSize: 0x14 }
  - { offset: 0xE5261, size: 0x8, addend: 0x0, symName: '__ZN4core3ptr74drop_in_place$LT$powersync_core..sync..storage_adapter..StorageAdapter$GT$17hc71bda9a8d738340E', symObjAddr: 0x1FEA1, symBinAddr: 0x1F6DD, symSize: 0x33 }
  - { offset: 0xE534C, size: 0x8, addend: 0x0, symName: '__ZN4core3ptr78drop_in_place$LT$powersync_core..operations..insert_operation..BucketBatch$GT$17hb693dbce49c314e0E', symObjAddr: 0x1FED4, symBinAddr: 0x1F710, symSize: 0x29 }
  - { offset: 0xE5456, size: 0x8, addend: 0x0, symName: '__ZN4core3ptr51drop_in_place$LT$powersync_core..schema..Schema$GT$17h7159abf39aaa8fb2E.1133', symObjAddr: 0x21722, symBinAddr: 0x20F5E, symSize: 0x45 }
  - { offset: 0xEF159, size: 0x8, addend: 0x0, symName: '__ZN5serde9__private2de7content28ContentDeserializer$LT$E$GT$12invalid_type17hefdf2c7ec461c5eaE', symObjAddr: 0x1DB17, symBinAddr: 0x4F44F, symSize: 0x155 }
  - { offset: 0xEF48B, size: 0x8, addend: 0x0, symName: '__ZN5alloc11collections5btree8navigate142_$LT$impl$u20$alloc..collections..btree..node..NodeRef$LT$BorrowType$C$K$C$V$C$alloc..collections..btree..node..marker..LeafOrInternal$GT$$GT$15first_leaf_edge17h268d53691628fab7E', symObjAddr: 0x1DDB5, symBinAddr: 0x1D669, symSize: 0x22 }
  - { offset: 0xEF64C, size: 0x8, addend: 0x0, symName: '__ZN5alloc11collections5btree8navigate142_$LT$impl$u20$alloc..collections..btree..node..NodeRef$LT$BorrowType$C$K$C$V$C$alloc..collections..btree..node..marker..LeafOrInternal$GT$$GT$15first_leaf_edge17h45b91e595b42d13aE', symObjAddr: 0x1DDD7, symBinAddr: 0x1D68B, symSize: 0x22 }
  - { offset: 0xEF80D, size: 0x8, addend: 0x0, symName: '__ZN5alloc11collections5btree8navigate142_$LT$impl$u20$alloc..collections..btree..node..NodeRef$LT$BorrowType$C$K$C$V$C$alloc..collections..btree..node..marker..LeafOrInternal$GT$$GT$15first_leaf_edge17hfef60033ae50e298E', symObjAddr: 0x1DDF9, symBinAddr: 0x1D6AD, symSize: 0x22 }
  - { offset: 0xEF9A0, size: 0x8, addend: 0x0, symName: '__ZN5alloc7raw_vec20RawVecInner$LT$A$GT$16with_capacity_in17h33cb4903e72ca979E', symObjAddr: 0x1DE93, symBinAddr: 0x1D6CF, symSize: 0x3E }
  - { offset: 0xEFAA0, size: 0x8, addend: 0x0, symName: __ZN12sqlite_nostd5nostd11ManagedStmt11column_text17heaf08ede550e9d23E, symObjAddr: 0x1E7E8, symBinAddr: 0x1E024, symSize: 0x4C }
  - { offset: 0xEFBB4, size: 0x8, addend: 0x0, symName: __ZN12sqlite_nostd5nostd11ManagedStmt8bind_int17h14545f4aee364323E, symObjAddr: 0x1E9DF, symBinAddr: 0x1E21B, symSize: 0x11 }
  - { offset: 0xF0009, size: 0x8, addend: 0x0, symName: '__ZN5alloc3vec16Vec$LT$T$C$A$GT$4push17h9728e4802cb17fd8E', symObjAddr: 0x1F526, symBinAddr: 0x1ED62, symSize: 0x54 }
  - { offset: 0xF02CE, size: 0x8, addend: 0x0, symName: __ZN12sqlite_nostd5nostd11ManagedStmt10bind_int6417hdee95f197abdf799E, symObjAddr: 0x1FEFD, symBinAddr: 0x1F739, symSize: 0x11 }
  - { offset: 0xF030E, size: 0x8, addend: 0x0, symName: __ZN12sqlite_nostd5nostd11ManagedStmt9bind_text17h4637dbf52e9a685fE, symObjAddr: 0x1FF0E, symBinAddr: 0x1F74A, symSize: 0x11 }
  - { offset: 0xF035E, size: 0x8, addend: 0x0, symName: __ZN12sqlite_nostd5nostd11ManagedStmt9bind_null17h61b6d128df76901fE, symObjAddr: 0x1FF1F, symBinAddr: 0x1F75B, symSize: 0x11 }
  - { offset: 0x1379C7, size: 0x8, addend: 0x0, symName: '__ZN104_$LT$alloc..collections..btree..set..Iter$LT$T$GT$$u20$as$u20$core..iter..traits..iterator..Iterator$GT$4next17h955e706951926a7aE', symObjAddr: 0x322C3, symBinAddr: 0x319AF, symSize: 0xA }
  - { offset: 0x1379ED, size: 0x8, addend: 0x0, symName: __ZN14powersync_core9crud_vtab6MODULE17hcf8112e4d21380dcE, symObjAddr: 0x51690, symBinAddr: 0x5F010, symSize: 0x0 }
  - { offset: 0x137C21, size: 0x8, addend: 0x0, symName: __ZN14powersync_core9crud_vtab7connect17he8b5e05c10ec386cE, symObjAddr: 0x33E9C, symBinAddr: 0x33550, symSize: 0xDE }
  - { offset: 0x138279, size: 0x8, addend: 0x0, symName: __ZN14powersync_core9crud_vtab6update17h8bd8f2d345a5b052E, symObjAddr: 0x33F7A, symBinAddr: 0x3362E, symSize: 0x61D }
  - { offset: 0x138DA7, size: 0x8, addend: 0x0, symName: __ZN14powersync_core9crud_vtab5begin17h94bafa68cf28233cE, symObjAddr: 0x34597, symBinAddr: 0x33C4B, symSize: 0xCA }
  - { offset: 0x138F64, size: 0x8, addend: 0x0, symName: __ZN14powersync_core9crud_vtab6commit17ha39dd309711a385dE, symObjAddr: 0x34661, symBinAddr: 0x33D15, symSize: 0xD }
  - { offset: 0x13997E, size: 0x8, addend: 0x0, symName: __ZN14powersync_core5state8register4func17h1a530444027e6d9dE, symObjAddr: 0x33D99, symBinAddr: 0x3344D, symSize: 0x51 }
  - { offset: 0x139D33, size: 0x8, addend: 0x0, symName: '__ZN89_$LT$sqlite_nostd..nostd..ManagedStmt$u20$as$u20$powersync_core..ext..SafeManagedStmt$GT$4exec17hccd54243a150b5e6E', symObjAddr: 0x328EF, symBinAddr: 0x31FA3, symSize: 0x43 }
  - { offset: 0x13A320, size: 0x8, addend: 0x0, symName: __ZN14powersync_core9json_util20powersync_json_merge17h8ffdeada4a382833E, symObjAddr: 0x33335, symBinAddr: 0x329E9, symSize: 0x1B9 }
  - { offset: 0x13A900, size: 0x8, addend: 0x0, symName: __ZN14powersync_core9json_util23powersync_strip_subtype17h053098c195253d92E, symObjAddr: 0x334EE, symBinAddr: 0x32BA2, symSize: 0x42 }
  - { offset: 0x13AB5F, size: 0x8, addend: 0x0, symName: __ZN14powersync_core10view_admin19powersync_drop_view17h9fc0e2b9edccb552E, symObjAddr: 0x33530, symBinAddr: 0x32BE4, symSize: 0x18A }
  - { offset: 0x13B098, size: 0x8, addend: 0x0, symName: __ZN14powersync_core10view_admin14powersync_exec17h5324d7e81d014263E, symObjAddr: 0x336BA, symBinAddr: 0x32D6E, symSize: 0xCC }
  - { offset: 0x13B3BD, size: 0x8, addend: 0x0, symName: __ZN14powersync_core10view_admin14powersync_init17h96378c1a11c00687E, symObjAddr: 0x33786, symBinAddr: 0x32E3A, symSize: 0x115 }
  - { offset: 0x13B6C1, size: 0x8, addend: 0x0, symName: __ZN14powersync_core10view_admin24powersync_test_migration17h2190ee6c5ef3002bE, symObjAddr: 0x3389B, symBinAddr: 0x32F4F, symSize: 0x138 }
  - { offset: 0x13B9D6, size: 0x8, addend: 0x0, symName: __ZN14powersync_core10view_admin15powersync_clear17hbc06b69756d69385E, symObjAddr: 0x339D3, symBinAddr: 0x33087, symSize: 0x138 }
  - { offset: 0x13BC89, size: 0x8, addend: 0x0, symName: __ZN14powersync_core10view_admin29powersync_external_table_name17hac40445e6196bdc3E, symObjAddr: 0x33B0B, symBinAddr: 0x331BF, symSize: 0xEF }
  - { offset: 0x13BFDB, size: 0x8, addend: 0x0, symName: __ZN14powersync_core10view_admin29powersync_internal_table_name17h05e2869b51fa7e9eE, symObjAddr: 0x33BFA, symBinAddr: 0x332AE, symSize: 0x19F }
  - { offset: 0x13C2A8, size: 0x8, addend: 0x0, symName: __ZN14powersync_core10view_admin20powersync_clear_impl17hb15bba070d84a480E, symObjAddr: 0x35232, symBinAddr: 0x348E6, symSize: 0x382 }
  - { offset: 0x13CAF5, size: 0x8, addend: 0x0, symName: __ZN14powersync_core10view_admin29powersync_test_migration_impl17h459fafa3c5b1f15cE, symObjAddr: 0x355CF, symBinAddr: 0x34C83, symSize: 0x59 }
  - { offset: 0x13CC6C, size: 0x8, addend: 0x0, symName: __ZN14powersync_core10view_admin19powersync_init_impl17hf459aed0527a79f0E, symObjAddr: 0x35628, symBinAddr: 0x34CDC, symSize: 0x9C }
  - { offset: 0x13CDBD, size: 0x8, addend: 0x0, symName: _sqlite3_powersync_init, symObjAddr: 0x3296E, symBinAddr: 0x32022, symSize: 0x9AC }
  - { offset: 0x145F5C, size: 0x8, addend: 0x0, symName: '__ZN4core3ptr58drop_in_place$LT$powersync_core..error..PowerSyncError$GT$17hd29299de401eb52fE.1768', symObjAddr: 0x33DEA, symBinAddr: 0x3349E, symSize: 0xB2 }
  - { offset: 0x146171, size: 0x8, addend: 0x0, symName: '__ZN4core3ptr97drop_in_place$LT$core..option..Option$LT$powersync_core..crud_vtab..ActiveCrudTransaction$GT$$GT$17hff19d513d949d2f1E', symObjAddr: 0x3468F, symBinAddr: 0x33D43, symSize: 0x42 }
  - { offset: 0x1461EB, size: 0x8, addend: 0x0, symName: '__ZN4core3ptr81drop_in_place$LT$core..option..Option$LT$sqlite_nostd..nostd..ManagedStmt$GT$$GT$17h8c2eb2e289439824E', symObjAddr: 0x346D1, symBinAddr: 0x33D85, symSize: 0x14 }
  - { offset: 0x1462B9, size: 0x8, addend: 0x0, symName: '__ZN4core3ptr110drop_in_place$LT$core..result..Result$LT$alloc..string..String$C$powersync_core..error..PowerSyncError$GT$$GT$17h4ef1490c50eba79cE', symObjAddr: 0x355B4, symBinAddr: 0x34C68, symSize: 0x1B }
  - { offset: 0x146A80, size: 0x8, addend: 0x0, symName: '__ZN4core3str6traits66_$LT$impl$u20$core..ops..index..Index$LT$I$GT$$u20$for$u20$str$GT$5index17h35eaa443f1816363E', symObjAddr: 0x3520C, symBinAddr: 0x348C0, symSize: 0x26 }
  - { offset: 0x146AC0, size: 0x8, addend: 0x0, symName: '__ZN4core3str6traits66_$LT$impl$u20$core..ops..index..Index$LT$I$GT$$u20$for$u20$str$GT$5index17h35eaa443f1816363E', symObjAddr: 0x3520C, symBinAddr: 0x348C0, symSize: 0x26 }
  - { offset: 0x146AE0, size: 0x8, addend: 0x0, symName: '__ZN4core3str6traits66_$LT$impl$u20$core..ops..index..Index$LT$I$GT$$u20$for$u20$str$GT$5index17h35eaa443f1816363E', symObjAddr: 0x3520C, symBinAddr: 0x348C0, symSize: 0x26 }
  - { offset: 0x146B1E, size: 0x8, addend: 0x0, symName: '__ZN4core3str6traits66_$LT$impl$u20$core..ops..index..Index$LT$I$GT$$u20$for$u20$str$GT$5index17h35eaa443f1816363E', symObjAddr: 0x3520C, symBinAddr: 0x348C0, symSize: 0x26 }
  - { offset: 0x1491F5, size: 0x8, addend: 0x0, symName: '__ZN96_$LT$$BP$mut$u20$sqlite3_capi..bindings..sqlite3_value$u20$as$u20$sqlite_nostd..nostd..Value$GT$3int17h099e16d7b20cfd9eE', symObjAddr: 0x34F8B, symBinAddr: 0x3463F, symSize: 0x1E }
  - { offset: 0x149223, size: 0x8, addend: 0x0, symName: '__ZN96_$LT$$BP$mut$u20$sqlite3_capi..bindings..sqlite3_value$u20$as$u20$sqlite_nostd..nostd..Value$GT$3int17h099e16d7b20cfd9eE', symObjAddr: 0x34F8B, symBinAddr: 0x3463F, symSize: 0x1E }
  - { offset: 0x149447, size: 0x8, addend: 0x0, symName: '__ZN95_$LT$$BP$mut$u20$sqlite3_capi..bindings..sqlite3$u20$as$u20$sqlite_nostd..nostd..Connection$GT$10prepare_v217h28658e57b293d8dbE.1781', symObjAddr: 0x346E5, symBinAddr: 0x33D99, symSize: 0x66 }
  - { offset: 0x1494E1, size: 0x8, addend: 0x0, symName: '__ZN95_$LT$$BP$mut$u20$sqlite3_capi..bindings..sqlite3$u20$as$u20$sqlite_nostd..nostd..Connection$GT$10prepare_v317he19b84ece6315f17E', symObjAddr: 0x34F14, symBinAddr: 0x345C8, symSize: 0x77 }
  - { offset: 0x1495E4, size: 0x8, addend: 0x0, symName: '__ZN95_$LT$$BP$mut$u20$sqlite3_capi..bindings..sqlite3$u20$as$u20$sqlite_nostd..nostd..Connection$GT$9exec_safe17h08f7dd94c10754d5E.1787', symObjAddr: 0x34FF6, symBinAddr: 0x346AA, symSize: 0x74 }
  - { offset: 0x149A2C, size: 0x8, addend: 0x0, symName: '__ZN86_$LT$serde_json..ser..Compound$LT$W$C$F$GT$$u20$as$u20$serde..ser..SerializeStruct$GT$15serialize_field17h03171de7e7ed4166E', symObjAddr: 0x3506A, symBinAddr: 0x3471E, symSize: 0x97 }
  - { offset: 0x149D39, size: 0x8, addend: 0x0, symName: '__ZN86_$LT$serde_json..ser..Compound$LT$W$C$F$GT$$u20$as$u20$serde..ser..SerializeStruct$GT$15serialize_field17h4df9a83cc3c9611eE', symObjAddr: 0x35101, symBinAddr: 0x347B5, symSize: 0xC2 }
  - { offset: 0x14A457, size: 0x8, addend: 0x0, symName: '__ZN77_$LT$alloc..raw_vec..RawVec$LT$T$C$A$GT$$u20$as$u20$core..ops..drop..Drop$GT$4drop17h0a5d4fa7911e165eE', symObjAddr: 0x32795, symBinAddr: 0x31E81, symSize: 0x1E }
  - { offset: 0x14A490, size: 0x8, addend: 0x0, symName: '__ZN77_$LT$alloc..raw_vec..RawVec$LT$T$C$A$GT$$u20$as$u20$core..ops..drop..Drop$GT$4drop17h14db25b3bf76aee8E', symObjAddr: 0x327B3, symBinAddr: 0x31E9F, symSize: 0x1E }
  - { offset: 0x14A4C9, size: 0x8, addend: 0x0, symName: '__ZN77_$LT$alloc..raw_vec..RawVec$LT$T$C$A$GT$$u20$as$u20$core..ops..drop..Drop$GT$4drop17h15e67b6d5fecdc2bE', symObjAddr: 0x327D1, symBinAddr: 0x31EBD, symSize: 0x1E }
  - { offset: 0x14A502, size: 0x8, addend: 0x0, symName: '__ZN77_$LT$alloc..raw_vec..RawVec$LT$T$C$A$GT$$u20$as$u20$core..ops..drop..Drop$GT$4drop17h1bc4bfdf7be5c788E', symObjAddr: 0x327EF, symBinAddr: 0x31EDB, symSize: 0x17 }
  - { offset: 0x14A53B, size: 0x8, addend: 0x0, symName: '__ZN77_$LT$alloc..raw_vec..RawVec$LT$T$C$A$GT$$u20$as$u20$core..ops..drop..Drop$GT$4drop17h2d6b5cfdbad3eeeaE', symObjAddr: 0x32806, symBinAddr: 0x31EF2, symSize: 0x1E }
  - { offset: 0x14A574, size: 0x8, addend: 0x0, symName: '__ZN77_$LT$alloc..raw_vec..RawVec$LT$T$C$A$GT$$u20$as$u20$core..ops..drop..Drop$GT$4drop17h469afa05538919ccE', symObjAddr: 0x32824, symBinAddr: 0x31F10, symSize: 0x1E }
  - { offset: 0x14A5AD, size: 0x8, addend: 0x0, symName: '__ZN77_$LT$alloc..raw_vec..RawVec$LT$T$C$A$GT$$u20$as$u20$core..ops..drop..Drop$GT$4drop17h500845d593e55d70E', symObjAddr: 0x32842, symBinAddr: 0x31F2E, symSize: 0x1E }
  - { offset: 0x14A5E6, size: 0x8, addend: 0x0, symName: '__ZN77_$LT$alloc..raw_vec..RawVec$LT$T$C$A$GT$$u20$as$u20$core..ops..drop..Drop$GT$4drop17ha051d3b3062ffcf1E', symObjAddr: 0x32860, symBinAddr: 0x31F4C, symSize: 0x1E }
  - { offset: 0x14A61F, size: 0x8, addend: 0x0, symName: '__ZN77_$LT$alloc..raw_vec..RawVec$LT$T$C$A$GT$$u20$as$u20$core..ops..drop..Drop$GT$4drop17hcb25162347c8aefbE', symObjAddr: 0x3287E, symBinAddr: 0x31F6A, symSize: 0x19 }
  - { offset: 0x14A658, size: 0x8, addend: 0x0, symName: '__ZN77_$LT$alloc..raw_vec..RawVec$LT$T$C$A$GT$$u20$as$u20$core..ops..drop..Drop$GT$4drop17hdbd98023c1dd175cE', symObjAddr: 0x32897, symBinAddr: 0x31F83, symSize: 0x1E }
  - { offset: 0x14B9F5, size: 0x8, addend: 0x0, symName: __ZN5alloc5alloc15exchange_malloc17hfa6ae3466b5796e3E.1765, symObjAddr: 0x3331A, symBinAddr: 0x329CE, symSize: 0x1B }
  - { offset: 0x14BE1F, size: 0x8, addend: 0x0, symName: '__ZN104_$LT$alloc..collections..btree..set..Iter$LT$T$GT$$u20$as$u20$core..iter..traits..iterator..Iterator$GT$4next17h955e706951926a7aE', symObjAddr: 0x322C3, symBinAddr: 0x319AF, symSize: 0xA }
  - { offset: 0x14CD10, size: 0x8, addend: 0x0, symName: '__ZN5alloc5slice29_$LT$impl$u20$$u5b$T$u5d$$GT$4sort17hbaa3eabb467c6cbfE', symObjAddr: 0x322CD, symBinAddr: 0x319B9, symSize: 0x55 }
  - { offset: 0x14D554, size: 0x8, addend: 0x0, symName: '__ZN84_$LT$serde..de..value..StrDeserializer$LT$E$GT$$u20$as$u20$serde..de..EnumAccess$GT$12variant_seed17h3ad2c55413eb5589E', symObjAddr: 0x328B5, symBinAddr: 0x4F779, symSize: 0x3A }
  - { offset: 0x14E317, size: 0x8, addend: 0x0, symName: '__ZN5alloc11collections5btree3set21BTreeSet$LT$T$C$A$GT$16from_sorted_iter17h5df182babd767929E', symObjAddr: 0x32322, symBinAddr: 0x31A0E, symSize: 0x357 }
  - { offset: 0x14ED9A, size: 0x8, addend: 0x0, symName: '__ZN5alloc7raw_vec19RawVec$LT$T$C$A$GT$8grow_one17h14ce5e5d718db5ceE', symObjAddr: 0x32679, symBinAddr: 0x31D65, symSize: 0x14 }
  - { offset: 0x14EDDB, size: 0x8, addend: 0x0, symName: '__ZN5alloc7raw_vec20RawVecInner$LT$A$GT$8grow_one17hb464eb62818bd239E', symObjAddr: 0x3268D, symBinAddr: 0x31D79, symSize: 0x31 }
  - { offset: 0x14EE3C, size: 0x8, addend: 0x0, symName: '__ZN5alloc7raw_vec19RawVec$LT$T$C$A$GT$8grow_one17h367c662be4e4697dE', symObjAddr: 0x326BE, symBinAddr: 0x31DAA, symSize: 0x14 }
  - { offset: 0x14EE7D, size: 0x8, addend: 0x0, symName: '__ZN5alloc7raw_vec19RawVec$LT$T$C$A$GT$8grow_one17h393eaca9f77a7c4aE', symObjAddr: 0x326D2, symBinAddr: 0x31DBE, symSize: 0x14 }
  - { offset: 0x14EEBE, size: 0x8, addend: 0x0, symName: '__ZN5alloc7raw_vec19RawVec$LT$T$C$A$GT$8grow_one17h396a7b4acdb55df4E', symObjAddr: 0x326E6, symBinAddr: 0x31DD2, symSize: 0x14 }
  - { offset: 0x14EEFF, size: 0x8, addend: 0x0, symName: '__ZN5alloc7raw_vec19RawVec$LT$T$C$A$GT$8grow_one17h6aeb4591d380313eE', symObjAddr: 0x326FA, symBinAddr: 0x31DE6, symSize: 0x14 }
  - { offset: 0x14EF40, size: 0x8, addend: 0x0, symName: '__ZN5alloc7raw_vec19RawVec$LT$T$C$A$GT$8grow_one17h6d817e115ab000adE', symObjAddr: 0x3270E, symBinAddr: 0x31DFA, symSize: 0x14 }
  - { offset: 0x14EFFA, size: 0x8, addend: 0x0, symName: '__ZN5alloc7raw_vec19RawVec$LT$T$C$A$GT$8grow_one17h6f3c80e11a1826f9E', symObjAddr: 0x32722, symBinAddr: 0x31E0E, symSize: 0x14 }
  - { offset: 0x14F03B, size: 0x8, addend: 0x0, symName: '__ZN5alloc7raw_vec19RawVec$LT$T$C$A$GT$8grow_one17h82800c29b42e32a5E', symObjAddr: 0x32736, symBinAddr: 0x31E22, symSize: 0xF }
  - { offset: 0x14F07C, size: 0x8, addend: 0x0, symName: '__ZN5alloc7raw_vec19RawVec$LT$T$C$A$GT$8grow_one17hd3d58a6ffb434704E', symObjAddr: 0x32745, symBinAddr: 0x31E31, symSize: 0x14 }
  - { offset: 0x14F0BD, size: 0x8, addend: 0x0, symName: '__ZN5alloc7raw_vec19RawVec$LT$T$C$A$GT$8grow_one17hee358214aff292d6E', symObjAddr: 0x32759, symBinAddr: 0x31E45, symSize: 0x14 }
  - { offset: 0x14F0FE, size: 0x8, addend: 0x0, symName: '__ZN5alloc7raw_vec19RawVec$LT$T$C$A$GT$8grow_one17hee7e3c93e9940a1aE', symObjAddr: 0x3276D, symBinAddr: 0x31E59, symSize: 0x14 }
  - { offset: 0x14F13F, size: 0x8, addend: 0x0, symName: '__ZN5alloc7raw_vec19RawVec$LT$T$C$A$GT$8grow_one17hf0fc4d1845ec11cdE', symObjAddr: 0x32781, symBinAddr: 0x31E6D, symSize: 0x14 }
  - { offset: 0x14F264, size: 0x8, addend: 0x0, symName: '__ZN4core4cell16RefCell$LT$T$GT$10borrow_mut17h0e71ec1f5128708fE', symObjAddr: 0x32932, symBinAddr: 0x31FE6, symSize: 0x1B }
  - { offset: 0x14F28B, size: 0x8, addend: 0x0, symName: '__ZN4core4cell16RefCell$LT$T$GT$10borrow_mut17h0e71ec1f5128708fE', symObjAddr: 0x32932, symBinAddr: 0x31FE6, symSize: 0x1B }
  - { offset: 0x14F2A7, size: 0x8, addend: 0x0, symName: '__ZN4core4cell16RefCell$LT$T$GT$10borrow_mut17h0e71ec1f5128708fE', symObjAddr: 0x32932, symBinAddr: 0x31FE6, symSize: 0x1B }
  - { offset: 0x14F3F9, size: 0x8, addend: 0x0, symName: __ZN14powersync_core5state13DatabaseState11destroy_arc17h664d771e7f22eceaE, symObjAddr: 0x3294D, symBinAddr: 0x32001, symSize: 0x21 }
  - { offset: 0x1518B8, size: 0x8, addend: 0x0, symName: __ZN14powersync_core9crud_vtab12VirtualTable15end_transaction17h386e2c7d4c2277edE, symObjAddr: 0x3466E, symBinAddr: 0x33D22, symSize: 0x21 }
  - { offset: 0x15193C, size: 0x8, addend: 0x0, symName: __ZN10num_traits4cast13FromPrimitive8from_i3217h07e07b93a47675f4E, symObjAddr: 0x3474B, symBinAddr: 0x33DFF, symSize: 0x7C9 }
  - { offset: 0x1519A7, size: 0x8, addend: 0x0, symName: __ZN12sqlite_nostd5nostd11ManagedStmt10bind_int6417hdee95f197abdf799E.1784, symObjAddr: 0x34FA9, symBinAddr: 0x3465D, symSize: 0x17 }
  - { offset: 0x1519E5, size: 0x8, addend: 0x0, symName: __ZN12sqlite_nostd5nostd11ManagedStmt9bind_text17h4637dbf52e9a685fE.1785, symObjAddr: 0x34FC0, symBinAddr: 0x34674, symSize: 0x11 }
  - { offset: 0x151A35, size: 0x8, addend: 0x0, symName: __ZN14powersync_core9crud_vtab12VirtualTable13value_to_json17haf4ab65632febb06E, symObjAddr: 0x34FD1, symBinAddr: 0x34685, symSize: 0x25 }
  - { offset: 0x151A75, size: 0x8, addend: 0x0, symName: __ZN12sqlite_nostd5nostd11ManagedStmt11column_text17heaf08ede550e9d23E.1789, symObjAddr: 0x351C3, symBinAddr: 0x34877, symSize: 0x49 }
  - { offset: 0x151D60, size: 0x8, addend: 0x0, symName: __ZN5alloc6string6String4push17h40d99edf6cd3ff01E.1792, symObjAddr: 0x356C4, symBinAddr: 0x34D78, symSize: 0x38 }
  - { offset: 0x183DD2, size: 0x8, addend: 0x0, symName: '__ZN44_$LT$$RF$T$u20$as$u20$core..fmt..Display$GT$3fmt17h1652a15820797d0cE', symObjAddr: 0x40076, symBinAddr: 0x3EFE6, symSize: 0xD }
  - { offset: 0x184FCA, size: 0x8, addend: 0x0, symName: '__ZN66_$LT$alloc..borrow..Cow$LT$B$GT$$u20$as$u20$core..fmt..Display$GT$3fmt17hc83c1017a75e383aE', symObjAddr: 0x40083, symBinAddr: 0x3EFF3, symSize: 0x1B }
  - { offset: 0x185050, size: 0x8, addend: 0x0, symName: '__ZN66_$LT$alloc..borrow..Cow$LT$B$GT$$u20$as$u20$core..clone..Clone$GT$5clone17h64d7dab049fcf3b5E', symObjAddr: 0x400AB, symBinAddr: 0x3F01B, symSize: 0x33 }
  - { offset: 0x186933, size: 0x8, addend: 0x0, symName: '__ZN4core3ptr99drop_in_place$LT$powersync_core..sync..storage_adapter..StorageAdapter..sync_local..PartialArgs$GT$17ha1dc258c8e6afd83E', symObjAddr: 0x4150A, symBinAddr: 0x4047A, symSize: 0x1E }
  - { offset: 0x186E39, size: 0x8, addend: 0x0, symName: '__ZN44_$LT$$RF$T$u20$as$u20$core..fmt..Display$GT$3fmt17h1652a15820797d0cE', symObjAddr: 0x40076, symBinAddr: 0x3EFE6, symSize: 0xD }
  - { offset: 0x186E7F, size: 0x8, addend: 0x0, symName: '__ZN44_$LT$$RF$T$u20$as$u20$core..fmt..Display$GT$3fmt17h4695255e50c0e60dE', symObjAddr: 0x4009E, symBinAddr: 0x3F00E, symSize: 0xD }
  - { offset: 0x18AEAE, size: 0x8, addend: 0x0, symName: '__ZN95_$LT$$BP$mut$u20$sqlite3_capi..bindings..sqlite3$u20$as$u20$sqlite_nostd..nostd..Connection$GT$10prepare_v217h28658e57b293d8dbE.2392', symObjAddr: 0x40166, symBinAddr: 0x3F0D6, symSize: 0x7D6 }
  - { offset: 0x18AF77, size: 0x8, addend: 0x0, symName: '__ZN95_$LT$$BP$mut$u20$sqlite3_capi..bindings..sqlite3$u20$as$u20$sqlite_nostd..nostd..Connection$GT$9exec_safe17h08f7dd94c10754d5E.2421', symObjAddr: 0x41480, symBinAddr: 0x403F0, symSize: 0x79 }
  - { offset: 0x18BAD1, size: 0x8, addend: 0x0, symName: '__ZN94_$LT$powersync_core..sync..storage_adapter..CheckpointResult$u20$as$u20$core..fmt..Display$GT$3fmt17h405883313e7ad0b8E', symObjAddr: 0x41984, symBinAddr: 0x408F4, symSize: 0x1E1 }
  - { offset: 0x18C072, size: 0x8, addend: 0x0, symName: '__ZN147_$LT$powersync_core..sync..checkpoint..OwnedBucketChecksum$u20$as$u20$core..convert..From$LT$$RF$powersync_core..sync..line..BucketChecksum$GT$$GT$4from17hfa607c1c5e8fee7cE', symObjAddr: 0x4093C, symBinAddr: 0x3F8AC, symSize: 0x8D }
  - { offset: 0x18C9AF, size: 0x8, addend: 0x0, symName: __ZN14powersync_core4uuid7uuid_v417h347cc0bc2d731f08E, symObjAddr: 0x41B74, symBinAddr: 0x40AE4, symSize: 0x275 }
  - { offset: 0x18D31D, size: 0x8, addend: 0x0, symName: '__ZN101_$LT$$BP$mut$u20$sqlite3_capi..bindings..sqlite3$u20$as$u20$powersync_core..ext..ExtendedDatabase$GT$9exec_text17h5cdba875218c42baE', symObjAddr: 0x400DE, symBinAddr: 0x3F04E, symSize: 0x88 }
  - { offset: 0x18F8AC, size: 0x8, addend: 0x0, symName: '__ZN5alloc3vec16Vec$LT$T$C$A$GT$4push17h184abaf42200585cE', symObjAddr: 0x409C9, symBinAddr: 0x3F939, symSize: 0x43 }
  - { offset: 0x18F972, size: 0x8, addend: 0x0, symName: __ZN14powersync_core4sync15storage_adapter14StorageAdapter3new17hca3616b120f79c5eE, symObjAddr: 0x40A0C, symBinAddr: 0x3F97C, symSize: 0x150 }
  - { offset: 0x18FB47, size: 0x8, addend: 0x0, symName: __ZN12sqlite_nostd5nostd11ManagedStmt11column_text17heaf08ede550e9d23E.2402, symObjAddr: 0x40B5C, symBinAddr: 0x3FACC, symSize: 0x4C }
  - { offset: 0x18FF7F, size: 0x8, addend: 0x0, symName: __ZN14powersync_core4sync15storage_adapter14StorageAdapter18offline_sync_state17h4b196abc85d25fbcE, symObjAddr: 0x40BA8, symBinAddr: 0x3FB18, symSize: 0x358 }
  - { offset: 0x190623, size: 0x8, addend: 0x0, symName: __ZN14powersync_core4sync15storage_adapter14StorageAdapter24read_stream_subscription17ha68c5e57dfd113dfE, symObjAddr: 0x40F00, symBinAddr: 0x3FE70, symSize: 0x548 }
  - { offset: 0x19121F, size: 0x8, addend: 0x0, symName: __ZN12sqlite_nostd5nostd11ManagedStmt11column_type17hd2b0b5ac94d4e50cE, symObjAddr: 0x41448, symBinAddr: 0x403B8, symSize: 0x38 }
  - { offset: 0x1912FB, size: 0x8, addend: 0x0, symName: __ZN12sqlite_nostd5nostd11ManagedStmt10bind_int6417hdee95f197abdf799E.2428, symObjAddr: 0x414F9, symBinAddr: 0x40469, symSize: 0x11 }
  - { offset: 0x191615, size: 0x8, addend: 0x0, symName: __ZN14powersync_core4sync15storage_adapter14StorageAdapter29collect_subscription_requests17hb76c8d907de4b9acE, symObjAddr: 0x41528, symBinAddr: 0x40498, symSize: 0x2F9 }
  - { offset: 0x191B16, size: 0x8, addend: 0x0, symName: __ZN14powersync_core4sync15storage_adapter14StorageAdapter3now17hbf6f68c9fd306477E, symObjAddr: 0x41821, symBinAddr: 0x40791, symSize: 0x53 }
  - { offset: 0x191BFF, size: 0x8, addend: 0x0, symName: __ZN14powersync_core4sync15storage_adapter14StorageAdapter12increase_ttl17hd68e9babe8db94c4E, symObjAddr: 0x41874, symBinAddr: 0x407E4, symSize: 0xEE }
  - { offset: 0x191E24, size: 0x8, addend: 0x0, symName: __ZN12sqlite_nostd5nostd11ManagedStmt8bind_int17h14545f4aee364323E.2442, symObjAddr: 0x41962, symBinAddr: 0x408D2, symSize: 0x11 }
  - { offset: 0x191E64, size: 0x8, addend: 0x0, symName: __ZN12sqlite_nostd5nostd11ManagedStmt9bind_null17h61b6d128df76901fE.2443, symObjAddr: 0x41973, symBinAddr: 0x408E3, symSize: 0x11 }
  - { offset: 0x19204F, size: 0x8, addend: 0x0, symName: __ZN4core3fmt9Formatter9write_fmt17h7952cafa4f6a45f0E.2450, symObjAddr: 0x41B65, symBinAddr: 0x40AD5, symSize: 0xF }
  - { offset: 0x10922, size: 0x8, addend: 0x0, symName: __ZN4core3str7pattern11StrSearcher3new17h45e01e77457a1c45E, symObjAddr: 0x207F, symBinAddr: 0x2623, symSize: 0x180 }
  - { offset: 0x114AF, size: 0x8, addend: 0x0, symName: __ZN4core3str7pattern11StrSearcher3new17h45e01e77457a1c45E, symObjAddr: 0x207F, symBinAddr: 0x2623, symSize: 0x180 }
  - { offset: 0x11812, size: 0x8, addend: 0x0, symName: __ZN4core3str7pattern14TwoWaySearcher14maximal_suffix17h7d200a04a95b10e1E, symObjAddr: 0x21FF, symBinAddr: 0x27A3, symSize: 0x9D }
  - { offset: 0x11924, size: 0x8, addend: 0x0, symName: __ZN4core3str7pattern14TwoWaySearcher22reverse_maximal_suffix17hb3db22ef74c0bc3eE, symObjAddr: 0x229C, symBinAddr: 0x2840, symSize: 0xE7 }
  - { offset: 0x11AEB, size: 0x8, addend: 0x0, symName: '__ZN4core6escape24EscapeIterInner$LT$_$GT$7unicode17ha59af4ed0529ae31E', symObjAddr: 0x2383, symBinAddr: 0x2927, symSize: 0xB2 }
  - { offset: 0x11C44, size: 0x8, addend: 0x0, symName: '__ZN4core6escape24EscapeIterInner$LT$_$GT$7unicode17ha59af4ed0529ae31E', symObjAddr: 0x2383, symBinAddr: 0x2927, symSize: 0xB2 }
  - { offset: 0x15C98, size: 0x8, addend: 0x0, symName: __ZN4core3num7dec2flt5float8RawFloat14integer_decode17h4ad0ed18153e4575E, symObjAddr: 0x3AB8, symBinAddr: 0x4030, symSize: 0x5B }
  - { offset: 0x15F09, size: 0x8, addend: 0x0, symName: __ZN4core3num6bignum8Big32x4010mul_digits9mul_inner17h205e9887daa0d6f5E, symObjAddr: 0x3F43, symBinAddr: 0x44AF, symSize: 0xD5 }
  - { offset: 0x16291, size: 0x8, addend: 0x0, symName: '__ZN62_$LT$core..num..bignum..Big32x40$u20$as$u20$core..cmp..Ord$GT$3cmp17he9481c9c0a4e3952E', symObjAddr: 0x406F, symBinAddr: 0x45DB, symSize: 0xAB }
  - { offset: 0x1665D, size: 0x8, addend: 0x0, symName: __ZN4core3num7dec2flt5float8RawFloat14integer_decode17h4ad0ed18153e4575E, symObjAddr: 0x3AB8, symBinAddr: 0x4030, symSize: 0x5B }
  - { offset: 0x16ED3, size: 0x8, addend: 0x0, symName: __ZN4core6option13unwrap_failed17h7cc177b887347d33E, symObjAddr: 0x3B13, symBinAddr: 0x4E8CF, symSize: 0xC }
  - { offset: 0x17524, size: 0x8, addend: 0x0, symName: '__ZN4core5array85_$LT$impl$u20$core..ops..index..Index$LT$I$GT$$u20$for$u20$$u5b$T$u3b$$u20$N$u5d$$GT$5index17h1ae1a3fe88e52b91E', symObjAddr: 0x3B97, symBinAddr: 0x4103, symSize: 0x1F }
  - { offset: 0x175EB, size: 0x8, addend: 0x0, symName: '__ZN4core5array88_$LT$impl$u20$core..ops..index..IndexMut$LT$I$GT$$u20$for$u20$$u5b$T$u3b$$u20$N$u5d$$GT$9index_mut17hee75e3dbac08b027E', symObjAddr: 0x3C59, symBinAddr: 0x41C5, symSize: 0x1F }
  - { offset: 0x1801F, size: 0x8, addend: 0x0, symName: __ZN4core3num6bignum8Big32x408from_u6417h4c0b2ce55ff46ef2E, symObjAddr: 0x3B1F, symBinAddr: 0x408B, symSize: 0x67 }
  - { offset: 0x18093, size: 0x8, addend: 0x0, symName: __ZN4core3num6bignum8Big32x406digits17h89de217afd1120dcE, symObjAddr: 0x3B86, symBinAddr: 0x40F2, symSize: 0x11 }
  - { offset: 0x1810A, size: 0x8, addend: 0x0, symName: __ZN4core3num6bignum8Big32x403add17h4eb5baaf52159021E, symObjAddr: 0x3BB6, symBinAddr: 0x4122, symSize: 0xA3 }
  - { offset: 0x1833D, size: 0x8, addend: 0x0, symName: __ZN4core3num6bignum8Big32x403sub17h426831e0d3aa843dE, symObjAddr: 0x3C78, symBinAddr: 0x41E4, symSize: 0x91 }
  - { offset: 0x1857D, size: 0x8, addend: 0x0, symName: __ZN4core3num6bignum8Big32x409mul_small17h5e3799c68e86e448E, symObjAddr: 0x3D09, symBinAddr: 0x4275, symSize: 0x7A }
  - { offset: 0x186F2, size: 0x8, addend: 0x0, symName: __ZN4core3num6bignum8Big32x408mul_pow217hd306e73815b4b60cE, symObjAddr: 0x3D83, symBinAddr: 0x42EF, symSize: 0x132 }
  - { offset: 0x18978, size: 0x8, addend: 0x0, symName: __ZN4core3num6bignum8Big32x4010mul_digits17hbd3c98b74965a35cE, symObjAddr: 0x3EB5, symBinAddr: 0x4421, symSize: 0x8E }
  - { offset: 0x18AAB, size: 0x8, addend: 0x0, symName: __ZN4core3num6bignum8Big32x4013div_rem_small17h37b75c2ed9a0c4f8E, symObjAddr: 0x4018, symBinAddr: 0x4584, symSize: 0x57 }
  - { offset: 0x1E09BC, size: 0x8, addend: 0x0, symName: '__ZN44_$LT$$RF$T$u20$as$u20$core..fmt..Display$GT$3fmt17h5cd0d874f464dc85E', symObjAddr: 0x4F1A4, symBinAddr: 0x4D5B0, symSize: 0x15 }
  - { offset: 0x1E15A3, size: 0x8, addend: 0x0, symName: '__ZN44_$LT$$RF$T$u20$as$u20$core..fmt..Display$GT$3fmt17h5cd0d874f464dc85E', symObjAddr: 0x4F1A4, symBinAddr: 0x4D5B0, symSize: 0x15 }
  - { offset: 0x1E16B7, size: 0x8, addend: 0x0, symName: '__ZN4core5slice29_$LT$impl$u20$$u5b$T$u5d$$GT$11starts_with17h53de60848cb1fefcE', symObjAddr: 0x4F1FF, symBinAddr: 0x4D60B, symSize: 0x1F }
  - { offset: 0x1E1DC3, size: 0x8, addend: 0x0, symName: '__ZN65_$LT$serde_json..io..imp..Error$u20$as$u20$core..fmt..Display$GT$3fmt17hd92dc7ac590993d2E', symObjAddr: 0x4F260, symBinAddr: 0x50A90, symSize: 0xC }
  - { offset: 0x1E2019, size: 0x8, addend: 0x0, symName: '__ZN77_$LT$alloc..raw_vec..RawVec$LT$T$C$A$GT$$u20$as$u20$core..ops..drop..Drop$GT$4drop17h1fa133525514676bE', symObjAddr: 0x4F1E1, symBinAddr: 0x4D5ED, symSize: 0x1E }
  - { offset: 0x1E207A, size: 0x8, addend: 0x0, symName: '__ZN63_$LT$alloc..alloc..Global$u20$as$u20$core..alloc..Allocator$GT$8allocate17h81f82aafe2cf0d62E.3115', symObjAddr: 0x4F21E, symBinAddr: 0x4D62A, symSize: 0x10 }
  - { offset: 0x1E23E4, size: 0x8, addend: 0x0, symName: '__ZN70_$LT$alloc..vec..Vec$LT$T$C$A$GT$$u20$as$u20$core..ops..drop..Drop$GT$4drop17h61424701c84dca38E', symObjAddr: 0x4F1B9, symBinAddr: 0x4D5C5, symSize: 0x28 }
  - { offset: 0x1E2F12, size: 0x8, addend: 0x0, symName: '__ZN5alloc7raw_vec19RawVec$LT$T$C$A$GT$8grow_one17hb0f7183cbe9c1dddE', symObjAddr: 0x4F22E, symBinAddr: 0x4D63A, symSize: 0x32 }
  - { offset: 0x1B8FEA, size: 0x8, addend: 0x0, symName: '__ZN44_$LT$$RF$T$u20$as$u20$core..fmt..Display$GT$3fmt17hea1f8f23f0144019E', symObjAddr: 0x49E3F, symBinAddr: 0x48917, symSize: 0xD }
  - { offset: 0x1B9031, size: 0x8, addend: 0x0, symName: '__ZN128_$LT$$LT$serde..de..WithDecimalPoint$u20$as$u20$core..fmt..Display$GT$..fmt..LookForDecimalPoint$u20$as$u20$core..fmt..Write$GT$9write_str17h04666bd4344f5f86E', symObjAddr: 0x49EBD, symBinAddr: 0x48995, symSize: 0x6B }
  - { offset: 0x1B9175, size: 0x8, addend: 0x0, symName: '__ZN128_$LT$$LT$serde..de..WithDecimalPoint$u20$as$u20$core..fmt..Display$GT$..fmt..LookForDecimalPoint$u20$as$u20$core..fmt..Write$GT$10write_char17h86515215b424ae4aE', symObjAddr: 0x49F28, symBinAddr: 0x48A00, symSize: 0x1E }
  - { offset: 0x1B91D2, size: 0x8, addend: 0x0, symName: '__ZN66_$LT$serde..de..WithDecimalPoint$u20$as$u20$core..fmt..Display$GT$3fmt17h9b8be14fcd4c5741E', symObjAddr: 0x4A268, symBinAddr: 0x48D40, symSize: 0xE0 }
  - { offset: 0x1B965D, size: 0x8, addend: 0x0, symName: '__ZN60_$LT$serde..de..Unexpected$u20$as$u20$core..fmt..Display$GT$3fmt17hf1e01d0d28abcb58E', symObjAddr: 0x49F94, symBinAddr: 0x48A6C, symSize: 0x2D4 }
  - { offset: 0x1B99AF, size: 0x8, addend: 0x0, symName: '__ZN47_$LT$$RF$str$u20$as$u20$serde..de..Expected$GT$3fmt17hd4ec9428b2a821ebE', symObjAddr: 0x4A348, symBinAddr: 0x48E20, symSize: 0x1C }
  - { offset: 0x1B9A13, size: 0x8, addend: 0x0, symName: '__ZN55_$LT$serde..de..OneOf$u20$as$u20$core..fmt..Display$GT$3fmt17h0d24c827a7428f9fE', symObjAddr: 0x4A364, symBinAddr: 0x48E3C, symSize: 0x1B4 }
  - { offset: 0x1BA053, size: 0x8, addend: 0x0, symName: '__ZN44_$LT$$RF$T$u20$as$u20$core..fmt..Display$GT$3fmt17hea1f8f23f0144019E', symObjAddr: 0x49E3F, symBinAddr: 0x48917, symSize: 0xD }
  - { offset: 0x1BA0E9, size: 0x8, addend: 0x0, symName: __ZN4core3fmt5Write9write_fmt17h6f22cf21eefcbf37E, symObjAddr: 0x49E4C, symBinAddr: 0x48924, symSize: 0x3F }
  - { offset: 0x1BB558, size: 0x8, addend: 0x0, symName: __ZN4core3fmt9Arguments23as_statically_known_str17h2f3a4d2e205bfbc3E.2781, symObjAddr: 0x49E8B, symBinAddr: 0x48963, symSize: 0x32 }
  - { offset: 0x1BB5CF, size: 0x8, addend: 0x0, symName: __ZN4core3fmt9Formatter9write_fmt17h7952cafa4f6a45f0E.2784, symObjAddr: 0x49F46, symBinAddr: 0x48A1E, symSize: 0x4E }
  - { offset: 0x1CFEFA, size: 0x8, addend: 0x0, symName: '__ZN70_$LT$serde_json..read..SliceRead$u20$as$u20$serde_json..read..Read$GT$8position17h94b3fbedf4423587E', symObjAddr: 0x4D4E8, symBinAddr: 0x4BA80, symSize: 0x18 }
  - { offset: 0x1D0FD1, size: 0x8, addend: 0x0, symName: __ZN10serde_json4read4HEX017h9fca8e60ff7a5339E, symObjAddr: 0x5E2F6, symBinAddr: 0x5CA0E, symSize: 0x0 }
  - { offset: 0x1D0FED, size: 0x8, addend: 0x0, symName: __ZN10serde_json4read4HEX117h3fce8b6cee128bb2E, symObjAddr: 0x5E4F6, symBinAddr: 0x5CC0E, symSize: 0x0 }
  - { offset: 0x1D1037, size: 0x8, addend: 0x0, symName: '__ZN70_$LT$serde_json..read..SliceRead$u20$as$u20$serde_json..read..Read$GT$8position17h94b3fbedf4423587E', symObjAddr: 0x4D4E8, symBinAddr: 0x4BA80, symSize: 0x18 }
  - { offset: 0x1D1093, size: 0x8, addend: 0x0, symName: '__ZN70_$LT$serde_json..read..SliceRead$u20$as$u20$serde_json..read..Read$GT$17decode_hex_escape17h18193beca56a1905E', symObjAddr: 0x4D7A5, symBinAddr: 0x4BCA5, symSize: 0xB3 }
  - { offset: 0x1D135E, size: 0x8, addend: 0x0, symName: '__ZN68_$LT$serde_json..read..StrRead$u20$as$u20$serde_json..read..Read$GT$9parse_str17h016e1668c54f9acdE', symObjAddr: 0x4DA32, symBinAddr: 0x4BE5A, symSize: 0x356 }
  - { offset: 0x1D186E, size: 0x8, addend: 0x0, symName: '__ZN68_$LT$serde_json..read..StrRead$u20$as$u20$serde_json..read..Read$GT$10ignore_str17hc727bc472c3269f1E', symObjAddr: 0x4DD88, symBinAddr: 0x4C1B0, symSize: 0x11C }
  - { offset: 0x1D1935, size: 0x8, addend: 0x0, symName: __ZN10serde_json4read5error17hab128782bf2cc7dcE, symObjAddr: 0x4D692, symBinAddr: 0x508FA, symSize: 0x56 }
  - { offset: 0x1D19F0, size: 0x8, addend: 0x0, symName: __ZN10serde_json4read11next_or_eof17h8e4e28ae045d1b6eE, symObjAddr: 0x4D6E8, symBinAddr: 0x4BC2C, symSize: 0x3C }
  - { offset: 0x1D1A22, size: 0x8, addend: 0x0, symName: __ZN10serde_json4read11next_or_eof17h8e4e28ae045d1b6eE, symObjAddr: 0x4D6E8, symBinAddr: 0x4BC2C, symSize: 0x3C }
  - { offset: 0x1D1A77, size: 0x8, addend: 0x0, symName: __ZN10serde_json4read5error17hd61a2e564a0e8ca9E, symObjAddr: 0x4D724, symBinAddr: 0x50950, symSize: 0x46 }
  - { offset: 0x1D1BBF, size: 0x8, addend: 0x0, symName: __ZN10serde_json4read11peek_or_eof17hb0a0d0318c982398E, symObjAddr: 0x4D858, symBinAddr: 0x4BD58, symSize: 0x35 }
  - { offset: 0x1D1BF1, size: 0x8, addend: 0x0, symName: __ZN10serde_json4read11peek_or_eof17hb0a0d0318c982398E, symObjAddr: 0x4D858, symBinAddr: 0x4BD58, symSize: 0x35 }
  - { offset: 0x1D1C31, size: 0x8, addend: 0x0, symName: __ZN10serde_json4read19push_wtf8_codepoint17hf54a809487970628E, symObjAddr: 0x4D88D, symBinAddr: 0x4BD8D, symSize: 0xCA }
  - { offset: 0x1D1E98, size: 0x8, addend: 0x0, symName: __ZN10serde_json4read5error17h5edb976d929e4daeE, symObjAddr: 0x4D957, symBinAddr: 0x50997, symSize: 0x53 }
  - { offset: 0x1D1F53, size: 0x8, addend: 0x0, symName: __ZN10serde_json4read5error17h04ec341a711005c0E, symObjAddr: 0x4D9AA, symBinAddr: 0x509EA, symSize: 0x55 }
  - { offset: 0x1D2A0F, size: 0x8, addend: 0x0, symName: __ZN10serde_json4read9SliceRead17position_of_index17h185c76acb2d8f8a1E, symObjAddr: 0x4D500, symBinAddr: 0x4BA98, symSize: 0x74 }
  - { offset: 0x1D2FBC, size: 0x8, addend: 0x0, symName: __ZN10serde_json4read9SliceRead14skip_to_escape17h66a33a1911552a53E, symObjAddr: 0x4D574, symBinAddr: 0x4BB0C, symSize: 0x11E }
  - { offset: 0x1D3623, size: 0x8, addend: 0x0, symName: '__ZN5alloc3vec16Vec$LT$T$C$A$GT$4push17h91c0d565e4ab0c60E', symObjAddr: 0x4D76A, symBinAddr: 0x4BC6A, symSize: 0x3B }
  - { offset: 0x1D37B6, size: 0x8, addend: 0x0, symName: __ZN10serde_json4read9SliceRead19skip_to_escape_slow17hbc30bb4edccb5b15E, symObjAddr: 0x4D9FF, symBinAddr: 0x50A3F, symSize: 0x33 }
  - { offset: 0x1F0D22, size: 0x8, addend: 0x0, symName: __ZN17compiler_builtins3int6traits4DInt10from_lo_hi17h1b78f82b3471ca5cE, symObjAddr: 0x28, symBinAddr: 0x4E743, symSize: 0xC }
  - { offset: 0x1F0D6C, size: 0x8, addend: 0x0, symName: '__ZN59_$LT$u64$u20$as$u20$compiler_builtins..int..traits..Int$GT$11logical_shr17h5910b82b02f14622E', symObjAddr: 0x6FD, symBinAddr: 0x4E74F, symSize: 0xE }
  - { offset: 0x1F0DE4, size: 0x8, addend: 0x0, symName: '__ZN59_$LT$u64$u20$as$u20$compiler_builtins..int..traits..Int$GT$12wrapping_shl17h4efd0d4f9f575f63E', symObjAddr: 0x73A, symBinAddr: 0x4E75D, symSize: 0xE }
  - { offset: 0x1F0FB4, size: 0x8, addend: 0x0, symName: __ZN17compiler_builtins3int5shift4Lshr4lshr17hea376af58a8e757eE, symObjAddr: 0x844, symBinAddr: 0x4E76B, symSize: 0x7C }
  - { offset: 0x1F105B, size: 0x8, addend: 0x0, symName: __ZN17compiler_builtins3int5shift9__lshrti317h94ebcd1384a4bfc5E, symObjAddr: 0xEB3, symBinAddr: 0x4E7E7, symSize: 0xA }
  - { offset: 0x1F11CA, size: 0x8, addend: 0x0, symName: ___lshrti3, symObjAddr: 0xB67, symBinAddr: 0x4E7F1, symSize: 0xA }
...
