---
triple:          'arm64-apple-darwin'
binary-path:     './build/tvos-arm64/powersync-sqlite-core.framework/powersync-sqlite-core'
relocations:
  - { offset: 0x30, size: 0x8, addend: 0x0, symName: _rust_eh_personality, symObjAddr: 0x0, symBinAddr: 0x4000, symSize: 0x4 }
  - { offset: 0x4E, size: 0x8, addend: 0x0, symName: __RNvCsk8UOdKf0bkt_7___rustc14___rust_realloc, symObjAddr: 0x4, symBinAddr: 0x4004, symSize: 0x44 }
  - { offset: 0x9F1, size: 0x8, addend: 0x0, symName: _OUTLINED_FUNCTION_78, symObjAddr: 0x3B68C, symBinAddr: 0x3DBCC, symSize: 0xC }
  - { offset: 0xA08, size: 0x8, addend: 0x0, symName: _OUTLINED_FUNCTION_87, symObjAddr: 0x3B754, symBinAddr: 0x3DC94, symSize: 0xC }
  - { offset: 0xA1F, size: 0x8, addend: 0x0, symName: _OUTLINED_FUNCTION_604, symObjAddr: 0x3D5E8, symBinAddr: 0x3FB28, symSize: 0x8 }
  - { offset: 0xA36, size: 0x8, addend: 0x0, symName: _OUTLINED_FUNCTION_643, symObjAddr: 0x3D874, symBinAddr: 0x3FDB4, symSize: 0xC }
  - { offset: 0x7DB0, size: 0x8, addend: 0x0, symName: '__ZN4core3fmt3num53_$LT$impl$u20$core..fmt..LowerHex$u20$for$u20$u32$GT$3fmt17h589e796438052790E', symObjAddr: 0x924, symBinAddr: 0x4888, symSize: 0x84 }
  - { offset: 0x7F0F, size: 0x8, addend: 0x0, symName: '__ZN4core3fmt3num53_$LT$impl$u20$core..fmt..LowerHex$u20$for$u20$u32$GT$3fmt17h589e796438052790E', symObjAddr: 0x924, symBinAddr: 0x4888, symSize: 0x84 }
  - { offset: 0x2557B, size: 0x8, addend: 0x0, symName: '__ZN4core4iter5range110_$LT$impl$u20$core..iter..traits..iterator..Iterator$u20$for$u20$core..ops..range..RangeInclusive$LT$A$GT$$GT$4next17h3eab4a5de78f812cE', symObjAddr: 0x55F8, symBinAddr: 0x94E4, symSize: 0x38 }
  - { offset: 0x255AD, size: 0x8, addend: 0x0, symName: '__ZN4core4iter5range110_$LT$impl$u20$core..iter..traits..iterator..Iterator$u20$for$u20$core..ops..range..RangeInclusive$LT$A$GT$$GT$4next17h3eab4a5de78f812cE', symObjAddr: 0x55F8, symBinAddr: 0x94E4, symSize: 0x38 }
  - { offset: 0x255CB, size: 0x8, addend: 0x0, symName: '__ZN4core4iter5range110_$LT$impl$u20$core..iter..traits..iterator..Iterator$u20$for$u20$core..ops..range..RangeInclusive$LT$A$GT$$GT$4next17h3eab4a5de78f812cE', symObjAddr: 0x55F8, symBinAddr: 0x94E4, symSize: 0x38 }
  - { offset: 0x2586E, size: 0x8, addend: 0x0, symName: '__ZN4core5array88_$LT$impl$u20$core..ops..index..IndexMut$LT$I$GT$$u20$for$u20$$u5b$T$u3b$$u20$N$u5d$$GT$9index_mut17h819e29caa35111eaE', symObjAddr: 0x5A90, symBinAddr: 0x997C, symSize: 0x18 }
  - { offset: 0x258AD, size: 0x8, addend: 0x0, symName: '__ZN4core5array88_$LT$impl$u20$core..ops..index..IndexMut$LT$I$GT$$u20$for$u20$$u5b$T$u3b$$u20$N$u5d$$GT$9index_mut17h819e29caa35111eaE', symObjAddr: 0x5A90, symBinAddr: 0x997C, symSize: 0x18 }
  - { offset: 0x258D2, size: 0x8, addend: 0x0, symName: '__ZN4core5array88_$LT$impl$u20$core..ops..index..IndexMut$LT$I$GT$$u20$for$u20$$u5b$T$u3b$$u20$N$u5d$$GT$9index_mut17h819e29caa35111eaE', symObjAddr: 0x5A90, symBinAddr: 0x997C, symSize: 0x18 }
  - { offset: 0x258F6, size: 0x8, addend: 0x0, symName: '__ZN4core5array88_$LT$impl$u20$core..ops..index..IndexMut$LT$I$GT$$u20$for$u20$$u5b$T$u3b$$u20$N$u5d$$GT$9index_mut17h819e29caa35111eaE', symObjAddr: 0x5A90, symBinAddr: 0x997C, symSize: 0x18 }
  - { offset: 0x25919, size: 0x8, addend: 0x0, symName: '__ZN4core5array88_$LT$impl$u20$core..ops..index..IndexMut$LT$I$GT$$u20$for$u20$$u5b$T$u3b$$u20$N$u5d$$GT$9index_mut17h819e29caa35111eaE', symObjAddr: 0x5A90, symBinAddr: 0x997C, symSize: 0x18 }
  - { offset: 0x25945, size: 0x8, addend: 0x0, symName: '__ZN4core5array88_$LT$impl$u20$core..ops..index..IndexMut$LT$I$GT$$u20$for$u20$$u5b$T$u3b$$u20$N$u5d$$GT$9index_mut17h3c6b68103b7a8022E', symObjAddr: 0x5AA8, symBinAddr: 0x9994, symSize: 0x18 }
  - { offset: 0x25984, size: 0x8, addend: 0x0, symName: '__ZN4core5array88_$LT$impl$u20$core..ops..index..IndexMut$LT$I$GT$$u20$for$u20$$u5b$T$u3b$$u20$N$u5d$$GT$9index_mut17h3c6b68103b7a8022E', symObjAddr: 0x5AA8, symBinAddr: 0x9994, symSize: 0x18 }
  - { offset: 0x259A9, size: 0x8, addend: 0x0, symName: '__ZN4core5array88_$LT$impl$u20$core..ops..index..IndexMut$LT$I$GT$$u20$for$u20$$u5b$T$u3b$$u20$N$u5d$$GT$9index_mut17h3c6b68103b7a8022E', symObjAddr: 0x5AA8, symBinAddr: 0x9994, symSize: 0x18 }
  - { offset: 0x259CD, size: 0x8, addend: 0x0, symName: '__ZN4core5array88_$LT$impl$u20$core..ops..index..IndexMut$LT$I$GT$$u20$for$u20$$u5b$T$u3b$$u20$N$u5d$$GT$9index_mut17h3c6b68103b7a8022E', symObjAddr: 0x5AA8, symBinAddr: 0x9994, symSize: 0x18 }
  - { offset: 0x259F0, size: 0x8, addend: 0x0, symName: '__ZN4core5array88_$LT$impl$u20$core..ops..index..IndexMut$LT$I$GT$$u20$for$u20$$u5b$T$u3b$$u20$N$u5d$$GT$9index_mut17h3c6b68103b7a8022E', symObjAddr: 0x5AA8, symBinAddr: 0x9994, symSize: 0x18 }
  - { offset: 0x25A1C, size: 0x8, addend: 0x0, symName: '__ZN4core5array88_$LT$impl$u20$core..ops..index..IndexMut$LT$I$GT$$u20$for$u20$$u5b$T$u3b$$u20$N$u5d$$GT$9index_mut17h24ec92aeea7c7969E', symObjAddr: 0x5AC0, symBinAddr: 0x99AC, symSize: 0x1C }
  - { offset: 0x25AD9, size: 0x8, addend: 0x0, symName: '__ZN4core5array88_$LT$impl$u20$core..ops..index..IndexMut$LT$I$GT$$u20$for$u20$$u5b$T$u3b$$u20$N$u5d$$GT$9index_mut17h201f7d93893982e8E', symObjAddr: 0x5ADC, symBinAddr: 0x99C8, symSize: 0x18 }
  - { offset: 0x25B18, size: 0x8, addend: 0x0, symName: '__ZN4core5array88_$LT$impl$u20$core..ops..index..IndexMut$LT$I$GT$$u20$for$u20$$u5b$T$u3b$$u20$N$u5d$$GT$9index_mut17h201f7d93893982e8E', symObjAddr: 0x5ADC, symBinAddr: 0x99C8, symSize: 0x18 }
  - { offset: 0x25B3D, size: 0x8, addend: 0x0, symName: '__ZN4core5array88_$LT$impl$u20$core..ops..index..IndexMut$LT$I$GT$$u20$for$u20$$u5b$T$u3b$$u20$N$u5d$$GT$9index_mut17h201f7d93893982e8E', symObjAddr: 0x5ADC, symBinAddr: 0x99C8, symSize: 0x18 }
  - { offset: 0x25B61, size: 0x8, addend: 0x0, symName: '__ZN4core5array88_$LT$impl$u20$core..ops..index..IndexMut$LT$I$GT$$u20$for$u20$$u5b$T$u3b$$u20$N$u5d$$GT$9index_mut17h201f7d93893982e8E', symObjAddr: 0x5ADC, symBinAddr: 0x99C8, symSize: 0x18 }
  - { offset: 0x25B84, size: 0x8, addend: 0x0, symName: '__ZN4core5array88_$LT$impl$u20$core..ops..index..IndexMut$LT$I$GT$$u20$for$u20$$u5b$T$u3b$$u20$N$u5d$$GT$9index_mut17h201f7d93893982e8E', symObjAddr: 0x5ADC, symBinAddr: 0x99C8, symSize: 0x18 }
  - { offset: 0x25BB0, size: 0x8, addend: 0x0, symName: '__ZN4core5array88_$LT$impl$u20$core..ops..index..IndexMut$LT$I$GT$$u20$for$u20$$u5b$T$u3b$$u20$N$u5d$$GT$9index_mut17hc4a650546d76cb53E', symObjAddr: 0x5AF4, symBinAddr: 0x99E0, symSize: 0x18 }
  - { offset: 0x25BEF, size: 0x8, addend: 0x0, symName: '__ZN4core5array88_$LT$impl$u20$core..ops..index..IndexMut$LT$I$GT$$u20$for$u20$$u5b$T$u3b$$u20$N$u5d$$GT$9index_mut17hc4a650546d76cb53E', symObjAddr: 0x5AF4, symBinAddr: 0x99E0, symSize: 0x18 }
  - { offset: 0x25C14, size: 0x8, addend: 0x0, symName: '__ZN4core5array88_$LT$impl$u20$core..ops..index..IndexMut$LT$I$GT$$u20$for$u20$$u5b$T$u3b$$u20$N$u5d$$GT$9index_mut17hc4a650546d76cb53E', symObjAddr: 0x5AF4, symBinAddr: 0x99E0, symSize: 0x18 }
  - { offset: 0x25C38, size: 0x8, addend: 0x0, symName: '__ZN4core5array88_$LT$impl$u20$core..ops..index..IndexMut$LT$I$GT$$u20$for$u20$$u5b$T$u3b$$u20$N$u5d$$GT$9index_mut17hc4a650546d76cb53E', symObjAddr: 0x5AF4, symBinAddr: 0x99E0, symSize: 0x18 }
  - { offset: 0x25C5B, size: 0x8, addend: 0x0, symName: '__ZN4core5array88_$LT$impl$u20$core..ops..index..IndexMut$LT$I$GT$$u20$for$u20$$u5b$T$u3b$$u20$N$u5d$$GT$9index_mut17hc4a650546d76cb53E', symObjAddr: 0x5AF4, symBinAddr: 0x99E0, symSize: 0x18 }
  - { offset: 0x282DB, size: 0x8, addend: 0x0, symName: __ZN5alloc11collections5btree4node13move_to_slice17ha097f9205fd93726E, symObjAddr: 0x4F38, symBinAddr: 0x8E24, symSize: 0x24 }
  - { offset: 0x2834A, size: 0x8, addend: 0x0, symName: __ZN5alloc11collections5btree4node13move_to_slice17h00ea7bdc99cecfddE, symObjAddr: 0x4F5C, symBinAddr: 0x8E48, symSize: 0x20 }
  - { offset: 0x2933A, size: 0x8, addend: 0x0, symName: __ZN5alloc11collections5btree4node13move_to_slice17hf3fd28b2e8391ddeE, symObjAddr: 0x5398, symBinAddr: 0x9284, symSize: 0x18 }
  - { offset: 0x2C180, size: 0x8, addend: 0x0, symName: __ZN5alloc11collections5btree4node12slice_insert17h99cab8b6ec8665ccE, symObjAddr: 0x59A8, symBinAddr: 0x9894, symSize: 0x64 }
  - { offset: 0x2C27C, size: 0x8, addend: 0x0, symName: __ZN5alloc11collections5btree4node13move_to_slice17h0fc9a0e006986705E, symObjAddr: 0x5A0C, symBinAddr: 0x98F8, symSize: 0x20 }
  - { offset: 0x2C2EB, size: 0x8, addend: 0x0, symName: __ZN5alloc11collections5btree4node13move_to_slice17h55e6a90fe4f5bff5E, symObjAddr: 0x5A2C, symBinAddr: 0x9918, symSize: 0x20 }
  - { offset: 0x2C35A, size: 0x8, addend: 0x0, symName: __ZN5alloc11collections5btree4node13move_to_slice17hc2511920b5eb4755E, symObjAddr: 0x5A4C, symBinAddr: 0x9938, symSize: 0x24 }
  - { offset: 0x2C3C9, size: 0x8, addend: 0x0, symName: __ZN5alloc11collections5btree4node13move_to_slice17hf6082b4d513782afE, symObjAddr: 0x5A70, symBinAddr: 0x995C, symSize: 0x20 }
  - { offset: 0x3445A, size: 0x8, addend: 0x0, symName: '__ZN5alloc11collections5btree4node125NodeRef$LT$alloc..collections..btree..node..marker..Mut$C$K$C$V$C$alloc..collections..btree..node..marker..LeafOrInternal$GT$16choose_parent_kv17ha50effeda4d85c43E', symObjAddr: 0x448C, symBinAddr: 0x8378, symSize: 0x70 }
  - { offset: 0x34481, size: 0x8, addend: 0x0, symName: '__ZN5alloc11collections5btree4node125NodeRef$LT$alloc..collections..btree..node..marker..Mut$C$K$C$V$C$alloc..collections..btree..node..marker..LeafOrInternal$GT$16choose_parent_kv17ha50effeda4d85c43E', symObjAddr: 0x448C, symBinAddr: 0x8378, symSize: 0x70 }
  - { offset: 0x3449B, size: 0x8, addend: 0x0, symName: '__ZN5alloc11collections5btree4node125NodeRef$LT$alloc..collections..btree..node..marker..Mut$C$K$C$V$C$alloc..collections..btree..node..marker..LeafOrInternal$GT$16choose_parent_kv17ha50effeda4d85c43E', symObjAddr: 0x448C, symBinAddr: 0x8378, symSize: 0x70 }
  - { offset: 0x34BD4, size: 0x8, addend: 0x0, symName: '__ZN5alloc11collections5btree4node29BalancingContext$LT$K$C$V$GT$15bulk_steal_left17h1efda945f29de7d6E', symObjAddr: 0x44FC, symBinAddr: 0x83E8, symSize: 0x1BC }
  - { offset: 0x355D9, size: 0x8, addend: 0x0, symName: '__ZN5alloc11collections5btree4node29BalancingContext$LT$K$C$V$GT$8do_merge17haf828785101bdf5dE', symObjAddr: 0x46B8, symBinAddr: 0x85A4, symSize: 0x13C }
  - { offset: 0x35E33, size: 0x8, addend: 0x0, symName: '__ZN5alloc11collections5btree4node29BalancingContext$LT$K$C$V$GT$16bulk_steal_right17h412cc663605fd166E', symObjAddr: 0x47F4, symBinAddr: 0x86E0, symSize: 0x1A4 }
  - { offset: 0x36D14, size: 0x8, addend: 0x0, symName: '__ZN5alloc11collections5btree4node125NodeRef$LT$alloc..collections..btree..node..marker..Mut$C$K$C$V$C$alloc..collections..btree..node..marker..LeafOrInternal$GT$16choose_parent_kv17h6e52ae9eafca94edE', symObjAddr: 0x4998, symBinAddr: 0x8884, symSize: 0x6C }
  - { offset: 0x36D3B, size: 0x8, addend: 0x0, symName: '__ZN5alloc11collections5btree4node125NodeRef$LT$alloc..collections..btree..node..marker..Mut$C$K$C$V$C$alloc..collections..btree..node..marker..LeafOrInternal$GT$16choose_parent_kv17h6e52ae9eafca94edE', symObjAddr: 0x4998, symBinAddr: 0x8884, symSize: 0x6C }
  - { offset: 0x36D55, size: 0x8, addend: 0x0, symName: '__ZN5alloc11collections5btree4node125NodeRef$LT$alloc..collections..btree..node..marker..Mut$C$K$C$V$C$alloc..collections..btree..node..marker..LeafOrInternal$GT$16choose_parent_kv17h6e52ae9eafca94edE', symObjAddr: 0x4998, symBinAddr: 0x8884, symSize: 0x6C }
  - { offset: 0x374D3, size: 0x8, addend: 0x0, symName: '__ZN5alloc11collections5btree4node29BalancingContext$LT$K$C$V$GT$15bulk_steal_left17h3da82798c494acb7E', symObjAddr: 0x4A04, symBinAddr: 0x88F0, symSize: 0x1FC }
  - { offset: 0x37DCE, size: 0x8, addend: 0x0, symName: '__ZN5alloc11collections5btree4node29BalancingContext$LT$K$C$V$GT$8do_merge17hc06aef4c7971eb83E', symObjAddr: 0x4C00, symBinAddr: 0x8AEC, symSize: 0x154 }
  - { offset: 0x3852E, size: 0x8, addend: 0x0, symName: '__ZN5alloc11collections5btree4node29BalancingContext$LT$K$C$V$GT$16bulk_steal_right17h53090e12e4535d63E', symObjAddr: 0x4D54, symBinAddr: 0x8C40, symSize: 0x1E4 }
  - { offset: 0x38D91, size: 0x8, addend: 0x0, symName: '__ZN5alloc11collections5btree4node119NodeRef$LT$alloc..collections..btree..node..marker..Mut$C$K$C$V$C$alloc..collections..btree..node..marker..Internal$GT$30correct_childrens_parent_links17he05a818c8fc524d8E', symObjAddr: 0x4F7C, symBinAddr: 0x8E68, symSize: 0x24 }
  - { offset: 0x38DC0, size: 0x8, addend: 0x0, symName: '__ZN5alloc11collections5btree4node119NodeRef$LT$alloc..collections..btree..node..marker..Mut$C$K$C$V$C$alloc..collections..btree..node..marker..Internal$GT$30correct_childrens_parent_links17he05a818c8fc524d8E', symObjAddr: 0x4F7C, symBinAddr: 0x8E68, symSize: 0x24 }
  - { offset: 0x3916E, size: 0x8, addend: 0x0, symName: '__ZN5alloc11collections5btree4node125NodeRef$LT$alloc..collections..btree..node..marker..Mut$C$K$C$V$C$alloc..collections..btree..node..marker..LeafOrInternal$GT$16choose_parent_kv17hf5ff0ea9bf1ce0a4E', symObjAddr: 0x4FA0, symBinAddr: 0x8E8C, symSize: 0x6C }
  - { offset: 0x39195, size: 0x8, addend: 0x0, symName: '__ZN5alloc11collections5btree4node125NodeRef$LT$alloc..collections..btree..node..marker..Mut$C$K$C$V$C$alloc..collections..btree..node..marker..LeafOrInternal$GT$16choose_parent_kv17hf5ff0ea9bf1ce0a4E', symObjAddr: 0x4FA0, symBinAddr: 0x8E8C, symSize: 0x6C }
  - { offset: 0x391AF, size: 0x8, addend: 0x0, symName: '__ZN5alloc11collections5btree4node125NodeRef$LT$alloc..collections..btree..node..marker..Mut$C$K$C$V$C$alloc..collections..btree..node..marker..LeafOrInternal$GT$16choose_parent_kv17hf5ff0ea9bf1ce0a4E', symObjAddr: 0x4FA0, symBinAddr: 0x8E8C, symSize: 0x6C }
  - { offset: 0x397CB, size: 0x8, addend: 0x0, symName: '__ZN5alloc11collections5btree4node29BalancingContext$LT$K$C$V$GT$15bulk_steal_left17h5e20deb60b03c60bE', symObjAddr: 0x500C, symBinAddr: 0x8EF8, symSize: 0x154 }
  - { offset: 0x39DB0, size: 0x8, addend: 0x0, symName: '__ZN5alloc11collections5btree4node29BalancingContext$LT$K$C$V$GT$8do_merge17h0515920b17ee2240E', symObjAddr: 0x5160, symBinAddr: 0x904C, symSize: 0x11C }
  - { offset: 0x3A2AF, size: 0x8, addend: 0x0, symName: '__ZN5alloc11collections5btree4node29BalancingContext$LT$K$C$V$GT$16bulk_steal_right17h298b10173f635bcbE', symObjAddr: 0x527C, symBinAddr: 0x9168, symSize: 0x11C }
  - { offset: 0x3A8B7, size: 0x8, addend: 0x0, symName: '__ZN5alloc11collections5btree4node119NodeRef$LT$alloc..collections..btree..node..marker..Mut$C$K$C$V$C$alloc..collections..btree..node..marker..Internal$GT$30correct_childrens_parent_links17h10d7742eeb0ce1bdE', symObjAddr: 0x53B0, symBinAddr: 0x929C, symSize: 0x24 }
  - { offset: 0x3A8E6, size: 0x8, addend: 0x0, symName: '__ZN5alloc11collections5btree4node119NodeRef$LT$alloc..collections..btree..node..marker..Mut$C$K$C$V$C$alloc..collections..btree..node..marker..Internal$GT$30correct_childrens_parent_links17h10d7742eeb0ce1bdE', symObjAddr: 0x53B0, symBinAddr: 0x929C, symSize: 0x24 }
  - { offset: 0x3AB6E, size: 0x8, addend: 0x0, symName: '__ZN5alloc11collections5btree3fix176_$LT$impl$u20$alloc..collections..btree..node..NodeRef$LT$alloc..collections..btree..node..marker..Mut$C$K$C$V$C$alloc..collections..btree..node..marker..LeafOrInternal$GT$$GT$31fix_node_and_affected_ancestors17h8d0e835883c1a104E', symObjAddr: 0x53D4, symBinAddr: 0x92C0, symSize: 0xC4 }
  - { offset: 0x3ACFD, size: 0x8, addend: 0x0, symName: '__ZN5alloc11collections5btree4node115NodeRef$LT$alloc..collections..btree..node..marker..Mut$C$K$C$V$C$alloc..collections..btree..node..marker..Leaf$GT$16push_with_handle17h5ed8d3fde08fd1d4E', symObjAddr: 0x5498, symBinAddr: 0x9384, symSize: 0x44 }
  - { offset: 0x3AD38, size: 0x8, addend: 0x0, symName: '__ZN5alloc11collections5btree4node115NodeRef$LT$alloc..collections..btree..node..marker..Mut$C$K$C$V$C$alloc..collections..btree..node..marker..Leaf$GT$16push_with_handle17h5ed8d3fde08fd1d4E', symObjAddr: 0x5498, symBinAddr: 0x9384, symSize: 0x44 }
  - { offset: 0x3AE99, size: 0x8, addend: 0x0, symName: '__ZN5alloc11collections5btree4node115NodeRef$LT$alloc..collections..btree..node..marker..Mut$C$K$C$V$C$alloc..collections..btree..node..marker..Leaf$GT$16push_with_handle17h948ee29901e56cf3E', symObjAddr: 0x54DC, symBinAddr: 0x93C8, symSize: 0x50 }
  - { offset: 0x3AED8, size: 0x8, addend: 0x0, symName: '__ZN5alloc11collections5btree4node115NodeRef$LT$alloc..collections..btree..node..marker..Mut$C$K$C$V$C$alloc..collections..btree..node..marker..Leaf$GT$16push_with_handle17h948ee29901e56cf3E', symObjAddr: 0x54DC, symBinAddr: 0x93C8, symSize: 0x50 }
  - { offset: 0x3AFA1, size: 0x8, addend: 0x0, symName: '__ZN5alloc11collections5btree4node117NodeRef$LT$alloc..collections..btree..node..marker..Owned$C$K$C$V$C$alloc..collections..btree..node..marker..Leaf$GT$8new_leaf17h1181b7db44eb4b72E', symObjAddr: 0x552C, symBinAddr: 0x9418, symSize: 0x18 }
  - { offset: 0x3B026, size: 0x8, addend: 0x0, symName: '__ZN5alloc11collections5btree4node21LeafNode$LT$K$C$V$GT$3new17h65016f28625c8e18E', symObjAddr: 0x5544, symBinAddr: 0x9430, symSize: 0x28 }
  - { offset: 0x3B1CD, size: 0x8, addend: 0x0, symName: '__ZN5alloc11collections5btree4node117NodeRef$LT$alloc..collections..btree..node..marker..Owned$C$K$C$V$C$alloc..collections..btree..node..marker..Leaf$GT$8new_leaf17he4df86bc1372714bE', symObjAddr: 0x556C, symBinAddr: 0x9458, symSize: 0x18 }
  - { offset: 0x3B245, size: 0x8, addend: 0x0, symName: '__ZN5alloc11collections5btree4node21LeafNode$LT$K$C$V$GT$3new17h257a36a63d88e0d7E', symObjAddr: 0x5584, symBinAddr: 0x9470, symSize: 0x28 }
  - { offset: 0x3B478, size: 0x8, addend: 0x0, symName: '__ZN5alloc11collections5btree4node21LeafNode$LT$K$C$V$GT$3new17hf93e5ed7866699b1E', symObjAddr: 0x55AC, symBinAddr: 0x9498, symSize: 0x28 }
  - { offset: 0x3B666, size: 0x8, addend: 0x0, symName: '__ZN5alloc11collections5btree4node21LeafNode$LT$K$C$V$GT$3new17h5e3c5282f939bc1eE', symObjAddr: 0x55D4, symBinAddr: 0x94C0, symSize: 0x24 }
  - { offset: 0x3B861, size: 0x8, addend: 0x0, symName: '__ZN5alloc11collections5btree4node119NodeRef$LT$alloc..collections..btree..node..marker..Mut$C$K$C$V$C$alloc..collections..btree..node..marker..Internal$GT$4push17hb739df469c05cc87E', symObjAddr: 0x5630, symBinAddr: 0x951C, symSize: 0x64 }
  - { offset: 0x3BAC1, size: 0x8, addend: 0x0, symName: '__ZN5alloc11collections5btree4node119NodeRef$LT$alloc..collections..btree..node..marker..Mut$C$K$C$V$C$alloc..collections..btree..node..marker..Internal$GT$4push17heb9b91196983aab6E', symObjAddr: 0x5694, symBinAddr: 0x9580, symSize: 0x60 }
  - { offset: 0x3BC87, size: 0x8, addend: 0x0, symName: '__ZN5alloc11collections5btree4node25InternalNode$LT$K$C$V$GT$3new17h00e21af99c6b79afE', symObjAddr: 0x56F4, symBinAddr: 0x95E0, symSize: 0x28 }
  - { offset: 0x3C069, size: 0x8, addend: 0x0, symName: '__ZN5alloc11collections5btree4node121NodeRef$LT$alloc..collections..btree..node..marker..Owned$C$K$C$V$C$alloc..collections..btree..node..marker..Internal$GT$17from_new_internal17h5d4785a13f2177beE', symObjAddr: 0x571C, symBinAddr: 0x9608, symSize: 0x48 }
  - { offset: 0x3C395, size: 0x8, addend: 0x0, symName: '__ZN5alloc11collections5btree4node25InternalNode$LT$K$C$V$GT$3new17h07765f8070e5a6afE', symObjAddr: 0x5764, symBinAddr: 0x9650, symSize: 0x28 }
  - { offset: 0x3C753, size: 0x8, addend: 0x0, symName: '__ZN5alloc11collections5btree4node121NodeRef$LT$alloc..collections..btree..node..marker..Owned$C$K$C$V$C$alloc..collections..btree..node..marker..Internal$GT$17from_new_internal17h69a7baafffee2cd7E', symObjAddr: 0x578C, symBinAddr: 0x9678, symSize: 0x48 }
  - { offset: 0x3C98A, size: 0x8, addend: 0x0, symName: '__ZN5alloc11collections5btree4node25InternalNode$LT$K$C$V$GT$3new17h875a5348ed076356E', symObjAddr: 0x57D4, symBinAddr: 0x96C0, symSize: 0x28 }
  - { offset: 0x3CBBD, size: 0x8, addend: 0x0, symName: '__ZN5alloc11collections5btree4node121NodeRef$LT$alloc..collections..btree..node..marker..Owned$C$K$C$V$C$alloc..collections..btree..node..marker..Internal$GT$17from_new_internal17h3994a7ec37db091bE', symObjAddr: 0x57FC, symBinAddr: 0x96E8, symSize: 0x48 }
  - { offset: 0x3CDF4, size: 0x8, addend: 0x0, symName: '__ZN5alloc11collections5btree4node25InternalNode$LT$K$C$V$GT$3new17hdd60e1a475d88fb6E', symObjAddr: 0x5844, symBinAddr: 0x9730, symSize: 0x24 }
  - { offset: 0x3D0F6, size: 0x8, addend: 0x0, symName: '__ZN5alloc11collections5btree4node121NodeRef$LT$alloc..collections..btree..node..marker..Owned$C$K$C$V$C$alloc..collections..btree..node..marker..Internal$GT$17from_new_internal17h60fb5b00b13d5f5bE', symObjAddr: 0x5868, symBinAddr: 0x9754, symSize: 0x48 }
  - { offset: 0x3D439, size: 0x8, addend: 0x0, symName: '__ZN5alloc11collections5btree4node127NodeRef$LT$alloc..collections..btree..node..marker..Dying$C$K$C$V$C$alloc..collections..btree..node..marker..LeafOrInternal$GT$21deallocate_and_ascend17h2955a961c13a0edeE', symObjAddr: 0x58B0, symBinAddr: 0x979C, symSize: 0x18 }
  - { offset: 0x3D468, size: 0x8, addend: 0x0, symName: '__ZN5alloc11collections5btree4node127NodeRef$LT$alloc..collections..btree..node..marker..Dying$C$K$C$V$C$alloc..collections..btree..node..marker..LeafOrInternal$GT$21deallocate_and_ascend17h2955a961c13a0edeE', symObjAddr: 0x58B0, symBinAddr: 0x979C, symSize: 0x18 }
  - { offset: 0x3D484, size: 0x8, addend: 0x0, symName: '__ZN5alloc11collections5btree4node127NodeRef$LT$alloc..collections..btree..node..marker..Dying$C$K$C$V$C$alloc..collections..btree..node..marker..LeafOrInternal$GT$21deallocate_and_ascend17h2955a961c13a0edeE', symObjAddr: 0x58B0, symBinAddr: 0x979C, symSize: 0x18 }
  - { offset: 0x3D4A4, size: 0x8, addend: 0x0, symName: '__ZN5alloc11collections5btree4node127NodeRef$LT$alloc..collections..btree..node..marker..Dying$C$K$C$V$C$alloc..collections..btree..node..marker..LeafOrInternal$GT$21deallocate_and_ascend17h2955a961c13a0edeE', symObjAddr: 0x58B0, symBinAddr: 0x979C, symSize: 0x18 }
  - { offset: 0x3D4BE, size: 0x8, addend: 0x0, symName: '__ZN5alloc11collections5btree4node127NodeRef$LT$alloc..collections..btree..node..marker..Dying$C$K$C$V$C$alloc..collections..btree..node..marker..LeafOrInternal$GT$21deallocate_and_ascend17h2955a961c13a0edeE', symObjAddr: 0x58B0, symBinAddr: 0x979C, symSize: 0x18 }
  - { offset: 0x3D616, size: 0x8, addend: 0x0, symName: '__ZN5alloc11collections5btree4node127NodeRef$LT$alloc..collections..btree..node..marker..Dying$C$K$C$V$C$alloc..collections..btree..node..marker..LeafOrInternal$GT$21deallocate_and_ascend17h5334c712ca9dbf5fE', symObjAddr: 0x58C8, symBinAddr: 0x97B4, symSize: 0x18 }
  - { offset: 0x3D645, size: 0x8, addend: 0x0, symName: '__ZN5alloc11collections5btree4node127NodeRef$LT$alloc..collections..btree..node..marker..Dying$C$K$C$V$C$alloc..collections..btree..node..marker..LeafOrInternal$GT$21deallocate_and_ascend17h5334c712ca9dbf5fE', symObjAddr: 0x58C8, symBinAddr: 0x97B4, symSize: 0x18 }
  - { offset: 0x3D661, size: 0x8, addend: 0x0, symName: '__ZN5alloc11collections5btree4node127NodeRef$LT$alloc..collections..btree..node..marker..Dying$C$K$C$V$C$alloc..collections..btree..node..marker..LeafOrInternal$GT$21deallocate_and_ascend17h5334c712ca9dbf5fE', symObjAddr: 0x58C8, symBinAddr: 0x97B4, symSize: 0x18 }
  - { offset: 0x3D681, size: 0x8, addend: 0x0, symName: '__ZN5alloc11collections5btree4node127NodeRef$LT$alloc..collections..btree..node..marker..Dying$C$K$C$V$C$alloc..collections..btree..node..marker..LeafOrInternal$GT$21deallocate_and_ascend17h5334c712ca9dbf5fE', symObjAddr: 0x58C8, symBinAddr: 0x97B4, symSize: 0x18 }
  - { offset: 0x3D69B, size: 0x8, addend: 0x0, symName: '__ZN5alloc11collections5btree4node127NodeRef$LT$alloc..collections..btree..node..marker..Dying$C$K$C$V$C$alloc..collections..btree..node..marker..LeafOrInternal$GT$21deallocate_and_ascend17h5334c712ca9dbf5fE', symObjAddr: 0x58C8, symBinAddr: 0x97B4, symSize: 0x18 }
  - { offset: 0x3D80D, size: 0x8, addend: 0x0, symName: '__ZN5alloc11collections5btree4node127NodeRef$LT$alloc..collections..btree..node..marker..Dying$C$K$C$V$C$alloc..collections..btree..node..marker..LeafOrInternal$GT$21deallocate_and_ascend17h5ba18023958e414dE', symObjAddr: 0x58E0, symBinAddr: 0x97CC, symSize: 0x18 }
  - { offset: 0x3D83C, size: 0x8, addend: 0x0, symName: '__ZN5alloc11collections5btree4node127NodeRef$LT$alloc..collections..btree..node..marker..Dying$C$K$C$V$C$alloc..collections..btree..node..marker..LeafOrInternal$GT$21deallocate_and_ascend17h5ba18023958e414dE', symObjAddr: 0x58E0, symBinAddr: 0x97CC, symSize: 0x18 }
  - { offset: 0x3D858, size: 0x8, addend: 0x0, symName: '__ZN5alloc11collections5btree4node127NodeRef$LT$alloc..collections..btree..node..marker..Dying$C$K$C$V$C$alloc..collections..btree..node..marker..LeafOrInternal$GT$21deallocate_and_ascend17h5ba18023958e414dE', symObjAddr: 0x58E0, symBinAddr: 0x97CC, symSize: 0x18 }
  - { offset: 0x3D878, size: 0x8, addend: 0x0, symName: '__ZN5alloc11collections5btree4node127NodeRef$LT$alloc..collections..btree..node..marker..Dying$C$K$C$V$C$alloc..collections..btree..node..marker..LeafOrInternal$GT$21deallocate_and_ascend17h5ba18023958e414dE', symObjAddr: 0x58E0, symBinAddr: 0x97CC, symSize: 0x18 }
  - { offset: 0x3D892, size: 0x8, addend: 0x0, symName: '__ZN5alloc11collections5btree4node127NodeRef$LT$alloc..collections..btree..node..marker..Dying$C$K$C$V$C$alloc..collections..btree..node..marker..LeafOrInternal$GT$21deallocate_and_ascend17h5ba18023958e414dE', symObjAddr: 0x58E0, symBinAddr: 0x97CC, symSize: 0x18 }
  - { offset: 0x3D9AD, size: 0x8, addend: 0x0, symName: '__ZN5alloc11collections5btree4node127NodeRef$LT$alloc..collections..btree..node..marker..Owned$C$K$C$V$C$alloc..collections..btree..node..marker..LeafOrInternal$GT$18pop_internal_level17hd9ac7676b95869b9E', symObjAddr: 0x58F8, symBinAddr: 0x97E4, symSize: 0x30 }
  - { offset: 0x3DBF9, size: 0x8, addend: 0x0, symName: '__ZN5alloc11collections5btree4node127NodeRef$LT$alloc..collections..btree..node..marker..Owned$C$K$C$V$C$alloc..collections..btree..node..marker..LeafOrInternal$GT$19push_internal_level17h02b54f520ccf1876E', symObjAddr: 0x5928, symBinAddr: 0x9814, symSize: 0x34 }
  - { offset: 0x3DE0D, size: 0x8, addend: 0x0, symName: '__ZN5alloc11collections5btree4node127NodeRef$LT$alloc..collections..btree..node..marker..Owned$C$K$C$V$C$alloc..collections..btree..node..marker..LeafOrInternal$GT$19push_internal_level17hae7120b5b5455ab2E', symObjAddr: 0x595C, symBinAddr: 0x9848, symSize: 0x34 }
  - { offset: 0x3DF96, size: 0x8, addend: 0x0, symName: '__ZN5alloc11collections5btree4node127NodeRef$LT$alloc..collections..btree..node..marker..Owned$C$K$C$V$C$alloc..collections..btree..node..marker..LeafOrInternal$GT$3new17h001258550736b55cE', symObjAddr: 0x5990, symBinAddr: 0x987C, symSize: 0x18 }
  - { offset: 0x3E0F3, size: 0x8, addend: 0x0, symName: '__ZN5alloc11collections5btree4node208Handle$LT$alloc..collections..btree..node..NodeRef$LT$alloc..collections..btree..node..marker..Mut$C$K$C$V$C$alloc..collections..btree..node..marker..Leaf$GT$$C$alloc..collections..btree..node..marker..KV$GT$6remove17h5d83fc43acc4b514E', symObjAddr: 0x5B0C, symBinAddr: 0x99F8, symSize: 0xAC }
  - { offset: 0x3E4D3, size: 0x8, addend: 0x0, symName: '__ZN5alloc11collections5btree4node210Handle$LT$alloc..collections..btree..node..NodeRef$LT$alloc..collections..btree..node..marker..Mut$C$K$C$V$C$alloc..collections..btree..node..marker..Leaf$GT$$C$alloc..collections..btree..node..marker..Edge$GT$10insert_fit17h491a6f93df19173bE', symObjAddr: 0x5BB8, symBinAddr: 0x9AA4, symSize: 0x64 }
  - { offset: 0x3E789, size: 0x8, addend: 0x0, symName: '__ZN5alloc11collections5btree4node210Handle$LT$alloc..collections..btree..node..NodeRef$LT$alloc..collections..btree..node..marker..Mut$C$K$C$V$C$alloc..collections..btree..node..marker..Leaf$GT$$C$alloc..collections..btree..node..marker..Edge$GT$10insert_fit17h5106fef637ee107fE', symObjAddr: 0x5C1C, symBinAddr: 0x9B08, symSize: 0x8C }
  - { offset: 0x3EAB1, size: 0x8, addend: 0x0, symName: '__ZN5alloc11collections5btree4node210Handle$LT$alloc..collections..btree..node..NodeRef$LT$alloc..collections..btree..node..marker..Mut$C$K$C$V$C$alloc..collections..btree..node..marker..Leaf$GT$$C$alloc..collections..btree..node..marker..Edge$GT$10insert_fit17ha5fc6fa850530589E', symObjAddr: 0x5CA8, symBinAddr: 0x9B94, symSize: 0x50 }
  - { offset: 0x3EBB1, size: 0x8, addend: 0x0, symName: '__ZN5alloc11collections5btree4node214Handle$LT$alloc..collections..btree..node..NodeRef$LT$alloc..collections..btree..node..marker..Mut$C$K$C$V$C$alloc..collections..btree..node..marker..Internal$GT$$C$alloc..collections..btree..node..marker..Edge$GT$10insert_fit17ha52b195f14d72639E', symObjAddr: 0x5CF8, symBinAddr: 0x9BE4, symSize: 0x98 }
  - { offset: 0x3EEE5, size: 0x8, addend: 0x0, symName: '__ZN5alloc11collections5btree4node214Handle$LT$alloc..collections..btree..node..NodeRef$LT$alloc..collections..btree..node..marker..Mut$C$K$C$V$C$alloc..collections..btree..node..marker..Internal$GT$$C$alloc..collections..btree..node..marker..Edge$GT$10insert_fit17h9b14d26169bcced9E', symObjAddr: 0x5D90, symBinAddr: 0x9C7C, symSize: 0xA0 }
  - { offset: 0x3F39B, size: 0x8, addend: 0x0, symName: '__ZN5alloc11collections5btree4node214Handle$LT$alloc..collections..btree..node..NodeRef$LT$alloc..collections..btree..node..marker..Mut$C$K$C$V$C$alloc..collections..btree..node..marker..Internal$GT$$C$alloc..collections..btree..node..marker..Edge$GT$10insert_fit17h82c71172123d5707E', symObjAddr: 0x5E30, symBinAddr: 0x9D1C, symSize: 0xE8 }
  - { offset: 0x3FA28, size: 0x8, addend: 0x0, symName: '__ZN5alloc11collections5btree4node214Handle$LT$alloc..collections..btree..node..NodeRef$LT$alloc..collections..btree..node..marker..Mut$C$K$C$V$C$alloc..collections..btree..node..marker..Internal$GT$$C$alloc..collections..btree..node..marker..Edge$GT$10insert_fit17ha9b2c8d3c695f904E', symObjAddr: 0x5F18, symBinAddr: 0x9E04, symSize: 0xB8 }
  - { offset: 0x3FE62, size: 0x8, addend: 0x0, symName: '__ZN5alloc11collections5btree4node214Handle$LT$alloc..collections..btree..node..NodeRef$LT$alloc..collections..btree..node..marker..Mut$C$K$C$V$C$alloc..collections..btree..node..marker..Internal$GT$$C$alloc..collections..btree..node..marker..Edge$GT$10insert_fit17hd0207408f3cb7c19E', symObjAddr: 0x5FD0, symBinAddr: 0x9EBC, symSize: 0x80 }
  - { offset: 0x40002, size: 0x8, addend: 0x0, symName: '__ZN5alloc11collections5btree4node29BalancingContext$LT$K$C$V$GT$10steal_left17hf7339cc1cfc27018E', symObjAddr: 0x6050, symBinAddr: 0x9F3C, symSize: 0x38 }
  - { offset: 0x4006E, size: 0x8, addend: 0x0, symName: '__ZN5alloc11collections5btree4node29BalancingContext$LT$K$C$V$GT$11steal_right17h46f78c2201448022E', symObjAddr: 0x6088, symBinAddr: 0x9F74, symSize: 0x34 }
  - { offset: 0x400DA, size: 0x8, addend: 0x0, symName: '__ZN5alloc11collections5btree4node29BalancingContext$LT$K$C$V$GT$8do_merge17h64d3e6e17f892ef5E', symObjAddr: 0x60BC, symBinAddr: 0x9FA8, symSize: 0x11C }
  - { offset: 0x405CC, size: 0x8, addend: 0x0, symName: '__ZN5alloc11collections5btree4node29BalancingContext$LT$K$C$V$GT$8do_merge17h7c09d7b0235a9815E', symObjAddr: 0x61D8, symBinAddr: 0xA0C4, symSize: 0x150 }
  - { offset: 0x40D1D, size: 0x8, addend: 0x0, symName: '__ZN5alloc11collections5btree4node29BalancingContext$LT$K$C$V$GT$8do_merge17h9a25a72ec91ad89bE', symObjAddr: 0x6328, symBinAddr: 0xA214, symSize: 0x134 }
  - { offset: 0x415A7, size: 0x8, addend: 0x0, symName: '__ZN5alloc11collections5btree4node29BalancingContext$LT$K$C$V$GT$25merge_tracking_child_edge17h48ce14153ed336cbE', symObjAddr: 0x645C, symBinAddr: 0xA348, symSize: 0x64 }
  - { offset: 0x4177E, size: 0x8, addend: 0x0, symName: '__ZN5alloc11collections5btree4node29BalancingContext$LT$K$C$V$GT$25merge_tracking_child_edge17h4e1374bd6292a513E', symObjAddr: 0x64C0, symBinAddr: 0xA3AC, symSize: 0x64 }
  - { offset: 0x4197E, size: 0x8, addend: 0x0, symName: '__ZN5alloc11collections5btree4node29BalancingContext$LT$K$C$V$GT$25merge_tracking_child_edge17h84fc8c92751a6657E', symObjAddr: 0x6524, symBinAddr: 0xA410, symSize: 0x64 }
  - { offset: 0x41B8D, size: 0x8, addend: 0x0, symName: '__ZN5alloc11collections5btree8navigate142_$LT$impl$u20$alloc..collections..btree..node..NodeRef$LT$BorrowType$C$K$C$V$C$alloc..collections..btree..node..marker..LeafOrInternal$GT$$GT$14last_leaf_edge17h9431f01b4da4d83dE', symObjAddr: 0x6588, symBinAddr: 0xA474, symSize: 0x20 }
  - { offset: 0x41BB0, size: 0x8, addend: 0x0, symName: '__ZN5alloc11collections5btree8navigate142_$LT$impl$u20$alloc..collections..btree..node..NodeRef$LT$BorrowType$C$K$C$V$C$alloc..collections..btree..node..marker..LeafOrInternal$GT$$GT$14last_leaf_edge17h9431f01b4da4d83dE', symObjAddr: 0x6588, symBinAddr: 0xA474, symSize: 0x20 }
  - { offset: 0x41FE8, size: 0x8, addend: 0x0, symName: '__ZN5alloc11collections5btree6remove259_$LT$impl$u20$alloc..collections..btree..node..Handle$LT$alloc..collections..btree..node..NodeRef$LT$alloc..collections..btree..node..marker..Mut$C$K$C$V$C$alloc..collections..btree..node..marker..Leaf$GT$$C$alloc..collections..btree..node..marker..KV$GT$$GT$14remove_leaf_kv17h446ab4322b038d62E', symObjAddr: 0x65A8, symBinAddr: 0xA494, symSize: 0x1B4 }
  - { offset: 0x4258D, size: 0x8, addend: 0x0, symName: '__ZN5alloc11collections5btree6remove259_$LT$impl$u20$alloc..collections..btree..node..Handle$LT$alloc..collections..btree..node..NodeRef$LT$alloc..collections..btree..node..marker..Mut$C$K$C$V$C$alloc..collections..btree..node..marker..Leaf$GT$$C$alloc..collections..btree..node..marker..KV$GT$$GT$14remove_leaf_kv17h9168171a9dce5cb8E', symObjAddr: 0x675C, symBinAddr: 0xA648, symSize: 0x128 }
  - { offset: 0x42B6F, size: 0x8, addend: 0x0, symName: '__ZN5alloc11collections5btree6remove259_$LT$impl$u20$alloc..collections..btree..node..Handle$LT$alloc..collections..btree..node..NodeRef$LT$alloc..collections..btree..node..marker..Mut$C$K$C$V$C$alloc..collections..btree..node..marker..Leaf$GT$$C$alloc..collections..btree..node..marker..KV$GT$$GT$14remove_leaf_kv17hb484562e65518824E', symObjAddr: 0x6884, symBinAddr: 0xA770, symSize: 0x214 }
  - { offset: 0x430E4, size: 0x8, addend: 0x0, symName: '__ZN5alloc11collections5btree8navigate142_$LT$impl$u20$alloc..collections..btree..node..NodeRef$LT$BorrowType$C$K$C$V$C$alloc..collections..btree..node..marker..LeafOrInternal$GT$$GT$14last_leaf_edge17h9ef6afd28ed30c60E', symObjAddr: 0x6A98, symBinAddr: 0xA984, symSize: 0x20 }
  - { offset: 0x43107, size: 0x8, addend: 0x0, symName: '__ZN5alloc11collections5btree8navigate142_$LT$impl$u20$alloc..collections..btree..node..NodeRef$LT$BorrowType$C$K$C$V$C$alloc..collections..btree..node..marker..LeafOrInternal$GT$$GT$14last_leaf_edge17h9ef6afd28ed30c60E', symObjAddr: 0x6A98, symBinAddr: 0xA984, symSize: 0x20 }
  - { offset: 0x432F8, size: 0x8, addend: 0x0, symName: '__ZN5alloc11collections5btree8navigate227_$LT$impl$u20$alloc..collections..btree..node..Handle$LT$alloc..collections..btree..node..NodeRef$LT$BorrowType$C$K$C$V$C$alloc..collections..btree..node..marker..Leaf$GT$$C$alloc..collections..btree..node..marker..Edge$GT$$GT$7next_kv17h51c30c92da3858afE', symObjAddr: 0x6AB8, symBinAddr: 0xA9A4, symSize: 0x44 }
  - { offset: 0x4331E, size: 0x8, addend: 0x0, symName: '__ZN5alloc11collections5btree8navigate227_$LT$impl$u20$alloc..collections..btree..node..Handle$LT$alloc..collections..btree..node..NodeRef$LT$BorrowType$C$K$C$V$C$alloc..collections..btree..node..marker..Leaf$GT$$C$alloc..collections..btree..node..marker..Edge$GT$$GT$7next_kv17h51c30c92da3858afE', symObjAddr: 0x6AB8, symBinAddr: 0xA9A4, symSize: 0x44 }
  - { offset: 0x43595, size: 0x8, addend: 0x0, symName: '__ZN5alloc11collections5btree8navigate235_$LT$impl$u20$alloc..collections..btree..node..Handle$LT$alloc..collections..btree..node..NodeRef$LT$BorrowType$C$K$C$V$C$alloc..collections..btree..node..marker..LeafOrInternal$GT$$C$alloc..collections..btree..node..marker..KV$GT$$GT$14next_leaf_edge17hf4293c0c2fc6fefeE', symObjAddr: 0x6AFC, symBinAddr: 0xA9E8, symSize: 0x48 }
  - { offset: 0x435BB, size: 0x8, addend: 0x0, symName: '__ZN5alloc11collections5btree8navigate235_$LT$impl$u20$alloc..collections..btree..node..Handle$LT$alloc..collections..btree..node..NodeRef$LT$BorrowType$C$K$C$V$C$alloc..collections..btree..node..marker..LeafOrInternal$GT$$C$alloc..collections..btree..node..marker..KV$GT$$GT$14next_leaf_edge17hf4293c0c2fc6fefeE', symObjAddr: 0x6AFC, symBinAddr: 0xA9E8, symSize: 0x48 }
  - { offset: 0x4399E, size: 0x8, addend: 0x0, symName: '__ZN5alloc11collections5btree6search142_$LT$impl$u20$alloc..collections..btree..node..NodeRef$LT$BorrowType$C$K$C$V$C$alloc..collections..btree..node..marker..LeafOrInternal$GT$$GT$11search_tree17hc861df0a0d47ba9eE', symObjAddr: 0x6B44, symBinAddr: 0xAA30, symSize: 0x7C }
  - { offset: 0x43DF9, size: 0x8, addend: 0x0, symName: '__ZN5alloc11collections5btree6search142_$LT$impl$u20$alloc..collections..btree..node..NodeRef$LT$BorrowType$C$K$C$V$C$alloc..collections..btree..node..marker..LeafOrInternal$GT$$GT$11search_tree17he295e33b7a9d59b7E', symObjAddr: 0x6BC0, symBinAddr: 0xAAAC, symSize: 0x7C }
  - { offset: 0x4B3DF, size: 0x8, addend: 0x0, symName: _OUTLINED_FUNCTION_0, symObjAddr: 0x3B058, symBinAddr: 0x3D598, symSize: 0x18 }
  - { offset: 0x4B3F6, size: 0x8, addend: 0x0, symName: _OUTLINED_FUNCTION_19, symObjAddr: 0x3B1BC, symBinAddr: 0x3D6FC, symSize: 0x10 }
  - { offset: 0x4B40D, size: 0x8, addend: 0x0, symName: _OUTLINED_FUNCTION_38, symObjAddr: 0x3B33C, symBinAddr: 0x3D87C, symSize: 0x1C }
  - { offset: 0x4B424, size: 0x8, addend: 0x0, symName: _OUTLINED_FUNCTION_40, symObjAddr: 0x3B374, symBinAddr: 0x3D8B4, symSize: 0x1C }
  - { offset: 0x4B43B, size: 0x8, addend: 0x0, symName: _OUTLINED_FUNCTION_41, symObjAddr: 0x3B390, symBinAddr: 0x3D8D0, symSize: 0x1C }
  - { offset: 0x4B452, size: 0x8, addend: 0x0, symName: _OUTLINED_FUNCTION_64, symObjAddr: 0x3B538, symBinAddr: 0x3DA78, symSize: 0x10 }
  - { offset: 0x4B469, size: 0x8, addend: 0x0, symName: _OUTLINED_FUNCTION_104, symObjAddr: 0x3B888, symBinAddr: 0x3DDC8, symSize: 0x1C }
  - { offset: 0x4B480, size: 0x8, addend: 0x0, symName: _OUTLINED_FUNCTION_105, symObjAddr: 0x3B8A4, symBinAddr: 0x3DDE4, symSize: 0x1C }
  - { offset: 0x4B497, size: 0x8, addend: 0x0, symName: _OUTLINED_FUNCTION_152, symObjAddr: 0x3BC78, symBinAddr: 0x3E1B8, symSize: 0x10 }
  - { offset: 0x4B4AE, size: 0x8, addend: 0x0, symName: _OUTLINED_FUNCTION_171, symObjAddr: 0x3BDA4, symBinAddr: 0x3E2E4, symSize: 0x8 }
  - { offset: 0x4B4C5, size: 0x8, addend: 0x0, symName: _OUTLINED_FUNCTION_203, symObjAddr: 0x3BFCC, symBinAddr: 0x3E50C, symSize: 0xC }
  - { offset: 0x4B4DC, size: 0x8, addend: 0x0, symName: _OUTLINED_FUNCTION_238, symObjAddr: 0x3C1B8, symBinAddr: 0x3E6F8, symSize: 0x10 }
  - { offset: 0x4B4F3, size: 0x8, addend: 0x0, symName: _OUTLINED_FUNCTION_264, symObjAddr: 0x3C350, symBinAddr: 0x3E890, symSize: 0xC }
  - { offset: 0x4B50A, size: 0x8, addend: 0x0, symName: _OUTLINED_FUNCTION_284, symObjAddr: 0x3C484, symBinAddr: 0x3E9C4, symSize: 0x8 }
  - { offset: 0x4B521, size: 0x8, addend: 0x0, symName: _OUTLINED_FUNCTION_298, symObjAddr: 0x3C528, symBinAddr: 0x3EA68, symSize: 0xC }
  - { offset: 0x4B538, size: 0x8, addend: 0x0, symName: _OUTLINED_FUNCTION_299, symObjAddr: 0x3C534, symBinAddr: 0x3EA74, symSize: 0xC }
  - { offset: 0x4B54F, size: 0x8, addend: 0x0, symName: _OUTLINED_FUNCTION_322, symObjAddr: 0x3C664, symBinAddr: 0x3EBA4, symSize: 0xC }
  - { offset: 0x4B566, size: 0x8, addend: 0x0, symName: _OUTLINED_FUNCTION_323, symObjAddr: 0x3C670, symBinAddr: 0x3EBB0, symSize: 0x10 }
  - { offset: 0x4B57D, size: 0x8, addend: 0x0, symName: _OUTLINED_FUNCTION_325, symObjAddr: 0x3C68C, symBinAddr: 0x3EBCC, symSize: 0xC }
  - { offset: 0x4B594, size: 0x8, addend: 0x0, symName: _OUTLINED_FUNCTION_377, symObjAddr: 0x3C964, symBinAddr: 0x3EEA4, symSize: 0x18 }
  - { offset: 0x4B5AB, size: 0x8, addend: 0x0, symName: _OUTLINED_FUNCTION_383, symObjAddr: 0x3C9CC, symBinAddr: 0x3EF0C, symSize: 0x8 }
  - { offset: 0x4B5C2, size: 0x8, addend: 0x0, symName: _OUTLINED_FUNCTION_391, symObjAddr: 0x3CA58, symBinAddr: 0x3EF98, symSize: 0xC }
  - { offset: 0x4B5D9, size: 0x8, addend: 0x0, symName: _OUTLINED_FUNCTION_400, symObjAddr: 0x3CADC, symBinAddr: 0x3F01C, symSize: 0xC }
  - { offset: 0x4B5F0, size: 0x8, addend: 0x0, symName: _OUTLINED_FUNCTION_402, symObjAddr: 0x3CAF4, symBinAddr: 0x3F034, symSize: 0xC }
  - { offset: 0x4B607, size: 0x8, addend: 0x0, symName: _OUTLINED_FUNCTION_425, symObjAddr: 0x3CC0C, symBinAddr: 0x3F14C, symSize: 0x8 }
  - { offset: 0x4B61E, size: 0x8, addend: 0x0, symName: _OUTLINED_FUNCTION_438, symObjAddr: 0x3CC78, symBinAddr: 0x3F1B8, symSize: 0xC }
  - { offset: 0x4B635, size: 0x8, addend: 0x0, symName: _OUTLINED_FUNCTION_440, symObjAddr: 0x3CC8C, symBinAddr: 0x3F1CC, symSize: 0x1C }
  - { offset: 0x4B64C, size: 0x8, addend: 0x0, symName: _OUTLINED_FUNCTION_443, symObjAddr: 0x3CCCC, symBinAddr: 0x3F20C, symSize: 0xC }
  - { offset: 0x4B663, size: 0x8, addend: 0x0, symName: _OUTLINED_FUNCTION_458, symObjAddr: 0x3CD90, symBinAddr: 0x3F2D0, symSize: 0x1C }
  - { offset: 0x4B67A, size: 0x8, addend: 0x0, symName: _OUTLINED_FUNCTION_462, symObjAddr: 0x3CDEC, symBinAddr: 0x3F32C, symSize: 0x8 }
  - { offset: 0x4B691, size: 0x8, addend: 0x0, symName: _OUTLINED_FUNCTION_467, symObjAddr: 0x3CE14, symBinAddr: 0x3F354, symSize: 0x1C }
  - { offset: 0x4B6A8, size: 0x8, addend: 0x0, symName: _OUTLINED_FUNCTION_476, symObjAddr: 0x3CEC0, symBinAddr: 0x3F400, symSize: 0x1C }
  - { offset: 0x4B6BF, size: 0x8, addend: 0x0, symName: _OUTLINED_FUNCTION_492, symObjAddr: 0x3CFEC, symBinAddr: 0x3F52C, symSize: 0xC }
  - { offset: 0x4B6D6, size: 0x8, addend: 0x0, symName: _OUTLINED_FUNCTION_519, symObjAddr: 0x3D16C, symBinAddr: 0x3F6AC, symSize: 0x10 }
  - { offset: 0x4B6ED, size: 0x8, addend: 0x0, symName: _OUTLINED_FUNCTION_521, symObjAddr: 0x3D184, symBinAddr: 0x3F6C4, symSize: 0x1C }
  - { offset: 0x4B704, size: 0x8, addend: 0x0, symName: _OUTLINED_FUNCTION_527, symObjAddr: 0x3D1F0, symBinAddr: 0x3F730, symSize: 0xC }
  - { offset: 0x4B71B, size: 0x8, addend: 0x0, symName: _OUTLINED_FUNCTION_531, symObjAddr: 0x3D244, symBinAddr: 0x3F784, symSize: 0xC }
  - { offset: 0x4B732, size: 0x8, addend: 0x0, symName: _OUTLINED_FUNCTION_540, symObjAddr: 0x3D2BC, symBinAddr: 0x3F7FC, symSize: 0xC }
  - { offset: 0x4B749, size: 0x8, addend: 0x0, symName: _OUTLINED_FUNCTION_547, symObjAddr: 0x3D2FC, symBinAddr: 0x3F83C, symSize: 0x14 }
  - { offset: 0x4B760, size: 0x8, addend: 0x0, symName: _OUTLINED_FUNCTION_550, symObjAddr: 0x3D330, symBinAddr: 0x3F870, symSize: 0x8 }
  - { offset: 0x4B777, size: 0x8, addend: 0x0, symName: _OUTLINED_FUNCTION_554, symObjAddr: 0x3D354, symBinAddr: 0x3F894, symSize: 0x14 }
  - { offset: 0x4B78E, size: 0x8, addend: 0x0, symName: _OUTLINED_FUNCTION_555, symObjAddr: 0x3D368, symBinAddr: 0x3F8A8, symSize: 0xC }
  - { offset: 0x4B7A5, size: 0x8, addend: 0x0, symName: _OUTLINED_FUNCTION_560, symObjAddr: 0x3D398, symBinAddr: 0x3F8D8, symSize: 0xC }
  - { offset: 0x4B7BC, size: 0x8, addend: 0x0, symName: _OUTLINED_FUNCTION_635, symObjAddr: 0x3D7FC, symBinAddr: 0x3FD3C, symSize: 0xC }
  - { offset: 0x4B7D3, size: 0x8, addend: 0x0, symName: _OUTLINED_FUNCTION_650, symObjAddr: 0x3D8D4, symBinAddr: 0x3FE14, symSize: 0x8 }
  - { offset: 0x4B7EA, size: 0x8, addend: 0x0, symName: _OUTLINED_FUNCTION_651, symObjAddr: 0x3D8DC, symBinAddr: 0x3FE1C, symSize: 0x14 }
  - { offset: 0x4B801, size: 0x8, addend: 0x0, symName: _OUTLINED_FUNCTION_653, symObjAddr: 0x3D904, symBinAddr: 0x3FE44, symSize: 0x8 }
  - { offset: 0x4B818, size: 0x8, addend: 0x0, symName: _OUTLINED_FUNCTION_659, symObjAddr: 0x3D940, symBinAddr: 0x3FE80, symSize: 0x14 }
  - { offset: 0x4B82F, size: 0x8, addend: 0x0, symName: _OUTLINED_FUNCTION_667, symObjAddr: 0x3D998, symBinAddr: 0x3FED8, symSize: 0x8 }
  - { offset: 0x4B846, size: 0x8, addend: 0x0, symName: _OUTLINED_FUNCTION_688, symObjAddr: 0x3DAF8, symBinAddr: 0x40038, symSize: 0xC }
  - { offset: 0x4B85D, size: 0x8, addend: 0x0, symName: _OUTLINED_FUNCTION_703, symObjAddr: 0x3DBCC, symBinAddr: 0x4010C, symSize: 0x1C }
  - { offset: 0x4B874, size: 0x8, addend: 0x0, symName: _OUTLINED_FUNCTION_704, symObjAddr: 0x3DBE8, symBinAddr: 0x40128, symSize: 0x1C }
  - { offset: 0x4B88B, size: 0x8, addend: 0x0, symName: _OUTLINED_FUNCTION_705, symObjAddr: 0x3DC04, symBinAddr: 0x40144, symSize: 0x1C }
  - { offset: 0x4B8A2, size: 0x8, addend: 0x0, symName: _OUTLINED_FUNCTION_729, symObjAddr: 0x3DD58, symBinAddr: 0x40298, symSize: 0x8 }
  - { offset: 0x4B8B9, size: 0x8, addend: 0x0, symName: _OUTLINED_FUNCTION_733, symObjAddr: 0x3DD84, symBinAddr: 0x402C4, symSize: 0xC }
  - { offset: 0x4B8D0, size: 0x8, addend: 0x0, symName: _OUTLINED_FUNCTION_760, symObjAddr: 0x3DF04, symBinAddr: 0x40444, symSize: 0x10 }
  - { offset: 0x4B8E7, size: 0x8, addend: 0x0, symName: _OUTLINED_FUNCTION_762, symObjAddr: 0x3DF20, symBinAddr: 0x40460, symSize: 0x10 }
  - { offset: 0x4B8FE, size: 0x8, addend: 0x0, symName: _OUTLINED_FUNCTION_794, symObjAddr: 0x3E0A8, symBinAddr: 0x405E8, symSize: 0xC }
  - { offset: 0x4B915, size: 0x8, addend: 0x0, symName: _OUTLINED_FUNCTION_806, symObjAddr: 0x3E128, symBinAddr: 0x40668, symSize: 0x8 }
  - { offset: 0x4B92C, size: 0x8, addend: 0x0, symName: _OUTLINED_FUNCTION_818, symObjAddr: 0x3E1D4, symBinAddr: 0x40714, symSize: 0x10 }
  - { offset: 0x4B943, size: 0x8, addend: 0x0, symName: _OUTLINED_FUNCTION_822, symObjAddr: 0x3E1FC, symBinAddr: 0x4073C, symSize: 0x8 }
  - { offset: 0x4B95A, size: 0x8, addend: 0x0, symName: _OUTLINED_FUNCTION_841, symObjAddr: 0x3E30C, symBinAddr: 0x4084C, symSize: 0x10 }
  - { offset: 0x4B971, size: 0x8, addend: 0x0, symName: _OUTLINED_FUNCTION_855, symObjAddr: 0x3E3EC, symBinAddr: 0x4092C, symSize: 0x10 }
  - { offset: 0x4B988, size: 0x8, addend: 0x0, symName: _OUTLINED_FUNCTION_885, symObjAddr: 0x3E5DC, symBinAddr: 0x40B1C, symSize: 0x18 }
  - { offset: 0x4B99F, size: 0x8, addend: 0x0, symName: _OUTLINED_FUNCTION_886, symObjAddr: 0x3E5F4, symBinAddr: 0x40B34, symSize: 0x18 }
  - { offset: 0x4B9B6, size: 0x8, addend: 0x0, symName: _OUTLINED_FUNCTION_887, symObjAddr: 0x3E60C, symBinAddr: 0x40B4C, symSize: 0x18 }
  - { offset: 0x4B9CD, size: 0x8, addend: 0x0, symName: _OUTLINED_FUNCTION_890, symObjAddr: 0x3E63C, symBinAddr: 0x40B7C, symSize: 0x18 }
  - { offset: 0x4B9E4, size: 0x8, addend: 0x0, symName: _OUTLINED_FUNCTION_895, symObjAddr: 0x3E690, symBinAddr: 0x40BD0, symSize: 0xC }
  - { offset: 0x4B9FB, size: 0x8, addend: 0x0, symName: _OUTLINED_FUNCTION_920, symObjAddr: 0x3E7F8, symBinAddr: 0x40D38, symSize: 0xC }
  - { offset: 0x4BA12, size: 0x8, addend: 0x0, symName: _OUTLINED_FUNCTION_924, symObjAddr: 0x3E828, symBinAddr: 0x40D68, symSize: 0xC }
  - { offset: 0x4BA29, size: 0x8, addend: 0x0, symName: _OUTLINED_FUNCTION_966, symObjAddr: 0x3EA18, symBinAddr: 0x40F58, symSize: 0x8 }
  - { offset: 0x4BA40, size: 0x8, addend: 0x0, symName: _OUTLINED_FUNCTION_1004, symObjAddr: 0x3EB88, symBinAddr: 0x410C8, symSize: 0xC }
  - { offset: 0x4BA57, size: 0x8, addend: 0x0, symName: _OUTLINED_FUNCTION_1011, symObjAddr: 0x3EBD0, symBinAddr: 0x41110, symSize: 0x8 }
  - { offset: 0x4BA6E, size: 0x8, addend: 0x0, symName: _OUTLINED_FUNCTION_1015, symObjAddr: 0x3EBF8, symBinAddr: 0x41138, symSize: 0x8 }
  - { offset: 0x4BA85, size: 0x8, addend: 0x0, symName: _OUTLINED_FUNCTION_1019, symObjAddr: 0x3EC1C, symBinAddr: 0x4115C, symSize: 0xC }
  - { offset: 0x4BA9C, size: 0x8, addend: 0x0, symName: _OUTLINED_FUNCTION_1020, symObjAddr: 0x3EC28, symBinAddr: 0x41168, symSize: 0xC }
  - { offset: 0x4BAB3, size: 0x8, addend: 0x0, symName: _OUTLINED_FUNCTION_1029, symObjAddr: 0x3EC84, symBinAddr: 0x411C4, symSize: 0x8 }
  - { offset: 0x4BACA, size: 0x8, addend: 0x0, symName: _OUTLINED_FUNCTION_1030, symObjAddr: 0x3EC8C, symBinAddr: 0x411CC, symSize: 0x8 }
  - { offset: 0x4BAE1, size: 0x8, addend: 0x0, symName: _OUTLINED_FUNCTION_1032, symObjAddr: 0x3ECA0, symBinAddr: 0x411E0, symSize: 0xC }
  - { offset: 0x4BAF8, size: 0x8, addend: 0x0, symName: _OUTLINED_FUNCTION_1034, symObjAddr: 0x3ECB4, symBinAddr: 0x411F4, symSize: 0x8 }
  - { offset: 0x4BB0F, size: 0x8, addend: 0x0, symName: _OUTLINED_FUNCTION_1075, symObjAddr: 0x3EE40, symBinAddr: 0x41380, symSize: 0xC }
  - { offset: 0x4BB26, size: 0x8, addend: 0x0, symName: _OUTLINED_FUNCTION_1083, symObjAddr: 0x3EE88, symBinAddr: 0x413C8, symSize: 0xC }
  - { offset: 0x4BB3D, size: 0x8, addend: 0x0, symName: _OUTLINED_FUNCTION_1105, symObjAddr: 0x3EF6C, symBinAddr: 0x414AC, symSize: 0xC }
  - { offset: 0x4BB54, size: 0x8, addend: 0x0, symName: _OUTLINED_FUNCTION_1106, symObjAddr: 0x3EF78, symBinAddr: 0x414B8, symSize: 0xC }
  - { offset: 0x4BB6B, size: 0x8, addend: 0x0, symName: _OUTLINED_FUNCTION_1125, symObjAddr: 0x3F094, symBinAddr: 0x415D4, symSize: 0x14 }
  - { offset: 0x4BB82, size: 0x8, addend: 0x0, symName: _OUTLINED_FUNCTION_1130, symObjAddr: 0x3F0F0, symBinAddr: 0x41630, symSize: 0xC }
  - { offset: 0x4BB99, size: 0x8, addend: 0x0, symName: _OUTLINED_FUNCTION_1132, symObjAddr: 0x3F108, symBinAddr: 0x41648, symSize: 0x14 }
  - { offset: 0x4BBB0, size: 0x8, addend: 0x0, symName: _OUTLINED_FUNCTION_1136, symObjAddr: 0x3F150, symBinAddr: 0x41690, symSize: 0xC }
  - { offset: 0x4BBC7, size: 0x8, addend: 0x0, symName: _OUTLINED_FUNCTION_1139, symObjAddr: 0x3F184, symBinAddr: 0x416C4, symSize: 0xC }
  - { offset: 0x4BBDE, size: 0x8, addend: 0x0, symName: _OUTLINED_FUNCTION_1152, symObjAddr: 0x3F230, symBinAddr: 0x41770, symSize: 0x14 }
  - { offset: 0x4BBF5, size: 0x8, addend: 0x0, symName: _OUTLINED_FUNCTION_1162, symObjAddr: 0x3F2D0, symBinAddr: 0x41810, symSize: 0x14 }
  - { offset: 0x4BC0C, size: 0x8, addend: 0x0, symName: _OUTLINED_FUNCTION_1191, symObjAddr: 0x3F47C, symBinAddr: 0x419BC, symSize: 0xC }
  - { offset: 0x4BC23, size: 0x8, addend: 0x0, symName: _OUTLINED_FUNCTION_1202, symObjAddr: 0x3F508, symBinAddr: 0x41A48, symSize: 0xC }
  - { offset: 0x4BC3A, size: 0x8, addend: 0x0, symName: _OUTLINED_FUNCTION_1214, symObjAddr: 0x3F624, symBinAddr: 0x41B64, symSize: 0x1C }
  - { offset: 0xFBB4, size: 0x8, addend: 0x0, symName: __ZN4core3num7flt2dec8round_up17h5bc662164711d356E, symObjAddr: 0x20B4, symBinAddr: 0x6018, symSize: 0x88 }
  - { offset: 0xFD86, size: 0x8, addend: 0x0, symName: __ZN4core3num7flt2dec17digits_to_dec_str17h619a6faaeb4fb231E, symObjAddr: 0x213C, symBinAddr: 0x60A0, symSize: 0x110 }
  - { offset: 0x1066B, size: 0x8, addend: 0x0, symName: '__ZN4core5slice3cmp81_$LT$impl$u20$core..cmp..PartialEq$LT$$u5b$U$u5d$$GT$$u20$for$u20$$u5b$T$u5d$$GT$2eq17haaae3be08344ff7fE', symObjAddr: 0x224C, symBinAddr: 0x61B0, symSize: 0x34 }
  - { offset: 0x10694, size: 0x8, addend: 0x0, symName: '__ZN4core5slice3cmp81_$LT$impl$u20$core..cmp..PartialEq$LT$$u5b$U$u5d$$GT$$u20$for$u20$$u5b$T$u5d$$GT$2eq17haaae3be08344ff7fE', symObjAddr: 0x224C, symBinAddr: 0x61B0, symSize: 0x34 }
  - { offset: 0x10C2A, size: 0x8, addend: 0x0, symName: _OUTLINED_FUNCTION_744, symObjAddr: 0x3DE10, symBinAddr: 0x40350, symSize: 0x8 }
  - { offset: 0x10C41, size: 0x8, addend: 0x0, symName: _OUTLINED_FUNCTION_1085, symObjAddr: 0x3EE9C, symBinAddr: 0x413DC, symSize: 0x8 }
  - { offset: 0xD6BB, size: 0x8, addend: 0x0, symName: __ZN4core3str8converts9from_utf817h4d8c98ee159772feE, symObjAddr: 0x17C8, symBinAddr: 0x572C, symSize: 0x238 }
  - { offset: 0xDB94, size: 0x8, addend: 0x0, symName: '__ZN4core3fmt3num3imp51_$LT$impl$u20$core..fmt..Display$u20$for$u20$u8$GT$3fmt17h495f8121d2cd15d9E', symObjAddr: 0x1A00, symBinAddr: 0x5964, symSize: 0x10 }
  - { offset: 0xDBD7, size: 0x8, addend: 0x0, symName: '__ZN4core3fmt3num3imp20_$LT$impl$u20$u8$GT$4_fmt17h4a7153acb7f9765bE', symObjAddr: 0x1A10, symBinAddr: 0x5974, symSize: 0x88 }
  - { offset: 0xDD78, size: 0x8, addend: 0x0, symName: '__ZN4core3fmt3num3imp52_$LT$impl$u20$core..fmt..Display$u20$for$u20$u32$GT$3fmt17h51d1d674fee078f7E', symObjAddr: 0x1A98, symBinAddr: 0x59FC, symSize: 0x10 }
  - { offset: 0xDDBB, size: 0x8, addend: 0x0, symName: '__ZN4core3fmt3num3imp21_$LT$impl$u20$u32$GT$4_fmt17hbfa870b49625f118E', symObjAddr: 0x1AA8, symBinAddr: 0x5A0C, symSize: 0xF4 }
  - { offset: 0xE034, size: 0x8, addend: 0x0, symName: '__ZN4core3fmt3num3imp52_$LT$impl$u20$core..fmt..Display$u20$for$u20$i32$GT$3fmt17h56f6971efe831670E', symObjAddr: 0x1B9C, symBinAddr: 0x5B00, symSize: 0x1C }
  - { offset: 0xE0B0, size: 0x8, addend: 0x0, symName: '__ZN4core3fmt3num3imp52_$LT$impl$u20$core..fmt..Display$u20$for$u20$u64$GT$3fmt17h41aafce22eb5439bE', symObjAddr: 0x1BB8, symBinAddr: 0x5B1C, symSize: 0x10 }
  - { offset: 0xE0F3, size: 0x8, addend: 0x0, symName: '__ZN4core3fmt3num3imp21_$LT$impl$u20$u64$GT$4_fmt17h514acf27cb908314E', symObjAddr: 0x1BC8, symBinAddr: 0x5B2C, symSize: 0xFC }
  - { offset: 0xE309, size: 0x8, addend: 0x0, symName: '__ZN4core3fmt3num3imp52_$LT$impl$u20$core..fmt..Display$u20$for$u20$i64$GT$3fmt17h85341ce795de9b6eE', symObjAddr: 0x1CC4, symBinAddr: 0x5C28, symSize: 0x1C }
  - { offset: 0xE45F, size: 0x8, addend: 0x0, symName: '__ZN4core3fmt3num3imp54_$LT$impl$u20$core..fmt..Display$u20$for$u20$usize$GT$3fmt17he3c177edcd70974eE', symObjAddr: 0x1CE0, symBinAddr: 0x5C44, symSize: 0x10C }
  - { offset: 0xEA89, size: 0x8, addend: 0x0, symName: _OUTLINED_FUNCTION_199, symObjAddr: 0x3BF8C, symBinAddr: 0x3E4CC, symSize: 0x14 }
  - { offset: 0xEAA0, size: 0x8, addend: 0x0, symName: _OUTLINED_FUNCTION_533, symObjAddr: 0x3D264, symBinAddr: 0x3F7A4, symSize: 0x8 }
  - { offset: 0xEAB7, size: 0x8, addend: 0x0, symName: _OUTLINED_FUNCTION_988, symObjAddr: 0x3EAF0, symBinAddr: 0x41030, symSize: 0x14 }
  - { offset: 0xEACE, size: 0x8, addend: 0x0, symName: _OUTLINED_FUNCTION_1133, symObjAddr: 0x3F11C, symBinAddr: 0x4165C, symSize: 0x14 }
  - { offset: 0xEAE5, size: 0x8, addend: 0x0, symName: _OUTLINED_FUNCTION_1135, symObjAddr: 0x3F13C, symBinAddr: 0x4167C, symSize: 0x14 }
  - { offset: 0x16AFAA, size: 0x8, addend: 0x0, symName: '__ZN14powersync_core4sync14streaming_sync22StreamingSyncIteration3run28_$u7b$$u7b$closure$u7d$$u7d$17h809e6d17339d0cbcE', symObjAddr: 0x2D5B0, symBinAddr: 0x30128, symSize: 0x329C }
  - { offset: 0x1724A7, size: 0x8, addend: 0x0, symName: '__ZN105_$LT$powersync_core..sync..streaming_sync..RequestedStreamSubscriptions$u20$as$u20$core..clone..Clone$GT$5clone17h01a4d203e8a24fc6E', symObjAddr: 0x30C14, symBinAddr: 0x3378C, symSize: 0x28 }
  - { offset: 0x1724D5, size: 0x8, addend: 0x0, symName: '__ZN105_$LT$powersync_core..sync..streaming_sync..RequestedStreamSubscriptions$u20$as$u20$core..clone..Clone$GT$5clone17h01a4d203e8a24fc6E', symObjAddr: 0x30C14, symBinAddr: 0x3378C, symSize: 0x28 }
  - { offset: 0x1724EA, size: 0x8, addend: 0x0, symName: '__ZN105_$LT$powersync_core..sync..streaming_sync..RequestedStreamSubscriptions$u20$as$u20$core..clone..Clone$GT$5clone17h01a4d203e8a24fc6E', symObjAddr: 0x30C14, symBinAddr: 0x3378C, symSize: 0x28 }
  - { offset: 0x172506, size: 0x8, addend: 0x0, symName: '__ZN105_$LT$powersync_core..sync..streaming_sync..RequestedStreamSubscriptions$u20$as$u20$core..clone..Clone$GT$5clone17h01a4d203e8a24fc6E', symObjAddr: 0x30C14, symBinAddr: 0x3378C, symSize: 0x28 }
  - { offset: 0x172522, size: 0x8, addend: 0x0, symName: '__ZN105_$LT$powersync_core..sync..streaming_sync..RequestedStreamSubscriptions$u20$as$u20$core..clone..Clone$GT$5clone17h01a4d203e8a24fc6E', symObjAddr: 0x30C14, symBinAddr: 0x3378C, symSize: 0x28 }
  - { offset: 0x172728, size: 0x8, addend: 0x0, symName: '__ZN92_$LT$powersync_core..sync..streaming_sync..OwnedCheckpoint$u20$as$u20$core..clone..Clone$GT$5clone17h9419cb5a3965c8c1E', symObjAddr: 0x31EA0, symBinAddr: 0x34A18, symSize: 0x5C }
  - { offset: 0x1765E4, size: 0x8, addend: 0x0, symName: '__ZN67_$LT$alloc..rc..Rc$LT$T$C$A$GT$$u20$as$u20$core..cmp..PartialEq$GT$2ne17hc7b3e331cd9b1665E', symObjAddr: 0x309FC, symBinAddr: 0x33574, symSize: 0xF8 }
  - { offset: 0x17661E, size: 0x8, addend: 0x0, symName: '__ZN67_$LT$alloc..rc..Rc$LT$T$C$A$GT$$u20$as$u20$core..cmp..PartialEq$GT$2ne17hc7b3e331cd9b1665E', symObjAddr: 0x309FC, symBinAddr: 0x33574, symSize: 0xF8 }
  - { offset: 0x176633, size: 0x8, addend: 0x0, symName: '__ZN67_$LT$alloc..rc..Rc$LT$T$C$A$GT$$u20$as$u20$core..cmp..PartialEq$GT$2ne17hc7b3e331cd9b1665E', symObjAddr: 0x309FC, symBinAddr: 0x33574, symSize: 0xF8 }
  - { offset: 0x17665A, size: 0x8, addend: 0x0, symName: '__ZN67_$LT$alloc..rc..Rc$LT$T$C$A$GT$$u20$as$u20$core..cmp..PartialEq$GT$2ne17hc7b3e331cd9b1665E', symObjAddr: 0x309FC, symBinAddr: 0x33574, symSize: 0xF8 }
  - { offset: 0x177949, size: 0x8, addend: 0x0, symName: '__ZN4core3ptr115drop_in_place$LT$powersync_core..sync..streaming_sync..StreamingSyncIteration..run..$u7b$$u7b$closure$u7d$$u7d$$GT$17h356edb789f549314E', symObjAddr: 0x2D564, symBinAddr: 0x300DC, symSize: 0x4C }
  - { offset: 0x177A5C, size: 0x8, addend: 0x0, symName: '__ZN4core3ptr87drop_in_place$LT$powersync_core..sync..streaming_sync..RequestedStreamSubscriptions$GT$17he81685290609d015E', symObjAddr: 0x3084C, symBinAddr: 0x333C4, symSize: 0x4C }
  - { offset: 0x177D7C, size: 0x8, addend: 0x0, symName: '__ZN4core3ptr69drop_in_place$LT$powersync_core..sync..streaming_sync..SyncTarget$GT$17hecc124dbea1afce9E', symObjAddr: 0x308D8, symBinAddr: 0x33450, symSize: 0x40 }
  - { offset: 0x177ED9, size: 0x8, addend: 0x0, symName: '__ZN4core3ptr57drop_in_place$LT$powersync_core..sync..line..SyncLine$GT$17h1651b379873458c3E.2540', symObjAddr: 0x30918, symBinAddr: 0x33490, symSize: 0x78 }
  - { offset: 0x1780DB, size: 0x8, addend: 0x0, symName: '__ZN4core3ptr86drop_in_place$LT$core..option..Option$LT$powersync_core..error..PowerSyncError$GT$$GT$17h2d14bf5cabe1c7dbE', symObjAddr: 0x30990, symBinAddr: 0x33508, symSize: 0x6C }
  - { offset: 0x1782C7, size: 0x8, addend: 0x0, symName: '__ZN4core3ptr81drop_in_place$LT$powersync_core..sync..streaming_sync..StreamingSyncIteration$GT$17h36c0a03d651f0426E', symObjAddr: 0x30AF4, symBinAddr: 0x3366C, symSize: 0x68 }
  - { offset: 0x1785F3, size: 0x8, addend: 0x0, symName: '__ZN4core3ptr69drop_in_place$LT$powersync_core..sync..interface..StartSyncStream$GT$17ha4cc6f6241a426daE.2543', symObjAddr: 0x30B5C, symBinAddr: 0x336D4, symSize: 0x5C }
  - { offset: 0x178747, size: 0x8, addend: 0x0, symName: '__ZN4core3ptr102drop_in_place$LT$core..option..Option$LT$powersync_core..sync..streaming_sync..OwnedCheckpoint$GT$$GT$17h8defe09809a0a036E', symObjAddr: 0x30BB8, symBinAddr: 0x33730, symSize: 0x18 }
  - { offset: 0x178847, size: 0x8, addend: 0x0, symName: '__ZN4core3ptr102drop_in_place$LT$core..option..Option$LT$powersync_core..sync..checkpoint..OwnedBucketChecksum$GT$$GT$17h5cdb6f00a87b841fE', symObjAddr: 0x30BD0, symBinAddr: 0x33748, symSize: 0x44 }
  - { offset: 0x178B0E, size: 0x8, addend: 0x0, symName: '__ZN4core3ptr76drop_in_place$LT$powersync_core..sync..streaming_sync..TrackedCheckpoint$GT$17h48268f42d74c5141E', symObjAddr: 0x31EFC, symBinAddr: 0x34A74, symSize: 0x68 }
  - { offset: 0x178CDA, size: 0x8, addend: 0x0, symName: '__ZN4core3ptr76drop_in_place$LT$powersync_core..sync..storage_adapter..CheckpointResult$GT$17h215d04f8c480d710E', symObjAddr: 0x32EE4, symBinAddr: 0x35A5C, symSize: 0x20 }
  - { offset: 0x178D3E, size: 0x8, addend: 0x0, symName: '__ZN4core3ptr75drop_in_place$LT$powersync_core..sync..storage_adapter..SyncLocalResult$GT$17h6954ce1b97766c1aE', symObjAddr: 0x32FB0, symBinAddr: 0x35B28, symSize: 0x1C }
  - { offset: 0x178D8B, size: 0x8, addend: 0x0, symName: '__ZN4core3ptr70drop_in_place$LT$powersync_core..sync..streaming_sync..ActiveEvent$GT$17hbb5f14f089178279E', symObjAddr: 0x33154, symBinAddr: 0x35CCC, symSize: 0x2C }
  - { offset: 0x178DBC, size: 0x8, addend: 0x0, symName: '__ZN4core3ptr63drop_in_place$LT$powersync_core..sync..interface..SyncEvent$GT$17h9ff926cce1ee7f8cE', symObjAddr: 0x33180, symBinAddr: 0x35CF8, symSize: 0x14 }
  - { offset: 0x178E26, size: 0x8, addend: 0x0, symName: '__ZN4core3ptr78drop_in_place$LT$powersync_core..sync..streaming_sync..SyncIterationHandle$GT$17h4c28652c385c0293E', symObjAddr: 0x33194, symBinAddr: 0x35D0C, symSize: 0x3C }
  - { offset: 0x178F18, size: 0x8, addend: 0x0, symName: '__ZN4core3ptr70drop_in_place$LT$powersync_core..sync..streaming_sync..ClientState$GT$17h445b238b06ed7456E', symObjAddr: 0x331D0, symBinAddr: 0x35D48, symSize: 0xC }
  - { offset: 0x17CB11, size: 0x8, addend: 0x0, symName: __ZN4core3ops8function6FnOnce9call_once17hb26ba8d7d4a29c30E, symObjAddr: 0x331DC, symBinAddr: 0x35D54, symSize: 0x10 }
  - { offset: 0x17CB50, size: 0x8, addend: 0x0, symName: __ZN4core3ops8function6FnOnce9call_once17h14ee37592be3c4d2E, symObjAddr: 0x331EC, symBinAddr: 0x35D64, symSize: 0x4 }
  - { offset: 0x17DFD1, size: 0x8, addend: 0x0, symName: '__ZN44_$LT$$RF$T$u20$as$u20$core..fmt..Display$GT$3fmt17ha3a2acf868ef198fE', symObjAddr: 0x32FCC, symBinAddr: 0x35B44, symSize: 0x8 }
  - { offset: 0x17E018, size: 0x8, addend: 0x0, symName: '__ZN44_$LT$$RF$T$u20$as$u20$core..fmt..Display$GT$3fmt17hb5aaeab6a9a03b1aE', symObjAddr: 0x32FD4, symBinAddr: 0x35B4C, symSize: 0x24 }
  - { offset: 0x17FF38, size: 0x8, addend: 0x0, symName: '__ZN5alloc3vec16Vec$LT$T$C$A$GT$4push17hd34e2f636304ca21E', symObjAddr: 0x30898, symBinAddr: 0x33410, symSize: 0x40 }
  - { offset: 0x1803A4, size: 0x8, addend: 0x0, symName: __ZN14powersync_core4sync14streaming_sync22StreamingSyncIteration13load_progress17h62c29d37f61c5aa6E, symObjAddr: 0x30C3C, symBinAddr: 0x337B4, symSize: 0x7F0 }
  - { offset: 0x182F63, size: 0x8, addend: 0x0, symName: __ZN14powersync_core4sync14streaming_sync22StreamingSyncIteration26resolve_subscription_state17h8d94185b0d478c33E, symObjAddr: 0x3142C, symBinAddr: 0x33FA4, symSize: 0xA74 }
  - { offset: 0x1854A8, size: 0x8, addend: 0x0, symName: __ZN14powersync_core4sync14streaming_sync22StreamingSyncIteration10sync_local17ha81f56fe5b20dc2eE, symObjAddr: 0x31F64, symBinAddr: 0x34ADC, symSize: 0xF80 }
  - { offset: 0x186F7D, size: 0x8, addend: 0x0, symName: __ZN14powersync_core4sync14streaming_sync22StreamingSyncIteration25handle_checkpoint_applied17h300fa6c523c24115E, symObjAddr: 0x32F04, symBinAddr: 0x35A7C, symSize: 0xAC }
  - { offset: 0x18721F, size: 0x8, addend: 0x0, symName: __ZN14powersync_core4sync14streaming_sync11ClientState9tear_down17h4e3cb438abefbeaaE, symObjAddr: 0x32FF8, symBinAddr: 0x35B70, symSize: 0xB4 }
  - { offset: 0x187335, size: 0x8, addend: 0x0, symName: __ZN14powersync_core4sync14streaming_sync19SyncIterationHandle3run17hf10f1507c9cb94faE, symObjAddr: 0x330AC, symBinAddr: 0x35C24, symSize: 0xA8 }
  - { offset: 0x18753A, size: 0x8, addend: 0x0, symName: _OUTLINED_FUNCTION_28, symObjAddr: 0x3B25C, symBinAddr: 0x3D79C, symSize: 0x10 }
  - { offset: 0x187551, size: 0x8, addend: 0x0, symName: _OUTLINED_FUNCTION_51, symObjAddr: 0x3B43C, symBinAddr: 0x3D97C, symSize: 0x14 }
  - { offset: 0x187568, size: 0x8, addend: 0x0, symName: _OUTLINED_FUNCTION_138, symObjAddr: 0x3BB64, symBinAddr: 0x3E0A4, symSize: 0x18 }
  - { offset: 0x18757F, size: 0x8, addend: 0x0, symName: _OUTLINED_FUNCTION_144, symObjAddr: 0x3BBE8, symBinAddr: 0x3E128, symSize: 0x10 }
  - { offset: 0x187596, size: 0x8, addend: 0x0, symName: _OUTLINED_FUNCTION_146, symObjAddr: 0x3BC08, symBinAddr: 0x3E148, symSize: 0xC }
  - { offset: 0x1875AD, size: 0x8, addend: 0x0, symName: _OUTLINED_FUNCTION_196, symObjAddr: 0x3BF50, symBinAddr: 0x3E490, symSize: 0x14 }
  - { offset: 0x1875C4, size: 0x8, addend: 0x0, symName: _OUTLINED_FUNCTION_201, symObjAddr: 0x3BFAC, symBinAddr: 0x3E4EC, symSize: 0xC }
  - { offset: 0x1875DB, size: 0x8, addend: 0x0, symName: _OUTLINED_FUNCTION_276, symObjAddr: 0x3C3F8, symBinAddr: 0x3E938, symSize: 0x14 }
  - { offset: 0x1875F2, size: 0x8, addend: 0x0, symName: _OUTLINED_FUNCTION_415, symObjAddr: 0x3CBA0, symBinAddr: 0x3F0E0, symSize: 0xC }
  - { offset: 0x187609, size: 0x8, addend: 0x0, symName: _OUTLINED_FUNCTION_501, symObjAddr: 0x3D058, symBinAddr: 0x3F598, symSize: 0x18 }
  - { offset: 0x187620, size: 0x8, addend: 0x0, symName: _OUTLINED_FUNCTION_529, symObjAddr: 0x3D224, symBinAddr: 0x3F764, symSize: 0xC }
  - { offset: 0x187637, size: 0x8, addend: 0x0, symName: _OUTLINED_FUNCTION_553, symObjAddr: 0x3D348, symBinAddr: 0x3F888, symSize: 0xC }
  - { offset: 0x18764E, size: 0x8, addend: 0x0, symName: _OUTLINED_FUNCTION_756, symObjAddr: 0x3DEB4, symBinAddr: 0x403F4, symSize: 0x1C }
  - { offset: 0x187665, size: 0x8, addend: 0x0, symName: _OUTLINED_FUNCTION_775, symObjAddr: 0x3DFC4, symBinAddr: 0x40504, symSize: 0x1C }
  - { offset: 0x18767C, size: 0x8, addend: 0x0, symName: _OUTLINED_FUNCTION_777, symObjAddr: 0x3DFF0, symBinAddr: 0x40530, symSize: 0x8 }
  - { offset: 0x187693, size: 0x8, addend: 0x0, symName: _OUTLINED_FUNCTION_779, symObjAddr: 0x3E004, symBinAddr: 0x40544, symSize: 0xC }
  - { offset: 0x1876AA, size: 0x8, addend: 0x0, symName: _OUTLINED_FUNCTION_833, symObjAddr: 0x3E28C, symBinAddr: 0x407CC, symSize: 0x10 }
  - { offset: 0x1876C1, size: 0x8, addend: 0x0, symName: _OUTLINED_FUNCTION_851, symObjAddr: 0x3E3AC, symBinAddr: 0x408EC, symSize: 0x10 }
  - { offset: 0x1876D8, size: 0x8, addend: 0x0, symName: _OUTLINED_FUNCTION_852, symObjAddr: 0x3E3BC, symBinAddr: 0x408FC, symSize: 0x10 }
  - { offset: 0x1876EF, size: 0x8, addend: 0x0, symName: _OUTLINED_FUNCTION_874, symObjAddr: 0x3E540, symBinAddr: 0x40A80, symSize: 0xC }
  - { offset: 0x187706, size: 0x8, addend: 0x0, symName: _OUTLINED_FUNCTION_880, symObjAddr: 0x3E594, symBinAddr: 0x40AD4, symSize: 0x18 }
  - { offset: 0x18771D, size: 0x8, addend: 0x0, symName: _OUTLINED_FUNCTION_881, symObjAddr: 0x3E5AC, symBinAddr: 0x40AEC, symSize: 0xC }
  - { offset: 0x187734, size: 0x8, addend: 0x0, symName: _OUTLINED_FUNCTION_882, symObjAddr: 0x3E5B8, symBinAddr: 0x40AF8, symSize: 0xC }
  - { offset: 0x18774B, size: 0x8, addend: 0x0, symName: _OUTLINED_FUNCTION_889, symObjAddr: 0x3E630, symBinAddr: 0x40B70, symSize: 0xC }
  - { offset: 0x187762, size: 0x8, addend: 0x0, symName: _OUTLINED_FUNCTION_896, symObjAddr: 0x3E69C, symBinAddr: 0x40BDC, symSize: 0xC }
  - { offset: 0x187779, size: 0x8, addend: 0x0, symName: _OUTLINED_FUNCTION_934, symObjAddr: 0x3E8A8, symBinAddr: 0x40DE8, symSize: 0x8 }
  - { offset: 0x187790, size: 0x8, addend: 0x0, symName: _OUTLINED_FUNCTION_935, symObjAddr: 0x3E8B0, symBinAddr: 0x40DF0, symSize: 0xC }
  - { offset: 0x1877A7, size: 0x8, addend: 0x0, symName: _OUTLINED_FUNCTION_938, symObjAddr: 0x3E8D0, symBinAddr: 0x40E10, symSize: 0x8 }
  - { offset: 0x1877BE, size: 0x8, addend: 0x0, symName: _OUTLINED_FUNCTION_954, symObjAddr: 0x3E994, symBinAddr: 0x40ED4, symSize: 0x8 }
  - { offset: 0x1877D5, size: 0x8, addend: 0x0, symName: _OUTLINED_FUNCTION_956, symObjAddr: 0x3E9A8, symBinAddr: 0x40EE8, symSize: 0xC }
  - { offset: 0x1877EC, size: 0x8, addend: 0x0, symName: _OUTLINED_FUNCTION_957, symObjAddr: 0x3E9B4, symBinAddr: 0x40EF4, symSize: 0xC }
  - { offset: 0x187803, size: 0x8, addend: 0x0, symName: _OUTLINED_FUNCTION_1006, symObjAddr: 0x3EB9C, symBinAddr: 0x410DC, symSize: 0xC }
  - { offset: 0x18781A, size: 0x8, addend: 0x0, symName: _OUTLINED_FUNCTION_1013, symObjAddr: 0x3EBE0, symBinAddr: 0x41120, symSize: 0xC }
  - { offset: 0x187831, size: 0x8, addend: 0x0, symName: _OUTLINED_FUNCTION_1016, symObjAddr: 0x3EC00, symBinAddr: 0x41140, symSize: 0x8 }
  - { offset: 0x187848, size: 0x8, addend: 0x0, symName: _OUTLINED_FUNCTION_1017, symObjAddr: 0x3EC08, symBinAddr: 0x41148, symSize: 0xC }
  - { offset: 0x18785F, size: 0x8, addend: 0x0, symName: _OUTLINED_FUNCTION_1028, symObjAddr: 0x3EC7C, symBinAddr: 0x411BC, symSize: 0x8 }
  - { offset: 0x187876, size: 0x8, addend: 0x0, symName: _OUTLINED_FUNCTION_1114, symObjAddr: 0x3EFF0, symBinAddr: 0x41530, symSize: 0x14 }
  - { offset: 0x18788D, size: 0x8, addend: 0x0, symName: _OUTLINED_FUNCTION_1119, symObjAddr: 0x3F044, symBinAddr: 0x41584, symSize: 0x14 }
  - { offset: 0x1878A4, size: 0x8, addend: 0x0, symName: _OUTLINED_FUNCTION_1126, symObjAddr: 0x3F0A8, symBinAddr: 0x415E8, symSize: 0x14 }
  - { offset: 0x1878BB, size: 0x8, addend: 0x0, symName: _OUTLINED_FUNCTION_1134, symObjAddr: 0x3F130, symBinAddr: 0x41670, symSize: 0xC }
  - { offset: 0x1878D2, size: 0x8, addend: 0x0, symName: _OUTLINED_FUNCTION_1157, symObjAddr: 0x3F274, symBinAddr: 0x417B4, symSize: 0x14 }
  - { offset: 0x1878E9, size: 0x8, addend: 0x0, symName: _OUTLINED_FUNCTION_1158, symObjAddr: 0x3F288, symBinAddr: 0x417C8, symSize: 0x14 }
  - { offset: 0x187900, size: 0x8, addend: 0x0, symName: _OUTLINED_FUNCTION_1165, symObjAddr: 0x3F304, symBinAddr: 0x41844, symSize: 0xC }
  - { offset: 0x187917, size: 0x8, addend: 0x0, symName: _OUTLINED_FUNCTION_1166, symObjAddr: 0x3F310, symBinAddr: 0x41850, symSize: 0xC }
  - { offset: 0x18792E, size: 0x8, addend: 0x0, symName: _OUTLINED_FUNCTION_1174, symObjAddr: 0x3F388, symBinAddr: 0x418C8, symSize: 0xC }
  - { offset: 0x152109, size: 0x8, addend: 0x0, symName: __ZN14powersync_core9crud_vtab6MODULE17h2b4ea6c73ab7fdc4E, symObjAddr: 0x4E1F0, symBinAddr: 0x55AF0, symSize: 0x0 }
  - { offset: 0x15233E, size: 0x8, addend: 0x0, symName: __ZN14powersync_core9crud_vtab7connect17he9d60bfbcdc6aec3E, symObjAddr: 0x2C134, symBinAddr: 0x2ECAC, symSize: 0xF4 }
  - { offset: 0x1529FE, size: 0x8, addend: 0x0, symName: __ZN14powersync_core9crud_vtab6update17h8d92529c8f53d97dE, symObjAddr: 0x2C228, symBinAddr: 0x2EDA0, symSize: 0x554 }
  - { offset: 0x15339F, size: 0x8, addend: 0x0, symName: __ZN14powersync_core9crud_vtab5begin17hef826c948002d751E, symObjAddr: 0x2C77C, symBinAddr: 0x2F2F4, symSize: 0xC4 }
  - { offset: 0x1534E6, size: 0x8, addend: 0x0, symName: __ZN14powersync_core9crud_vtab6commit17h8b323fbbd6269482E, symObjAddr: 0x2C840, symBinAddr: 0x2F3B8, symSize: 0x18 }
  - { offset: 0x153EB8, size: 0x8, addend: 0x0, symName: __ZN14powersync_core5state8register4func17hc4779583089a896bE, symObjAddr: 0x2C054, symBinAddr: 0x2EBCC, symSize: 0x54 }
  - { offset: 0x1544F9, size: 0x8, addend: 0x0, symName: '__ZN124_$LT$core..result..Result$LT$T$C$sqlite_nostd..nostd..ResultCode$GT$$u20$as$u20$powersync_core..error..PSResult$LT$T$GT$$GT$14into_db_result17h1fb9bfc5f7881010E', symObjAddr: 0x2AF24, symBinAddr: 0x2DA9C, symSize: 0x4C }
  - { offset: 0x15458E, size: 0x8, addend: 0x0, symName: '__ZN124_$LT$core..result..Result$LT$T$C$sqlite_nostd..nostd..ResultCode$GT$$u20$as$u20$powersync_core..error..PSResult$LT$T$GT$$GT$14into_db_result17h999a5c9135ca85e1E', symObjAddr: 0x2AF70, symBinAddr: 0x2DAE8, symSize: 0x54 }
  - { offset: 0x154627, size: 0x8, addend: 0x0, symName: '__ZN124_$LT$core..result..Result$LT$T$C$sqlite_nostd..nostd..ResultCode$GT$$u20$as$u20$powersync_core..error..PSResult$LT$T$GT$$GT$14into_db_result17hbdfebefacaeda4f1E', symObjAddr: 0x2AFC4, symBinAddr: 0x2DB3C, symSize: 0x54 }
  - { offset: 0x1546D8, size: 0x8, addend: 0x0, symName: '__ZN89_$LT$sqlite_nostd..nostd..ManagedStmt$u20$as$u20$powersync_core..ext..SafeManagedStmt$GT$4exec17h8a40c44a4b77dc2aE', symObjAddr: 0x2B018, symBinAddr: 0x2DB90, symSize: 0x50 }
  - { offset: 0x154A17, size: 0x8, addend: 0x0, symName: __ZN14powersync_core9json_util20powersync_json_merge17h5073c1771a05b6c8E, symObjAddr: 0x2B858, symBinAddr: 0x2E3D0, symSize: 0x198 }
  - { offset: 0x154F5B, size: 0x8, addend: 0x0, symName: __ZN14powersync_core9json_util23powersync_strip_subtype17hf19a5afb874f9b6cE, symObjAddr: 0x2B9F0, symBinAddr: 0x2E568, symSize: 0x50 }
  - { offset: 0x1551BA, size: 0x8, addend: 0x0, symName: __ZN14powersync_core10view_admin19powersync_drop_view17he8e57e1eaeb18fd3E, symObjAddr: 0x2BA40, symBinAddr: 0x2E5B8, symSize: 0x148 }
  - { offset: 0x155630, size: 0x8, addend: 0x0, symName: __ZN14powersync_core10view_admin14powersync_exec17h64ba74dd0c62d4c2E, symObjAddr: 0x2BB88, symBinAddr: 0x2E700, symSize: 0x88 }
  - { offset: 0x15584F, size: 0x8, addend: 0x0, symName: __ZN14powersync_core10view_admin14powersync_init17h868c8ada70cabcdcE, symObjAddr: 0x2BC10, symBinAddr: 0x2E788, symSize: 0xBC }
  - { offset: 0x155A01, size: 0x8, addend: 0x0, symName: __ZN14powersync_core10view_admin24powersync_test_migration17h52e893d773053d52E, symObjAddr: 0x2BCCC, symBinAddr: 0x2E844, symSize: 0xBC }
  - { offset: 0x155BC4, size: 0x8, addend: 0x0, symName: __ZN14powersync_core10view_admin15powersync_clear17h532176ae49102b4bE, symObjAddr: 0x2BD88, symBinAddr: 0x2E900, symSize: 0xC0 }
  - { offset: 0x155D25, size: 0x8, addend: 0x0, symName: __ZN14powersync_core10view_admin29powersync_external_table_name17h7105798b6a87be40E, symObjAddr: 0x2BE48, symBinAddr: 0x2E9C0, symSize: 0xBC }
  - { offset: 0x156028, size: 0x8, addend: 0x0, symName: __ZN14powersync_core10view_admin29powersync_internal_table_name17hf4d8222440998a3eE, symObjAddr: 0x2BF04, symBinAddr: 0x2EA7C, symSize: 0x150 }
  - { offset: 0x156266, size: 0x8, addend: 0x0, symName: __ZN14powersync_core10view_admin20powersync_clear_impl17ha25b4c3092d1fe15E, symObjAddr: 0x2D1D0, symBinAddr: 0x2FD48, symSize: 0x264 }
  - { offset: 0x156884, size: 0x8, addend: 0x0, symName: __ZN14powersync_core10view_admin29powersync_test_migration_impl17h0ad2f419d0326c1bE, symObjAddr: 0x2D44C, symBinAddr: 0x2FFC4, symSize: 0x50 }
  - { offset: 0x1569A9, size: 0x8, addend: 0x0, symName: __ZN14powersync_core10view_admin19powersync_init_impl17ha1735646a4797b09E, symObjAddr: 0x2D49C, symBinAddr: 0x30014, symSize: 0x8C }
  - { offset: 0x156AAC, size: 0x8, addend: 0x0, symName: _sqlite3_powersync_init, symObjAddr: 0x2B090, symBinAddr: 0x2DC08, symSize: 0x7A4 }
  - { offset: 0x15F670, size: 0x8, addend: 0x0, symName: '__ZN4core3ptr105drop_in_place$LT$core..result..Result$LT$alloc..ffi..c_str..CString$C$alloc..ffi..c_str..NulError$GT$$GT$17hc78ddfcdb69b762eE.2513', symObjAddr: 0x2C0A8, symBinAddr: 0x2EC20, symSize: 0x28 }
  - { offset: 0x15F77D, size: 0x8, addend: 0x0, symName: '__ZN4core3ptr58drop_in_place$LT$powersync_core..error..PowerSyncError$GT$17h0c937a6ac1f831aaE.2514', symObjAddr: 0x2C0D0, symBinAddr: 0x2EC48, symSize: 0x64 }
  - { offset: 0x15F944, size: 0x8, addend: 0x0, symName: '__ZN4core3ptr97drop_in_place$LT$core..option..Option$LT$powersync_core..crud_vtab..ActiveCrudTransaction$GT$$GT$17hec9d7c55378a5d91E', symObjAddr: 0x2C880, symBinAddr: 0x2F3F8, symSize: 0x50 }
  - { offset: 0x15F9DD, size: 0x8, addend: 0x0, symName: '__ZN4core3ptr81drop_in_place$LT$core..option..Option$LT$sqlite_nostd..nostd..ManagedStmt$GT$$GT$17h7622934ee5a2c59fE', symObjAddr: 0x2C8D0, symBinAddr: 0x2F448, symSize: 0x10 }
  - { offset: 0x15FAAB, size: 0x8, addend: 0x0, symName: '__ZN4core3ptr110drop_in_place$LT$core..result..Result$LT$alloc..string..String$C$powersync_core..error..PowerSyncError$GT$$GT$17h4799611dc9c604ccE', symObjAddr: 0x2D434, symBinAddr: 0x2FFAC, symSize: 0x18 }
  - { offset: 0x161F1B, size: 0x8, addend: 0x0, symName: '__ZN4core3str6traits66_$LT$impl$u20$core..ops..index..Index$LT$I$GT$$u20$for$u20$str$GT$5index17h233d1e4862e309a5E', symObjAddr: 0x2D1A8, symBinAddr: 0x2FD20, symSize: 0x28 }
  - { offset: 0x161F59, size: 0x8, addend: 0x0, symName: '__ZN4core3str6traits66_$LT$impl$u20$core..ops..index..Index$LT$I$GT$$u20$for$u20$str$GT$5index17h233d1e4862e309a5E', symObjAddr: 0x2D1A8, symBinAddr: 0x2FD20, symSize: 0x28 }
  - { offset: 0x161F79, size: 0x8, addend: 0x0, symName: '__ZN4core3str6traits66_$LT$impl$u20$core..ops..index..Index$LT$I$GT$$u20$for$u20$str$GT$5index17h233d1e4862e309a5E', symObjAddr: 0x2D1A8, symBinAddr: 0x2FD20, symSize: 0x28 }
  - { offset: 0x161F98, size: 0x8, addend: 0x0, symName: '__ZN4core3str6traits66_$LT$impl$u20$core..ops..index..Index$LT$I$GT$$u20$for$u20$str$GT$5index17h233d1e4862e309a5E', symObjAddr: 0x2D1A8, symBinAddr: 0x2FD20, symSize: 0x28 }
  - { offset: 0x161FBF, size: 0x8, addend: 0x0, symName: '__ZN4core3str6traits66_$LT$impl$u20$core..ops..index..Index$LT$I$GT$$u20$for$u20$str$GT$5index17h233d1e4862e309a5E', symObjAddr: 0x2D1A8, symBinAddr: 0x2FD20, symSize: 0x28 }
  - { offset: 0x1629A6, size: 0x8, addend: 0x0, symName: '__ZN86_$LT$serde_json..ser..Compound$LT$W$C$F$GT$$u20$as$u20$serde..ser..SerializeStruct$GT$15serialize_field17hf76fa565e3537251E', symObjAddr: 0x2D038, symBinAddr: 0x2FBB0, symSize: 0x78 }
  - { offset: 0x162B0F, size: 0x8, addend: 0x0, symName: '__ZN86_$LT$serde_json..ser..Compound$LT$W$C$F$GT$$u20$as$u20$serde..ser..SerializeStruct$GT$15serialize_field17h697896c4a4d41d6eE', symObjAddr: 0x2D0B0, symBinAddr: 0x2FC28, symSize: 0xAC }
  - { offset: 0x1632A8, size: 0x8, addend: 0x0, symName: '__ZN96_$LT$$BP$mut$u20$sqlite3_capi..bindings..sqlite3_value$u20$as$u20$sqlite_nostd..nostd..Value$GT$3int17h906572c0c09ca156E', symObjAddr: 0x2CF64, symBinAddr: 0x2FADC, symSize: 0x20 }
  - { offset: 0x1632D6, size: 0x8, addend: 0x0, symName: '__ZN96_$LT$$BP$mut$u20$sqlite3_capi..bindings..sqlite3_value$u20$as$u20$sqlite_nostd..nostd..Value$GT$3int17h906572c0c09ca156E', symObjAddr: 0x2CF64, symBinAddr: 0x2FADC, symSize: 0x20 }
  - { offset: 0x1633C0, size: 0x8, addend: 0x0, symName: '__ZN95_$LT$$BP$mut$u20$sqlite3_capi..bindings..sqlite3$u20$as$u20$sqlite_nostd..nostd..Connection$GT$10prepare_v217h7ab4544c84af73cdE.2527', symObjAddr: 0x2C8E0, symBinAddr: 0x2F458, symSize: 0x48 }
  - { offset: 0x16345A, size: 0x8, addend: 0x0, symName: '__ZN95_$LT$$BP$mut$u20$sqlite3_capi..bindings..sqlite3$u20$as$u20$sqlite_nostd..nostd..Connection$GT$10prepare_v317ha0f4b9b893f75357E', symObjAddr: 0x2CEEC, symBinAddr: 0x2FA64, symSize: 0x78 }
  - { offset: 0x163559, size: 0x8, addend: 0x0, symName: '__ZN95_$LT$$BP$mut$u20$sqlite3_capi..bindings..sqlite3$u20$as$u20$sqlite_nostd..nostd..Connection$GT$9exec_safe17h3f8926a20cc1984dE.2533', symObjAddr: 0x2CFD4, symBinAddr: 0x2FB4C, symSize: 0x64 }
  - { offset: 0x16365A, size: 0x8, addend: 0x0, symName: '__ZN77_$LT$alloc..raw_vec..RawVec$LT$T$C$A$GT$$u20$as$u20$core..ops..drop..Drop$GT$4drop17h059f42e50b699ef1E', symObjAddr: 0x2AEAC, symBinAddr: 0x2DA24, symSize: 0xC }
  - { offset: 0x163693, size: 0x8, addend: 0x0, symName: '__ZN77_$LT$alloc..raw_vec..RawVec$LT$T$C$A$GT$$u20$as$u20$core..ops..drop..Drop$GT$4drop17h0f70fda18277a749E', symObjAddr: 0x2AEB8, symBinAddr: 0x2DA30, symSize: 0xC }
  - { offset: 0x1636CC, size: 0x8, addend: 0x0, symName: '__ZN77_$LT$alloc..raw_vec..RawVec$LT$T$C$A$GT$$u20$as$u20$core..ops..drop..Drop$GT$4drop17h1490fd0235a1ec27E', symObjAddr: 0x2AEC4, symBinAddr: 0x2DA3C, symSize: 0xC }
  - { offset: 0x163705, size: 0x8, addend: 0x0, symName: '__ZN77_$LT$alloc..raw_vec..RawVec$LT$T$C$A$GT$$u20$as$u20$core..ops..drop..Drop$GT$4drop17h3e570662bbd7e571E', symObjAddr: 0x2AED0, symBinAddr: 0x2DA48, symSize: 0xC }
  - { offset: 0x16373E, size: 0x8, addend: 0x0, symName: '__ZN77_$LT$alloc..raw_vec..RawVec$LT$T$C$A$GT$$u20$as$u20$core..ops..drop..Drop$GT$4drop17h3f7881e163f7fdfeE', symObjAddr: 0x2AEDC, symBinAddr: 0x2DA54, symSize: 0xC }
  - { offset: 0x163777, size: 0x8, addend: 0x0, symName: '__ZN77_$LT$alloc..raw_vec..RawVec$LT$T$C$A$GT$$u20$as$u20$core..ops..drop..Drop$GT$4drop17h5e0031ed6ba08eb6E', symObjAddr: 0x2AEE8, symBinAddr: 0x2DA60, symSize: 0xC }
  - { offset: 0x1637B0, size: 0x8, addend: 0x0, symName: '__ZN77_$LT$alloc..raw_vec..RawVec$LT$T$C$A$GT$$u20$as$u20$core..ops..drop..Drop$GT$4drop17h5e2a45e59d7da5edE', symObjAddr: 0x2AEF4, symBinAddr: 0x2DA6C, symSize: 0xC }
  - { offset: 0x1637E9, size: 0x8, addend: 0x0, symName: '__ZN77_$LT$alloc..raw_vec..RawVec$LT$T$C$A$GT$$u20$as$u20$core..ops..drop..Drop$GT$4drop17h63d399eb13fa5df1E', symObjAddr: 0x2AF00, symBinAddr: 0x2DA78, symSize: 0xC }
  - { offset: 0x163822, size: 0x8, addend: 0x0, symName: '__ZN77_$LT$alloc..raw_vec..RawVec$LT$T$C$A$GT$$u20$as$u20$core..ops..drop..Drop$GT$4drop17h6a3858cdda5d4248E', symObjAddr: 0x2AF0C, symBinAddr: 0x2DA84, symSize: 0xC }
  - { offset: 0x16385B, size: 0x8, addend: 0x0, symName: '__ZN77_$LT$alloc..raw_vec..RawVec$LT$T$C$A$GT$$u20$as$u20$core..ops..drop..Drop$GT$4drop17h6dea97e564332e7dE', symObjAddr: 0x2AF18, symBinAddr: 0x2DA90, symSize: 0xC }
  - { offset: 0x164A9B, size: 0x8, addend: 0x0, symName: __ZN5alloc5alloc15exchange_malloc17h11a46edc1fb0c42cE.2511, symObjAddr: 0x2B834, symBinAddr: 0x2E3AC, symSize: 0x24 }
  - { offset: 0x164EC6, size: 0x8, addend: 0x0, symName: '__ZN104_$LT$alloc..collections..btree..set..Iter$LT$T$GT$$u20$as$u20$core..iter..traits..iterator..Iterator$GT$4next17h37ad0ad4636714cbE', symObjAddr: 0x2AB4C, symBinAddr: 0x2D6C4, symSize: 0x4 }
  - { offset: 0x164EF6, size: 0x8, addend: 0x0, symName: '__ZN104_$LT$alloc..collections..btree..set..Iter$LT$T$GT$$u20$as$u20$core..iter..traits..iterator..Iterator$GT$4next17h37ad0ad4636714cbE', symObjAddr: 0x2AB4C, symBinAddr: 0x2D6C4, symSize: 0x4 }
  - { offset: 0x165F98, size: 0x8, addend: 0x0, symName: '__ZN5alloc5slice29_$LT$impl$u20$$u5b$T$u5d$$GT$4sort17h886e94d766a15e47E', symObjAddr: 0x2AB50, symBinAddr: 0x2D6C8, symSize: 0x6C }
  - { offset: 0x1672E6, size: 0x8, addend: 0x0, symName: '__ZN5alloc11collections5btree3set21BTreeSet$LT$T$C$A$GT$16from_sorted_iter17h13744c95c89cf6b0E', symObjAddr: 0x2ABBC, symBinAddr: 0x2D734, symSize: 0x260 }
  - { offset: 0x167BB5, size: 0x8, addend: 0x0, symName: '__ZN5alloc7raw_vec19RawVec$LT$T$C$A$GT$8grow_one17h2a80634930672a81E', symObjAddr: 0x2AE1C, symBinAddr: 0x2D994, symSize: 0x8 }
  - { offset: 0x167BF6, size: 0x8, addend: 0x0, symName: '__ZN5alloc7raw_vec20RawVecInner$LT$A$GT$8grow_one17h2598622199bd631bE', symObjAddr: 0x2AE24, symBinAddr: 0x2D99C, symSize: 0x30 }
  - { offset: 0x167C57, size: 0x8, addend: 0x0, symName: '__ZN5alloc7raw_vec19RawVec$LT$T$C$A$GT$8grow_one17h312dfe99c4d862a5E', symObjAddr: 0x2AE54, symBinAddr: 0x2D9CC, symSize: 0x8 }
  - { offset: 0x167CD0, size: 0x8, addend: 0x0, symName: '__ZN5alloc7raw_vec19RawVec$LT$T$C$A$GT$8grow_one17h39243759970ca51eE', symObjAddr: 0x2AE5C, symBinAddr: 0x2D9D4, symSize: 0x8 }
  - { offset: 0x167D11, size: 0x8, addend: 0x0, symName: '__ZN5alloc7raw_vec19RawVec$LT$T$C$A$GT$8grow_one17h463e35fa14a863e4E', symObjAddr: 0x2AE64, symBinAddr: 0x2D9DC, symSize: 0x8 }
  - { offset: 0x167D70, size: 0x8, addend: 0x0, symName: '__ZN5alloc7raw_vec19RawVec$LT$T$C$A$GT$8grow_one17h51e38c508dfcbef0E', symObjAddr: 0x2AE6C, symBinAddr: 0x2D9E4, symSize: 0x8 }
  - { offset: 0x167DB1, size: 0x8, addend: 0x0, symName: '__ZN5alloc7raw_vec19RawVec$LT$T$C$A$GT$8grow_one17h5ebe962949e20c9bE', symObjAddr: 0x2AE74, symBinAddr: 0x2D9EC, symSize: 0x8 }
  - { offset: 0x167DF2, size: 0x8, addend: 0x0, symName: '__ZN5alloc7raw_vec19RawVec$LT$T$C$A$GT$8grow_one17h5f03adb0c4ce723cE', symObjAddr: 0x2AE7C, symBinAddr: 0x2D9F4, symSize: 0x8 }
  - { offset: 0x167E33, size: 0x8, addend: 0x0, symName: '__ZN5alloc7raw_vec19RawVec$LT$T$C$A$GT$8grow_one17h759f6180931a01bcE', symObjAddr: 0x2AE84, symBinAddr: 0x2D9FC, symSize: 0x8 }
  - { offset: 0x167E74, size: 0x8, addend: 0x0, symName: '__ZN5alloc7raw_vec19RawVec$LT$T$C$A$GT$8grow_one17h7a10fe25053f9cf8E', symObjAddr: 0x2AE8C, symBinAddr: 0x2DA04, symSize: 0x8 }
  - { offset: 0x167EB5, size: 0x8, addend: 0x0, symName: '__ZN5alloc7raw_vec19RawVec$LT$T$C$A$GT$8grow_one17h7c768d30fce0cef9E', symObjAddr: 0x2AE94, symBinAddr: 0x2DA0C, symSize: 0x8 }
  - { offset: 0x167F10, size: 0x8, addend: 0x0, symName: '__ZN5alloc7raw_vec19RawVec$LT$T$C$A$GT$8grow_one17ha7c24c24a35f6a71E', symObjAddr: 0x2AE9C, symBinAddr: 0x2DA14, symSize: 0x8 }
  - { offset: 0x167F51, size: 0x8, addend: 0x0, symName: '__ZN5alloc7raw_vec19RawVec$LT$T$C$A$GT$8grow_one17hfe24ca5a98d4742dE', symObjAddr: 0x2AEA4, symBinAddr: 0x2DA1C, symSize: 0x8 }
  - { offset: 0x16816E, size: 0x8, addend: 0x0, symName: __ZN14powersync_core5state13DatabaseState11destroy_arc17h1c33544a694aca78E, symObjAddr: 0x2B068, symBinAddr: 0x2DBE0, symSize: 0x28 }
  - { offset: 0x16A4B0, size: 0x8, addend: 0x0, symName: __ZN14powersync_core9crud_vtab12VirtualTable15end_transaction17h27c1e65b8f955d89E, symObjAddr: 0x2C858, symBinAddr: 0x2F3D0, symSize: 0x28 }
  - { offset: 0x16A542, size: 0x8, addend: 0x0, symName: __ZN10num_traits4cast13FromPrimitive8from_i3217h306bf7928b6637c2E, symObjAddr: 0x2C928, symBinAddr: 0x2F4A0, symSize: 0x5C4 }
  - { offset: 0x16A594, size: 0x8, addend: 0x0, symName: __ZN12sqlite_nostd5nostd11ManagedStmt10bind_int6417h14df5919c8b710d1E.2530, symObjAddr: 0x2CF84, symBinAddr: 0x2FAFC, symSize: 0x1C }
  - { offset: 0x16A5D2, size: 0x8, addend: 0x0, symName: __ZN14powersync_core9crud_vtab12VirtualTable13value_to_json17h44d8867f2856a028E, symObjAddr: 0x2CFA0, symBinAddr: 0x2FB18, symSize: 0x34 }
  - { offset: 0x16A61F, size: 0x8, addend: 0x0, symName: __ZN12sqlite_nostd5nostd11ManagedStmt11column_text17h5c3ec0fbe87d7d38E.2535, symObjAddr: 0x2D15C, symBinAddr: 0x2FCD4, symSize: 0x4C }
  - { offset: 0x16A87E, size: 0x8, addend: 0x0, symName: __ZN5alloc6string6String4push17hb355c20d3ce67a22E.2538, symObjAddr: 0x2D528, symBinAddr: 0x300A0, symSize: 0x3C }
  - { offset: 0x16ABCF, size: 0x8, addend: 0x0, symName: _OUTLINED_FUNCTION_80, symObjAddr: 0x3B6A4, symBinAddr: 0x3DBE4, symSize: 0xC }
  - { offset: 0x16ABE6, size: 0x8, addend: 0x0, symName: _OUTLINED_FUNCTION_91, symObjAddr: 0x3B794, symBinAddr: 0x3DCD4, symSize: 0x14 }
  - { offset: 0x16ABFD, size: 0x8, addend: 0x0, symName: _OUTLINED_FUNCTION_136, symObjAddr: 0x3BB48, symBinAddr: 0x3E088, symSize: 0x10 }
  - { offset: 0x16AC14, size: 0x8, addend: 0x0, symName: _OUTLINED_FUNCTION_162, symObjAddr: 0x3BD30, symBinAddr: 0x3E270, symSize: 0xC }
  - { offset: 0x16AC2B, size: 0x8, addend: 0x0, symName: _OUTLINED_FUNCTION_216, symObjAddr: 0x3C098, symBinAddr: 0x3E5D8, symSize: 0x8 }
  - { offset: 0x16AC42, size: 0x8, addend: 0x0, symName: _OUTLINED_FUNCTION_358, symObjAddr: 0x3C844, symBinAddr: 0x3ED84, symSize: 0x10 }
  - { offset: 0x16AC59, size: 0x8, addend: 0x0, symName: _OUTLINED_FUNCTION_368, symObjAddr: 0x3C8B0, symBinAddr: 0x3EDF0, symSize: 0xC }
  - { offset: 0x16AC70, size: 0x8, addend: 0x0, symName: _OUTLINED_FUNCTION_459, symObjAddr: 0x3CDAC, symBinAddr: 0x3F2EC, symSize: 0x1C }
  - { offset: 0x16AC87, size: 0x8, addend: 0x0, symName: _OUTLINED_FUNCTION_608, symObjAddr: 0x3D608, symBinAddr: 0x3FB48, symSize: 0xC }
  - { offset: 0x16AC9E, size: 0x8, addend: 0x0, symName: _OUTLINED_FUNCTION_609, symObjAddr: 0x3D614, symBinAddr: 0x3FB54, symSize: 0xC }
  - { offset: 0x16ACB5, size: 0x8, addend: 0x0, symName: _OUTLINED_FUNCTION_610, symObjAddr: 0x3D620, symBinAddr: 0x3FB60, symSize: 0xC }
  - { offset: 0x16ACCC, size: 0x8, addend: 0x0, symName: _OUTLINED_FUNCTION_1067, symObjAddr: 0x3EDF4, symBinAddr: 0x41334, symSize: 0xC }
  - { offset: 0x16ACE3, size: 0x8, addend: 0x0, symName: _OUTLINED_FUNCTION_1068, symObjAddr: 0x3EE00, symBinAddr: 0x41340, symSize: 0x8 }
  - { offset: 0x1AE9CF, size: 0x8, addend: 0x0, symName: '__ZN74_$LT$alloc..string..String$u20$as$u20$core..ops..index..Index$LT$I$GT$$GT$5index17h424d2d904269a991E', symObjAddr: 0x38D50, symBinAddr: 0x3B398, symSize: 0x34 }
  - { offset: 0x1AEA0C, size: 0x8, addend: 0x0, symName: '__ZN74_$LT$alloc..string..String$u20$as$u20$core..ops..index..Index$LT$I$GT$$GT$5index17h424d2d904269a991E', symObjAddr: 0x38D50, symBinAddr: 0x3B398, symSize: 0x34 }
  - { offset: 0x1AEA2D, size: 0x8, addend: 0x0, symName: '__ZN74_$LT$alloc..string..String$u20$as$u20$core..ops..index..Index$LT$I$GT$$GT$5index17h424d2d904269a991E', symObjAddr: 0x38D50, symBinAddr: 0x3B398, symSize: 0x34 }
  - { offset: 0x1AEA4E, size: 0x8, addend: 0x0, symName: '__ZN74_$LT$alloc..string..String$u20$as$u20$core..ops..index..Index$LT$I$GT$$GT$5index17h424d2d904269a991E', symObjAddr: 0x38D50, symBinAddr: 0x3B398, symSize: 0x34 }
  - { offset: 0x1AEA75, size: 0x8, addend: 0x0, symName: '__ZN74_$LT$alloc..string..String$u20$as$u20$core..ops..index..Index$LT$I$GT$$GT$5index17h424d2d904269a991E', symObjAddr: 0x38D50, symBinAddr: 0x3B398, symSize: 0x34 }
  - { offset: 0x1AEB59, size: 0x8, addend: 0x0, symName: '__ZN74_$LT$alloc..string..String$u20$as$u20$core..ops..index..Index$LT$I$GT$$GT$5index17h44d3c833b8459e41E', symObjAddr: 0x38D84, symBinAddr: 0x3B3CC, symSize: 0x54 }
  - { offset: 0x1AEB98, size: 0x8, addend: 0x0, symName: '__ZN74_$LT$alloc..string..String$u20$as$u20$core..ops..index..Index$LT$I$GT$$GT$5index17h44d3c833b8459e41E', symObjAddr: 0x38D84, symBinAddr: 0x3B3CC, symSize: 0x54 }
  - { offset: 0x1AEBBB, size: 0x8, addend: 0x0, symName: '__ZN74_$LT$alloc..string..String$u20$as$u20$core..ops..index..Index$LT$I$GT$$GT$5index17h44d3c833b8459e41E', symObjAddr: 0x38D84, symBinAddr: 0x3B3CC, symSize: 0x54 }
  - { offset: 0x1AED9F, size: 0x8, addend: 0x0, symName: __ZN5alloc5alloc15exchange_malloc17h11a46edc1fb0c42cE.2888, symObjAddr: 0x385F0, symBinAddr: 0x3AC98, symSize: 0x28 }
  - { offset: 0x1AF788, size: 0x8, addend: 0x0, symName: '__ZN4core3num62_$LT$impl$u20$core..str..traits..FromStr$u20$for$u20$usize$GT$8from_str17h9566d2d4183b72eeE', symObjAddr: 0x38DD8, symBinAddr: 0x3B420, symSize: 0xF0 }
  - { offset: 0x1AF7BA, size: 0x8, addend: 0x0, symName: '__ZN4core3num62_$LT$impl$u20$core..str..traits..FromStr$u20$for$u20$usize$GT$8from_str17h9566d2d4183b72eeE', symObjAddr: 0x38DD8, symBinAddr: 0x3B420, symSize: 0xF0 }
  - { offset: 0x1AF7DE, size: 0x8, addend: 0x0, symName: '__ZN4core3num62_$LT$impl$u20$core..str..traits..FromStr$u20$for$u20$usize$GT$8from_str17h9566d2d4183b72eeE', symObjAddr: 0x38DD8, symBinAddr: 0x3B420, symSize: 0xF0 }
  - { offset: 0x1B0EDB, size: 0x8, addend: 0x0, symName: '__ZN61_$LT$serde_json..error..Error$u20$as$u20$serde..de..Error$GT$6custom17h1be02b968678e998E', symObjAddr: 0x388EC, symBinAddr: 0x43548, symSize: 0x20 }
  - { offset: 0x1B0F95, size: 0x8, addend: 0x0, symName: '__ZN61_$LT$serde_json..error..Error$u20$as$u20$serde..de..Error$GT$6custom17h5943610458b4bee0E', symObjAddr: 0x38EC8, symBinAddr: 0x43568, symSize: 0x44 }
  - { offset: 0x1B10F1, size: 0x8, addend: 0x0, symName: '__ZN61_$LT$serde_json..error..Error$u20$as$u20$serde..de..Error$GT$12invalid_type17h03601f92dbbd6249E', symObjAddr: 0x38F0C, symBinAddr: 0x435AC, symSize: 0x4C }
  - { offset: 0x1B1158, size: 0x8, addend: 0x0, symName: '__ZN61_$LT$serde_json..error..Error$u20$as$u20$serde..de..Error$GT$13invalid_value17h184bab973b33db38E', symObjAddr: 0x39054, symBinAddr: 0x435F8, symSize: 0x4C }
  - { offset: 0x1B11C5, size: 0x8, addend: 0x0, symName: '__ZN67_$LT$serde_json..error..ErrorCode$u20$as$u20$core..fmt..Display$GT$3fmt17h283195504fe72c85E', symObjAddr: 0x38658, symBinAddr: 0x3ACC0, symSize: 0x228 }
  - { offset: 0x1B1515, size: 0x8, addend: 0x0, symName: '__ZN67_$LT$serde_json..error..ErrorImpl$u20$as$u20$core..fmt..Display$GT$3fmt17h58bcc4f5894ea1feE', symObjAddr: 0x38880, symBinAddr: 0x3AEE8, symSize: 0x6C }
  - { offset: 0x1B165E, size: 0x8, addend: 0x0, symName: __ZN10serde_json5error10make_error17h86c11cfb0a8ac7efE, symObjAddr: 0x3890C, symBinAddr: 0x3AF54, symSize: 0x2C4 }
  - { offset: 0x1B1C71, size: 0x8, addend: 0x0, symName: '__ZN72_$LT$serde_json..error..JsonUnexpected$u20$as$u20$core..fmt..Display$GT$3fmt17hac278715c717d89fE', symObjAddr: 0x38F58, symBinAddr: 0x3B510, symSize: 0xFC }
  - { offset: 0x1B2187, size: 0x8, addend: 0x0, symName: __ZN10serde_json5error5Error12fix_position17hc0ef38b8ab07191bE, symObjAddr: 0x38618, symBinAddr: 0x43508, symSize: 0x40 }
  - { offset: 0x1B2506, size: 0x8, addend: 0x0, symName: __ZN4core3str7pattern14TwoWaySearcher9next_back17h28a302009db50a4dE, symObjAddr: 0x38BD0, symBinAddr: 0x3B218, symSize: 0x180 }
  - { offset: 0x1B2875, size: 0x8, addend: 0x0, symName: _OUTLINED_FUNCTION_758, symObjAddr: 0x3DEE0, symBinAddr: 0x40420, symSize: 0x1C }
  - { offset: 0x1CDB13, size: 0x8, addend: 0x0, symName: '__ZN42_$LT$$RF$T$u20$as$u20$core..fmt..Debug$GT$3fmt17h3316d43f94404d1eE', symObjAddr: 0x3A46C, symBinAddr: 0x3C9AC, symSize: 0x7B8 }
  - { offset: 0x1CE676, size: 0x8, addend: 0x0, symName: '__ZN4core3ptr47drop_in_place$LT$alloc..ffi..c_str..CString$GT$17h2497b9726117b595E', symObjAddr: 0x3AC74, symBinAddr: 0x3D1B4, symSize: 0x10 }
  - { offset: 0x1CE69C, size: 0x8, addend: 0x0, symName: '__ZN4core3ptr47drop_in_place$LT$alloc..ffi..c_str..CString$GT$17h2497b9726117b595E', symObjAddr: 0x3AC74, symBinAddr: 0x3D1B4, symSize: 0x10 }
  - { offset: 0x1CEBE5, size: 0x8, addend: 0x0, symName: '__ZN42_$LT$$RF$T$u20$as$u20$core..fmt..Debug$GT$3fmt17h3316d43f94404d1eE', symObjAddr: 0x3A46C, symBinAddr: 0x3C9AC, symSize: 0x7B8 }
  - { offset: 0x1CEF39, size: 0x8, addend: 0x0, symName: '__ZN95_$LT$$BP$mut$u20$sqlite3_capi..bindings..sqlite3$u20$as$u20$sqlite_nostd..nostd..Connection$GT$11commit_hook17h19b9868f008b309aE', symObjAddr: 0x3AC84, symBinAddr: 0x3D1C4, symSize: 0x20 }
  - { offset: 0x1CEF87, size: 0x8, addend: 0x0, symName: '__ZN95_$LT$$BP$mut$u20$sqlite3_capi..bindings..sqlite3$u20$as$u20$sqlite_nostd..nostd..Connection$GT$11commit_hook17h19b9868f008b309aE', symObjAddr: 0x3AC84, symBinAddr: 0x3D1C4, symSize: 0x20 }
  - { offset: 0x1CEFC6, size: 0x8, addend: 0x0, symName: '__ZN95_$LT$$BP$mut$u20$sqlite3_capi..bindings..sqlite3$u20$as$u20$sqlite_nostd..nostd..Connection$GT$18create_function_v217h08f6fbe27edebea5E', symObjAddr: 0x3ACA4, symBinAddr: 0x3D1E4, symSize: 0xCC }
  - { offset: 0x1CF13E, size: 0x8, addend: 0x0, symName: '__ZN95_$LT$$BP$mut$u20$sqlite3_capi..bindings..sqlite3$u20$as$u20$sqlite_nostd..nostd..Connection$GT$13rollback_hook17h2a959a6fdece0b87E', symObjAddr: 0x3ADA0, symBinAddr: 0x3D2E0, symSize: 0x20 }
  - { offset: 0x1CF18C, size: 0x8, addend: 0x0, symName: '__ZN95_$LT$$BP$mut$u20$sqlite3_capi..bindings..sqlite3$u20$as$u20$sqlite_nostd..nostd..Connection$GT$13rollback_hook17h2a959a6fdece0b87E', symObjAddr: 0x3ADA0, symBinAddr: 0x3D2E0, symSize: 0x20 }
  - { offset: 0x1CF1CB, size: 0x8, addend: 0x0, symName: '__ZN95_$LT$$BP$mut$u20$sqlite3_capi..bindings..sqlite3$u20$as$u20$sqlite_nostd..nostd..Connection$GT$11update_hook17h50b60f802246da0eE', symObjAddr: 0x3ADC0, symBinAddr: 0x3D300, symSize: 0x20 }
  - { offset: 0x1CF219, size: 0x8, addend: 0x0, symName: '__ZN95_$LT$$BP$mut$u20$sqlite3_capi..bindings..sqlite3$u20$as$u20$sqlite_nostd..nostd..Connection$GT$11update_hook17h50b60f802246da0eE', symObjAddr: 0x3ADC0, symBinAddr: 0x3D300, symSize: 0x20 }
  - { offset: 0x1CF257, size: 0x8, addend: 0x0, symName: '__ZN95_$LT$$BP$mut$u20$sqlite3_capi..bindings..sqlite3$u20$as$u20$sqlite_nostd..nostd..Connection$GT$6errmsg17h9ed376e7e7c89bffE', symObjAddr: 0x3ADE0, symBinAddr: 0x3D320, symSize: 0xCC }
  - { offset: 0x1CF520, size: 0x8, addend: 0x0, symName: '__ZN95_$LT$$BP$mut$u20$sqlite3_capi..bindings..sqlite3$u20$as$u20$sqlite_nostd..nostd..Connection$GT$14get_autocommit17h498c4346c0c2169eE', symObjAddr: 0x3AEAC, symBinAddr: 0x3D3EC, symSize: 0x30 }
  - { offset: 0x1CF5AB, size: 0x8, addend: 0x0, symName: '__ZN70_$LT$sqlite_nostd..nostd..ResultCode$u20$as$u20$core..fmt..Display$GT$3fmt17h1d998250e624c938E', symObjAddr: 0x3AC24, symBinAddr: 0x3D164, symSize: 0x50 }
  - { offset: 0x1CF67D, size: 0x8, addend: 0x0, symName: __ZN12sqlite_nostd5nostd10convert_rc17h4d2f06d1b4d835e2E, symObjAddr: 0x3AD70, symBinAddr: 0x3D2B0, symSize: 0x30 }
  - { offset: 0x1CF77B, size: 0x8, addend: 0x0, symName: '__ZN74_$LT$sqlite_nostd..nostd..ManagedStmt$u20$as$u20$core..ops..drop..Drop$GT$4drop17hece13166702de33eE', symObjAddr: 0x3AF58, symBinAddr: 0x3D498, symSize: 0x20 }
  - { offset: 0x1CF7A5, size: 0x8, addend: 0x0, symName: '__ZN74_$LT$sqlite_nostd..nostd..ManagedStmt$u20$as$u20$core..ops..drop..Drop$GT$4drop17hece13166702de33eE', symObjAddr: 0x3AF58, symBinAddr: 0x3D498, symSize: 0x20 }
  - { offset: 0x1CF7DC, size: 0x8, addend: 0x0, symName: '__ZN94_$LT$$BP$mut$u20$sqlite3_capi..bindings..sqlite3_vtab$u20$as$u20$sqlite_nostd..nostd..VTab$GT$7set_err17hc6581051de6486b4E', symObjAddr: 0x3AF78, symBinAddr: 0x3D4B8, symSize: 0x48 }
  - { offset: 0x1CF848, size: 0x8, addend: 0x0, symName: __ZN12sqlite_nostd5nostd12declare_vtab17hf4f44309e985eed3E, symObjAddr: 0x3AFC0, symBinAddr: 0x3D500, symSize: 0x74 }
  - { offset: 0x1CF912, size: 0x8, addend: 0x0, symName: __ZN12sqlite_nostd5nostd11vtab_config17h6280fdf03e78fd6aE, symObjAddr: 0x3B034, symBinAddr: 0x3D574, symSize: 0x24 }
  - { offset: 0x1CF953, size: 0x8, addend: 0x0, symName: __ZN12sqlite_nostd5nostd11vtab_config17h6280fdf03e78fd6aE, symObjAddr: 0x3B034, symBinAddr: 0x3D574, symSize: 0x24 }
  - { offset: 0x1D04EB, size: 0x8, addend: 0x0, symName: __ZN12sqlite_nostd5nostd11ManagedStmt5reset17h285c9ad23474a52fE, symObjAddr: 0x3AEDC, symBinAddr: 0x3D41C, symSize: 0x28 }
  - { offset: 0x1D05A7, size: 0x8, addend: 0x0, symName: __ZN12sqlite_nostd5nostd11ManagedStmt4step17h3868f0a2a8561677E, symObjAddr: 0x3AF04, symBinAddr: 0x3D444, symSize: 0x54 }
  - { offset: 0x6E980, size: 0x8, addend: 0x0, symName: '__ZN5serde2de5impls80_$LT$impl$u20$serde..de..Deserialize$u20$for$u20$alloc..borrow..Cow$LT$T$GT$$GT$11deserialize17h431b2a342e0ad3b0E', symObjAddr: 0xAEF8, symBinAddr: 0xEDB0, symSize: 0x34 }
  - { offset: 0x702A5, size: 0x8, addend: 0x0, symName: __ZN5serde2de7Visitor20visit_borrowed_bytes17h94c63a683d68401bE, symObjAddr: 0xA76C, symBinAddr: 0xE624, symSize: 0x10C }
  - { offset: 0x702E3, size: 0x8, addend: 0x0, symName: __ZN5serde2de7Visitor20visit_borrowed_bytes17h94c63a683d68401bE, symObjAddr: 0xA76C, symBinAddr: 0xE624, symSize: 0x10C }
  - { offset: 0x70312, size: 0x8, addend: 0x0, symName: __ZN5serde2de7Visitor20visit_borrowed_bytes17h485d5fc4e2fd836cE, symObjAddr: 0xA878, symBinAddr: 0xE730, symSize: 0x280 }
  - { offset: 0x70350, size: 0x8, addend: 0x0, symName: __ZN5serde2de7Visitor20visit_borrowed_bytes17h485d5fc4e2fd836cE, symObjAddr: 0xA878, symBinAddr: 0xE730, symSize: 0x280 }
  - { offset: 0x7037F, size: 0x8, addend: 0x0, symName: __ZN5serde2de7Visitor20visit_borrowed_bytes17hbddb4d3c7c610419E, symObjAddr: 0xACDC, symBinAddr: 0xEB94, symSize: 0x21C }
  - { offset: 0x703BD, size: 0x8, addend: 0x0, symName: __ZN5serde2de7Visitor20visit_borrowed_bytes17hbddb4d3c7c610419E, symObjAddr: 0xACDC, symBinAddr: 0xEB94, symSize: 0x21C }
  - { offset: 0x703EC, size: 0x8, addend: 0x0, symName: __ZN5serde2de7Visitor20visit_borrowed_bytes17h0edc113199cc1a67E, symObjAddr: 0xAFBC, symBinAddr: 0xEE74, symSize: 0x230 }
  - { offset: 0x7042A, size: 0x8, addend: 0x0, symName: __ZN5serde2de7Visitor20visit_borrowed_bytes17h0edc113199cc1a67E, symObjAddr: 0xAFBC, symBinAddr: 0xEE74, symSize: 0x230 }
  - { offset: 0x70459, size: 0x8, addend: 0x0, symName: __ZN5serde2de7Visitor20visit_borrowed_bytes17had32421d5f09e5a6E, symObjAddr: 0xB1EC, symBinAddr: 0xF0A4, symSize: 0xA0 }
  - { offset: 0x70497, size: 0x8, addend: 0x0, symName: __ZN5serde2de7Visitor20visit_borrowed_bytes17had32421d5f09e5a6E, symObjAddr: 0xB1EC, symBinAddr: 0xF0A4, symSize: 0xA0 }
  - { offset: 0x704C6, size: 0x8, addend: 0x0, symName: __ZN5serde2de7Visitor20visit_borrowed_bytes17h995f0c05aaa03c17E, symObjAddr: 0xB28C, symBinAddr: 0xF144, symSize: 0x2DC }
  - { offset: 0x70504, size: 0x8, addend: 0x0, symName: __ZN5serde2de7Visitor20visit_borrowed_bytes17h995f0c05aaa03c17E, symObjAddr: 0xB28C, symBinAddr: 0xF144, symSize: 0x2DC }
  - { offset: 0x70533, size: 0x8, addend: 0x0, symName: __ZN5serde2de7Visitor20visit_borrowed_bytes17hd8d8526e56e3c872E, symObjAddr: 0xB568, symBinAddr: 0xF420, symSize: 0x128 }
  - { offset: 0x70571, size: 0x8, addend: 0x0, symName: __ZN5serde2de7Visitor20visit_borrowed_bytes17hd8d8526e56e3c872E, symObjAddr: 0xB568, symBinAddr: 0xF420, symSize: 0x128 }
  - { offset: 0x705A0, size: 0x8, addend: 0x0, symName: __ZN5serde2de7Visitor20visit_borrowed_bytes17hd14004959853acd9E, symObjAddr: 0xB690, symBinAddr: 0xF548, symSize: 0x74 }
  - { offset: 0x705DE, size: 0x8, addend: 0x0, symName: __ZN5serde2de7Visitor20visit_borrowed_bytes17hd14004959853acd9E, symObjAddr: 0xB690, symBinAddr: 0xF548, symSize: 0x74 }
  - { offset: 0x72D5F, size: 0x8, addend: 0x0, symName: '__ZN79_$LT$powersync_core..bson..de..Deserializer$u20$as$u20$serde..de..SeqAccess$GT$17next_element_seed17he465e1f39b9c2e0cE', symObjAddr: 0xAB14, symBinAddr: 0xE9CC, symSize: 0x7C }
  - { offset: 0x72E30, size: 0x8, addend: 0x0, symName: '__ZN79_$LT$powersync_core..bson..de..Deserializer$u20$as$u20$serde..de..SeqAccess$GT$17next_element_seed17h4899afc094d072d7E', symObjAddr: 0xAB90, symBinAddr: 0xEA48, symSize: 0x7C }
  - { offset: 0x72EFB, size: 0x8, addend: 0x0, symName: '__ZN79_$LT$powersync_core..bson..de..Deserializer$u20$as$u20$serde..de..SeqAccess$GT$17next_element_seed17hb07a7adde0597a17E', symObjAddr: 0xAC6C, symBinAddr: 0xEB24, symSize: 0x70 }
  - { offset: 0x72FC6, size: 0x8, addend: 0x0, symName: '__ZN79_$LT$powersync_core..bson..de..Deserializer$u20$as$u20$serde..de..SeqAccess$GT$17next_element_seed17h79bf467f9c4e31b7E', symObjAddr: 0xAF48, symBinAddr: 0xEE00, symSize: 0x74 }
  - { offset: 0x73DE3, size: 0x8, addend: 0x0, symName: '__ZN94_$LT$$RF$mut$u20$powersync_core..bson..de..Deserializer$u20$as$u20$serde..de..Deserializer$GT$15deserialize_any17h70143bffffe9312fE', symObjAddr: 0xA5EC, symBinAddr: 0xE4A4, symSize: 0x180 }
  - { offset: 0x74073, size: 0x8, addend: 0x0, symName: '__ZN94_$LT$$RF$mut$u20$powersync_core..bson..de..Deserializer$u20$as$u20$serde..de..Deserializer$GT$15deserialize_any17hc4abf4cc0f8b0c72E', symObjAddr: 0xB704, symBinAddr: 0xF5BC, symSize: 0x190 }
  - { offset: 0x789EB, size: 0x8, addend: 0x0, symName: '__ZN92_$LT$$RF$mut$u20$powersync_core..bson..de..Deserializer$u20$as$u20$serde..de..EnumAccess$GT$12variant_seed17hbcc0d942aa3958dcE', symObjAddr: 0xB8A4, symBinAddr: 0xF75C, symSize: 0x200 }
  - { offset: 0x78DC4, size: 0x8, addend: 0x0, symName: '__ZN95_$LT$$RF$mut$u20$powersync_core..bson..de..Deserializer$u20$as$u20$serde..de..VariantAccess$GT$12unit_variant17hd0beed1b8f10159bE', symObjAddr: 0xBAA4, symBinAddr: 0x41CF8, symSize: 0x24 }
  - { offset: 0x78DEF, size: 0x8, addend: 0x0, symName: '__ZN95_$LT$$RF$mut$u20$powersync_core..bson..de..Deserializer$u20$as$u20$serde..de..VariantAccess$GT$20newtype_variant_seed17hd54ed3fd3660ef0dE', symObjAddr: 0xBAC8, symBinAddr: 0xF95C, symSize: 0x188 }
  - { offset: 0x8138B, size: 0x8, addend: 0x0, symName: '__ZN4core3ptr106drop_in_place$LT$core..option..Option$LT$core..option..Option$LT$alloc..borrow..Cow$LT$str$GT$$GT$$GT$$GT$17h1a1674d7b314e999E.388', symObjAddr: 0xAAF8, symBinAddr: 0xE9B0, symSize: 0x1C }
  - { offset: 0x813B7, size: 0x8, addend: 0x0, symName: '__ZN4core3ptr78drop_in_place$LT$core..option..Option$LT$alloc..borrow..Cow$LT$str$GT$$GT$$GT$17hafc0e4c1de7ce155E.390', symObjAddr: 0xAC0C, symBinAddr: 0xEAC4, symSize: 0x18 }
  - { offset: 0x81440, size: 0x8, addend: 0x0, symName: '__ZN4core3ptr50drop_in_place$LT$alloc..borrow..Cow$LT$str$GT$$GT$17h55f66ffa7b8d14d3E.391', symObjAddr: 0xAC24, symBinAddr: 0xEADC, symSize: 0x14 }
  - { offset: 0x814EB, size: 0x8, addend: 0x0, symName: '__ZN4core3ptr117drop_in_place$LT$core..option..Option$LT$alloc..vec..Vec$LT$powersync_core..sync..line..StreamDescription$GT$$GT$$GT$17h8a05e05e5642f1bdE.393', symObjAddr: 0xAC38, symBinAddr: 0xEAF0, symSize: 0x34 }
  - { offset: 0x8156F, size: 0x8, addend: 0x0, symName: '__ZN4core3ptr145drop_in_place$LT$core..option..Option$LT$alloc..rc..Rc$LT$alloc..vec..Vec$LT$powersync_core..sync..line..BucketSubscriptionReason$GT$$GT$$GT$$GT$17h39a2533ef72682bfE.395', symObjAddr: 0xAF2C, symBinAddr: 0xEDE4, symSize: 0x1C }
  - { offset: 0x83152, size: 0x8, addend: 0x0, symName: '__ZN4core3cmp5impls69_$LT$impl$u20$core..cmp..PartialEq$LT$$RF$B$GT$$u20$for$u20$$RF$A$GT$2eq17h2c65a03712c8b30cE', symObjAddr: 0xB894, symBinAddr: 0xF74C, symSize: 0x10 }
  - { offset: 0x8318D, size: 0x8, addend: 0x0, symName: '__ZN4core3cmp5impls69_$LT$impl$u20$core..cmp..PartialEq$LT$$RF$B$GT$$u20$for$u20$$RF$A$GT$2eq17h2c65a03712c8b30cE', symObjAddr: 0xB894, symBinAddr: 0xF74C, symSize: 0x10 }
  - { offset: 0x831B4, size: 0x8, addend: 0x0, symName: '__ZN4core3cmp5impls69_$LT$impl$u20$core..cmp..PartialEq$LT$$RF$B$GT$$u20$for$u20$$RF$A$GT$2eq17h2c65a03712c8b30cE', symObjAddr: 0xB894, symBinAddr: 0xF74C, symSize: 0x10 }
  - { offset: 0x8370F, size: 0x8, addend: 0x0, symName: __ZN14powersync_core4bson2de12Deserializer15prepare_to_read17h134f389791f4b488E, symObjAddr: 0xA328, symBinAddr: 0xE1E0, symSize: 0x14C }
  - { offset: 0x83921, size: 0x8, addend: 0x0, symName: __ZN14powersync_core4bson2de12Deserializer21prepare_to_read_value17h58fd2204c3f3d686E, symObjAddr: 0xA474, symBinAddr: 0xE32C, symSize: 0x54 }
  - { offset: 0x839E2, size: 0x8, addend: 0x0, symName: __ZN14powersync_core4bson2de12Deserializer13object_reader17hf8e2dd6473f0a3faE, symObjAddr: 0xA4C8, symBinAddr: 0xE380, symSize: 0x68 }
  - { offset: 0x83A8A, size: 0x8, addend: 0x0, symName: __ZN14powersync_core4bson2de12Deserializer20advance_to_next_name17h3667ac88ffd02c1dE, symObjAddr: 0xA530, symBinAddr: 0xE3E8, symSize: 0xBC }
  - { offset: 0x84074, size: 0x8, addend: 0x0, symName: _OUTLINED_FUNCTION_59, symObjAddr: 0x3B4E4, symBinAddr: 0x3DA24, symSize: 0xC }
  - { offset: 0x8408B, size: 0x8, addend: 0x0, symName: _OUTLINED_FUNCTION_68, symObjAddr: 0x3B574, symBinAddr: 0x3DAB4, symSize: 0x10 }
  - { offset: 0x840A2, size: 0x8, addend: 0x0, symName: _OUTLINED_FUNCTION_79, symObjAddr: 0x3B698, symBinAddr: 0x3DBD8, symSize: 0xC }
  - { offset: 0x840B9, size: 0x8, addend: 0x0, symName: _OUTLINED_FUNCTION_99, symObjAddr: 0x3B838, symBinAddr: 0x3DD78, symSize: 0x10 }
  - { offset: 0x840D0, size: 0x8, addend: 0x0, symName: _OUTLINED_FUNCTION_122, symObjAddr: 0x3BA14, symBinAddr: 0x3DF54, symSize: 0xC }
  - { offset: 0x840E7, size: 0x8, addend: 0x0, symName: _OUTLINED_FUNCTION_133, symObjAddr: 0x3BAFC, symBinAddr: 0x3E03C, symSize: 0x10 }
  - { offset: 0x840FE, size: 0x8, addend: 0x0, symName: _OUTLINED_FUNCTION_143, symObjAddr: 0x3BBDC, symBinAddr: 0x3E11C, symSize: 0xC }
  - { offset: 0x84115, size: 0x8, addend: 0x0, symName: _OUTLINED_FUNCTION_169, symObjAddr: 0x3BD90, symBinAddr: 0x3E2D0, symSize: 0x8 }
  - { offset: 0x8412C, size: 0x8, addend: 0x0, symName: _OUTLINED_FUNCTION_176, symObjAddr: 0x3BE04, symBinAddr: 0x3E344, symSize: 0x10 }
  - { offset: 0x84143, size: 0x8, addend: 0x0, symName: _OUTLINED_FUNCTION_181, symObjAddr: 0x3BE64, symBinAddr: 0x3E3A4, symSize: 0x10 }
  - { offset: 0x8415A, size: 0x8, addend: 0x0, symName: _OUTLINED_FUNCTION_183, symObjAddr: 0x3BE94, symBinAddr: 0x3E3D4, symSize: 0x10 }
  - { offset: 0x84171, size: 0x8, addend: 0x0, symName: _OUTLINED_FUNCTION_188, symObjAddr: 0x3BEFC, symBinAddr: 0x3E43C, symSize: 0x8 }
  - { offset: 0x84188, size: 0x8, addend: 0x0, symName: _OUTLINED_FUNCTION_191, symObjAddr: 0x3BF1C, symBinAddr: 0x3E45C, symSize: 0x8 }
  - { offset: 0x8419F, size: 0x8, addend: 0x0, symName: _OUTLINED_FUNCTION_195, symObjAddr: 0x3BF44, symBinAddr: 0x3E484, symSize: 0xC }
  - { offset: 0x841B6, size: 0x8, addend: 0x0, symName: _OUTLINED_FUNCTION_209, symObjAddr: 0x3C050, symBinAddr: 0x3E590, symSize: 0xC }
  - { offset: 0x841CD, size: 0x8, addend: 0x0, symName: _OUTLINED_FUNCTION_228, symObjAddr: 0x3C114, symBinAddr: 0x3E654, symSize: 0x8 }
  - { offset: 0x841E4, size: 0x8, addend: 0x0, symName: _OUTLINED_FUNCTION_252, symObjAddr: 0x3C2CC, symBinAddr: 0x3E80C, symSize: 0x8 }
  - { offset: 0x841FB, size: 0x8, addend: 0x0, symName: _OUTLINED_FUNCTION_253, symObjAddr: 0x3C2D4, symBinAddr: 0x3E814, symSize: 0x8 }
  - { offset: 0x84212, size: 0x8, addend: 0x0, symName: _OUTLINED_FUNCTION_254, symObjAddr: 0x3C2DC, symBinAddr: 0x3E81C, symSize: 0x8 }
  - { offset: 0x84229, size: 0x8, addend: 0x0, symName: _OUTLINED_FUNCTION_255, symObjAddr: 0x3C2E4, symBinAddr: 0x3E824, symSize: 0x8 }
  - { offset: 0x84240, size: 0x8, addend: 0x0, symName: _OUTLINED_FUNCTION_256, symObjAddr: 0x3C2EC, symBinAddr: 0x3E82C, symSize: 0x8 }
  - { offset: 0x84257, size: 0x8, addend: 0x0, symName: _OUTLINED_FUNCTION_366, symObjAddr: 0x3C898, symBinAddr: 0x3EDD8, symSize: 0xC }
  - { offset: 0x8426E, size: 0x8, addend: 0x0, symName: _OUTLINED_FUNCTION_414, symObjAddr: 0x3CB98, symBinAddr: 0x3F0D8, symSize: 0x8 }
  - { offset: 0x84285, size: 0x8, addend: 0x0, symName: _OUTLINED_FUNCTION_464, symObjAddr: 0x3CDFC, symBinAddr: 0x3F33C, symSize: 0x8 }
  - { offset: 0x8429C, size: 0x8, addend: 0x0, symName: _OUTLINED_FUNCTION_495, symObjAddr: 0x3D010, symBinAddr: 0x3F550, symSize: 0xC }
  - { offset: 0x842B3, size: 0x8, addend: 0x0, symName: _OUTLINED_FUNCTION_559, symObjAddr: 0x3D390, symBinAddr: 0x3F8D0, symSize: 0x8 }
  - { offset: 0x842CA, size: 0x8, addend: 0x0, symName: _OUTLINED_FUNCTION_566, symObjAddr: 0x3D3D8, symBinAddr: 0x3F918, symSize: 0xC }
  - { offset: 0x842E1, size: 0x8, addend: 0x0, symName: _OUTLINED_FUNCTION_575, symObjAddr: 0x3D460, symBinAddr: 0x3F9A0, symSize: 0xC }
  - { offset: 0x842F8, size: 0x8, addend: 0x0, symName: _OUTLINED_FUNCTION_629, symObjAddr: 0x3D79C, symBinAddr: 0x3FCDC, symSize: 0x24 }
  - { offset: 0x8430F, size: 0x8, addend: 0x0, symName: _OUTLINED_FUNCTION_671, symObjAddr: 0x3D9C4, symBinAddr: 0x3FF04, symSize: 0x8 }
  - { offset: 0x84326, size: 0x8, addend: 0x0, symName: _OUTLINED_FUNCTION_683, symObjAddr: 0x3DABC, symBinAddr: 0x3FFFC, symSize: 0xC }
  - { offset: 0x8433D, size: 0x8, addend: 0x0, symName: _OUTLINED_FUNCTION_692, symObjAddr: 0x3DB3C, symBinAddr: 0x4007C, symSize: 0xC }
  - { offset: 0x84354, size: 0x8, addend: 0x0, symName: _OUTLINED_FUNCTION_696, symObjAddr: 0x3DB6C, symBinAddr: 0x400AC, symSize: 0xC }
  - { offset: 0x8436B, size: 0x8, addend: 0x0, symName: _OUTLINED_FUNCTION_765, symObjAddr: 0x3DF50, symBinAddr: 0x40490, symSize: 0xC }
  - { offset: 0x84382, size: 0x8, addend: 0x0, symName: _OUTLINED_FUNCTION_766, symObjAddr: 0x3DF5C, symBinAddr: 0x4049C, symSize: 0xC }
  - { offset: 0x84399, size: 0x8, addend: 0x0, symName: _OUTLINED_FUNCTION_848, symObjAddr: 0x3E37C, symBinAddr: 0x408BC, symSize: 0x10 }
  - { offset: 0x843B0, size: 0x8, addend: 0x0, symName: _OUTLINED_FUNCTION_850, symObjAddr: 0x3E39C, symBinAddr: 0x408DC, symSize: 0x10 }
  - { offset: 0x843C7, size: 0x8, addend: 0x0, symName: _OUTLINED_FUNCTION_1043, symObjAddr: 0x3ED0C, symBinAddr: 0x4124C, symSize: 0xC }
  - { offset: 0x843DE, size: 0x8, addend: 0x0, symName: _OUTLINED_FUNCTION_1064, symObjAddr: 0x3EDD8, symBinAddr: 0x41318, symSize: 0xC }
  - { offset: 0x843F5, size: 0x8, addend: 0x0, symName: _OUTLINED_FUNCTION_1078, symObjAddr: 0x3EE5C, symBinAddr: 0x4139C, symSize: 0x8 }
  - { offset: 0x8440C, size: 0x8, addend: 0x0, symName: _OUTLINED_FUNCTION_1123, symObjAddr: 0x3F07C, symBinAddr: 0x415BC, symSize: 0xC }
  - { offset: 0x84423, size: 0x8, addend: 0x0, symName: _OUTLINED_FUNCTION_1148, symObjAddr: 0x3F1F8, symBinAddr: 0x41738, symSize: 0xC }
  - { offset: 0x8443A, size: 0x8, addend: 0x0, symName: _OUTLINED_FUNCTION_1154, symObjAddr: 0x3F250, symBinAddr: 0x41790, symSize: 0xC }
  - { offset: 0x84451, size: 0x8, addend: 0x0, symName: _OUTLINED_FUNCTION_1155, symObjAddr: 0x3F25C, symBinAddr: 0x4179C, symSize: 0xC }
  - { offset: 0x197762, size: 0x8, addend: 0x0, symName: __ZN3ryu14d2s_full_table21DOUBLE_POW5_INV_SPLIT17hc3523d2cb6d5fe8fE, symObjAddr: 0x484E8, symBinAddr: 0x4C598, symSize: 0x0 }
  - { offset: 0x19777E, size: 0x8, addend: 0x0, symName: __ZN3ryu14d2s_full_table17DOUBLE_POW5_SPLIT17hd1b57257676f9930E, symObjAddr: 0x49A48, symBinAddr: 0x4DAF8, symSize: 0x0 }
  - { offset: 0x197B9D, size: 0x8, addend: 0x0, symName: __ZN3ryu14d2s_intrinsics16mul_shift_all_6417he46fe462c2b20eaaE, symObjAddr: 0x353F8, symBinAddr: 0x37EEC, symSize: 0xB4 }
  - { offset: 0x197CF0, size: 0x8, addend: 0x0, symName: __ZN3ryu14d2s_intrinsics22multiple_of_power_of_517h1ff36c0bec9a7bf2E, symObjAddr: 0x354AC, symBinAddr: 0x37FA0, symSize: 0x30 }
  - { offset: 0x197D8F, size: 0x8, addend: 0x0, symName: __ZN3ryu6pretty8format6417h846670087bc01432E, symObjAddr: 0x34DCC, symBinAddr: 0x378C0, symSize: 0x62C }
  - { offset: 0x198974, size: 0x8, addend: 0x0, symName: __ZN3ryu6pretty8mantissa19write_mantissa_long17h67fa1f4900ce7c27E, symObjAddr: 0x354DC, symBinAddr: 0x37FD0, symSize: 0x108 }
  - { offset: 0x198B7B, size: 0x8, addend: 0x0, symName: __ZN3ryu6pretty8exponent15write_exponent317h8e7c4cc118a3d483E, symObjAddr: 0x355E4, symBinAddr: 0x380D8, symSize: 0x8C }
  - { offset: 0x198BB4, size: 0x8, addend: 0x0, symName: __ZN3ryu6pretty8exponent15write_exponent317h8e7c4cc118a3d483E, symObjAddr: 0x355E4, symBinAddr: 0x380D8, symSize: 0x8C }
  - { offset: 0x1992D2, size: 0x8, addend: 0x0, symName: _OUTLINED_FUNCTION_998, symObjAddr: 0x3EB58, symBinAddr: 0x41098, symSize: 0x8 }
  - { offset: 0xB11, size: 0x8, addend: 0x0, symName: '__ZN58_$LT$alloc..string..String$u20$as$u20$core..fmt..Write$GT$9write_str17h88c75a7365d3c5e0E', symObjAddr: 0x68, symBinAddr: 0x4068, symSize: 0x1C }
  - { offset: 0xC27, size: 0x8, addend: 0x0, symName: '__ZN58_$LT$alloc..string..String$u20$as$u20$core..fmt..Write$GT$10write_char17h875c016c9b4d7b7aE', symObjAddr: 0x84, symBinAddr: 0x4084, symSize: 0x68 }
  - { offset: 0x108C, size: 0x8, addend: 0x0, symName: '__ZN4core3ptr42drop_in_place$LT$alloc..string..String$GT$17h4798080deedaf63dE', symObjAddr: 0x60, symBinAddr: 0x4060, symSize: 0x8 }
  - { offset: 0x134C, size: 0x8, addend: 0x0, symName: __ZN4core3fmt5Write9write_fmt17h884272fa72d285fcE, symObjAddr: 0x48, symBinAddr: 0x4048, symSize: 0x18 }
  - { offset: 0x19D9, size: 0x8, addend: 0x0, symName: _OUTLINED_FUNCTION_86, symObjAddr: 0x3B720, symBinAddr: 0x3DC60, symSize: 0x34 }
  - { offset: 0x19F0, size: 0x8, addend: 0x0, symName: _OUTLINED_FUNCTION_112, symObjAddr: 0x3B928, symBinAddr: 0x3DE68, symSize: 0xC }
  - { offset: 0x1A07, size: 0x8, addend: 0x0, symName: _OUTLINED_FUNCTION_125, symObjAddr: 0x3BA70, symBinAddr: 0x3DFB0, symSize: 0x28 }
  - { offset: 0x1A1E, size: 0x8, addend: 0x0, symName: _OUTLINED_FUNCTION_184, symObjAddr: 0x3BEA4, symBinAddr: 0x3E3E4, symSize: 0x20 }
  - { offset: 0x1A35, size: 0x8, addend: 0x0, symName: _OUTLINED_FUNCTION_258, symObjAddr: 0x3C2FC, symBinAddr: 0x3E83C, symSize: 0x1C }
  - { offset: 0x1A4C, size: 0x8, addend: 0x0, symName: _OUTLINED_FUNCTION_708, symObjAddr: 0x3DC58, symBinAddr: 0x40198, symSize: 0x20 }
  - { offset: 0x1A63, size: 0x8, addend: 0x0, symName: _OUTLINED_FUNCTION_816, symObjAddr: 0x3E1C0, symBinAddr: 0x40700, symSize: 0x8 }
  - { offset: 0x1A7A, size: 0x8, addend: 0x0, symName: _OUTLINED_FUNCTION_863, symObjAddr: 0x3E46C, symBinAddr: 0x409AC, symSize: 0x10 }
  - { offset: 0x17448, size: 0x8, addend: 0x0, symName: '__ZN87_$LT$core..str..lossy..Utf8Chunks$u20$as$u20$core..iter..traits..iterator..Iterator$GT$4next17h06ecfaca1ece5570E', symObjAddr: 0x3914, symBinAddr: 0x7818, symSize: 0x1C0 }
  - { offset: 0x18684, size: 0x8, addend: 0x0, symName: __ZN4core3num7flt2dec7decoder6decode17h8f0ee23b0fcc69e3E, symObjAddr: 0x383C, symBinAddr: 0x7740, symSize: 0xD8 }
  - { offset: 0x1884D, size: 0x8, addend: 0x0, symName: __ZN4core4cell22panic_already_borrowed17h9da408273473285aE, symObjAddr: 0x3AD4, symBinAddr: 0x41CAC, symSize: 0xC }
  - { offset: 0x18C85, size: 0x8, addend: 0x0, symName: __ZN4core3ffi5c_str4CStr6to_str17h7d023d3c4d6c5a3bE, symObjAddr: 0x3AE0, symBinAddr: 0x79D8, symSize: 0x8 }
  - { offset: 0x18CAC, size: 0x8, addend: 0x0, symName: __ZN4core3ffi5c_str4CStr6to_str17h7d023d3c4d6c5a3bE, symObjAddr: 0x3AE0, symBinAddr: 0x79D8, symSize: 0x8 }
  - { offset: 0x18CC6, size: 0x8, addend: 0x0, symName: __ZN4core3ffi5c_str4CStr6to_str17h7d023d3c4d6c5a3bE, symObjAddr: 0x3AE0, symBinAddr: 0x79D8, symSize: 0x8 }
  - { offset: 0x18D1F, size: 0x8, addend: 0x0, symName: _OUTLINED_FUNCTION_214, symObjAddr: 0x3C088, symBinAddr: 0x3E5C8, symSize: 0x8 }
  - { offset: 0x18D36, size: 0x8, addend: 0x0, symName: _OUTLINED_FUNCTION_269, symObjAddr: 0x3C384, symBinAddr: 0x3E8C4, symSize: 0xC }
  - { offset: 0x18D4D, size: 0x8, addend: 0x0, symName: _OUTLINED_FUNCTION_1082, symObjAddr: 0x3EE80, symBinAddr: 0x413C0, symSize: 0x8 }
  - { offset: 0x11DF0, size: 0x8, addend: 0x0, symName: __ZN4core3fmt5float29float_to_decimal_common_exact17hca9b1670b88e88d9E, symObjAddr: 0x23C8, symBinAddr: 0x62D8, symSize: 0x788 }
  - { offset: 0x12645, size: 0x8, addend: 0x0, symName: __ZN4core3fmt5float32float_to_decimal_common_shortest17h549b6e6fa75965f3E, symObjAddr: 0x2B50, symBinAddr: 0x6A60, symSize: 0x660 }
  - { offset: 0x12D2D, size: 0x8, addend: 0x0, symName: '__ZN4core3fmt5float52_$LT$impl$u20$core..fmt..Display$u20$for$u20$f64$GT$3fmt17h90175cae98a2f3f6E', symObjAddr: 0x31B0, symBinAddr: 0x70C0, symSize: 0x30 }
  - { offset: 0x12DBF, size: 0x8, addend: 0x0, symName: __ZN4core9panicking5panic17h370e219458aeaf2cE, symObjAddr: 0x239C, symBinAddr: 0x41C74, symSize: 0xC }
  - { offset: 0x12E25, size: 0x8, addend: 0x0, symName: __ZN4core9panicking18panic_nounwind_fmt17hcd3dd70fe9ea5c33E, symObjAddr: 0x23A8, symBinAddr: 0x41C80, symSize: 0x4 }
  - { offset: 0x12E5C, size: 0x8, addend: 0x0, symName: __ZN4core9panicking18panic_nounwind_fmt17hcd3dd70fe9ea5c33E, symObjAddr: 0x23A8, symBinAddr: 0x41C80, symSize: 0x4 }
  - { offset: 0x12E75, size: 0x8, addend: 0x0, symName: __ZN4core9panicking18panic_nounwind_fmt17hcd3dd70fe9ea5c33E, symObjAddr: 0x23A8, symBinAddr: 0x41C80, symSize: 0x4 }
  - { offset: 0x12E8F, size: 0x8, addend: 0x0, symName: __ZN4core9panicking18panic_nounwind_fmt17hcd3dd70fe9ea5c33E, symObjAddr: 0x23A8, symBinAddr: 0x41C80, symSize: 0x4 }
  - { offset: 0x12EA3, size: 0x8, addend: 0x0, symName: __ZN4core9panicking13assert_failed17h1b90e91d6406036eE, symObjAddr: 0x23AC, symBinAddr: 0x41C84, symSize: 0x10 }
  - { offset: 0x12F0B, size: 0x8, addend: 0x0, symName: __ZN4core9panicking19assert_failed_inner17h21afaa464b749428E, symObjAddr: 0x23BC, symBinAddr: 0x41C94, symSize: 0xC }
  - { offset: 0x13026, size: 0x8, addend: 0x0, symName: __ZN4core6result13unwrap_failed17h6babbbc16af719bdE, symObjAddr: 0x237C, symBinAddr: 0x41C58, symSize: 0xC }
  - { offset: 0x13142, size: 0x8, addend: 0x0, symName: __ZN4core6option13unwrap_failed17h9ee0f2e7e0b117c6E, symObjAddr: 0x238C, symBinAddr: 0x41C64, symSize: 0x10 }
  - { offset: 0x136BF, size: 0x8, addend: 0x0, symName: __ZN4core3fmt9Formatter9write_fmt17hac6a9372802011c5E.199, symObjAddr: 0x2388, symBinAddr: 0x62D4, symSize: 0x4 }
  - { offset: 0x13829, size: 0x8, addend: 0x0, symName: _OUTLINED_FUNCTION_315, symObjAddr: 0x3C60C, symBinAddr: 0x3EB4C, symSize: 0xC }
  - { offset: 0x13840, size: 0x8, addend: 0x0, symName: _OUTLINED_FUNCTION_406, symObjAddr: 0x3CB3C, symBinAddr: 0x3F07C, symSize: 0x8 }
  - { offset: 0x13857, size: 0x8, addend: 0x0, symName: _OUTLINED_FUNCTION_421, symObjAddr: 0x3CBE4, symBinAddr: 0x3F124, symSize: 0x8 }
  - { offset: 0x1386E, size: 0x8, addend: 0x0, symName: _OUTLINED_FUNCTION_441, symObjAddr: 0x3CCA8, symBinAddr: 0x3F1E8, symSize: 0x18 }
  - { offset: 0x13885, size: 0x8, addend: 0x0, symName: _OUTLINED_FUNCTION_453, symObjAddr: 0x3CD44, symBinAddr: 0x3F284, symSize: 0x18 }
  - { offset: 0x1389C, size: 0x8, addend: 0x0, symName: _OUTLINED_FUNCTION_542, symObjAddr: 0x3D2D0, symBinAddr: 0x3F810, symSize: 0xC }
  - { offset: 0x138B3, size: 0x8, addend: 0x0, symName: _OUTLINED_FUNCTION_686, symObjAddr: 0x3DAE0, symBinAddr: 0x40020, symSize: 0xC }
  - { offset: 0x138CA, size: 0x8, addend: 0x0, symName: _OUTLINED_FUNCTION_724, symObjAddr: 0x3DD1C, symBinAddr: 0x4025C, symSize: 0x8 }
  - { offset: 0x138E1, size: 0x8, addend: 0x0, symName: _OUTLINED_FUNCTION_871, symObjAddr: 0x3E504, symBinAddr: 0x40A44, symSize: 0x18 }
  - { offset: 0x138F8, size: 0x8, addend: 0x0, symName: _OUTLINED_FUNCTION_876, symObjAddr: 0x3E558, symBinAddr: 0x40A98, symSize: 0x18 }
  - { offset: 0x1390F, size: 0x8, addend: 0x0, symName: _OUTLINED_FUNCTION_942, symObjAddr: 0x3E8F8, symBinAddr: 0x40E38, symSize: 0xC }
  - { offset: 0x13926, size: 0x8, addend: 0x0, symName: _OUTLINED_FUNCTION_944, symObjAddr: 0x3E910, symBinAddr: 0x40E50, symSize: 0xC }
  - { offset: 0x1393D, size: 0x8, addend: 0x0, symName: _OUTLINED_FUNCTION_951, symObjAddr: 0x3E968, symBinAddr: 0x40EA8, symSize: 0xC }
  - { offset: 0x13954, size: 0x8, addend: 0x0, symName: _OUTLINED_FUNCTION_958, symObjAddr: 0x3E9C0, symBinAddr: 0x40F00, symSize: 0xC }
  - { offset: 0x1396B, size: 0x8, addend: 0x0, symName: _OUTLINED_FUNCTION_960, symObjAddr: 0x3E9D8, symBinAddr: 0x40F18, symSize: 0xC }
  - { offset: 0x13982, size: 0x8, addend: 0x0, symName: _OUTLINED_FUNCTION_974, symObjAddr: 0x3EA68, symBinAddr: 0x40FA8, symSize: 0xC }
  - { offset: 0x13999, size: 0x8, addend: 0x0, symName: _OUTLINED_FUNCTION_1040, symObjAddr: 0x3ECEC, symBinAddr: 0x4122C, symSize: 0x8 }
  - { offset: 0x165C3, size: 0x8, addend: 0x0, symName: __ZN4core3num9diy_float2Fp12normalize_to17hcc0a07e4c3e26ed4E, symObjAddr: 0x3774, symBinAddr: 0x7678, symSize: 0x5C }
  - { offset: 0x16683, size: 0x8, addend: 0x0, symName: '__ZN62_$LT$core..char..EscapeDebug$u20$as$u20$core..fmt..Display$GT$3fmt17hc2a0efb70465f7faE', symObjAddr: 0x37D0, symBinAddr: 0x76D4, symSize: 0x40 }
  - { offset: 0x16D36, size: 0x8, addend: 0x0, symName: __ZN4core5slice4sort6stable5drift11sqrt_approx17h604f8616441ce116E, symObjAddr: 0x3810, symBinAddr: 0x7714, symSize: 0x2C }
  - { offset: 0x17238, size: 0x8, addend: 0x0, symName: __ZN4core3num9diy_float2Fp12normalize_to17hcc0a07e4c3e26ed4E, symObjAddr: 0x3774, symBinAddr: 0x7678, symSize: 0x5C }
  - { offset: 0x18E2A, size: 0x8, addend: 0x0, symName: __ZN4core7unicode9printable5check17h406dc3e5780a8257E, symObjAddr: 0x3D9C, symBinAddr: 0x7C88, symSize: 0xF8 }
  - { offset: 0x19627, size: 0x8, addend: 0x0, symName: __ZN4core5slice6memchr14memchr_aligned17h5e18d2e6f3ca3392E, symObjAddr: 0x3AE8, symBinAddr: 0x79E0, symSize: 0xC8 }
  - { offset: 0x198EE, size: 0x8, addend: 0x0, symName: __ZN4core5slice6memchr12memchr_naive17ha05a3e806594647eE, symObjAddr: 0x3BB0, symBinAddr: 0x7AA8, symSize: 0x3C }
  - { offset: 0x1A096, size: 0x8, addend: 0x0, symName: __ZN4core3str16slice_error_fail17heaf149ca3ae8e906E, symObjAddr: 0x3BEC, symBinAddr: 0x41CB8, symSize: 0xC }
  - { offset: 0x1A141, size: 0x8, addend: 0x0, symName: '__ZN4core3str21_$LT$impl$u20$str$GT$19floor_char_boundary17h696fc9445743f160E', symObjAddr: 0x3D2C, symBinAddr: 0x7C18, symSize: 0x54 }
  - { offset: 0x1A2E3, size: 0x8, addend: 0x0, symName: '__ZN4core3str21_$LT$impl$u20$str$GT$9ends_with17hb00c2144c063b045E', symObjAddr: 0x3D80, symBinAddr: 0x7C6C, symSize: 0x1C }
  - { offset: 0x1A324, size: 0x8, addend: 0x0, symName: '__ZN4core3str21_$LT$impl$u20$str$GT$9ends_with17hb00c2144c063b045E', symObjAddr: 0x3D80, symBinAddr: 0x7C6C, symSize: 0x1C }
  - { offset: 0x1A349, size: 0x8, addend: 0x0, symName: '__ZN4core3str21_$LT$impl$u20$str$GT$9ends_with17hb00c2144c063b045E', symObjAddr: 0x3D80, symBinAddr: 0x7C6C, symSize: 0x1C }
  - { offset: 0x1A370, size: 0x8, addend: 0x0, symName: '__ZN4core3str21_$LT$impl$u20$str$GT$9ends_with17hb00c2144c063b045E', symObjAddr: 0x3D80, symBinAddr: 0x7C6C, symSize: 0x1C }
  - { offset: 0x1A393, size: 0x8, addend: 0x0, symName: '__ZN4core3str21_$LT$impl$u20$str$GT$9ends_with17hb00c2144c063b045E', symObjAddr: 0x3D80, symBinAddr: 0x7C6C, symSize: 0x1C }
  - { offset: 0x1A7E6, size: 0x8, addend: 0x0, symName: __ZN4core3str19slice_error_fail_rt17h4de10235e677d4c5E, symObjAddr: 0x3BF8, symBinAddr: 0x7AE4, symSize: 0x134 }
  - { offset: 0x1AFBC, size: 0x8, addend: 0x0, symName: _OUTLINED_FUNCTION_397, symObjAddr: 0x3CAB8, symBinAddr: 0x3EFF8, symSize: 0xC }
  - { offset: 0x1AFD3, size: 0x8, addend: 0x0, symName: _OUTLINED_FUNCTION_602, symObjAddr: 0x3D5D4, symBinAddr: 0x3FB14, symSize: 0xC }
  - { offset: 0x1AFEA, size: 0x8, addend: 0x0, symName: _OUTLINED_FUNCTION_1084, symObjAddr: 0x3EE94, symBinAddr: 0x413D4, symSize: 0x8 }
  - { offset: 0x1B001, size: 0x8, addend: 0x0, symName: _OUTLINED_FUNCTION_1086, symObjAddr: 0x3EEA4, symBinAddr: 0x413E4, symSize: 0x8 }
  - { offset: 0xF8309, size: 0x8, addend: 0x0, symName: '__ZN4core3ptr208drop_in_place$LT$powersync_core..sync..streaming_sync..StreamingSyncIteration..resolve_subscription_state..LocalAndServerSubscription$LT$powersync_core..sync..subscriptions..LocallyTrackedSubscription$GT$$GT$17h7b20ca02bf6a76a2E', symObjAddr: 0x1D3A4, symBinAddr: 0x20864, symSize: 0x2C }
  - { offset: 0xF83C2, size: 0x8, addend: 0x0, symName: '__ZN4core3ptr106drop_in_place$LT$core..option..Option$LT$alloc..boxed..Box$LT$powersync_core..util..JsonString$GT$$GT$$GT$17h803a3478f3fed469E', symObjAddr: 0x1D3D0, symBinAddr: 0x20890, symSize: 0x10 }
  - { offset: 0xF8A13, size: 0x8, addend: 0x0, symName: '__ZN4core3ptr73drop_in_place$LT$powersync_core..schema..table_info..PendingStatement$GT$17heb52137919fab894E.1428', symObjAddr: 0x231E4, symBinAddr: 0x265D8, symSize: 0x2C }
  - { offset: 0xF8B1D, size: 0x8, addend: 0x0, symName: '__ZN4core3ptr59drop_in_place$LT$serde..__private..de..content..Content$GT$17ha2b9f1ee83780447E.1431', symObjAddr: 0x23240, symBinAddr: 0x26634, symSize: 0x70 }
  - { offset: 0xF8BC3, size: 0x8, addend: 0x0, symName: '__ZN4core3ptr84drop_in_place$LT$alloc..boxed..Box$LT$serde..__private..de..content..Content$GT$$GT$17hb9b9ec8bbb5dcdc4E.1434', symObjAddr: 0x232E0, symBinAddr: 0x266D4, symSize: 0x20 }
  - { offset: 0xF8CA4, size: 0x8, addend: 0x0, symName: '__ZN4core3ptr108drop_in_place$LT$$LP$serde..__private..de..content..Content$C$serde..__private..de..content..Content$RP$$GT$17ha6bc83c661bbcb13E', symObjAddr: 0x23300, symBinAddr: 0x266F4, symSize: 0x24 }
  - { offset: 0xF8CF4, size: 0x8, addend: 0x0, symName: '__ZN4core3ptr136drop_in_place$LT$core..option..Option$LT$$LP$serde..__private..de..content..Content$C$serde..__private..de..content..Content$RP$$GT$$GT$17hf7de7b6ff2d9a378E', symObjAddr: 0x23350, symBinAddr: 0x26744, symSize: 0x14 }
  - { offset: 0xFCCE5, size: 0x8, addend: 0x0, symName: '__ZN115_$LT$core..iter..adapters..filter_map..FilterMap$LT$I$C$F$GT$$u20$as$u20$core..iter..traits..iterator..Iterator$GT$4next17h3c33b5cd8a71b4f5E', symObjAddr: 0x1D350, symBinAddr: 0x20810, symSize: 0x44 }
  - { offset: 0xFE1CF, size: 0x8, addend: 0x0, symName: '__ZN5serde2de5impls82_$LT$impl$u20$serde..de..Deserialize$u20$for$u20$core..option..Option$LT$T$GT$$GT$11deserialize17h005cfb1a4a191c65E', symObjAddr: 0x223C8, symBinAddr: 0x25888, symSize: 0x78 }
  - { offset: 0xFE305, size: 0x8, addend: 0x0, symName: '__ZN5serde2de5impls82_$LT$impl$u20$serde..de..Deserialize$u20$for$u20$core..option..Option$LT$T$GT$$GT$11deserialize17h1c48fa5bbbbf60ffE', symObjAddr: 0x22440, symBinAddr: 0x25900, symSize: 0x6C }
  - { offset: 0xFE3E4, size: 0x8, addend: 0x0, symName: '__ZN5serde2de5impls82_$LT$impl$u20$serde..de..Deserialize$u20$for$u20$core..option..Option$LT$T$GT$$GT$11deserialize17h1d485b2238802d3bE', symObjAddr: 0x224AC, symBinAddr: 0x2596C, symSize: 0x25C }
  - { offset: 0xFE700, size: 0x8, addend: 0x0, symName: '__ZN5serde2de5impls82_$LT$impl$u20$serde..de..Deserialize$u20$for$u20$core..option..Option$LT$T$GT$$GT$11deserialize17h78b312e00c3e679bE', symObjAddr: 0x22708, symBinAddr: 0x25BC8, symSize: 0x94 }
  - { offset: 0xFE812, size: 0x8, addend: 0x0, symName: '__ZN5serde2de5impls82_$LT$impl$u20$serde..de..Deserialize$u20$for$u20$core..option..Option$LT$T$GT$$GT$11deserialize17h79a7e8a868e0897bE', symObjAddr: 0x2279C, symBinAddr: 0x25C5C, symSize: 0x10C }
  - { offset: 0xFEA60, size: 0x8, addend: 0x0, symName: '__ZN5serde2de5impls82_$LT$impl$u20$serde..de..Deserialize$u20$for$u20$core..option..Option$LT$T$GT$$GT$11deserialize17h8a98f167231dda23E', symObjAddr: 0x228A8, symBinAddr: 0x25D68, symSize: 0x1C0 }
  - { offset: 0xFED31, size: 0x8, addend: 0x0, symName: '__ZN5serde2de5impls82_$LT$impl$u20$serde..de..Deserialize$u20$for$u20$core..option..Option$LT$T$GT$$GT$11deserialize17h90ff7ae40b018eaeE', symObjAddr: 0x22A68, symBinAddr: 0x25F28, symSize: 0x68 }
  - { offset: 0xFEE0B, size: 0x8, addend: 0x0, symName: '__ZN5serde2de5impls82_$LT$impl$u20$serde..de..Deserialize$u20$for$u20$core..option..Option$LT$T$GT$$GT$11deserialize17hb046e486bbdaa1e8E', symObjAddr: 0x22AD0, symBinAddr: 0x25F90, symSize: 0x9C }
  - { offset: 0xFEEDD, size: 0x8, addend: 0x0, symName: '__ZN5serde2de5impls82_$LT$impl$u20$serde..de..Deserialize$u20$for$u20$core..option..Option$LT$T$GT$$GT$11deserialize17he9d7f1a8cb6afde0E', symObjAddr: 0x22B6C, symBinAddr: 0x2602C, symSize: 0x114 }
  - { offset: 0xFF016, size: 0x8, addend: 0x0, symName: '__ZN5serde2de5impls82_$LT$impl$u20$serde..de..Deserialize$u20$for$u20$core..option..Option$LT$T$GT$$GT$11deserialize17hec9656c19f4f37d4E', symObjAddr: 0x22C80, symBinAddr: 0x26140, symSize: 0x88 }
  - { offset: 0xFF89D, size: 0x8, addend: 0x0, symName: '__ZN5serde2de5impls77_$LT$impl$u20$serde..de..Deserialize$u20$for$u20$alloc..vec..Vec$LT$T$GT$$GT$11deserialize17h1c2f02dd03f158f8E', symObjAddr: 0x1D3E0, symBinAddr: 0x208A0, symSize: 0x910 }
  - { offset: 0x1009F5, size: 0x8, addend: 0x0, symName: '__ZN5serde2de5impls77_$LT$impl$u20$serde..de..Deserialize$u20$for$u20$alloc..vec..Vec$LT$T$GT$$GT$11deserialize17h2b48bd1f2694df10E', symObjAddr: 0x1DCF0, symBinAddr: 0x211B0, symSize: 0x198 }
  - { offset: 0x100C6E, size: 0x8, addend: 0x0, symName: '__ZN5serde2de5impls77_$LT$impl$u20$serde..de..Deserialize$u20$for$u20$alloc..vec..Vec$LT$T$GT$$GT$11deserialize17h41138f9b19fc586aE', symObjAddr: 0x1DE88, symBinAddr: 0x21348, symSize: 0x1AC }
  - { offset: 0x100F59, size: 0x8, addend: 0x0, symName: '__ZN5serde2de5impls77_$LT$impl$u20$serde..de..Deserialize$u20$for$u20$alloc..vec..Vec$LT$T$GT$$GT$11deserialize17h805a481bb26086b9E', symObjAddr: 0x1E034, symBinAddr: 0x214F4, symSize: 0x760 }
  - { offset: 0x1019A1, size: 0x8, addend: 0x0, symName: '__ZN5serde2de5impls77_$LT$impl$u20$serde..de..Deserialize$u20$for$u20$alloc..vec..Vec$LT$T$GT$$GT$11deserialize17h81842a7248d49a32E', symObjAddr: 0x1E794, symBinAddr: 0x21C54, symSize: 0x134 }
  - { offset: 0x101AF4, size: 0x8, addend: 0x0, symName: '__ZN5serde2de5impls77_$LT$impl$u20$serde..de..Deserialize$u20$for$u20$alloc..vec..Vec$LT$T$GT$$GT$11deserialize17h8db09290caa6468dE', symObjAddr: 0x1E8C8, symBinAddr: 0x21D88, symSize: 0x360 }
  - { offset: 0x101F73, size: 0x8, addend: 0x0, symName: '__ZN5serde2de5impls77_$LT$impl$u20$serde..de..Deserialize$u20$for$u20$alloc..vec..Vec$LT$T$GT$$GT$11deserialize17h95213ec287ac3414E', symObjAddr: 0x1EC28, symBinAddr: 0x220E8, symSize: 0x744 }
  - { offset: 0x102832, size: 0x8, addend: 0x0, symName: '__ZN5serde2de5impls77_$LT$impl$u20$serde..de..Deserialize$u20$for$u20$alloc..vec..Vec$LT$T$GT$$GT$11deserialize17hac15eda33816d633E', symObjAddr: 0x1F36C, symBinAddr: 0x2282C, symSize: 0x25C }
  - { offset: 0x102B80, size: 0x8, addend: 0x0, symName: '__ZN5serde2de5impls77_$LT$impl$u20$serde..de..Deserialize$u20$for$u20$alloc..vec..Vec$LT$T$GT$$GT$11deserialize17hb3b6988405820d78E', symObjAddr: 0x1F5C8, symBinAddr: 0x22A88, symSize: 0xAE0 }
  - { offset: 0x103E8D, size: 0x8, addend: 0x0, symName: '__ZN5serde2de5impls77_$LT$impl$u20$serde..de..Deserialize$u20$for$u20$alloc..vec..Vec$LT$T$GT$$GT$11deserialize17hc9fe7476fbe14ff2E', symObjAddr: 0x200A8, symBinAddr: 0x23568, symSize: 0x64C }
  - { offset: 0x10487B, size: 0x8, addend: 0x0, symName: '__ZN5serde2de5impls77_$LT$impl$u20$serde..de..Deserialize$u20$for$u20$alloc..vec..Vec$LT$T$GT$$GT$11deserialize17hdbe29a300d67af7cE', symObjAddr: 0x206F4, symBinAddr: 0x23BB4, symSize: 0x674 }
  - { offset: 0x10513C, size: 0x8, addend: 0x0, symName: '__ZN5serde2de5impls77_$LT$impl$u20$serde..de..Deserialize$u20$for$u20$alloc..vec..Vec$LT$T$GT$$GT$11deserialize17hdf850b707db62420E', symObjAddr: 0x20D68, symBinAddr: 0x24228, symSize: 0xB38 }
  - { offset: 0x1068C2, size: 0x8, addend: 0x0, symName: '__ZN5serde2de5impls77_$LT$impl$u20$serde..de..Deserialize$u20$for$u20$alloc..vec..Vec$LT$T$GT$$GT$11deserialize17he483ac19fb85529fE', symObjAddr: 0x218A0, symBinAddr: 0x24D60, symSize: 0x130 }
  - { offset: 0x106A15, size: 0x8, addend: 0x0, symName: '__ZN5serde2de5impls77_$LT$impl$u20$serde..de..Deserialize$u20$for$u20$alloc..vec..Vec$LT$T$GT$$GT$11deserialize17hf7c2c00863aeb3daE', symObjAddr: 0x219D0, symBinAddr: 0x24E90, symSize: 0x9F8 }
  - { offset: 0x108D48, size: 0x8, addend: 0x0, symName: __ZN5serde9__private2de13missing_field17h81da0d63ec1dcf95E, symObjAddr: 0x22D08, symBinAddr: 0x426F0, symSize: 0x24 }
  - { offset: 0x108DFB, size: 0x8, addend: 0x0, symName: __ZN5serde9__private2de13missing_field17h8e29c0e94a453581E, symObjAddr: 0x22D2C, symBinAddr: 0x42714, symSize: 0x2C }
  - { offset: 0x108EB4, size: 0x8, addend: 0x0, symName: __ZN5serde9__private2de13missing_field17h959d011582021d97E, symObjAddr: 0x22D58, symBinAddr: 0x42740, symSize: 0x2C }
  - { offset: 0x108F6D, size: 0x8, addend: 0x0, symName: __ZN5serde9__private2de13missing_field17hcd1d852c9229ff8aE, symObjAddr: 0x22D84, symBinAddr: 0x4276C, symSize: 0x24 }
  - { offset: 0x109020, size: 0x8, addend: 0x0, symName: __ZN5serde9__private2de13missing_field17hfbf6be89116fd197E, symObjAddr: 0x22DA8, symBinAddr: 0x42790, symSize: 0x2C }
  - { offset: 0x1094B4, size: 0x8, addend: 0x0, symName: '__ZN70_$LT$alloc..vec..Vec$LT$T$C$A$GT$$u20$as$u20$core..ops..drop..Drop$GT$4drop17h05a0f39912743064E', symObjAddr: 0x22DD4, symBinAddr: 0x261C8, symSize: 0xC8 }
  - { offset: 0x109819, size: 0x8, addend: 0x0, symName: '__ZN70_$LT$alloc..vec..Vec$LT$T$C$A$GT$$u20$as$u20$core..ops..drop..Drop$GT$4drop17h849b9917c0ff3d9eE', symObjAddr: 0x22E9C, symBinAddr: 0x26290, symSize: 0x30 }
  - { offset: 0x109871, size: 0x8, addend: 0x0, symName: '__ZN70_$LT$alloc..vec..Vec$LT$T$C$A$GT$$u20$as$u20$core..ops..drop..Drop$GT$4drop17h0926b67d0bed6499E', symObjAddr: 0x22ECC, symBinAddr: 0x262C0, symSize: 0x3C }
  - { offset: 0x1098E8, size: 0x8, addend: 0x0, symName: '__ZN70_$LT$alloc..vec..Vec$LT$T$C$A$GT$$u20$as$u20$core..ops..drop..Drop$GT$4drop17h2d8a34fc5403d79fE', symObjAddr: 0x22F08, symBinAddr: 0x262FC, symSize: 0x60 }
  - { offset: 0x10999D, size: 0x8, addend: 0x0, symName: '__ZN70_$LT$alloc..vec..Vec$LT$T$C$A$GT$$u20$as$u20$core..ops..drop..Drop$GT$4drop17h300771ebac82df27E', symObjAddr: 0x22F68, symBinAddr: 0x2635C, symSize: 0x30 }
  - { offset: 0x1099F5, size: 0x8, addend: 0x0, symName: '__ZN70_$LT$alloc..vec..Vec$LT$T$C$A$GT$$u20$as$u20$core..ops..drop..Drop$GT$4drop17h37b785e17489e426E', symObjAddr: 0x22F98, symBinAddr: 0x2638C, symSize: 0x2C }
  - { offset: 0x109A4D, size: 0x8, addend: 0x0, symName: '__ZN70_$LT$alloc..vec..Vec$LT$T$C$A$GT$$u20$as$u20$core..ops..drop..Drop$GT$4drop17h435a3c1bd144a876E', symObjAddr: 0x22FC4, symBinAddr: 0x263B8, symSize: 0x40 }
  - { offset: 0x109B4C, size: 0x8, addend: 0x0, symName: '__ZN70_$LT$alloc..vec..Vec$LT$T$C$A$GT$$u20$as$u20$core..ops..drop..Drop$GT$4drop17h77da9c914d68e7aeE', symObjAddr: 0x23004, symBinAddr: 0x263F8, symSize: 0x34 }
  - { offset: 0x109BA4, size: 0x8, addend: 0x0, symName: '__ZN70_$LT$alloc..vec..Vec$LT$T$C$A$GT$$u20$as$u20$core..ops..drop..Drop$GT$4drop17h644904bb93e5bae3E', symObjAddr: 0x23038, symBinAddr: 0x2642C, symSize: 0x28 }
  - { offset: 0x109BFC, size: 0x8, addend: 0x0, symName: '__ZN70_$LT$alloc..vec..Vec$LT$T$C$A$GT$$u20$as$u20$core..ops..drop..Drop$GT$4drop17h6737b62b473c9945E', symObjAddr: 0x23060, symBinAddr: 0x26454, symSize: 0x40 }
  - { offset: 0x109D6C, size: 0x8, addend: 0x0, symName: '__ZN70_$LT$alloc..vec..Vec$LT$T$C$A$GT$$u20$as$u20$core..ops..drop..Drop$GT$4drop17h806e18b11a58f49bE', symObjAddr: 0x230A0, symBinAddr: 0x26494, symSize: 0x38 }
  - { offset: 0x109E2D, size: 0x8, addend: 0x0, symName: '__ZN70_$LT$alloc..vec..Vec$LT$T$C$A$GT$$u20$as$u20$core..ops..drop..Drop$GT$4drop17h8155722de19d93a7E', symObjAddr: 0x230D8, symBinAddr: 0x264CC, symSize: 0x40 }
  - { offset: 0x109EE2, size: 0x8, addend: 0x0, symName: '__ZN70_$LT$alloc..vec..Vec$LT$T$C$A$GT$$u20$as$u20$core..ops..drop..Drop$GT$4drop17h84ac1a023769066aE', symObjAddr: 0x23118, symBinAddr: 0x2650C, symSize: 0x44 }
  - { offset: 0x109FDE, size: 0x8, addend: 0x0, symName: '__ZN70_$LT$alloc..vec..Vec$LT$T$C$A$GT$$u20$as$u20$core..ops..drop..Drop$GT$4drop17h9b0d585e60fbd181E', symObjAddr: 0x2315C, symBinAddr: 0x26550, symSize: 0x44 }
  - { offset: 0x10A09F, size: 0x8, addend: 0x0, symName: '__ZN70_$LT$alloc..vec..Vec$LT$T$C$A$GT$$u20$as$u20$core..ops..drop..Drop$GT$4drop17ha0636f135757aff6E', symObjAddr: 0x231A0, symBinAddr: 0x26594, symSize: 0x44 }
  - { offset: 0x10A162, size: 0x8, addend: 0x0, symName: '__ZN70_$LT$alloc..vec..Vec$LT$T$C$A$GT$$u20$as$u20$core..ops..drop..Drop$GT$4drop17ha4c3f0d57a094f9eE', symObjAddr: 0x23210, symBinAddr: 0x26604, symSize: 0x30 }
  - { offset: 0x10A232, size: 0x8, addend: 0x0, symName: '__ZN70_$LT$alloc..vec..Vec$LT$T$C$A$GT$$u20$as$u20$core..ops..drop..Drop$GT$4drop17ha52dc738a23b22a0E', symObjAddr: 0x232B0, symBinAddr: 0x266A4, symSize: 0x30 }
  - { offset: 0x10A302, size: 0x8, addend: 0x0, symName: '__ZN70_$LT$alloc..vec..Vec$LT$T$C$A$GT$$u20$as$u20$core..ops..drop..Drop$GT$4drop17hbbcd49fef738614dE', symObjAddr: 0x23324, symBinAddr: 0x26718, symSize: 0x2C }
  - { offset: 0x10A35A, size: 0x8, addend: 0x0, symName: '__ZN70_$LT$alloc..vec..Vec$LT$T$C$A$GT$$u20$as$u20$core..ops..drop..Drop$GT$4drop17hd6bc1f40847ba903E', symObjAddr: 0x23364, symBinAddr: 0x26758, symSize: 0x80 }
  - { offset: 0x10A4B6, size: 0x8, addend: 0x0, symName: '__ZN70_$LT$alloc..vec..Vec$LT$T$C$A$GT$$u20$as$u20$core..ops..drop..Drop$GT$4drop17hfa455929957f59d0E', symObjAddr: 0x233E4, symBinAddr: 0x267D8, symSize: 0x34 }
  - { offset: 0x10DF54, size: 0x8, addend: 0x0, symName: '__ZN5alloc7raw_vec20RawVecInner$LT$A$GT$16with_capacity_in17h633275a306cd70aaE.1234', symObjAddr: 0x1D2F8, symBinAddr: 0x207B8, symSize: 0x38 }
  - { offset: 0x10DFF7, size: 0x8, addend: 0x0, symName: '__ZN5alloc7raw_vec20RawVecInner$LT$A$GT$7reserve17h89e5c424ee19817aE', symObjAddr: 0x1D330, symBinAddr: 0x207F0, symSize: 0x20 }
  - { offset: 0x10E1B7, size: 0x8, addend: 0x0, symName: '__ZN5alloc3vec16Vec$LT$T$C$A$GT$7reserve17h511ff655ff125c95E', symObjAddr: 0x1D394, symBinAddr: 0x20854, symSize: 0x10 }
  - { offset: 0x110653, size: 0x8, addend: 0x0, symName: _OUTLINED_FUNCTION_26, symObjAddr: 0x3B23C, symBinAddr: 0x3D77C, symSize: 0x10 }
  - { offset: 0x11066A, size: 0x8, addend: 0x0, symName: _OUTLINED_FUNCTION_101, symObjAddr: 0x3B854, symBinAddr: 0x3DD94, symSize: 0xC }
  - { offset: 0x110681, size: 0x8, addend: 0x0, symName: _OUTLINED_FUNCTION_116, symObjAddr: 0x3B99C, symBinAddr: 0x3DEDC, symSize: 0x1C }
  - { offset: 0x110698, size: 0x8, addend: 0x0, symName: _OUTLINED_FUNCTION_126, symObjAddr: 0x3BA98, symBinAddr: 0x3DFD8, symSize: 0x10 }
  - { offset: 0x1106AF, size: 0x8, addend: 0x0, symName: _OUTLINED_FUNCTION_127, symObjAddr: 0x3BAA8, symBinAddr: 0x3DFE8, symSize: 0x10 }
  - { offset: 0x1106C6, size: 0x8, addend: 0x0, symName: _OUTLINED_FUNCTION_189, symObjAddr: 0x3BF04, symBinAddr: 0x3E444, symSize: 0xC }
  - { offset: 0x1106DD, size: 0x8, addend: 0x0, symName: _OUTLINED_FUNCTION_192, symObjAddr: 0x3BF24, symBinAddr: 0x3E464, symSize: 0xC }
  - { offset: 0x1106F4, size: 0x8, addend: 0x0, symName: _OUTLINED_FUNCTION_230, symObjAddr: 0x3C128, symBinAddr: 0x3E668, symSize: 0x10 }
  - { offset: 0x11070B, size: 0x8, addend: 0x0, symName: _OUTLINED_FUNCTION_280, symObjAddr: 0x3C448, symBinAddr: 0x3E988, symSize: 0x14 }
  - { offset: 0x110722, size: 0x8, addend: 0x0, symName: _OUTLINED_FUNCTION_281, symObjAddr: 0x3C45C, symBinAddr: 0x3E99C, symSize: 0x14 }
  - { offset: 0x110739, size: 0x8, addend: 0x0, symName: _OUTLINED_FUNCTION_305, symObjAddr: 0x3C580, symBinAddr: 0x3EAC0, symSize: 0xC }
  - { offset: 0x110750, size: 0x8, addend: 0x0, symName: _OUTLINED_FUNCTION_307, symObjAddr: 0x3C598, symBinAddr: 0x3EAD8, symSize: 0xC }
  - { offset: 0x110767, size: 0x8, addend: 0x0, symName: _OUTLINED_FUNCTION_331, symObjAddr: 0x3C6DC, symBinAddr: 0x3EC1C, symSize: 0xC }
  - { offset: 0x11077E, size: 0x8, addend: 0x0, symName: _OUTLINED_FUNCTION_345, symObjAddr: 0x3C798, symBinAddr: 0x3ECD8, symSize: 0x8 }
  - { offset: 0x110795, size: 0x8, addend: 0x0, symName: _OUTLINED_FUNCTION_390, symObjAddr: 0x3CA50, symBinAddr: 0x3EF90, symSize: 0x8 }
  - { offset: 0x1107AC, size: 0x8, addend: 0x0, symName: _OUTLINED_FUNCTION_398, symObjAddr: 0x3CAC4, symBinAddr: 0x3F004, symSize: 0xC }
  - { offset: 0x1107C3, size: 0x8, addend: 0x0, symName: _OUTLINED_FUNCTION_412, symObjAddr: 0x3CB6C, symBinAddr: 0x3F0AC, symSize: 0x8 }
  - { offset: 0x1107DA, size: 0x8, addend: 0x0, symName: _OUTLINED_FUNCTION_416, symObjAddr: 0x3CBAC, symBinAddr: 0x3F0EC, symSize: 0xC }
  - { offset: 0x1107F1, size: 0x8, addend: 0x0, symName: _OUTLINED_FUNCTION_426, symObjAddr: 0x3CC14, symBinAddr: 0x3F154, symSize: 0x8 }
  - { offset: 0x110808, size: 0x8, addend: 0x0, symName: _OUTLINED_FUNCTION_427, symObjAddr: 0x3CC1C, symBinAddr: 0x3F15C, symSize: 0x8 }
  - { offset: 0x11081F, size: 0x8, addend: 0x0, symName: _OUTLINED_FUNCTION_470, symObjAddr: 0x3CE68, symBinAddr: 0x3F3A8, symSize: 0x1C }
  - { offset: 0x110836, size: 0x8, addend: 0x0, symName: _OUTLINED_FUNCTION_480, symObjAddr: 0x3CF08, symBinAddr: 0x3F448, symSize: 0x1C }
  - { offset: 0x11084D, size: 0x8, addend: 0x0, symName: _OUTLINED_FUNCTION_485, symObjAddr: 0x3CF58, symBinAddr: 0x3F498, symSize: 0x1C }
  - { offset: 0x110864, size: 0x8, addend: 0x0, symName: _OUTLINED_FUNCTION_496, symObjAddr: 0x3D01C, symBinAddr: 0x3F55C, symSize: 0x10 }
  - { offset: 0x11087B, size: 0x8, addend: 0x0, symName: _OUTLINED_FUNCTION_502, symObjAddr: 0x3D070, symBinAddr: 0x3F5B0, symSize: 0xC }
  - { offset: 0x110892, size: 0x8, addend: 0x0, symName: _OUTLINED_FUNCTION_503, symObjAddr: 0x3D07C, symBinAddr: 0x3F5BC, symSize: 0xC }
  - { offset: 0x1108A9, size: 0x8, addend: 0x0, symName: _OUTLINED_FUNCTION_504, symObjAddr: 0x3D088, symBinAddr: 0x3F5C8, symSize: 0xC }
  - { offset: 0x1108C0, size: 0x8, addend: 0x0, symName: _OUTLINED_FUNCTION_511, symObjAddr: 0x3D0F0, symBinAddr: 0x3F630, symSize: 0xC }
  - { offset: 0x1108D7, size: 0x8, addend: 0x0, symName: _OUTLINED_FUNCTION_516, symObjAddr: 0x3D13C, symBinAddr: 0x3F67C, symSize: 0x14 }
  - { offset: 0x1108EE, size: 0x8, addend: 0x0, symName: _OUTLINED_FUNCTION_541, symObjAddr: 0x3D2C8, symBinAddr: 0x3F808, symSize: 0x8 }
  - { offset: 0x110905, size: 0x8, addend: 0x0, symName: _OUTLINED_FUNCTION_562, symObjAddr: 0x3D3B0, symBinAddr: 0x3F8F0, symSize: 0xC }
  - { offset: 0x11091C, size: 0x8, addend: 0x0, symName: _OUTLINED_FUNCTION_595, symObjAddr: 0x3D574, symBinAddr: 0x3FAB4, symSize: 0x10 }
  - { offset: 0x110933, size: 0x8, addend: 0x0, symName: _OUTLINED_FUNCTION_611, symObjAddr: 0x3D62C, symBinAddr: 0x3FB6C, symSize: 0xC }
  - { offset: 0x11094A, size: 0x8, addend: 0x0, symName: _OUTLINED_FUNCTION_617, symObjAddr: 0x3D694, symBinAddr: 0x3FBD4, symSize: 0x24 }
  - { offset: 0x110961, size: 0x8, addend: 0x0, symName: _OUTLINED_FUNCTION_618, symObjAddr: 0x3D6B8, symBinAddr: 0x3FBF8, symSize: 0xC }
  - { offset: 0x110978, size: 0x8, addend: 0x0, symName: _OUTLINED_FUNCTION_619, symObjAddr: 0x3D6C4, symBinAddr: 0x3FC04, symSize: 0x24 }
  - { offset: 0x11098F, size: 0x8, addend: 0x0, symName: _OUTLINED_FUNCTION_620, symObjAddr: 0x3D6E8, symBinAddr: 0x3FC28, symSize: 0xC }
  - { offset: 0x1109A6, size: 0x8, addend: 0x0, symName: _OUTLINED_FUNCTION_625, symObjAddr: 0x3D754, symBinAddr: 0x3FC94, symSize: 0xC }
  - { offset: 0x1109BD, size: 0x8, addend: 0x0, symName: _OUTLINED_FUNCTION_630, symObjAddr: 0x3D7C0, symBinAddr: 0x3FD00, symSize: 0xC }
  - { offset: 0x1109D4, size: 0x8, addend: 0x0, symName: _OUTLINED_FUNCTION_640, symObjAddr: 0x3D850, symBinAddr: 0x3FD90, symSize: 0xC }
  - { offset: 0x1109EB, size: 0x8, addend: 0x0, symName: _OUTLINED_FUNCTION_646, symObjAddr: 0x3D8A8, symBinAddr: 0x3FDE8, symSize: 0x8 }
  - { offset: 0x110A02, size: 0x8, addend: 0x0, symName: _OUTLINED_FUNCTION_652, symObjAddr: 0x3D8F0, symBinAddr: 0x3FE30, symSize: 0x14 }
  - { offset: 0x110A19, size: 0x8, addend: 0x0, symName: _OUTLINED_FUNCTION_685, symObjAddr: 0x3DAD4, symBinAddr: 0x40014, symSize: 0xC }
  - { offset: 0x110A30, size: 0x8, addend: 0x0, symName: _OUTLINED_FUNCTION_706, symObjAddr: 0x3DC20, symBinAddr: 0x40160, symSize: 0x1C }
  - { offset: 0x110A47, size: 0x8, addend: 0x0, symName: _OUTLINED_FUNCTION_711, symObjAddr: 0x3DC88, symBinAddr: 0x401C8, symSize: 0x8 }
  - { offset: 0x110A5E, size: 0x8, addend: 0x0, symName: _OUTLINED_FUNCTION_727, symObjAddr: 0x3DD40, symBinAddr: 0x40280, symSize: 0xC }
  - { offset: 0x110A75, size: 0x8, addend: 0x0, symName: _OUTLINED_FUNCTION_732, symObjAddr: 0x3DD7C, symBinAddr: 0x402BC, symSize: 0x8 }
  - { offset: 0x110A8C, size: 0x8, addend: 0x0, symName: _OUTLINED_FUNCTION_752, symObjAddr: 0x3DE90, symBinAddr: 0x403D0, symSize: 0x8 }
  - { offset: 0x110AA3, size: 0x8, addend: 0x0, symName: _OUTLINED_FUNCTION_782, symObjAddr: 0x3E020, symBinAddr: 0x40560, symSize: 0x1C }
  - { offset: 0x110ABA, size: 0x8, addend: 0x0, symName: _OUTLINED_FUNCTION_799, symObjAddr: 0x3E0DC, symBinAddr: 0x4061C, symSize: 0x8 }
  - { offset: 0x110AD1, size: 0x8, addend: 0x0, symName: _OUTLINED_FUNCTION_807, symObjAddr: 0x3E130, symBinAddr: 0x40670, symSize: 0xC }
  - { offset: 0x110AE8, size: 0x8, addend: 0x0, symName: _OUTLINED_FUNCTION_825, symObjAddr: 0x3E214, symBinAddr: 0x40754, symSize: 0x8 }
  - { offset: 0x110AFF, size: 0x8, addend: 0x0, symName: _OUTLINED_FUNCTION_826, symObjAddr: 0x3E21C, symBinAddr: 0x4075C, symSize: 0x10 }
  - { offset: 0x110B16, size: 0x8, addend: 0x0, symName: _OUTLINED_FUNCTION_849, symObjAddr: 0x3E38C, symBinAddr: 0x408CC, symSize: 0x10 }
  - { offset: 0x110B2D, size: 0x8, addend: 0x0, symName: _OUTLINED_FUNCTION_873, symObjAddr: 0x3E534, symBinAddr: 0x40A74, symSize: 0xC }
  - { offset: 0x110B44, size: 0x8, addend: 0x0, symName: _OUTLINED_FUNCTION_894, symObjAddr: 0x3E684, symBinAddr: 0x40BC4, symSize: 0xC }
  - { offset: 0x110B5B, size: 0x8, addend: 0x0, symName: _OUTLINED_FUNCTION_897, symObjAddr: 0x3E6A8, symBinAddr: 0x40BE8, symSize: 0x18 }
  - { offset: 0x110B72, size: 0x8, addend: 0x0, symName: _OUTLINED_FUNCTION_900, symObjAddr: 0x3E6E4, symBinAddr: 0x40C24, symSize: 0xC }
  - { offset: 0x110B89, size: 0x8, addend: 0x0, symName: _OUTLINED_FUNCTION_903, symObjAddr: 0x3E708, symBinAddr: 0x40C48, symSize: 0xC }
  - { offset: 0x110BA0, size: 0x8, addend: 0x0, symName: _OUTLINED_FUNCTION_905, symObjAddr: 0x3E720, symBinAddr: 0x40C60, symSize: 0x18 }
  - { offset: 0x110BB7, size: 0x8, addend: 0x0, symName: _OUTLINED_FUNCTION_908, symObjAddr: 0x3E750, symBinAddr: 0x40C90, symSize: 0x18 }
  - { offset: 0x110BCE, size: 0x8, addend: 0x0, symName: _OUTLINED_FUNCTION_927, symObjAddr: 0x3E84C, symBinAddr: 0x40D8C, symSize: 0x18 }
  - { offset: 0x110BE5, size: 0x8, addend: 0x0, symName: _OUTLINED_FUNCTION_933, symObjAddr: 0x3E89C, symBinAddr: 0x40DDC, symSize: 0xC }
  - { offset: 0x110BFC, size: 0x8, addend: 0x0, symName: _OUTLINED_FUNCTION_991, symObjAddr: 0x3EB14, symBinAddr: 0x41054, symSize: 0xC }
  - { offset: 0x110C13, size: 0x8, addend: 0x0, symName: _OUTLINED_FUNCTION_1003, symObjAddr: 0x3EB80, symBinAddr: 0x410C0, symSize: 0x8 }
  - { offset: 0x110C2A, size: 0x8, addend: 0x0, symName: _OUTLINED_FUNCTION_1027, symObjAddr: 0x3EC70, symBinAddr: 0x411B0, symSize: 0xC }
  - { offset: 0x110C41, size: 0x8, addend: 0x0, symName: _OUTLINED_FUNCTION_1037, symObjAddr: 0x3ECCC, symBinAddr: 0x4120C, symSize: 0xC }
  - { offset: 0x110C58, size: 0x8, addend: 0x0, symName: _OUTLINED_FUNCTION_1042, symObjAddr: 0x3ED00, symBinAddr: 0x41240, symSize: 0xC }
  - { offset: 0x110C6F, size: 0x8, addend: 0x0, symName: _OUTLINED_FUNCTION_1048, symObjAddr: 0x3ED3C, symBinAddr: 0x4127C, symSize: 0xC }
  - { offset: 0x110C86, size: 0x8, addend: 0x0, symName: _OUTLINED_FUNCTION_1061, symObjAddr: 0x3EDB8, symBinAddr: 0x412F8, symSize: 0xC }
  - { offset: 0x110C9D, size: 0x8, addend: 0x0, symName: _OUTLINED_FUNCTION_1069, symObjAddr: 0x3EE08, symBinAddr: 0x41348, symSize: 0x8 }
  - { offset: 0x110CB4, size: 0x8, addend: 0x0, symName: _OUTLINED_FUNCTION_1080, symObjAddr: 0x3EE70, symBinAddr: 0x413B0, symSize: 0x8 }
  - { offset: 0x110CCB, size: 0x8, addend: 0x0, symName: _OUTLINED_FUNCTION_1094, symObjAddr: 0x3EEF0, symBinAddr: 0x41430, symSize: 0xC }
  - { offset: 0x110CE2, size: 0x8, addend: 0x0, symName: _OUTLINED_FUNCTION_1098, symObjAddr: 0x3EF14, symBinAddr: 0x41454, symSize: 0xC }
  - { offset: 0x110CF9, size: 0x8, addend: 0x0, symName: _OUTLINED_FUNCTION_1102, symObjAddr: 0x3EF48, symBinAddr: 0x41488, symSize: 0xC }
  - { offset: 0x110D10, size: 0x8, addend: 0x0, symName: _OUTLINED_FUNCTION_1103, symObjAddr: 0x3EF54, symBinAddr: 0x41494, symSize: 0xC }
  - { offset: 0x110D27, size: 0x8, addend: 0x0, symName: _OUTLINED_FUNCTION_1117, symObjAddr: 0x3F024, symBinAddr: 0x41564, symSize: 0xC }
  - { offset: 0x110D3E, size: 0x8, addend: 0x0, symName: _OUTLINED_FUNCTION_1121, symObjAddr: 0x3F064, symBinAddr: 0x415A4, symSize: 0xC }
  - { offset: 0x110D55, size: 0x8, addend: 0x0, symName: _OUTLINED_FUNCTION_1150, symObjAddr: 0x3F218, symBinAddr: 0x41758, symSize: 0xC }
  - { offset: 0x110D6C, size: 0x8, addend: 0x0, symName: _OUTLINED_FUNCTION_1151, symObjAddr: 0x3F224, symBinAddr: 0x41764, symSize: 0xC }
  - { offset: 0x110D83, size: 0x8, addend: 0x0, symName: _OUTLINED_FUNCTION_1160, symObjAddr: 0x3F2B0, symBinAddr: 0x417F0, symSize: 0x14 }
  - { offset: 0x110D9A, size: 0x8, addend: 0x0, symName: _OUTLINED_FUNCTION_1168, symObjAddr: 0x3F328, symBinAddr: 0x41868, symSize: 0x14 }
  - { offset: 0x110DB1, size: 0x8, addend: 0x0, symName: _OUTLINED_FUNCTION_1172, symObjAddr: 0x3F370, symBinAddr: 0x418B0, symSize: 0xC }
  - { offset: 0x110DC8, size: 0x8, addend: 0x0, symName: _OUTLINED_FUNCTION_1175, symObjAddr: 0x3F394, symBinAddr: 0x418D4, symSize: 0xC }
  - { offset: 0x110DDF, size: 0x8, addend: 0x0, symName: _OUTLINED_FUNCTION_1181, symObjAddr: 0x3F3EC, symBinAddr: 0x4192C, symSize: 0xC }
  - { offset: 0x110DF6, size: 0x8, addend: 0x0, symName: _OUTLINED_FUNCTION_1182, symObjAddr: 0x3F3F8, symBinAddr: 0x41938, symSize: 0xC }
  - { offset: 0x110E0D, size: 0x8, addend: 0x0, symName: _OUTLINED_FUNCTION_1185, symObjAddr: 0x3F424, symBinAddr: 0x41964, symSize: 0xC }
  - { offset: 0x110E24, size: 0x8, addend: 0x0, symName: _OUTLINED_FUNCTION_1186, symObjAddr: 0x3F430, symBinAddr: 0x41970, symSize: 0xC }
  - { offset: 0x110E3B, size: 0x8, addend: 0x0, symName: _OUTLINED_FUNCTION_1188, symObjAddr: 0x3F450, symBinAddr: 0x41990, symSize: 0x14 }
  - { offset: 0x110E52, size: 0x8, addend: 0x0, symName: _OUTLINED_FUNCTION_1195, symObjAddr: 0x3F4AC, symBinAddr: 0x419EC, symSize: 0xC }
  - { offset: 0x110E69, size: 0x8, addend: 0x0, symName: _OUTLINED_FUNCTION_1204, symObjAddr: 0x3F520, symBinAddr: 0x41A60, symSize: 0xC }
  - { offset: 0x110E80, size: 0x8, addend: 0x0, symName: _OUTLINED_FUNCTION_1205, symObjAddr: 0x3F52C, symBinAddr: 0x41A6C, symSize: 0x1C }
  - { offset: 0x110E97, size: 0x8, addend: 0x0, symName: _OUTLINED_FUNCTION_1209, symObjAddr: 0x3F59C, symBinAddr: 0x41ADC, symSize: 0x1C }
  - { offset: 0x110EAE, size: 0x8, addend: 0x0, symName: _OUTLINED_FUNCTION_1211, symObjAddr: 0x3F5D4, symBinAddr: 0x41B14, symSize: 0x1C }
  - { offset: 0x1C3533, size: 0x8, addend: 0x0, symName: '__ZN99_$LT$sqlite3_allocator..allocator..SQLite3Allocator$u20$as$u20$core..alloc..global..GlobalAlloc$GT$5alloc17h74ee30de5a07220aE', symObjAddr: 0x3A150, symBinAddr: 0x3C690, symSize: 0x20 }
  - { offset: 0x1C3787, size: 0x8, addend: 0x0, symName: '__ZN99_$LT$sqlite3_allocator..allocator..SQLite3Allocator$u20$as$u20$core..alloc..global..GlobalAlloc$GT$5alloc17h74ee30de5a07220aE', symObjAddr: 0x3A150, symBinAddr: 0x3C690, symSize: 0x20 }
  - { offset: 0x1C37C3, size: 0x8, addend: 0x0, symName: '__ZN99_$LT$sqlite3_allocator..allocator..SQLite3Allocator$u20$as$u20$core..alloc..global..GlobalAlloc$GT$5alloc17h74ee30de5a07220aE', symObjAddr: 0x3A150, symBinAddr: 0x3C690, symSize: 0x20 }
  - { offset: 0x1C37F3, size: 0x8, addend: 0x0, symName: '__ZN99_$LT$sqlite3_allocator..allocator..SQLite3Allocator$u20$as$u20$core..alloc..global..GlobalAlloc$GT$7dealloc17hfd7625e64c6a68c6E', symObjAddr: 0x3A170, symBinAddr: 0x3C6B0, symSize: 0x20 }
  - { offset: 0x1C3836, size: 0x8, addend: 0x0, symName: '__ZN99_$LT$sqlite3_allocator..allocator..SQLite3Allocator$u20$as$u20$core..alloc..global..GlobalAlloc$GT$7dealloc17hfd7625e64c6a68c6E', symObjAddr: 0x3A170, symBinAddr: 0x3C6B0, symSize: 0x20 }
  - { offset: 0x7CB5, size: 0x8, addend: 0x0, symName: '__ZN5alloc6borrow12Cow$LT$B$GT$10into_owned17h643a9ae7e5125e2cE', symObjAddr: 0x8F0, symBinAddr: 0x4854, symSize: 0x34 }
  - { offset: 0x7D7B, size: 0x8, addend: 0x0, symName: _OUTLINED_FUNCTION_645, symObjAddr: 0x3D89C, symBinAddr: 0x3FDDC, symSize: 0xC }
  - { offset: 0xDD56D, size: 0x8, addend: 0x0, symName: '__ZN45_$LT$T$u20$as$u20$alloc..string..ToString$GT$9to_string17h675dad94b0e82d54E', symObjAddr: 0x1A2AC, symBinAddr: 0x1D76C, symSize: 0x5C }
  - { offset: 0xDD65F, size: 0x8, addend: 0x0, symName: '__ZN58_$LT$alloc..string..String$u20$as$u20$core..fmt..Write$GT$10write_char17h875c016c9b4d7b7aE.1222', symObjAddr: 0x1A440, symBinAddr: 0x1D900, symSize: 0x68 }
  - { offset: 0xDE077, size: 0x8, addend: 0x0, symName: '__ZN63_$LT$alloc..alloc..Global$u20$as$u20$core..alloc..Allocator$GT$8allocate17hf8c099a57ad288afE.1180', symObjAddr: 0x18DC8, symBinAddr: 0x1C288, symSize: 0x4 }
  - { offset: 0xDE0CA, size: 0x8, addend: 0x0, symName: __ZN5alloc5alloc15exchange_malloc17h11a46edc1fb0c42cE.1203, symObjAddr: 0x18DEC, symBinAddr: 0x1C2AC, symSize: 0x1C }
  - { offset: 0xDEEA5, size: 0x8, addend: 0x0, symName: '__ZN5alloc5boxed16Box$LT$T$C$A$GT$13new_uninit_in17h1c58cee606f11097E', symObjAddr: 0x18DCC, symBinAddr: 0x1C28C, symSize: 0x20 }
  - { offset: 0xDF0B1, size: 0x8, addend: 0x0, symName: '__ZN69_$LT$alloc..boxed..Box$LT$T$C$A$GT$$u20$as$u20$core..fmt..Display$GT$3fmt17h7c2109ed553dfb01E', symObjAddr: 0x18E64, symBinAddr: 0x1C324, symSize: 0x210 }
  - { offset: 0xE1CDC, size: 0x8, addend: 0x0, symName: '__ZN4core3ptr65drop_in_place$LT$powersync_core..checkpoint..CheckpointResult$GT$17h80cc3a5a12c5ceb8E', symObjAddr: 0x19628, symBinAddr: 0x1CAE8, symSize: 0x20 }
  - { offset: 0xE1D5F, size: 0x8, addend: 0x0, symName: '__ZN4core3ptr97drop_in_place$LT$alloc..vec..Vec$LT$powersync_core..sync..checkpoint..OwnedBucketChecksum$GT$$GT$17h21982eb1fe4edd0dE', symObjAddr: 0x19648, symBinAddr: 0x1CB08, symSize: 0x54 }
  - { offset: 0xE1EDC, size: 0x8, addend: 0x0, symName: '__ZN4core3ptr59drop_in_place$LT$powersync_core..sync..line..Checkpoint$GT$17h15cf7b1af0ffde3fE.1209', symObjAddr: 0x1969C, symBinAddr: 0x1CB5C, symSize: 0x40 }
  - { offset: 0xE2107, size: 0x8, addend: 0x0, symName: '__ZN4core3ptr58drop_in_place$LT$powersync_core..error..PowerSyncError$GT$17h0c937a6ac1f831aaE', symObjAddr: 0x1A308, symBinAddr: 0x1D7C8, symSize: 0x64 }
  - { offset: 0xE2388, size: 0x8, addend: 0x0, symName: '__ZN4core3ptr63drop_in_place$LT$powersync_core..error..PowerSyncErrorCause$GT$17he125fb4bb2d93ac2E', symObjAddr: 0x1A3DC, symBinAddr: 0x1D89C, symSize: 0x64 }
  - { offset: 0xE26EA, size: 0x8, addend: 0x0, symName: '__ZN4core3ptr74drop_in_place$LT$powersync_core..sync..sync_status..DownloadSyncStatus$GT$17h6352ac8086b391e7E', symObjAddr: 0x1C7A0, symBinAddr: 0x1FC60, symSize: 0x48 }
  - { offset: 0xE27DF, size: 0x8, addend: 0x0, symName: '__ZN4core3ptr81drop_in_place$LT$alloc..sync..Arc$LT$powersync_core..state..DatabaseState$GT$$GT$17h995da45b5d8f9e86E', symObjAddr: 0x1C7E8, symBinAddr: 0x1FCA8, symSize: 0x28 }
  - { offset: 0xE280A, size: 0x8, addend: 0x0, symName: '__ZN4core3ptr81drop_in_place$LT$alloc..sync..Arc$LT$powersync_core..state..DatabaseState$GT$$GT$17h995da45b5d8f9e86E', symObjAddr: 0x1C7E8, symBinAddr: 0x1FCA8, symSize: 0x28 }
  - { offset: 0xE2828, size: 0x8, addend: 0x0, symName: '__ZN4core3ptr81drop_in_place$LT$alloc..sync..Arc$LT$powersync_core..state..DatabaseState$GT$$GT$17h995da45b5d8f9e86E', symObjAddr: 0x1C7E8, symBinAddr: 0x1FCA8, symSize: 0x28 }
  - { offset: 0xE2844, size: 0x8, addend: 0x0, symName: '__ZN4core3ptr81drop_in_place$LT$alloc..sync..Arc$LT$powersync_core..state..DatabaseState$GT$$GT$17h995da45b5d8f9e86E', symObjAddr: 0x1C7E8, symBinAddr: 0x1FCA8, symSize: 0x28 }
  - { offset: 0xE28F5, size: 0x8, addend: 0x0, symName: '__ZN4core3ptr88drop_in_place$LT$alloc..vec..Vec$LT$powersync_core..sync..interface..Instruction$GT$$GT$17h6f7f4c69f1f9a638E', symObjAddr: 0x1C830, symBinAddr: 0x1FCF0, symSize: 0x24 }
  - { offset: 0xE2F02, size: 0x8, addend: 0x0, symName: '__ZN44_$LT$$RF$T$u20$as$u20$core..fmt..Display$GT$3fmt17h2abe43fdbe39feecE', symObjAddr: 0x18A94, symBinAddr: 0x1BF54, symSize: 0xC }
  - { offset: 0xE7147, size: 0x8, addend: 0x0, symName: __ZN4core3ops8function6FnOnce9call_once17ha7e21fc9f53793b6E, symObjAddr: 0x18E40, symBinAddr: 0x1C300, symSize: 0x24 }
  - { offset: 0xE78B1, size: 0x8, addend: 0x0, symName: __ZN14powersync_core15operations_vtab6MODULE17h011a804a9d86f0abE, symObjAddr: 0x4D608, symBinAddr: 0x54F08, symSize: 0x0 }
  - { offset: 0xE7903, size: 0x8, addend: 0x0, symName: __ZN14powersync_core15operations_vtab7connect17h30949c75958f3638E, symObjAddr: 0x197FC, symBinAddr: 0x1CCBC, symSize: 0x7C }
  - { offset: 0xE7ADC, size: 0x8, addend: 0x0, symName: __ZN14powersync_core15operations_vtab10disconnect17hc8b7c9c0941a6cdbE, symObjAddr: 0x19878, symBinAddr: 0x1CD38, symSize: 0x18 }
  - { offset: 0xE7BEB, size: 0x8, addend: 0x0, symName: __ZN14powersync_core15operations_vtab6update17h74121f5a518464d1E, symObjAddr: 0x198A0, symBinAddr: 0x1CD60, symSize: 0x9E4 }
  - { offset: 0xE9448, size: 0x8, addend: 0x0, symName: __ZN14powersync_core4sync9interface8register7control17h659f02c3ef468f17E, symObjAddr: 0x1A4A8, symBinAddr: 0x1D968, symSize: 0x215C }
  - { offset: 0xEC99E, size: 0x8, addend: 0x0, symName: __ZN14powersync_core4sync9interface8register7destroy17he652556f7f0972d7E, symObjAddr: 0x1C604, symBinAddr: 0x1FAC4, symSize: 0x54 }
  - { offset: 0xECFE8, size: 0x8, addend: 0x0, symName: __ZN14powersync_core4sync9interface29powersync_offline_sync_status17hc41256409f1790c3E, symObjAddr: 0x1C658, symBinAddr: 0x1FB18, symSize: 0x148 }
  - { offset: 0xEDC52, size: 0x8, addend: 0x0, symName: '__ZN14powersync_core6schema1_83_$LT$impl$u20$serde..de..Deserialize$u20$for$u20$powersync_core..schema..Schema$GT$11deserialize17hf99697011eb40390E', symObjAddr: 0x1CE00, symBinAddr: 0x202C0, symSize: 0x3EC }
  - { offset: 0xEE5B3, size: 0x8, addend: 0x0, symName: __ZN14powersync_core10checkpoint29powersync_validate_checkpoint17hd01cc4a09d1394c6E, symObjAddr: 0x19074, symBinAddr: 0x1C534, symSize: 0x510 }
  - { offset: 0xEF95A, size: 0x8, addend: 0x0, symName: __ZN14powersync_core9vtab_util12vtab_no_open17hf79609e3659b04b7E, symObjAddr: 0x19890, symBinAddr: 0x1CD50, symSize: 0x4 }
  - { offset: 0xEF978, size: 0x8, addend: 0x0, symName: __ZN14powersync_core9vtab_util14vtab_no_filter17h952c5bddb55a3464E, symObjAddr: 0x19894, symBinAddr: 0x1CD54, symSize: 0x4 }
  - { offset: 0xEF996, size: 0x8, addend: 0x0, symName: __ZN14powersync_core9vtab_util11vtab_no_eof17hc81852e0c235ceadE, symObjAddr: 0x19898, symBinAddr: 0x1CD58, symSize: 0x4 }
  - { offset: 0xEF9B4, size: 0x8, addend: 0x0, symName: __ZN14powersync_core9vtab_util14vtab_no_column17hf26651ffbcf00bd4E, symObjAddr: 0x1989C, symBinAddr: 0x1CD5C, symSize: 0x4 }
  - { offset: 0xEFA7B, size: 0x8, addend: 0x0, symName: __ZN14powersync_core9vtab_util11vtab_result17hee4c20ea6e7e3e1eE, symObjAddr: 0x1A36C, symBinAddr: 0x1D82C, symSize: 0x70 }
  - { offset: 0xEFC01, size: 0x8, addend: 0x0, symName: __ZN14powersync_core12update_hooks22powersync_update_hooks17h9eb9932dd90224dbE, symObjAddr: 0x1C854, symBinAddr: 0x1FD14, symSize: 0x278 }
  - { offset: 0xF04D8, size: 0x8, addend: 0x0, symName: __ZN14powersync_core12update_hooks16destroy_function17h8558bd38493d213bE, symObjAddr: 0x1CACC, symBinAddr: 0x1FF8C, symSize: 0x6C }
  - { offset: 0xF0649, size: 0x8, addend: 0x0, symName: __ZN14powersync_core12update_hooks14check_previous17hc314ff9e1f104513E, symObjAddr: 0x1CB38, symBinAddr: 0x1FFF8, symSize: 0x48 }
  - { offset: 0xF082E, size: 0x8, addend: 0x0, symName: __ZN14powersync_core12update_hooks16update_hook_impl17h3c06d4594da286e2E, symObjAddr: 0x1CB80, symBinAddr: 0x20040, symSize: 0xE8 }
  - { offset: 0xF0C0A, size: 0x8, addend: 0x0, symName: __ZN14powersync_core12update_hooks16commit_hook_impl17h280d883c3f02df2bE, symObjAddr: 0x1CC68, symBinAddr: 0x20128, symSize: 0x154 }
  - { offset: 0xF1138, size: 0x8, addend: 0x0, symName: __ZN14powersync_core12update_hooks18rollback_hook_impl17h745042ce05bc23a1E, symObjAddr: 0x1CDBC, symBinAddr: 0x2027C, symSize: 0x44 }
  - { offset: 0xF19A1, size: 0x8, addend: 0x0, symName: '__ZN100_$LT$$BP$mut$u20$sqlite3_capi..bindings..sqlite3_context$u20$as$u20$sqlite_nostd..nostd..Context$GT$9user_data17h1c0107f1cf5d9e10E', symObjAddr: 0x1C810, symBinAddr: 0x1FCD0, symSize: 0x20 }
  - { offset: 0xF19CF, size: 0x8, addend: 0x0, symName: '__ZN100_$LT$$BP$mut$u20$sqlite3_capi..bindings..sqlite3_context$u20$as$u20$sqlite_nostd..nostd..Context$GT$9user_data17h1c0107f1cf5d9e10E', symObjAddr: 0x1C810, symBinAddr: 0x1FCD0, symSize: 0x20 }
  - { offset: 0xF1A71, size: 0x8, addend: 0x0, symName: '__ZN96_$LT$$BP$mut$u20$sqlite3_capi..bindings..sqlite3_value$u20$as$u20$sqlite_nostd..nostd..Value$GT$10value_type17h1a1443ddcce6cc64E', symObjAddr: 0x1A284, symBinAddr: 0x1D744, symSize: 0x28 }
  - { offset: 0xF1D78, size: 0x8, addend: 0x0, symName: '__ZN86_$LT$serde_json..ser..Compound$LT$W$C$F$GT$$u20$as$u20$serde..ser..SerializeStruct$GT$15serialize_field17h294f1211375a4a0bE.1212', symObjAddr: 0x19738, symBinAddr: 0x1CBF8, symSize: 0x40 }
  - { offset: 0xF1E61, size: 0x8, addend: 0x0, symName: '__ZN86_$LT$serde_json..ser..Compound$LT$W$C$F$GT$$u20$as$u20$serde..ser..SerializeStruct$GT$3end17h61d6202baeb4d845E.1213', symObjAddr: 0x19778, symBinAddr: 0x1CC38, symSize: 0x20 }
  - { offset: 0xF228E, size: 0x8, addend: 0x0, symName: '__ZN86_$LT$serde_json..ser..Compound$LT$W$C$F$GT$$u20$as$u20$serde..ser..SerializeStruct$GT$15serialize_field17ha5f5110bf5dbea50E', symObjAddr: 0x1D298, symBinAddr: 0x20758, symSize: 0x60 }
  - { offset: 0xF2363, size: 0x8, addend: 0x0, symName: '__ZN95_$LT$$RF$mut$u20$serde_json..ser..Serializer$LT$W$C$F$GT$$u20$as$u20$serde..ser..Serializer$GT$16serialize_struct17h51d3002e3386c250E.1211', symObjAddr: 0x196DC, symBinAddr: 0x1CB9C, symSize: 0x5C }
  - { offset: 0xF2401, size: 0x8, addend: 0x0, symName: '__ZN95_$LT$$RF$mut$u20$serde_json..ser..Serializer$LT$W$C$F$GT$$u20$as$u20$serde..ser..Serializer$GT$13serialize_map17hd028d0287f246e45E.1216', symObjAddr: 0x197A8, symBinAddr: 0x1CC68, symSize: 0x48 }
  - { offset: 0xF2612, size: 0x8, addend: 0x0, symName: '__ZN95_$LT$$RF$mut$u20$serde_json..ser..Serializer$LT$W$C$F$GT$$u20$as$u20$serde..ser..Serializer$GT$24serialize_struct_variant17h689c84496e5192d4E', symObjAddr: 0x1D1EC, symBinAddr: 0x206AC, symSize: 0x64 }
  - { offset: 0xF272B, size: 0x8, addend: 0x0, symName: __ZN10serde_json3ser9Formatter10end_object17h83306cd8d79eb707E.1214, symObjAddr: 0x19798, symBinAddr: 0x1CC58, symSize: 0xC }
  - { offset: 0xF2776, size: 0x8, addend: 0x0, symName: __ZN10serde_json3ser9Formatter12begin_object17he0568a470a7d27d4E, symObjAddr: 0x197F0, symBinAddr: 0x1CCB0, symSize: 0xC }
  - { offset: 0xF27C1, size: 0x8, addend: 0x0, symName: __ZN10serde_json3ser9Formatter18begin_object_value17h7d815bc768efd021E, symObjAddr: 0x1D250, symBinAddr: 0x20710, symSize: 0xC }
  - { offset: 0xF2AA9, size: 0x8, addend: 0x0, symName: '__ZN93_$LT$serde_json..ser..Compound$LT$W$C$F$GT$$u20$as$u20$serde..ser..SerializeStructVariant$GT$3end17hcd2e2a45b692f003E', symObjAddr: 0x1D25C, symBinAddr: 0x2071C, symSize: 0x3C }
  - { offset: 0xF31BF, size: 0x8, addend: 0x0, symName: '__ZN60_$LT$$RF$mut$u20$W$u20$as$u20$serde_json..io..imp..Write$GT$9write_all17hc333ece42dc6e0b8E.1215', symObjAddr: 0x197A4, symBinAddr: 0x1CC64, symSize: 0x4 }
  - { offset: 0xF3C1E, size: 0x8, addend: 0x0, symName: '__ZN41_$LT$T$u20$as$u20$serde..de..Expected$GT$3fmt17h3936dbf1a65ba22bE', symObjAddr: 0x18A64, symBinAddr: 0x1BF24, symSize: 0x18 }
  - { offset: 0xF3C97, size: 0x8, addend: 0x0, symName: '__ZN41_$LT$T$u20$as$u20$serde..de..Expected$GT$3fmt17h446af02cfdb2a660E', symObjAddr: 0x18A7C, symBinAddr: 0x1BF3C, symSize: 0x18 }
  - { offset: 0xF4039, size: 0x8, addend: 0x0, symName: '__ZN5alloc11collections5btree3map5entry28VacantEntry$LT$K$C$V$C$A$GT$12insert_entry17h35638240c2705092E', symObjAddr: 0x18AA0, symBinAddr: 0x1BF60, symSize: 0x328 }
  - { offset: 0xF4941, size: 0x8, addend: 0x0, symName: '__ZN4core6result19Result$LT$T$C$E$GT$3map17h10409cf95bcb3b84E', symObjAddr: 0x18E08, symBinAddr: 0x1C2C8, symSize: 0x38 }
  - { offset: 0xF4FA7, size: 0x8, addend: 0x0, symName: '__ZN5alloc7raw_vec20RawVecInner$LT$A$GT$16with_capacity_in17h633275a306cd70aaE.1207', symObjAddr: 0x19584, symBinAddr: 0x1CA44, symSize: 0x30 }
  - { offset: 0xF5050, size: 0x8, addend: 0x0, symName: '__ZN5alloc3vec12Vec$LT$T$GT$13with_capacity17h9af9919ab69fa36eE', symObjAddr: 0x195B4, symBinAddr: 0x1CA74, symSize: 0x30 }
  - { offset: 0xF50B6, size: 0x8, addend: 0x0, symName: '__ZN4core6result19Result$LT$T$C$E$GT$7map_err17h7c06eafecc998e88E', symObjAddr: 0x195E4, symBinAddr: 0x1CAA4, symSize: 0x44 }
  - { offset: 0xF62AC, size: 0x8, addend: 0x0, symName: _OUTLINED_FUNCTION_23, symObjAddr: 0x3B1FC, symBinAddr: 0x3D73C, symSize: 0x14 }
  - { offset: 0xF62C3, size: 0x8, addend: 0x0, symName: _OUTLINED_FUNCTION_107, symObjAddr: 0x3B8D4, symBinAddr: 0x3DE14, symSize: 0x14 }
  - { offset: 0xF62DA, size: 0x8, addend: 0x0, symName: _OUTLINED_FUNCTION_145, symObjAddr: 0x3BBF8, symBinAddr: 0x3E138, symSize: 0x10 }
  - { offset: 0xF62F1, size: 0x8, addend: 0x0, symName: _OUTLINED_FUNCTION_175, symObjAddr: 0x3BDF4, symBinAddr: 0x3E334, symSize: 0x10 }
  - { offset: 0xF6308, size: 0x8, addend: 0x0, symName: _OUTLINED_FUNCTION_177, symObjAddr: 0x3BE14, symBinAddr: 0x3E354, symSize: 0x10 }
  - { offset: 0xF631F, size: 0x8, addend: 0x0, symName: _OUTLINED_FUNCTION_185, symObjAddr: 0x3BEC4, symBinAddr: 0x3E404, symSize: 0x20 }
  - { offset: 0xF6336, size: 0x8, addend: 0x0, symName: _OUTLINED_FUNCTION_200, symObjAddr: 0x3BFA0, symBinAddr: 0x3E4E0, symSize: 0xC }
  - { offset: 0xF634D, size: 0x8, addend: 0x0, symName: _OUTLINED_FUNCTION_271, symObjAddr: 0x3C39C, symBinAddr: 0x3E8DC, symSize: 0x14 }
  - { offset: 0xF6364, size: 0x8, addend: 0x0, symName: _OUTLINED_FUNCTION_274, symObjAddr: 0x3C3D0, symBinAddr: 0x3E910, symSize: 0x14 }
  - { offset: 0xF637B, size: 0x8, addend: 0x0, symName: _OUTLINED_FUNCTION_275, symObjAddr: 0x3C3E4, symBinAddr: 0x3E924, symSize: 0x14 }
  - { offset: 0xF6392, size: 0x8, addend: 0x0, symName: _OUTLINED_FUNCTION_296, symObjAddr: 0x3C518, symBinAddr: 0x3EA58, symSize: 0x8 }
  - { offset: 0xF63A9, size: 0x8, addend: 0x0, symName: _OUTLINED_FUNCTION_333, symObjAddr: 0x3C6F4, symBinAddr: 0x3EC34, symSize: 0x10 }
  - { offset: 0xF63C0, size: 0x8, addend: 0x0, symName: _OUTLINED_FUNCTION_374, symObjAddr: 0x3C938, symBinAddr: 0x3EE78, symSize: 0x10 }
  - { offset: 0xF63D7, size: 0x8, addend: 0x0, symName: _OUTLINED_FUNCTION_405, symObjAddr: 0x3CB18, symBinAddr: 0x3F058, symSize: 0x24 }
  - { offset: 0xF63EE, size: 0x8, addend: 0x0, symName: _OUTLINED_FUNCTION_424, symObjAddr: 0x3CC00, symBinAddr: 0x3F140, symSize: 0xC }
  - { offset: 0xF6405, size: 0x8, addend: 0x0, symName: _OUTLINED_FUNCTION_488, symObjAddr: 0x3CF9C, symBinAddr: 0x3F4DC, symSize: 0x2C }
  - { offset: 0xF641C, size: 0x8, addend: 0x0, symName: _OUTLINED_FUNCTION_510, symObjAddr: 0x3D0E4, symBinAddr: 0x3F624, symSize: 0xC }
  - { offset: 0xF6433, size: 0x8, addend: 0x0, symName: _OUTLINED_FUNCTION_524, symObjAddr: 0x3D1BC, symBinAddr: 0x3F6FC, symSize: 0x14 }
  - { offset: 0xF644A, size: 0x8, addend: 0x0, symName: _OUTLINED_FUNCTION_528, symObjAddr: 0x3D1FC, symBinAddr: 0x3F73C, symSize: 0x28 }
  - { offset: 0xF6461, size: 0x8, addend: 0x0, symName: _OUTLINED_FUNCTION_537, symObjAddr: 0x3D2A4, symBinAddr: 0x3F7E4, symSize: 0x8 }
  - { offset: 0xF6478, size: 0x8, addend: 0x0, symName: _OUTLINED_FUNCTION_572, symObjAddr: 0x3D434, symBinAddr: 0x3F974, symSize: 0xC }
  - { offset: 0xF648F, size: 0x8, addend: 0x0, symName: _OUTLINED_FUNCTION_583, symObjAddr: 0x3D4C4, symBinAddr: 0x3FA04, symSize: 0x10 }
  - { offset: 0xF64A6, size: 0x8, addend: 0x0, symName: _OUTLINED_FUNCTION_600, symObjAddr: 0x3D5BC, symBinAddr: 0x3FAFC, symSize: 0xC }
  - { offset: 0xF64BD, size: 0x8, addend: 0x0, symName: _OUTLINED_FUNCTION_603, symObjAddr: 0x3D5E0, symBinAddr: 0x3FB20, symSize: 0x8 }
  - { offset: 0xF64D4, size: 0x8, addend: 0x0, symName: _OUTLINED_FUNCTION_626, symObjAddr: 0x3D760, symBinAddr: 0x3FCA0, symSize: 0xC }
  - { offset: 0xF64EB, size: 0x8, addend: 0x0, symName: _OUTLINED_FUNCTION_627, symObjAddr: 0x3D76C, symBinAddr: 0x3FCAC, symSize: 0xC }
  - { offset: 0xF6502, size: 0x8, addend: 0x0, symName: _OUTLINED_FUNCTION_628, symObjAddr: 0x3D778, symBinAddr: 0x3FCB8, symSize: 0x24 }
  - { offset: 0xF6519, size: 0x8, addend: 0x0, symName: _OUTLINED_FUNCTION_638, symObjAddr: 0x3D838, symBinAddr: 0x3FD78, symSize: 0xC }
  - { offset: 0xF6530, size: 0x8, addend: 0x0, symName: _OUTLINED_FUNCTION_648, symObjAddr: 0x3D8B8, symBinAddr: 0x3FDF8, symSize: 0x8 }
  - { offset: 0xF6547, size: 0x8, addend: 0x0, symName: _OUTLINED_FUNCTION_649, symObjAddr: 0x3D8C0, symBinAddr: 0x3FE00, symSize: 0x14 }
  - { offset: 0xF655E, size: 0x8, addend: 0x0, symName: _OUTLINED_FUNCTION_654, symObjAddr: 0x3D90C, symBinAddr: 0x3FE4C, symSize: 0x14 }
  - { offset: 0xF6575, size: 0x8, addend: 0x0, symName: _OUTLINED_FUNCTION_655, symObjAddr: 0x3D920, symBinAddr: 0x3FE60, symSize: 0x8 }
  - { offset: 0xF658C, size: 0x8, addend: 0x0, symName: _OUTLINED_FUNCTION_656, symObjAddr: 0x3D928, symBinAddr: 0x3FE68, symSize: 0x8 }
  - { offset: 0xF65A3, size: 0x8, addend: 0x0, symName: _OUTLINED_FUNCTION_679, symObjAddr: 0x3DA78, symBinAddr: 0x3FFB8, symSize: 0xC }
  - { offset: 0xF65BA, size: 0x8, addend: 0x0, symName: _OUTLINED_FUNCTION_681, symObjAddr: 0x3DAA4, symBinAddr: 0x3FFE4, symSize: 0xC }
  - { offset: 0xF65D1, size: 0x8, addend: 0x0, symName: _OUTLINED_FUNCTION_682, symObjAddr: 0x3DAB0, symBinAddr: 0x3FFF0, symSize: 0xC }
  - { offset: 0xF65E8, size: 0x8, addend: 0x0, symName: _OUTLINED_FUNCTION_690, symObjAddr: 0x3DB10, symBinAddr: 0x40050, symSize: 0x20 }
  - { offset: 0xF65FF, size: 0x8, addend: 0x0, symName: _OUTLINED_FUNCTION_699, symObjAddr: 0x3DB90, symBinAddr: 0x400D0, symSize: 0xC }
  - { offset: 0xF6616, size: 0x8, addend: 0x0, symName: _OUTLINED_FUNCTION_716, symObjAddr: 0x3DCD4, symBinAddr: 0x40214, symSize: 0xC }
  - { offset: 0xF662D, size: 0x8, addend: 0x0, symName: _OUTLINED_FUNCTION_717, symObjAddr: 0x3DCE0, symBinAddr: 0x40220, symSize: 0xC }
  - { offset: 0xF6644, size: 0x8, addend: 0x0, symName: _OUTLINED_FUNCTION_719, symObjAddr: 0x3DCF4, symBinAddr: 0x40234, symSize: 0x8 }
  - { offset: 0xF665B, size: 0x8, addend: 0x0, symName: _OUTLINED_FUNCTION_720, symObjAddr: 0x3DCFC, symBinAddr: 0x4023C, symSize: 0x8 }
  - { offset: 0xF6672, size: 0x8, addend: 0x0, symName: _OUTLINED_FUNCTION_721, symObjAddr: 0x3DD04, symBinAddr: 0x40244, symSize: 0x8 }
  - { offset: 0xF6689, size: 0x8, addend: 0x0, symName: _OUTLINED_FUNCTION_734, symObjAddr: 0x3DD90, symBinAddr: 0x402D0, symSize: 0x8 }
  - { offset: 0xF66A0, size: 0x8, addend: 0x0, symName: _OUTLINED_FUNCTION_746, symObjAddr: 0x3DE28, symBinAddr: 0x40368, symSize: 0x10 }
  - { offset: 0xF66B7, size: 0x8, addend: 0x0, symName: _OUTLINED_FUNCTION_748, symObjAddr: 0x3DE44, symBinAddr: 0x40384, symSize: 0x1C }
  - { offset: 0xF66CE, size: 0x8, addend: 0x0, symName: _OUTLINED_FUNCTION_751, symObjAddr: 0x3DE78, symBinAddr: 0x403B8, symSize: 0x18 }
  - { offset: 0xF66E5, size: 0x8, addend: 0x0, symName: _OUTLINED_FUNCTION_755, symObjAddr: 0x3DEAC, symBinAddr: 0x403EC, symSize: 0x8 }
  - { offset: 0xF66FC, size: 0x8, addend: 0x0, symName: _OUTLINED_FUNCTION_770, symObjAddr: 0x3DF88, symBinAddr: 0x404C8, symSize: 0xC }
  - { offset: 0xF6713, size: 0x8, addend: 0x0, symName: _OUTLINED_FUNCTION_804, symObjAddr: 0x3E110, symBinAddr: 0x40650, symSize: 0x8 }
  - { offset: 0xF672A, size: 0x8, addend: 0x0, symName: _OUTLINED_FUNCTION_827, symObjAddr: 0x3E22C, symBinAddr: 0x4076C, symSize: 0x10 }
  - { offset: 0xF6741, size: 0x8, addend: 0x0, symName: _OUTLINED_FUNCTION_838, symObjAddr: 0x3E2DC, symBinAddr: 0x4081C, symSize: 0x10 }
  - { offset: 0xF6758, size: 0x8, addend: 0x0, symName: _OUTLINED_FUNCTION_844, symObjAddr: 0x3E33C, symBinAddr: 0x4087C, symSize: 0x10 }
  - { offset: 0xF676F, size: 0x8, addend: 0x0, symName: _OUTLINED_FUNCTION_853, symObjAddr: 0x3E3CC, symBinAddr: 0x4090C, symSize: 0x10 }
  - { offset: 0xF6786, size: 0x8, addend: 0x0, symName: _OUTLINED_FUNCTION_856, symObjAddr: 0x3E3FC, symBinAddr: 0x4093C, symSize: 0x10 }
  - { offset: 0xF679D, size: 0x8, addend: 0x0, symName: _OUTLINED_FUNCTION_857, symObjAddr: 0x3E40C, symBinAddr: 0x4094C, symSize: 0x10 }
  - { offset: 0xF67B4, size: 0x8, addend: 0x0, symName: _OUTLINED_FUNCTION_864, symObjAddr: 0x3E47C, symBinAddr: 0x409BC, symSize: 0x10 }
  - { offset: 0xF67CB, size: 0x8, addend: 0x0, symName: _OUTLINED_FUNCTION_879, symObjAddr: 0x3E588, symBinAddr: 0x40AC8, symSize: 0xC }
  - { offset: 0xF67E2, size: 0x8, addend: 0x0, symName: _OUTLINED_FUNCTION_884, symObjAddr: 0x3E5D0, symBinAddr: 0x40B10, symSize: 0xC }
  - { offset: 0xF67F9, size: 0x8, addend: 0x0, symName: _OUTLINED_FUNCTION_891, symObjAddr: 0x3E654, symBinAddr: 0x40B94, symSize: 0xC }
  - { offset: 0xF6810, size: 0x8, addend: 0x0, symName: _OUTLINED_FUNCTION_953, symObjAddr: 0x3E98C, symBinAddr: 0x40ECC, symSize: 0x8 }
  - { offset: 0xF6827, size: 0x8, addend: 0x0, symName: _OUTLINED_FUNCTION_962, symObjAddr: 0x3E9EC, symBinAddr: 0x40F2C, symSize: 0x8 }
  - { offset: 0xF683E, size: 0x8, addend: 0x0, symName: _OUTLINED_FUNCTION_963, symObjAddr: 0x3E9F4, symBinAddr: 0x40F34, symSize: 0xC }
  - { offset: 0xF6855, size: 0x8, addend: 0x0, symName: _OUTLINED_FUNCTION_970, symObjAddr: 0x3EA44, symBinAddr: 0x40F84, symSize: 0x8 }
  - { offset: 0xF686C, size: 0x8, addend: 0x0, symName: _OUTLINED_FUNCTION_971, symObjAddr: 0x3EA4C, symBinAddr: 0x40F8C, symSize: 0xC }
  - { offset: 0xF6883, size: 0x8, addend: 0x0, symName: _OUTLINED_FUNCTION_978, symObjAddr: 0x3EA90, symBinAddr: 0x40FD0, symSize: 0xC }
  - { offset: 0xF689A, size: 0x8, addend: 0x0, symName: _OUTLINED_FUNCTION_979, symObjAddr: 0x3EA9C, symBinAddr: 0x40FDC, symSize: 0x8 }
  - { offset: 0xF68B1, size: 0x8, addend: 0x0, symName: _OUTLINED_FUNCTION_980, symObjAddr: 0x3EAA4, symBinAddr: 0x40FE4, symSize: 0x8 }
  - { offset: 0xF68C8, size: 0x8, addend: 0x0, symName: _OUTLINED_FUNCTION_981, symObjAddr: 0x3EAAC, symBinAddr: 0x40FEC, symSize: 0xC }
  - { offset: 0xF68DF, size: 0x8, addend: 0x0, symName: _OUTLINED_FUNCTION_982, symObjAddr: 0x3EAB8, symBinAddr: 0x40FF8, symSize: 0x8 }
  - { offset: 0xF68F6, size: 0x8, addend: 0x0, symName: _OUTLINED_FUNCTION_989, symObjAddr: 0x3EB04, symBinAddr: 0x41044, symSize: 0x8 }
  - { offset: 0xF690D, size: 0x8, addend: 0x0, symName: _OUTLINED_FUNCTION_994, symObjAddr: 0x3EB30, symBinAddr: 0x41070, symSize: 0x8 }
  - { offset: 0xF6924, size: 0x8, addend: 0x0, symName: _OUTLINED_FUNCTION_995, symObjAddr: 0x3EB38, symBinAddr: 0x41078, symSize: 0xC }
  - { offset: 0xF693B, size: 0x8, addend: 0x0, symName: _OUTLINED_FUNCTION_1008, symObjAddr: 0x3EBB4, symBinAddr: 0x410F4, symSize: 0x8 }
  - { offset: 0xF6952, size: 0x8, addend: 0x0, symName: _OUTLINED_FUNCTION_1012, symObjAddr: 0x3EBD8, symBinAddr: 0x41118, symSize: 0x8 }
  - { offset: 0xF6969, size: 0x8, addend: 0x0, symName: _OUTLINED_FUNCTION_1014, symObjAddr: 0x3EBEC, symBinAddr: 0x4112C, symSize: 0xC }
  - { offset: 0xF6980, size: 0x8, addend: 0x0, symName: _OUTLINED_FUNCTION_1035, symObjAddr: 0x3ECBC, symBinAddr: 0x411FC, symSize: 0x8 }
  - { offset: 0xF6997, size: 0x8, addend: 0x0, symName: _OUTLINED_FUNCTION_1097, symObjAddr: 0x3EF0C, symBinAddr: 0x4144C, symSize: 0x8 }
  - { offset: 0xF69AE, size: 0x8, addend: 0x0, symName: _OUTLINED_FUNCTION_1109, symObjAddr: 0x3EFA4, symBinAddr: 0x414E4, symSize: 0x14 }
  - { offset: 0xF69C5, size: 0x8, addend: 0x0, symName: _OUTLINED_FUNCTION_1115, symObjAddr: 0x3F004, symBinAddr: 0x41544, symSize: 0x14 }
  - { offset: 0xF69DC, size: 0x8, addend: 0x0, symName: _OUTLINED_FUNCTION_1116, symObjAddr: 0x3F018, symBinAddr: 0x41558, symSize: 0xC }
  - { offset: 0xF69F3, size: 0x8, addend: 0x0, symName: _OUTLINED_FUNCTION_1120, symObjAddr: 0x3F058, symBinAddr: 0x41598, symSize: 0xC }
  - { offset: 0xF6A0A, size: 0x8, addend: 0x0, symName: _OUTLINED_FUNCTION_1137, symObjAddr: 0x3F15C, symBinAddr: 0x4169C, symSize: 0x14 }
  - { offset: 0xF6A21, size: 0x8, addend: 0x0, symName: _OUTLINED_FUNCTION_1138, symObjAddr: 0x3F170, symBinAddr: 0x416B0, symSize: 0x14 }
  - { offset: 0xF6A38, size: 0x8, addend: 0x0, symName: _OUTLINED_FUNCTION_1141, symObjAddr: 0x3F19C, symBinAddr: 0x416DC, symSize: 0xC }
  - { offset: 0xF6A4F, size: 0x8, addend: 0x0, symName: _OUTLINED_FUNCTION_1156, symObjAddr: 0x3F268, symBinAddr: 0x417A8, symSize: 0xC }
  - { offset: 0xF6A66, size: 0x8, addend: 0x0, symName: _OUTLINED_FUNCTION_1163, symObjAddr: 0x3F2E4, symBinAddr: 0x41824, symSize: 0xC }
  - { offset: 0x1C38B1, size: 0x8, addend: 0x0, symName: __ZN12sqlite3_capi4capi8bind_int17he9a4cadc5ade7ae1E, symObjAddr: 0x3A190, symBinAddr: 0x3C6D0, symSize: 0x20 }
  - { offset: 0x1C95FC, size: 0x8, addend: 0x0, symName: __MergedGlobals, symObjAddr: 0x61B5D0, symBinAddr: 0x56148, symSize: 0x0 }
  - { offset: 0x1C978E, size: 0x8, addend: 0x0, symName: __ZN12sqlite3_capi4capi8bind_int17he9a4cadc5ade7ae1E, symObjAddr: 0x3A190, symBinAddr: 0x3C6D0, symSize: 0x20 }
  - { offset: 0x1C97F0, size: 0x8, addend: 0x0, symName: __ZN12sqlite3_capi4capi10bind_int6417h465b0bed406df614E, symObjAddr: 0x3A1B0, symBinAddr: 0x3C6F0, symSize: 0x20 }
  - { offset: 0x1C9852, size: 0x8, addend: 0x0, symName: __ZN12sqlite3_capi4capi9bind_null17he392b6117fe31047E, symObjAddr: 0x3A1D0, symBinAddr: 0x3C710, symSize: 0x20 }
  - { offset: 0x1C98A5, size: 0x8, addend: 0x0, symName: __ZN12sqlite3_capi4capi9bind_text17h6787e93f25a730a1E, symObjAddr: 0x3A1F0, symBinAddr: 0x3C730, symSize: 0x24 }
  - { offset: 0x1C9926, size: 0x8, addend: 0x0, symName: __ZN12sqlite3_capi4capi20bind_parameter_count17h58677114e1a30c7bE, symObjAddr: 0x3A214, symBinAddr: 0x3C754, symSize: 0x20 }
  - { offset: 0x1C996A, size: 0x8, addend: 0x0, symName: __ZN12sqlite3_capi4capi12column_bytes17hef325090daea043bE, symObjAddr: 0x3A234, symBinAddr: 0x3C774, symSize: 0x20 }
  - { offset: 0x1C99C0, size: 0x8, addend: 0x0, symName: __ZN12sqlite3_capi4capi15column_text_ptr17hd91606341919388cE, symObjAddr: 0x3A254, symBinAddr: 0x3C794, symSize: 0x20 }
  - { offset: 0x1C9A16, size: 0x8, addend: 0x0, symName: __ZN12sqlite3_capi4capi10column_int17he2184ce6829e97bdE, symObjAddr: 0x3A274, symBinAddr: 0x3C7B4, symSize: 0x20 }
  - { offset: 0x1C9A6C, size: 0x8, addend: 0x0, symName: __ZN12sqlite3_capi4capi12column_int6417h46aebdee987a89e9E, symObjAddr: 0x3A294, symBinAddr: 0x3C7D4, symSize: 0x20 }
  - { offset: 0x1C9AC1, size: 0x8, addend: 0x0, symName: __ZN12sqlite3_capi4capi17context_db_handle17h17f946b0bcf4df4eE, symObjAddr: 0x3A2B4, symBinAddr: 0x3C7F4, symSize: 0x20 }
  - { offset: 0x1C9B07, size: 0x8, addend: 0x0, symName: __ZN12sqlite3_capi4capi16create_module_v217h70b0cf3c0108e20bE, symObjAddr: 0x3A2D4, symBinAddr: 0x3C814, symSize: 0x28 }
  - { offset: 0x1C9B8A, size: 0x8, addend: 0x0, symName: __ZN12sqlite3_capi4capi4exec17h8db0f87608d90877E, symObjAddr: 0x3A2FC, symBinAddr: 0x3C83C, symSize: 0x2C }
  - { offset: 0x1C9BE0, size: 0x8, addend: 0x0, symName: __ZN12sqlite3_capi4capi10prepare_v217h47d125e77d31b25aE, symObjAddr: 0x3A328, symBinAddr: 0x3C868, symSize: 0x20 }
  - { offset: 0x1C9C66, size: 0x8, addend: 0x0, symName: __ZN12sqlite3_capi4capi11result_null17h5fda38bc18ce62a2E, symObjAddr: 0x3A348, symBinAddr: 0x3C888, symSize: 0x20 }
  - { offset: 0x1C9CA8, size: 0x8, addend: 0x0, symName: __ZN12sqlite3_capi4capi12result_error17ha01404d6acbf7536E, symObjAddr: 0x3A368, symBinAddr: 0x3C8A8, symSize: 0x20 }
  - { offset: 0x1C9D0A, size: 0x8, addend: 0x0, symName: __ZN12sqlite3_capi4capi17result_error_code17h1a1a2a36a2992a10E, symObjAddr: 0x3A388, symBinAddr: 0x3C8C8, symSize: 0x20 }
  - { offset: 0x1C9D5C, size: 0x8, addend: 0x0, symName: __ZN12sqlite3_capi4capi11result_text17h2b36d82fa50e3513E, symObjAddr: 0x3A3A8, symBinAddr: 0x3C8E8, symSize: 0x24 }
  - { offset: 0x1C9DCF, size: 0x8, addend: 0x0, symName: __ZN12sqlite3_capi4capi14result_subtype17h6d6c3c2927e9ec0eE, symObjAddr: 0x3A3CC, symBinAddr: 0x3C90C, symSize: 0x20 }
  - { offset: 0x1C9E20, size: 0x8, addend: 0x0, symName: __ZN12sqlite3_capi4capi10value_text17h48caaa422cc87017E, symObjAddr: 0x3A3EC, symBinAddr: 0x3C92C, symSize: 0x40 }
  - { offset: 0x1C9E9A, size: 0x8, addend: 0x0, symName: __ZN12sqlite3_capi4capi11value_bytes17h606143a515c4bdc8E, symObjAddr: 0x3A42C, symBinAddr: 0x3C96C, symSize: 0x20 }
  - { offset: 0x1C9EE0, size: 0x8, addend: 0x0, symName: __ZN12sqlite3_capi4capi10value_type17hbda689bdc249974dE, symObjAddr: 0x3A44C, symBinAddr: 0x3C98C, symSize: 0x20 }
  - { offset: 0x140B40, size: 0x8, addend: 0x0, symName: '__ZN45_$LT$T$u20$as$u20$alloc..string..ToString$GT$9to_string17h675dad94b0e82d54E.2259', symObjAddr: 0x2905C, symBinAddr: 0x2BBF4, symSize: 0x48 }
  - { offset: 0x140BE1, size: 0x8, addend: 0x0, symName: '__ZN45_$LT$T$u20$as$u20$alloc..string..ToString$GT$9to_string17hfff2db66fd32c607E', symObjAddr: 0x29224, symBinAddr: 0x2BDBC, symSize: 0x70 }
  - { offset: 0x140D94, size: 0x8, addend: 0x0, symName: '__ZN58_$LT$alloc..string..String$u20$as$u20$core..fmt..Write$GT$10write_char17h875c016c9b4d7b7aE.2268', symObjAddr: 0x291BC, symBinAddr: 0x2BD54, symSize: 0x68 }
  - { offset: 0x1413FF, size: 0x8, addend: 0x0, symName: '__ZN63_$LT$alloc..alloc..Global$u20$as$u20$core..alloc..Allocator$GT$8allocate17hf8c099a57ad288afE.2201', symObjAddr: 0x27398, symBinAddr: 0x2A1D0, symSize: 0x10 }
  - { offset: 0x14143B, size: 0x8, addend: 0x0, symName: '__ZN63_$LT$alloc..alloc..Global$u20$as$u20$core..alloc..Allocator$GT$8allocate17hf8c099a57ad288afE.2201', symObjAddr: 0x27398, symBinAddr: 0x2A1D0, symSize: 0x10 }
  - { offset: 0x141493, size: 0x8, addend: 0x0, symName: __ZN5alloc5alloc15exchange_malloc17h11a46edc1fb0c42cE.2204, symObjAddr: 0x273A8, symBinAddr: 0x2A1E0, symSize: 0x1C }
  - { offset: 0x1431AC, size: 0x8, addend: 0x0, symName: '__ZN4core3ptr58drop_in_place$LT$powersync_core..error..PowerSyncError$GT$17h0c937a6ac1f831aaE.2260', symObjAddr: 0x290A4, symBinAddr: 0x2BC3C, symSize: 0x80 }
  - { offset: 0x1432F9, size: 0x8, addend: 0x0, symName: '__ZN4core3ptr50drop_in_place$LT$alloc..borrow..Cow$LT$str$GT$$GT$17h55f66ffa7b8d14d3E.2262', symObjAddr: 0x29124, symBinAddr: 0x2BCBC, symSize: 0x1C }
  - { offset: 0x14343E, size: 0x8, addend: 0x0, symName: '__ZN4core3ptr63drop_in_place$LT$powersync_core..error..PowerSyncErrorCause$GT$17he125fb4bb2d93ac2E.2263', symObjAddr: 0x29140, symBinAddr: 0x2BCD8, symSize: 0x64 }
  - { offset: 0x14386D, size: 0x8, addend: 0x0, symName: '__ZN4core3ptr62drop_in_place$LT$powersync_core..schema..table_info..Table$GT$17hfb4e0eb6fd19597fE.2310', symObjAddr: 0x2A9E0, symBinAddr: 0x2D558, symSize: 0x6C }
  - { offset: 0x143E70, size: 0x8, addend: 0x0, symName: '__ZN44_$LT$$RF$T$u20$as$u20$core..fmt..Display$GT$3fmt17h8bf350f241a2d5ccE', symObjAddr: 0x27128, symBinAddr: 0x29F60, symSize: 0x114 }
  - { offset: 0x143F73, size: 0x8, addend: 0x0, symName: '__ZN44_$LT$$RF$T$u20$as$u20$core..fmt..Display$GT$3fmt17he92abcac772a86f6E', symObjAddr: 0x27268, symBinAddr: 0x2A0A0, symSize: 0x130 }
  - { offset: 0x14414A, size: 0x8, addend: 0x0, symName: '__ZN115_$LT$core..iter..adapters..filter_map..FilterMap$LT$I$C$F$GT$$u20$as$u20$core..iter..traits..iterator..Iterator$GT$4next17h939f1a325691f884E', symObjAddr: 0x2AA4C, symBinAddr: 0x2D5C4, symSize: 0xB0 }
  - { offset: 0x14467A, size: 0x8, addend: 0x0, symName: '__ZN91_$LT$core..slice..iter..Iter$LT$T$GT$$u20$as$u20$core..iter..traits..iterator..Iterator$GT$4next17ha72d0d1ea7f2274aE', symObjAddr: 0x2AB24, symBinAddr: 0x2D69C, symSize: 0x28 }
  - { offset: 0x1469BF, size: 0x8, addend: 0x0, symName: __ZN14powersync_core5views18powersync_view_sql17h267af2dc8a315e3fE, symObjAddr: 0x297D4, symBinAddr: 0x2C34C, symSize: 0x2DC }
  - { offset: 0x1472C2, size: 0x8, addend: 0x0, symName: __ZN14powersync_core5views28powersync_trigger_delete_sql17h41684a2158eebda3E, symObjAddr: 0x29AB0, symBinAddr: 0x2C628, symSize: 0x3E0 }
  - { offset: 0x147F0A, size: 0x8, addend: 0x0, symName: __ZN14powersync_core5views28powersync_trigger_insert_sql17h5fbf2c7f116a755dE, symObjAddr: 0x29E90, symBinAddr: 0x2CA08, symSize: 0x298 }
  - { offset: 0x148659, size: 0x8, addend: 0x0, symName: __ZN14powersync_core5views28powersync_trigger_update_sql17he713992edce71a4bE, symObjAddr: 0x2A128, symBinAddr: 0x2CCA0, symSize: 0x658 }
  - { offset: 0x14942C, size: 0x8, addend: 0x0, symName: __ZN14powersync_core5views20json_object_fragment17h5799333885772a3fE, symObjAddr: 0x2A7C4, symBinAddr: 0x2D33C, symSize: 0x21C }
  - { offset: 0x149F13, size: 0x8, addend: 0x0, symName: '__ZN75_$LT$powersync_core..bson..error..BsonError$u20$as$u20$serde..de..Error$GT$6custom17h41b6055b6ca8149bE', symObjAddr: 0x275FC, symBinAddr: 0x2A3EC, symSize: 0x28 }
  - { offset: 0x149F83, size: 0x8, addend: 0x0, symName: '__ZN75_$LT$powersync_core..bson..error..BsonError$u20$as$u20$serde..de..Error$GT$6custom17heaef0311360e3259E', symObjAddr: 0x29420, symBinAddr: 0x2BF98, symSize: 0x30 }
  - { offset: 0x14A0DE, size: 0x8, addend: 0x0, symName: '__ZN77_$LT$powersync_core..bson..error..ErrorKind$u20$as$u20$core..fmt..Display$GT$3fmt17hdbd1b4305ad32f1aE', symObjAddr: 0x292B4, symBinAddr: 0x2BE2C, symSize: 0x16C }
  - { offset: 0x14AB06, size: 0x8, addend: 0x0, symName: '__ZN76_$LT$powersync_core..error..PowerSyncError$u20$as$u20$core..fmt..Display$GT$3fmt17hf997c19ec01438bdE', symObjAddr: 0x29798, symBinAddr: 0x2C310, symSize: 0x10 }
  - { offset: 0x14AB32, size: 0x8, addend: 0x0, symName: '__ZN125_$LT$powersync_core..error..PowerSyncError$u20$as$u20$core..convert..From$LT$powersync_core..error..RawPowerSyncError$GT$$GT$4from17h7971e317ca7ee48eE', symObjAddr: 0x294EC, symBinAddr: 0x2C064, symSize: 0x38 }
  - { offset: 0x14AB82, size: 0x8, addend: 0x0, symName: '__ZN116_$LT$powersync_core..error..PowerSyncError$u20$as$u20$core..convert..From$LT$sqlite_nostd..nostd..ResultCode$GT$$GT$4from17h16262fee0a503002E', symObjAddr: 0x297A8, symBinAddr: 0x2C320, symSize: 0x2C }
  - { offset: 0x14B27C, size: 0x8, addend: 0x0, symName: '__ZN62_$LT$serde_json..error..Error$u20$as$u20$serde..ser..Error$GT$6custom17hc3eb74a9b55f1a3aE', symObjAddr: 0x29294, symBinAddr: 0x43018, symSize: 0x20 }
  - { offset: 0x14B90D, size: 0x8, addend: 0x0, symName: '__ZN5serde2de5impls75_$LT$impl$u20$serde..de..Deserialize$u20$for$u20$alloc..rc..Rc$LT$T$GT$$GT$11deserialize17h7976a04d9c6fb817E', symObjAddr: 0x278DC, symBinAddr: 0x2A474, symSize: 0x7E8 }
  - { offset: 0x14C89B, size: 0x8, addend: 0x0, symName: '__ZN5serde2de5impls75_$LT$impl$u20$serde..de..Deserialize$u20$for$u20$alloc..rc..Rc$LT$T$GT$$GT$11deserialize17h8ca82e37818cb06aE', symObjAddr: 0x280C4, symBinAddr: 0x2AC5C, symSize: 0x5DC }
  - { offset: 0x14D374, size: 0x8, addend: 0x0, symName: '__ZN5serde2de5impls75_$LT$impl$u20$serde..de..Deserialize$u20$for$u20$alloc..rc..Rc$LT$T$GT$$GT$11deserialize17h9f163741177d47fdE', symObjAddr: 0x286A0, symBinAddr: 0x2B238, symSize: 0x1F4 }
  - { offset: 0x14D9EB, size: 0x8, addend: 0x0, symName: '__ZN5serde2de5impls75_$LT$impl$u20$serde..de..Deserialize$u20$for$u20$alloc..rc..Rc$LT$T$GT$$GT$11deserialize17had1494ef4eeab531E', symObjAddr: 0x28894, symBinAddr: 0x2B42C, symSize: 0x474 }
  - { offset: 0x14E11B, size: 0x8, addend: 0x0, symName: '__ZN5serde2de5impls75_$LT$impl$u20$serde..de..Deserialize$u20$for$u20$alloc..rc..Rc$LT$T$GT$$GT$11deserialize17hca3bcfd089a9c7bcE', symObjAddr: 0x28D08, symBinAddr: 0x2B8A0, symSize: 0x354 }
  - { offset: 0x14E682, size: 0x8, addend: 0x0, symName: __ZN5serde2de5Error12invalid_type17hcb9b6c215293cfebE, symObjAddr: 0x275B4, symBinAddr: 0x42D78, symSize: 0x48 }
  - { offset: 0x14E6EE, size: 0x8, addend: 0x0, symName: __ZN5serde2de5Error13invalid_value17hb474c511ca85a9bfE, symObjAddr: 0x2765C, symBinAddr: 0x42DC0, symSize: 0x48 }
  - { offset: 0x14E759, size: 0x8, addend: 0x0, symName: __ZN5serde2de5Error13missing_field17h5aa10373832fe34eE, symObjAddr: 0x276A4, symBinAddr: 0x42E08, symSize: 0x34 }
  - { offset: 0x14E7B8, size: 0x8, addend: 0x0, symName: __ZN5serde2de5Error13missing_field17h866a6065face7e2aE, symObjAddr: 0x276D8, symBinAddr: 0x42E3C, symSize: 0x34 }
  - { offset: 0x14E818, size: 0x8, addend: 0x0, symName: __ZN5serde2de5Error14invalid_length17hc26d94d7839123e9E, symObjAddr: 0x2770C, symBinAddr: 0x42E70, symSize: 0x50 }
  - { offset: 0x14E884, size: 0x8, addend: 0x0, symName: __ZN5serde2de5Error14invalid_length17hebe4655b4dfdb332E, symObjAddr: 0x2775C, symBinAddr: 0x42EC0, symSize: 0x50 }
  - { offset: 0x14E8EF, size: 0x8, addend: 0x0, symName: __ZN5serde2de5Error15duplicate_field17h64db56536d979271E, symObjAddr: 0x277AC, symBinAddr: 0x42F10, symSize: 0x34 }
  - { offset: 0x14E94E, size: 0x8, addend: 0x0, symName: __ZN5serde2de5Error15duplicate_field17hbe4404cad7a1acb6E, symObjAddr: 0x277E0, symBinAddr: 0x42F44, symSize: 0x34 }
  - { offset: 0x14E9AE, size: 0x8, addend: 0x0, symName: __ZN5serde2de5Error15unknown_variant17h2f1c781a538a4084E, symObjAddr: 0x27814, symBinAddr: 0x42F78, symSize: 0x50 }
  - { offset: 0x14EA1A, size: 0x8, addend: 0x0, symName: __ZN5serde2de5Error15unknown_variant17hffe2c1673642a60fE, symObjAddr: 0x27864, symBinAddr: 0x42FC8, symSize: 0x50 }
  - { offset: 0x14EDBF, size: 0x8, addend: 0x0, symName: __ZN4core3fmt9Formatter9write_fmt17hac6a9372802011c5E.2199, symObjAddr: 0x2723C, symBinAddr: 0x2A074, symSize: 0x2C }
  - { offset: 0x14F113, size: 0x8, addend: 0x0, symName: '__ZN5alloc2rc15Rc$LT$T$C$A$GT$11from_box_in17habe5863b2f05e987E', symObjAddr: 0x273C4, symBinAddr: 0x2A1FC, symSize: 0x48 }
  - { offset: 0x14F3AB, size: 0x8, addend: 0x0, symName: '__ZN5alloc2rc15Rc$LT$T$C$A$GT$9drop_slow17h0852940247fb34d5E', symObjAddr: 0x2740C, symBinAddr: 0x2A244, symSize: 0x44 }
  - { offset: 0x14F59A, size: 0x8, addend: 0x0, symName: '__ZN5alloc2rc15Rc$LT$T$C$A$GT$9drop_slow17h125b3c959b9fcffaE', symObjAddr: 0x27450, symBinAddr: 0x2A288, symSize: 0x3C }
  - { offset: 0x14F77F, size: 0x8, addend: 0x0, symName: '__ZN5alloc2rc15Rc$LT$T$C$A$GT$9drop_slow17h41f39293e462fb44E', symObjAddr: 0x2748C, symBinAddr: 0x2A2C4, symSize: 0x44 }
  - { offset: 0x14F9D6, size: 0x8, addend: 0x0, symName: '__ZN5alloc2rc15Rc$LT$T$C$A$GT$9drop_slow17h88e48bea63e9a862E', symObjAddr: 0x274D0, symBinAddr: 0x2A308, symSize: 0x64 }
  - { offset: 0x14FCC6, size: 0x8, addend: 0x0, symName: '__ZN5alloc2rc15Rc$LT$T$C$A$GT$9drop_slow17ha50cd90e856c42d1E', symObjAddr: 0x27534, symBinAddr: 0x2A36C, symSize: 0x44 }
  - { offset: 0x14FECB, size: 0x8, addend: 0x0, symName: '__ZN5alloc2rc15Rc$LT$T$C$A$GT$9drop_slow17he2bfb210b0294338E', symObjAddr: 0x27578, symBinAddr: 0x2A3B0, symSize: 0x3C }
  - { offset: 0x15006F, size: 0x8, addend: 0x0, symName: __ZN14powersync_core4bson5error9BsonError3new17hae259e43404eb6f6E, symObjAddr: 0x27624, symBinAddr: 0x2A414, symSize: 0x38 }
  - { offset: 0x1500F7, size: 0x8, addend: 0x0, symName: '__ZN4core6result19Result$LT$T$C$E$GT$3map17h3fa91480f28c6dc8E', symObjAddr: 0x278B4, symBinAddr: 0x2A44C, symSize: 0x28 }
  - { offset: 0x1506A4, size: 0x8, addend: 0x0, symName: '__ZN4core6result19Result$LT$T$C$E$GT$6expect17h2723f4769fff190dE.2265', symObjAddr: 0x291A4, symBinAddr: 0x2BD3C, symSize: 0x18 }
  - { offset: 0x150945, size: 0x8, addend: 0x0, symName: __ZN14powersync_core5error14PowerSyncError6errstr17ha1e36557a8c8748bE, symObjAddr: 0x29450, symBinAddr: 0x2BFC8, symSize: 0x9C }
  - { offset: 0x150CC6, size: 0x8, addend: 0x0, symName: __ZN14powersync_core5error14PowerSyncError14argument_error17h55f6ea7c41ef508aE, symObjAddr: 0x29524, symBinAddr: 0x2C09C, symSize: 0x30 }
  - { offset: 0x150CF2, size: 0x8, addend: 0x0, symName: __ZN14powersync_core5error14PowerSyncError17as_argument_error17h01e63b3fb714688aE, symObjAddr: 0x29554, symBinAddr: 0x2C0CC, symSize: 0x30 }
  - { offset: 0x150D1E, size: 0x8, addend: 0x0, symName: __ZN14powersync_core5error14PowerSyncError11state_error17hdefd0a3c50b51126E, symObjAddr: 0x29584, symBinAddr: 0x2C0FC, symSize: 0x24 }
  - { offset: 0x150D41, size: 0x8, addend: 0x0, symName: __ZN14powersync_core5error14PowerSyncError19sync_protocol_error17h93147aad0a87ac07E, symObjAddr: 0x295A8, symBinAddr: 0x2C120, symSize: 0x28 }
  - { offset: 0x150D97, size: 0x8, addend: 0x0, symName: __ZN14powersync_core5error14PowerSyncError16unknown_internal17h08a289d5e143c810E, symObjAddr: 0x295D0, symBinAddr: 0x2C148, symSize: 0x24 }
  - { offset: 0x150DC9, size: 0x8, addend: 0x0, symName: __ZN14powersync_core5error14PowerSyncError8internal17h606574d3f7ead349E, symObjAddr: 0x295F4, symBinAddr: 0x2C16C, symSize: 0x24 }
  - { offset: 0x150E0F, size: 0x8, addend: 0x0, symName: __ZN14powersync_core5error14PowerSyncError12apply_to_ctx17hfd2488a411bf001dE, symObjAddr: 0x29618, symBinAddr: 0x2C190, symSize: 0x98 }
  - { offset: 0x150FD5, size: 0x8, addend: 0x0, symName: __ZN5alloc6string6String10insert_str17hd1f231be45e73360E, symObjAddr: 0x296B0, symBinAddr: 0x2C228, symSize: 0x8C }
  - { offset: 0x15121B, size: 0x8, addend: 0x0, symName: __ZN14powersync_core5error14PowerSyncError17sqlite_error_code17h60115d933c616c81E, symObjAddr: 0x2973C, symBinAddr: 0x2C2B4, symSize: 0x5C }
  - { offset: 0x1518EC, size: 0x8, addend: 0x0, symName: '__ZN4core6result19Result$LT$T$C$E$GT$7map_err17ha91b1f2aac0f4dfaE', symObjAddr: 0x2A780, symBinAddr: 0x2D2F8, symSize: 0x44 }
  - { offset: 0x151A6E, size: 0x8, addend: 0x0, symName: '__ZN5alloc3vec16Vec$LT$T$C$A$GT$4push17h012f1e8def97779eE.2313', symObjAddr: 0x2AAFC, symBinAddr: 0x2D674, symSize: 0x28 }
  - { offset: 0x151BC4, size: 0x8, addend: 0x0, symName: _OUTLINED_FUNCTION_73, symObjAddr: 0x3B620, symBinAddr: 0x3DB60, symSize: 0x20 }
  - { offset: 0x151BDB, size: 0x8, addend: 0x0, symName: _OUTLINED_FUNCTION_197, symObjAddr: 0x3BF64, symBinAddr: 0x3E4A4, symSize: 0x14 }
  - { offset: 0x151BF2, size: 0x8, addend: 0x0, symName: _OUTLINED_FUNCTION_259, symObjAddr: 0x3C318, symBinAddr: 0x3E858, symSize: 0x10 }
  - { offset: 0x151C09, size: 0x8, addend: 0x0, symName: _OUTLINED_FUNCTION_302, symObjAddr: 0x3C558, symBinAddr: 0x3EA98, symSize: 0xC }
  - { offset: 0x151C20, size: 0x8, addend: 0x0, symName: _OUTLINED_FUNCTION_306, symObjAddr: 0x3C58C, symBinAddr: 0x3EACC, symSize: 0xC }
  - { offset: 0x151C37, size: 0x8, addend: 0x0, symName: _OUTLINED_FUNCTION_311, symObjAddr: 0x3C5DC, symBinAddr: 0x3EB1C, symSize: 0xC }
  - { offset: 0x151C4E, size: 0x8, addend: 0x0, symName: _OUTLINED_FUNCTION_314, symObjAddr: 0x3C600, symBinAddr: 0x3EB40, symSize: 0xC }
  - { offset: 0x151C65, size: 0x8, addend: 0x0, symName: _OUTLINED_FUNCTION_348, symObjAddr: 0x3C7B8, symBinAddr: 0x3ECF8, symSize: 0xC }
  - { offset: 0x151C7C, size: 0x8, addend: 0x0, symName: _OUTLINED_FUNCTION_399, symObjAddr: 0x3CAD0, symBinAddr: 0x3F010, symSize: 0xC }
  - { offset: 0x151C93, size: 0x8, addend: 0x0, symName: _OUTLINED_FUNCTION_413, symObjAddr: 0x3CB74, symBinAddr: 0x3F0B4, symSize: 0x24 }
  - { offset: 0x151CAA, size: 0x8, addend: 0x0, symName: _OUTLINED_FUNCTION_460, symObjAddr: 0x3CDC8, symBinAddr: 0x3F308, symSize: 0x8 }
  - { offset: 0x151CC1, size: 0x8, addend: 0x0, symName: _OUTLINED_FUNCTION_499, symObjAddr: 0x3D040, symBinAddr: 0x3F580, symSize: 0xC }
  - { offset: 0x151CD8, size: 0x8, addend: 0x0, symName: _OUTLINED_FUNCTION_500, symObjAddr: 0x3D04C, symBinAddr: 0x3F58C, symSize: 0xC }
  - { offset: 0x151CEF, size: 0x8, addend: 0x0, symName: _OUTLINED_FUNCTION_505, symObjAddr: 0x3D094, symBinAddr: 0x3F5D4, symSize: 0xC }
  - { offset: 0x151D06, size: 0x8, addend: 0x0, symName: _OUTLINED_FUNCTION_515, symObjAddr: 0x3D128, symBinAddr: 0x3F668, symSize: 0x14 }
  - { offset: 0x151D1D, size: 0x8, addend: 0x0, symName: _OUTLINED_FUNCTION_587, symObjAddr: 0x3D518, symBinAddr: 0x3FA58, symSize: 0x8 }
  - { offset: 0x151D34, size: 0x8, addend: 0x0, symName: _OUTLINED_FUNCTION_623, symObjAddr: 0x3D70C, symBinAddr: 0x3FC4C, symSize: 0x24 }
  - { offset: 0x151D4B, size: 0x8, addend: 0x0, symName: _OUTLINED_FUNCTION_675, symObjAddr: 0x3DA0C, symBinAddr: 0x3FF4C, symSize: 0x20 }
  - { offset: 0x151D62, size: 0x8, addend: 0x0, symName: _OUTLINED_FUNCTION_710, symObjAddr: 0x3DC80, symBinAddr: 0x401C0, symSize: 0x8 }
  - { offset: 0x151D79, size: 0x8, addend: 0x0, symName: _OUTLINED_FUNCTION_715, symObjAddr: 0x3DCB8, symBinAddr: 0x401F8, symSize: 0x1C }
  - { offset: 0x151D90, size: 0x8, addend: 0x0, symName: _OUTLINED_FUNCTION_754, symObjAddr: 0x3DEA0, symBinAddr: 0x403E0, symSize: 0xC }
  - { offset: 0x151DA7, size: 0x8, addend: 0x0, symName: _OUTLINED_FUNCTION_763, symObjAddr: 0x3DF30, symBinAddr: 0x40470, symSize: 0x10 }
  - { offset: 0x151DBE, size: 0x8, addend: 0x0, symName: _OUTLINED_FUNCTION_793, symObjAddr: 0x3E098, symBinAddr: 0x405D8, symSize: 0x10 }
  - { offset: 0x151DD5, size: 0x8, addend: 0x0, symName: _OUTLINED_FUNCTION_795, symObjAddr: 0x3E0B4, symBinAddr: 0x405F4, symSize: 0x8 }
  - { offset: 0x151DEC, size: 0x8, addend: 0x0, symName: _OUTLINED_FUNCTION_813, symObjAddr: 0x3E17C, symBinAddr: 0x406BC, symSize: 0x1C }
  - { offset: 0x151E03, size: 0x8, addend: 0x0, symName: _OUTLINED_FUNCTION_836, symObjAddr: 0x3E2BC, symBinAddr: 0x407FC, symSize: 0x10 }
  - { offset: 0x151E1A, size: 0x8, addend: 0x0, symName: _OUTLINED_FUNCTION_861, symObjAddr: 0x3E44C, symBinAddr: 0x4098C, symSize: 0x10 }
  - { offset: 0x151E31, size: 0x8, addend: 0x0, symName: _OUTLINED_FUNCTION_868, symObjAddr: 0x3E4C8, symBinAddr: 0x40A08, symSize: 0x18 }
  - { offset: 0x151E48, size: 0x8, addend: 0x0, symName: _OUTLINED_FUNCTION_869, symObjAddr: 0x3E4E0, symBinAddr: 0x40A20, symSize: 0x18 }
  - { offset: 0x151E5F, size: 0x8, addend: 0x0, symName: _OUTLINED_FUNCTION_921, symObjAddr: 0x3E804, symBinAddr: 0x40D44, symSize: 0xC }
  - { offset: 0x151E76, size: 0x8, addend: 0x0, symName: _OUTLINED_FUNCTION_931, symObjAddr: 0x3E884, symBinAddr: 0x40DC4, symSize: 0xC }
  - { offset: 0x151E8D, size: 0x8, addend: 0x0, symName: _OUTLINED_FUNCTION_932, symObjAddr: 0x3E890, symBinAddr: 0x40DD0, symSize: 0xC }
  - { offset: 0x151EA4, size: 0x8, addend: 0x0, symName: _OUTLINED_FUNCTION_936, symObjAddr: 0x3E8BC, symBinAddr: 0x40DFC, symSize: 0xC }
  - { offset: 0x151EBB, size: 0x8, addend: 0x0, symName: _OUTLINED_FUNCTION_940, symObjAddr: 0x3E8E4, symBinAddr: 0x40E24, symSize: 0x8 }
  - { offset: 0x151ED2, size: 0x8, addend: 0x0, symName: _OUTLINED_FUNCTION_949, symObjAddr: 0x3E954, symBinAddr: 0x40E94, symSize: 0xC }
  - { offset: 0x151EE9, size: 0x8, addend: 0x0, symName: _OUTLINED_FUNCTION_1009, symObjAddr: 0x3EBBC, symBinAddr: 0x410FC, symSize: 0xC }
  - { offset: 0x151F00, size: 0x8, addend: 0x0, symName: _OUTLINED_FUNCTION_1033, symObjAddr: 0x3ECAC, symBinAddr: 0x411EC, symSize: 0x8 }
  - { offset: 0x151F17, size: 0x8, addend: 0x0, symName: _OUTLINED_FUNCTION_1036, symObjAddr: 0x3ECC4, symBinAddr: 0x41204, symSize: 0x8 }
  - { offset: 0x151F2E, size: 0x8, addend: 0x0, symName: _OUTLINED_FUNCTION_1063, symObjAddr: 0x3EDD0, symBinAddr: 0x41310, symSize: 0x8 }
  - { offset: 0x151F45, size: 0x8, addend: 0x0, symName: _OUTLINED_FUNCTION_1088, symObjAddr: 0x3EEB4, symBinAddr: 0x413F4, symSize: 0xC }
  - { offset: 0x151F5C, size: 0x8, addend: 0x0, symName: _OUTLINED_FUNCTION_1110, symObjAddr: 0x3EFB8, symBinAddr: 0x414F8, symSize: 0x14 }
  - { offset: 0x151F73, size: 0x8, addend: 0x0, symName: _OUTLINED_FUNCTION_1124, symObjAddr: 0x3F088, symBinAddr: 0x415C8, symSize: 0xC }
  - { offset: 0x151F8A, size: 0x8, addend: 0x0, symName: _OUTLINED_FUNCTION_1128, symObjAddr: 0x3F0D0, symBinAddr: 0x41610, symSize: 0x14 }
  - { offset: 0x151FA1, size: 0x8, addend: 0x0, symName: _OUTLINED_FUNCTION_1145, symObjAddr: 0x3F1D4, symBinAddr: 0x41714, symSize: 0xC }
  - { offset: 0x151FB8, size: 0x8, addend: 0x0, symName: _OUTLINED_FUNCTION_1149, symObjAddr: 0x3F204, symBinAddr: 0x41744, symSize: 0x14 }
  - { offset: 0x1BA113, size: 0x8, addend: 0x0, symName: __ZN3ryu6buffer6Buffer13format_finite17h912756bbda5cad5aE, symObjAddr: 0x396F0, symBinAddr: 0x3BC3C, symSize: 0x24 }
  - { offset: 0x1BA61B, size: 0x8, addend: 0x0, symName: '__ZN68_$LT$serde_json..number..Number$u20$as$u20$serde..ser..Serialize$GT$9serialize17hc693e7639462ab14E', symObjAddr: 0x39714, symBinAddr: 0x3BC60, symSize: 0xB0 }
  - { offset: 0x1BAE60, size: 0x8, addend: 0x0, symName: __ZN3ryu6buffer6Buffer13format_finite17h912756bbda5cad5aE, symObjAddr: 0x396F0, symBinAddr: 0x3BC3C, symSize: 0x24 }
  - { offset: 0x1C229, size: 0x8, addend: 0x0, symName: __ZN4core3num7flt2dec8strategy6dragon9mul_pow1017h4190b6fe1fe03c4bE, symObjAddr: 0x428C, symBinAddr: 0x8178, symSize: 0xE8 }
  - { offset: 0x1C25D, size: 0x8, addend: 0x0, symName: __ZN4core3num7flt2dec8strategy6dragon5POW1017h63c56b795aed049dE, symObjAddr: 0x40F38, symBinAddr: 0x44FE8, symSize: 0x0 }
  - { offset: 0x1C278, size: 0x8, addend: 0x0, symName: __ZN4core3num7flt2dec8strategy6dragon8POW5TO1617h61b2c3b83534bc4eE, symObjAddr: 0x40F60, symBinAddr: 0x45010, symSize: 0x0 }
  - { offset: 0x1C293, size: 0x8, addend: 0x0, symName: __ZN4core3num7flt2dec8strategy6dragon8POW5TO3217h8fcab8bb085fece9E, symObjAddr: 0x40F68, symBinAddr: 0x45018, symSize: 0x0 }
  - { offset: 0x1C2AE, size: 0x8, addend: 0x0, symName: __ZN4core3num7flt2dec8strategy6dragon8POW5TO6417h50034e7be99a69c1E, symObjAddr: 0x40F74, symBinAddr: 0x45024, symSize: 0x0 }
  - { offset: 0x1C2C9, size: 0x8, addend: 0x0, symName: __ZN4core3num7flt2dec8strategy6dragon9POW5TO12817h69f0bb84a563ff4aE, symObjAddr: 0x40F88, symBinAddr: 0x45038, symSize: 0x0 }
  - { offset: 0x1C2E4, size: 0x8, addend: 0x0, symName: __ZN4core3num7flt2dec8strategy6dragon9POW5TO25617h21e91f28f40b4e86E, symObjAddr: 0x40FB0, symBinAddr: 0x45060, symSize: 0x0 }
  - { offset: 0x1C572, size: 0x8, addend: 0x0, symName: __ZN4core3num7flt2dec8strategy6dragon9mul_pow1017h4190b6fe1fe03c4bE, symObjAddr: 0x428C, symBinAddr: 0x8178, symSize: 0xE8 }
  - { offset: 0x1C719, size: 0x8, addend: 0x0, symName: __ZN4core7unicode12unicode_data15grapheme_extend17SHORT_OFFSET_RUNS17h2cd8b7e158b5de52E, symObjAddr: 0x40FFC, symBinAddr: 0x450AC, symSize: 0x0 }
  - { offset: 0x1C735, size: 0x8, addend: 0x0, symName: __ZN4core7unicode12unicode_data15grapheme_extend7OFFSETS17hec0924e930e1e671E, symObjAddr: 0x40C48, symBinAddr: 0x44CF8, symSize: 0x0 }
  - { offset: 0x1C743, size: 0x8, addend: 0x0, symName: __ZN4core7unicode12unicode_data15grapheme_extend11lookup_slow17hee0d5d6d2027239cE, symObjAddr: 0x43D8, symBinAddr: 0x82C4, symSize: 0xB4 }
  - { offset: 0x1CBC9, size: 0x8, addend: 0x0, symName: __ZN4core3cmp10PartialOrd2ge17h2e740b8e4263c4adE, symObjAddr: 0x4374, symBinAddr: 0x8260, symSize: 0x1C }
  - { offset: 0x1CF14, size: 0x8, addend: 0x0, symName: '__ZN106_$LT$core..ops..range..Range$LT$usize$GT$$u20$as$u20$core..slice..index..SliceIndex$LT$$u5b$T$u5d$$GT$$GT$9index_mut17h0a4b7d1d08a420a5E', symObjAddr: 0x43A4, symBinAddr: 0x8290, symSize: 0x34 }
  - { offset: 0x1D00A, size: 0x8, addend: 0x0, symName: '__ZN108_$LT$core..ops..range..RangeTo$LT$usize$GT$$u20$as$u20$core..slice..index..SliceIndex$LT$$u5b$T$u5d$$GT$$GT$9index_mut17h19210904ba2bf822E.354', symObjAddr: 0x4390, symBinAddr: 0x827C, symSize: 0x14 }
  - { offset: 0x111EAE, size: 0x8, addend: 0x0, symName: '__ZN5serde2de5impls74_$LT$impl$u20$serde..de..Deserialize$u20$for$u20$alloc..string..String$GT$11deserialize17h28c5c5910dae5524E', symObjAddr: 0x24050, symBinAddr: 0x27444, symSize: 0x184 }
  - { offset: 0x112173, size: 0x8, addend: 0x0, symName: '__ZN5serde2de5impls74_$LT$impl$u20$serde..de..Deserialize$u20$for$u20$alloc..string..String$GT$11deserialize17h8a7a1304b712d16cE', symObjAddr: 0x241D4, symBinAddr: 0x275C8, symSize: 0xA4 }
  - { offset: 0x11226F, size: 0x8, addend: 0x0, symName: '__ZN5serde2de5impls60_$LT$impl$u20$serde..de..Deserialize$u20$for$u20$$RF$str$GT$11deserialize17h377176a574d841acE', symObjAddr: 0x23F98, symBinAddr: 0x2738C, symSize: 0xB8 }
  - { offset: 0x112460, size: 0x8, addend: 0x0, symName: '__ZN67_$LT$serde..de..impls..StrVisitor$u20$as$u20$serde..de..Visitor$GT$20visit_borrowed_bytes17h2aceae2a714de575E', symObjAddr: 0x24798, symBinAddr: 0x2766C, symSize: 0x58 }
  - { offset: 0x11255C, size: 0x8, addend: 0x0, symName: '__ZN5serde2de5impls57_$LT$impl$u20$serde..de..Deserialize$u20$for$u20$bool$GT$11deserialize17h2e7b0ed6d2f34230E', symObjAddr: 0x23D40, symBinAddr: 0x27134, symSize: 0xAC }
  - { offset: 0x1125DE, size: 0x8, addend: 0x0, symName: '__ZN5serde2de5impls57_$LT$impl$u20$serde..de..Deserialize$u20$for$u20$bool$GT$11deserialize17h56834e7824c3f40cE', symObjAddr: 0x23DEC, symBinAddr: 0x271E0, symSize: 0x1AC }
  - { offset: 0x11288A, size: 0x8, addend: 0x0, symName: '__ZN70_$LT$serde..de..impls..StringVisitor$u20$as$u20$serde..de..Visitor$GT$11visit_bytes17h15e349820fb007e3E', symObjAddr: 0x247F0, symBinAddr: 0x276C4, symSize: 0x68 }
  - { offset: 0x1135FB, size: 0x8, addend: 0x0, symName: __ZN5serde2de7Visitor11visit_bytes17h2bcca6dfda39d18cE, symObjAddr: 0x24278, symBinAddr: 0x427BC, symSize: 0x2C }
  - { offset: 0x11364B, size: 0x8, addend: 0x0, symName: __ZN5serde2de7Visitor11visit_bytes17h46c4c4a11f677a79E, symObjAddr: 0x242A4, symBinAddr: 0x427E8, symSize: 0x2C }
  - { offset: 0x11369C, size: 0x8, addend: 0x0, symName: __ZN5serde2de7Visitor11visit_bytes17h563c2264f60d55d1E, symObjAddr: 0x242D0, symBinAddr: 0x42814, symSize: 0x2C }
  - { offset: 0x1136EC, size: 0x8, addend: 0x0, symName: __ZN5serde2de7Visitor11visit_bytes17h7a80f816c17e6419E, symObjAddr: 0x242FC, symBinAddr: 0x42840, symSize: 0x2C }
  - { offset: 0x11373C, size: 0x8, addend: 0x0, symName: __ZN5serde2de7Visitor11visit_bytes17h8c6a62c617916531E, symObjAddr: 0x24328, symBinAddr: 0x4286C, symSize: 0x2C }
  - { offset: 0x11378D, size: 0x8, addend: 0x0, symName: __ZN5serde2de7Visitor11visit_bytes17h92a52e5d6aeee604E, symObjAddr: 0x24354, symBinAddr: 0x42898, symSize: 0x2C }
  - { offset: 0x1137DD, size: 0x8, addend: 0x0, symName: __ZN5serde2de7Visitor11visit_bytes17ha59a1fd1e3ded091E, symObjAddr: 0x24380, symBinAddr: 0x428C4, symSize: 0x2C }
  - { offset: 0x11382E, size: 0x8, addend: 0x0, symName: __ZN5serde2de7Visitor11visit_bytes17hdf0729b85463c730E, symObjAddr: 0x243AC, symBinAddr: 0x428F0, symSize: 0x2C }
  - { offset: 0x11387E, size: 0x8, addend: 0x0, symName: __ZN5serde2de7Visitor11visit_bytes17hef9e039f5235f0efE, symObjAddr: 0x243D8, symBinAddr: 0x4291C, symSize: 0x2C }
  - { offset: 0x1138CE, size: 0x8, addend: 0x0, symName: __ZN5serde2de7Visitor11visit_bytes17hf337ce7f762bf683E, symObjAddr: 0x24404, symBinAddr: 0x42948, symSize: 0x2C }
  - { offset: 0x11391F, size: 0x8, addend: 0x0, symName: __ZN5serde2de7Visitor9visit_i6417h3dabed6a80575678E, symObjAddr: 0x24430, symBinAddr: 0x42974, symSize: 0x2C }
  - { offset: 0x113970, size: 0x8, addend: 0x0, symName: __ZN5serde2de7Visitor9visit_i6417h0b8046273f1e7a5fE, symObjAddr: 0x2445C, symBinAddr: 0x429A0, symSize: 0x2C }
  - { offset: 0x1139C0, size: 0x8, addend: 0x0, symName: __ZN5serde2de7Visitor9visit_i6417h0fcd520b1e348166E, symObjAddr: 0x24488, symBinAddr: 0x429CC, symSize: 0x2C }
  - { offset: 0x113A10, size: 0x8, addend: 0x0, symName: __ZN5serde2de7Visitor9visit_i6417h262055197c29f6e8E, symObjAddr: 0x244B4, symBinAddr: 0x429F8, symSize: 0x2C }
  - { offset: 0x113A60, size: 0x8, addend: 0x0, symName: __ZN5serde2de7Visitor9visit_i6417h6853b3f4bff5b8b5E, symObjAddr: 0x244E0, symBinAddr: 0x42A24, symSize: 0x2C }
  - { offset: 0x113AB0, size: 0x8, addend: 0x0, symName: __ZN5serde2de7Visitor9visit_i6417h6d677d59cce0b466E, symObjAddr: 0x2450C, symBinAddr: 0x42A50, symSize: 0x2C }
  - { offset: 0x113B01, size: 0x8, addend: 0x0, symName: __ZN5serde2de7Visitor9visit_i6417h5c91c41bf3898c39E, symObjAddr: 0x24538, symBinAddr: 0x42A7C, symSize: 0x2C }
  - { offset: 0x113B52, size: 0x8, addend: 0x0, symName: __ZN5serde2de7Visitor9visit_i6417hb02c535a65270ee2E, symObjAddr: 0x24564, symBinAddr: 0x42AA8, symSize: 0x2C }
  - { offset: 0x113BA2, size: 0x8, addend: 0x0, symName: __ZN5serde2de7Visitor9visit_i6417hdc2de7a5aec1bbd4E, symObjAddr: 0x24590, symBinAddr: 0x42AD4, symSize: 0x2C }
  - { offset: 0x113BF2, size: 0x8, addend: 0x0, symName: __ZN5serde2de7Visitor9visit_str17h02f6aa7146729cbaE, symObjAddr: 0x245BC, symBinAddr: 0x42B00, symSize: 0x2C }
  - { offset: 0x113C43, size: 0x8, addend: 0x0, symName: __ZN5serde2de7Visitor9visit_str17h07d88a60c007c1aaE, symObjAddr: 0x245E8, symBinAddr: 0x42B2C, symSize: 0x2C }
  - { offset: 0x113C93, size: 0x8, addend: 0x0, symName: __ZN5serde2de7Visitor9visit_str17h26af4a308f8d81edE, symObjAddr: 0x24614, symBinAddr: 0x42B58, symSize: 0x2C }
  - { offset: 0x113CE4, size: 0x8, addend: 0x0, symName: __ZN5serde2de7Visitor9visit_str17h3356bfa621cfcfaeE, symObjAddr: 0x24640, symBinAddr: 0x42B84, symSize: 0x28 }
  - { offset: 0x113D35, size: 0x8, addend: 0x0, symName: __ZN5serde2de7Visitor9visit_str17h89312a8f412105f7E, symObjAddr: 0x24668, symBinAddr: 0x42BAC, symSize: 0x2C }
  - { offset: 0x113D85, size: 0x8, addend: 0x0, symName: __ZN5serde2de7Visitor9visit_str17hb2ac5fe43346f2a8E, symObjAddr: 0x24694, symBinAddr: 0x42BD8, symSize: 0x2C }
  - { offset: 0x113DD5, size: 0x8, addend: 0x0, symName: __ZN5serde2de7Visitor9visit_str17hbd21c5019aa5d5b1E, symObjAddr: 0x246C0, symBinAddr: 0x42C04, symSize: 0x2C }
  - { offset: 0x113E25, size: 0x8, addend: 0x0, symName: __ZN5serde2de7Visitor9visit_str17hc1fd280469386076E, symObjAddr: 0x246EC, symBinAddr: 0x42C30, symSize: 0x2C }
  - { offset: 0x113E76, size: 0x8, addend: 0x0, symName: __ZN5serde2de7Visitor9visit_str17he33b1554ae78e847E, symObjAddr: 0x24718, symBinAddr: 0x42C5C, symSize: 0x2C }
  - { offset: 0x113EC6, size: 0x8, addend: 0x0, symName: __ZN5serde2de7Visitor9visit_str17hedde0f190176233aE, symObjAddr: 0x24744, symBinAddr: 0x42C88, symSize: 0x28 }
  - { offset: 0x113F17, size: 0x8, addend: 0x0, symName: __ZN5serde2de7Visitor9visit_str17hf69bf0e14c4f6f4bE, symObjAddr: 0x2476C, symBinAddr: 0x42CB0, symSize: 0x2C }
  - { offset: 0x1148D4, size: 0x8, addend: 0x0, symName: '__ZN41_$LT$T$u20$as$u20$serde..de..Expected$GT$3fmt17h0a552983c61d083dE', symObjAddr: 0x23894, symBinAddr: 0x26C88, symSize: 0x18 }
  - { offset: 0x11494E, size: 0x8, addend: 0x0, symName: '__ZN41_$LT$T$u20$as$u20$serde..de..Expected$GT$3fmt17h0c16a95e7bb96743E', symObjAddr: 0x238AC, symBinAddr: 0x26CA0, symSize: 0x18 }
  - { offset: 0x1149C7, size: 0x8, addend: 0x0, symName: '__ZN41_$LT$T$u20$as$u20$serde..de..Expected$GT$3fmt17h18a3d70bb465e004E', symObjAddr: 0x238C4, symBinAddr: 0x26CB8, symSize: 0x14 }
  - { offset: 0x114A40, size: 0x8, addend: 0x0, symName: '__ZN41_$LT$T$u20$as$u20$serde..de..Expected$GT$3fmt17h1cd5cb59785bdf2dE', symObjAddr: 0x238D8, symBinAddr: 0x26CCC, symSize: 0x14 }
  - { offset: 0x114AB9, size: 0x8, addend: 0x0, symName: '__ZN41_$LT$T$u20$as$u20$serde..de..Expected$GT$3fmt17h20306b20e885fff1E', symObjAddr: 0x238EC, symBinAddr: 0x26CE0, symSize: 0x18 }
  - { offset: 0x114B32, size: 0x8, addend: 0x0, symName: '__ZN41_$LT$T$u20$as$u20$serde..de..Expected$GT$3fmt17h4836b24e9c2b524fE', symObjAddr: 0x23904, symBinAddr: 0x26CF8, symSize: 0x14 }
  - { offset: 0x114BAB, size: 0x8, addend: 0x0, symName: '__ZN41_$LT$T$u20$as$u20$serde..de..Expected$GT$3fmt17h57d421d133fe0ccbE', symObjAddr: 0x23918, symBinAddr: 0x26D0C, symSize: 0x14 }
  - { offset: 0x114C24, size: 0x8, addend: 0x0, symName: '__ZN41_$LT$T$u20$as$u20$serde..de..Expected$GT$3fmt17h60771be84eb27b64E', symObjAddr: 0x2392C, symBinAddr: 0x26D20, symSize: 0x18 }
  - { offset: 0x114C9D, size: 0x8, addend: 0x0, symName: '__ZN41_$LT$T$u20$as$u20$serde..de..Expected$GT$3fmt17h7cbbb53b5232f7b1E', symObjAddr: 0x23944, symBinAddr: 0x26D38, symSize: 0x40 }
  - { offset: 0x114D50, size: 0x8, addend: 0x0, symName: '__ZN41_$LT$T$u20$as$u20$serde..de..Expected$GT$3fmt17ha92a9e2c410e6ad4E', symObjAddr: 0x239B8, symBinAddr: 0x26DAC, symSize: 0x18 }
  - { offset: 0x114DC9, size: 0x8, addend: 0x0, symName: '__ZN41_$LT$T$u20$as$u20$serde..de..Expected$GT$3fmt17hacb0c520c692c756E', symObjAddr: 0x239D0, symBinAddr: 0x26DC4, symSize: 0x18 }
  - { offset: 0x114E42, size: 0x8, addend: 0x0, symName: '__ZN41_$LT$T$u20$as$u20$serde..de..Expected$GT$3fmt17hd666e6b88e9e8d8cE', symObjAddr: 0x239E8, symBinAddr: 0x26DDC, symSize: 0x14 }
  - { offset: 0x114EBC, size: 0x8, addend: 0x0, symName: '__ZN41_$LT$T$u20$as$u20$serde..de..Expected$GT$3fmt17hd6729f35ae68b74eE', symObjAddr: 0x239FC, symBinAddr: 0x26DF0, symSize: 0x14 }
  - { offset: 0x114F35, size: 0x8, addend: 0x0, symName: '__ZN41_$LT$T$u20$as$u20$serde..de..Expected$GT$3fmt17he5d571f985900405E', symObjAddr: 0x23A10, symBinAddr: 0x26E04, symSize: 0x18 }
  - { offset: 0x114FAE, size: 0x8, addend: 0x0, symName: '__ZN41_$LT$T$u20$as$u20$serde..de..Expected$GT$3fmt17he7ee5537856fb9c9E', symObjAddr: 0x23A28, symBinAddr: 0x26E1C, symSize: 0x18 }
  - { offset: 0x11608E, size: 0x8, addend: 0x0, symName: '__ZN14powersync_core6schema10table_info1_105_$LT$impl$u20$serde..de..Deserialize$u20$for$u20$powersync_core..schema..table_info..PendingStatement$GT$11deserialize17h04182b0dc69d8593E', symObjAddr: 0x24A08, symBinAddr: 0x278DC, symSize: 0x474 }
  - { offset: 0x117BE0, size: 0x8, addend: 0x0, symName: '__ZN81_$LT$alloc..vec..Vec$LT$T$C$A$GT$$u20$as$u20$core..ops..index..Index$LT$I$GT$$GT$5index17h60a9d9f49dd7e8daE', symObjAddr: 0x23A58, symBinAddr: 0x26E4C, symSize: 0x20 }
  - { offset: 0x118BC6, size: 0x8, addend: 0x0, symName: '__ZN5alloc5slice29_$LT$impl$u20$$u5b$T$u5d$$GT$4join17hb4e1eb84f9da6916E', symObjAddr: 0x23C1C, symBinAddr: 0x27010, symSize: 0x124 }
  - { offset: 0x11960E, size: 0x8, addend: 0x0, symName: __ZN5alloc3fmt6format17hc3e3b503b382cc0dE.1930, symObjAddr: 0x248C8, symBinAddr: 0x2779C, symSize: 0x38 }
  - { offset: 0x11A0AB, size: 0x8, addend: 0x0, symName: '__ZN4core3ptr91drop_in_place$LT$core..option..Option$LT$powersync_core..sync..line..BucketChecksum$GT$$GT$17hb30baac74c81fa73E', symObjAddr: 0x23660, symBinAddr: 0x26A54, symSize: 0x34 }
  - { offset: 0x11A17D, size: 0x8, addend: 0x0, symName: '__ZN4core3ptr87drop_in_place$LT$core..option..Option$LT$powersync_core..sync..line..OplogEntry$GT$$GT$17hced8c52d73719bcbE', symObjAddr: 0x23734, symBinAddr: 0x26B28, symSize: 0x48 }
  - { offset: 0x11A249, size: 0x8, addend: 0x0, symName: '__ZN4core3ptr95drop_in_place$LT$alloc..vec..Vec$LT$powersync_core..sync..line..StreamSubscriptionError$GT$$GT$17he1a6f5e2c65c58b8E', symObjAddr: 0x237C4, symBinAddr: 0x26BB8, symSize: 0x20 }
  - { offset: 0x11A2B6, size: 0x8, addend: 0x0, symName: '__ZN4core3ptr100drop_in_place$LT$core..option..Option$LT$powersync_core..sync..line..StreamSubscriptionError$GT$$GT$17ha197d012dfbab787E', symObjAddr: 0x2380C, symBinAddr: 0x26C00, symSize: 0x18 }
  - { offset: 0x11A35E, size: 0x8, addend: 0x0, symName: '__ZN4core3ptr94drop_in_place$LT$core..option..Option$LT$powersync_core..sync..line..StreamDescription$GT$$GT$17h3ae2d7f313c78e58E', symObjAddr: 0x2384C, symBinAddr: 0x26C40, symSize: 0x48 }
  - { offset: 0x11A513, size: 0x8, addend: 0x0, symName: '__ZN4core3ptr101drop_in_place$LT$core..option..Option$LT$powersync_core..sync_local..PreparedPendingStatement$GT$$GT$17h83df0af6ad3cb3e8E', symObjAddr: 0x23A48, symBinAddr: 0x26E3C, symSize: 0x10 }
  - { offset: 0x11A624, size: 0x8, addend: 0x0, symName: '__ZN4core3ptr59drop_in_place$LT$serde..__private..de..content..Content$GT$17ha2b9f1ee83780447E.1938', symObjAddr: 0x24978, symBinAddr: 0x2784C, symSize: 0x70 }
  - { offset: 0x11A6AB, size: 0x8, addend: 0x0, symName: '__ZN4core3ptr84drop_in_place$LT$alloc..boxed..Box$LT$serde..__private..de..content..Content$GT$$GT$17hb9b9ec8bbb5dcdc4E.1939', symObjAddr: 0x249E8, symBinAddr: 0x278BC, symSize: 0x20 }
  - { offset: 0x11A78C, size: 0x8, addend: 0x0, symName: '__ZN4core3ptr78drop_in_place$LT$powersync_core..schema..table_info..PendingStatementValue$GT$17hdd5e0112507c79e4E', symObjAddr: 0x24E7C, symBinAddr: 0x27D50, symSize: 0x14 }
  - { offset: 0x11ECB2, size: 0x8, addend: 0x0, symName: '__ZN4core5slice29_$LT$impl$u20$$u5b$T$u5d$$GT$20binary_search_by_key28_$u7b$$u7b$closure$u7d$$u7d$17h33e385de8612dfc7E', symObjAddr: 0x23A78, symBinAddr: 0x26E6C, symSize: 0x10 }
  - { offset: 0x11EE91, size: 0x8, addend: 0x0, symName: __ZN4core5slice4sort6stable14driftsort_main17h11b24eb96c70fb64E, symObjAddr: 0x23A88, symBinAddr: 0x26E7C, symSize: 0x58 }
  - { offset: 0x11EFDF, size: 0x8, addend: 0x0, symName: __ZN4core5slice4sort6stable14driftsort_main17h381c3952476be7ebE, symObjAddr: 0x23AE0, symBinAddr: 0x26ED4, symSize: 0x58 }
  - { offset: 0x11F12D, size: 0x8, addend: 0x0, symName: __ZN4core5slice4sort6stable14driftsort_main17h5488003f47f56e01E, symObjAddr: 0x23B38, symBinAddr: 0x26F2C, symSize: 0x8C }
  - { offset: 0x11F344, size: 0x8, addend: 0x0, symName: __ZN4core5slice4sort6stable14driftsort_main17ha8ae85bf7dfbae90E, symObjAddr: 0x23BC4, symBinAddr: 0x26FB8, symSize: 0x58 }
  - { offset: 0x11FA4C, size: 0x8, addend: 0x0, symName: '__ZN44_$LT$$RF$T$u20$as$u20$core..fmt..Display$GT$3fmt17h06ba747661c667e4E', symObjAddr: 0x23A40, symBinAddr: 0x26E34, symSize: 0x8 }
  - { offset: 0x11FAFC, size: 0x8, addend: 0x0, symName: __ZN4core4iter6traits8iterator8Iterator7collect17h930476296bba4db9E, symObjAddr: 0x24900, symBinAddr: 0x277D4, symSize: 0x78 }
  - { offset: 0x121F75, size: 0x8, addend: 0x0, symName: '__ZN10serde_with2de41_$LT$impl$u20$serde_with..As$LT$T$GT$$GT$11deserialize17ha678454fd8521064E', symObjAddr: 0x23418, symBinAddr: 0x2680C, symSize: 0x68 }
  - { offset: 0x1220D4, size: 0x8, addend: 0x0, symName: '__ZN10serde_with2de41_$LT$impl$u20$serde_with..As$LT$T$GT$$GT$11deserialize17hcc64c23d7ca4f8beE', symObjAddr: 0x23480, symBinAddr: 0x26874, symSize: 0x80 }
  - { offset: 0x1221C3, size: 0x8, addend: 0x0, symName: '__ZN10serde_with2de41_$LT$impl$u20$serde_with..As$LT$T$GT$$GT$11deserialize17hf154d9c6266ab838E', symObjAddr: 0x23500, symBinAddr: 0x268F4, symSize: 0x11C }
  - { offset: 0x122402, size: 0x8, addend: 0x0, symName: '__ZN5alloc3vec16Vec$LT$T$C$A$GT$4push17h7fc95657cbe6a9fbE', symObjAddr: 0x2361C, symBinAddr: 0x26A10, symSize: 0x44 }
  - { offset: 0x122539, size: 0x8, addend: 0x0, symName: '__ZN5alloc7raw_vec20RawVecInner$LT$A$GT$16with_capacity_in17h633275a306cd70aaE.1483', symObjAddr: 0x23694, symBinAddr: 0x26A88, symSize: 0x38 }
  - { offset: 0x12258D, size: 0x8, addend: 0x0, symName: '__ZN5alloc3vec16Vec$LT$T$C$A$GT$4push17haad66617c682af6cE', symObjAddr: 0x236CC, symBinAddr: 0x26AC0, symSize: 0x28 }
  - { offset: 0x1226B6, size: 0x8, addend: 0x0, symName: '__ZN5alloc3vec16Vec$LT$T$C$A$GT$4push17h2af236aa93b455a1E', symObjAddr: 0x236F4, symBinAddr: 0x26AE8, symSize: 0x40 }
  - { offset: 0x1228D3, size: 0x8, addend: 0x0, symName: '__ZN5alloc3vec16Vec$LT$T$C$A$GT$4push17h07795d5bc110ba8eE', symObjAddr: 0x2377C, symBinAddr: 0x26B70, symSize: 0x48 }
  - { offset: 0x122A2D, size: 0x8, addend: 0x0, symName: '__ZN5alloc3vec16Vec$LT$T$C$A$GT$4push17h57e3fb48452f87b7E', symObjAddr: 0x237E4, symBinAddr: 0x26BD8, symSize: 0x28 }
  - { offset: 0x122AA8, size: 0x8, addend: 0x0, symName: '__ZN5alloc3vec16Vec$LT$T$C$A$GT$4push17he26266a8fedc9547E', symObjAddr: 0x23824, symBinAddr: 0x26C18, symSize: 0x28 }
  - { offset: 0x122CB5, size: 0x8, addend: 0x0, symName: __ZN4core3fmt9Arguments6as_str17hfe21aaccacb279f8E.1566, symObjAddr: 0x23984, symBinAddr: 0x26D78, symSize: 0x34 }
  - { offset: 0x122E34, size: 0x8, addend: 0x0, symName: __ZN14powersync_core6schema10table_info5Table9from_json17h2ce669fc22495402E, symObjAddr: 0x24858, symBinAddr: 0x2772C, symSize: 0x70 }
  - { offset: 0x123631, size: 0x8, addend: 0x0, symName: _OUTLINED_FUNCTION_46, symObjAddr: 0x3B3EC, symBinAddr: 0x3D92C, symSize: 0x18 }
  - { offset: 0x123648, size: 0x8, addend: 0x0, symName: _OUTLINED_FUNCTION_115, symObjAddr: 0x3B970, symBinAddr: 0x3DEB0, symSize: 0x2C }
  - { offset: 0x12365F, size: 0x8, addend: 0x0, symName: _OUTLINED_FUNCTION_123, symObjAddr: 0x3BA20, symBinAddr: 0x3DF60, symSize: 0x28 }
  - { offset: 0x123676, size: 0x8, addend: 0x0, symName: _OUTLINED_FUNCTION_141, symObjAddr: 0x3BBB8, symBinAddr: 0x3E0F8, symSize: 0x18 }
  - { offset: 0x12368D, size: 0x8, addend: 0x0, symName: _OUTLINED_FUNCTION_153, symObjAddr: 0x3BC88, symBinAddr: 0x3E1C8, symSize: 0x24 }
  - { offset: 0x1236A4, size: 0x8, addend: 0x0, symName: _OUTLINED_FUNCTION_300, symObjAddr: 0x3C540, symBinAddr: 0x3EA80, symSize: 0xC }
  - { offset: 0x1236BB, size: 0x8, addend: 0x0, symName: _OUTLINED_FUNCTION_343, symObjAddr: 0x3C778, symBinAddr: 0x3ECB8, symSize: 0x10 }
  - { offset: 0x1236D2, size: 0x8, addend: 0x0, symName: _OUTLINED_FUNCTION_344, symObjAddr: 0x3C788, symBinAddr: 0x3ECC8, symSize: 0x10 }
  - { offset: 0x1236E9, size: 0x8, addend: 0x0, symName: _OUTLINED_FUNCTION_534, symObjAddr: 0x3D26C, symBinAddr: 0x3F7AC, symSize: 0x10 }
  - { offset: 0x123700, size: 0x8, addend: 0x0, symName: _OUTLINED_FUNCTION_615, symObjAddr: 0x3D660, symBinAddr: 0x3FBA0, symSize: 0x28 }
  - { offset: 0x123717, size: 0x8, addend: 0x0, symName: _OUTLINED_FUNCTION_718, symObjAddr: 0x3DCEC, symBinAddr: 0x4022C, symSize: 0x8 }
  - { offset: 0x12372E, size: 0x8, addend: 0x0, symName: _OUTLINED_FUNCTION_750, symObjAddr: 0x3DE70, symBinAddr: 0x403B0, symSize: 0x8 }
  - { offset: 0x123745, size: 0x8, addend: 0x0, symName: _OUTLINED_FUNCTION_817, symObjAddr: 0x3E1C8, symBinAddr: 0x40708, symSize: 0xC }
  - { offset: 0x12375C, size: 0x8, addend: 0x0, symName: _OUTLINED_FUNCTION_941, symObjAddr: 0x3E8EC, symBinAddr: 0x40E2C, symSize: 0xC }
  - { offset: 0x123773, size: 0x8, addend: 0x0, symName: _OUTLINED_FUNCTION_993, symObjAddr: 0x3EB28, symBinAddr: 0x41068, symSize: 0x8 }
  - { offset: 0x12378A, size: 0x8, addend: 0x0, symName: _OUTLINED_FUNCTION_999, symObjAddr: 0x3EB60, symBinAddr: 0x410A0, symSize: 0x8 }
  - { offset: 0x1237A1, size: 0x8, addend: 0x0, symName: _OUTLINED_FUNCTION_1018, symObjAddr: 0x3EC14, symBinAddr: 0x41154, symSize: 0x8 }
  - { offset: 0x1237B8, size: 0x8, addend: 0x0, symName: _OUTLINED_FUNCTION_1044, symObjAddr: 0x3ED18, symBinAddr: 0x41258, symSize: 0xC }
  - { offset: 0x1237CF, size: 0x8, addend: 0x0, symName: _OUTLINED_FUNCTION_1050, symObjAddr: 0x3ED50, symBinAddr: 0x41290, symSize: 0x8 }
  - { offset: 0x1237E6, size: 0x8, addend: 0x0, symName: _OUTLINED_FUNCTION_1095, symObjAddr: 0x3EEFC, symBinAddr: 0x4143C, symSize: 0x8 }
  - { offset: 0x1237FD, size: 0x8, addend: 0x0, symName: _OUTLINED_FUNCTION_1177, symObjAddr: 0x3F3AC, symBinAddr: 0x418EC, symSize: 0xC }
  - { offset: 0x1B091, size: 0x8, addend: 0x0, symName: __ZN4core3num7flt2dec8strategy5grisu12CACHED_POW1017hbd69c170d103ffbcE, symObjAddr: 0x40738, symBinAddr: 0x447E8, symSize: 0x0 }
  - { offset: 0x1B564, size: 0x8, addend: 0x0, symName: __ZN4core3num7flt2dec8strategy5grisu12cached_power17h3bf0fd6968f4d3bcE, symObjAddr: 0x3ED4, symBinAddr: 0x7DC0, symSize: 0x64 }
  - { offset: 0x1B62D, size: 0x8, addend: 0x0, symName: __ZN4core3num7flt2dec8strategy5grisu22max_pow10_no_more_than17h82a4be0fc66a65bcE, symObjAddr: 0x4010, symBinAddr: 0x7EFC, symSize: 0xC0 }
  - { offset: 0x1B65F, size: 0x8, addend: 0x0, symName: __ZN4core3num7flt2dec8strategy5grisu19format_shortest_opt14round_and_weed17h4c807fa989151b35E, symObjAddr: 0x40F4, symBinAddr: 0x7FE0, symSize: 0xD0 }
  - { offset: 0x1B788, size: 0x8, addend: 0x0, symName: __ZN4core3num7flt2dec8strategy5grisu16format_exact_opt14possibly_round17h76fc67ac628bed9aE, symObjAddr: 0x41C4, symBinAddr: 0x80B0, symSize: 0xC8 }
  - { offset: 0x1BC37, size: 0x8, addend: 0x0, symName: '__ZN108_$LT$core..ops..range..RangeTo$LT$usize$GT$$u20$as$u20$core..slice..index..SliceIndex$LT$$u5b$T$u5d$$GT$$GT$9index_mut17h19210904ba2bf822E.337', symObjAddr: 0x40D0, symBinAddr: 0x7FBC, symSize: 0x24 }
  - { offset: 0x1BDBF, size: 0x8, addend: 0x0, symName: '__ZN4core3f6421_$LT$impl$u20$f64$GT$8classify17ha67a052589d9bbdeE', symObjAddr: 0x3E94, symBinAddr: 0x7D80, symSize: 0x40 }
  - { offset: 0x1BF1F, size: 0x8, addend: 0x0, symName: __ZN4core3num9diy_float2Fp9normalize17h32cdf710016d7022E, symObjAddr: 0x3F38, symBinAddr: 0x7E24, symSize: 0x8C }
  - { offset: 0x1BF3D, size: 0x8, addend: 0x0, symName: __ZN4core3num9diy_float2Fp9normalize17h32cdf710016d7022E, symObjAddr: 0x3F38, symBinAddr: 0x7E24, symSize: 0x8C }
  - { offset: 0x1BF5B, size: 0x8, addend: 0x0, symName: __ZN4core3num9diy_float2Fp9normalize17h32cdf710016d7022E, symObjAddr: 0x3F38, symBinAddr: 0x7E24, symSize: 0x8C }
  - { offset: 0x1BF7B, size: 0x8, addend: 0x0, symName: __ZN4core3num9diy_float2Fp3mul17h3dc77330f5b71316E, symObjAddr: 0x3FC4, symBinAddr: 0x7EB0, symSize: 0x4C }
  - { offset: 0x1C15C, size: 0x8, addend: 0x0, symName: _OUTLINED_FUNCTION_20, symObjAddr: 0x3B1CC, symBinAddr: 0x3D70C, symSize: 0x10 }
  - { offset: 0x1C173, size: 0x8, addend: 0x0, symName: _OUTLINED_FUNCTION_338, symObjAddr: 0x3C744, symBinAddr: 0x3EC84, symSize: 0x8 }
  - { offset: 0x1C18A, size: 0x8, addend: 0x0, symName: _OUTLINED_FUNCTION_433, symObjAddr: 0x3CC50, symBinAddr: 0x3F190, symSize: 0x8 }
  - { offset: 0x1C1A1, size: 0x8, addend: 0x0, symName: _OUTLINED_FUNCTION_642, symObjAddr: 0x3D868, symBinAddr: 0x3FDA8, symSize: 0xC }
  - { offset: 0x1C1B8, size: 0x8, addend: 0x0, symName: _OUTLINED_FUNCTION_808, symObjAddr: 0x3E13C, symBinAddr: 0x4067C, symSize: 0x8 }
  - { offset: 0x84591, size: 0x8, addend: 0x0, symName: '__ZN45_$LT$T$u20$as$u20$alloc..string..ToString$GT$9to_string17h83d19544824d9b53E', symObjAddr: 0xD90C, symBinAddr: 0x10F60, symSize: 0x194 }
  - { offset: 0x85233, size: 0x8, addend: 0x0, symName: '__ZN5alloc5slice29_$LT$impl$u20$$u5b$T$u5d$$GT$11sort_by_key28_$u7b$$u7b$closure$u7d$$u7d$17h10a84e14a0c515abE', symObjAddr: 0xBE64, symBinAddr: 0xFCF8, symSize: 0x4 }
  - { offset: 0x85CA1, size: 0x8, addend: 0x0, symName: '__ZN4core3ptr45drop_in_place$LT$serde_json..value..Value$GT$17h3015c761c6bcb32bE', symObjAddr: 0xD894, symBinAddr: 0x10EE8, symSize: 0x5C }
  - { offset: 0x85D28, size: 0x8, addend: 0x0, symName: '__ZN4core3ptr105drop_in_place$LT$core..option..Option$LT$$LP$alloc..string..String$C$serde_json..value..Value$RP$$GT$$GT$17h2a40fee671134101E', symObjAddr: 0xD8F0, symBinAddr: 0x10F44, symSize: 0x1C }
  - { offset: 0x85D56, size: 0x8, addend: 0x0, symName: '__ZN4core3ptr77drop_in_place$LT$$LP$alloc..string..String$C$serde_json..value..Value$RP$$GT$17h7db7207302287252E', symObjAddr: 0xDAA0, symBinAddr: 0x110F4, symSize: 0x24 }
  - { offset: 0x85E9E, size: 0x8, addend: 0x0, symName: '__ZN4core3ptr57drop_in_place$LT$powersync_core..sync..line..SyncLine$GT$17h1651b379873458c3E', symObjAddr: 0xDAC4, symBinAddr: 0x11118, symSize: 0x78 }
  - { offset: 0x86B54, size: 0x8, addend: 0x0, symName: '__ZN4core3cmp5impls70_$LT$impl$u20$core..cmp..PartialOrd$LT$$RF$B$GT$$u20$for$u20$$RF$A$GT$2lt17hbd9bca124132f0c9E', symObjAddr: 0xBE34, symBinAddr: 0xFCC8, symSize: 0x18 }
  - { offset: 0x8A43F, size: 0x8, addend: 0x0, symName: '__ZN108_$LT$core..ops..range..RangeTo$LT$usize$GT$$u20$as$u20$core..slice..index..SliceIndex$LT$$u5b$T$u5d$$GT$$GT$9index_mut17h0b7155738f4a8589E', symObjAddr: 0xBDB8, symBinAddr: 0xFC4C, symSize: 0x24 }
  - { offset: 0x8A662, size: 0x8, addend: 0x0, symName: '__ZN110_$LT$core..ops..range..RangeFrom$LT$usize$GT$$u20$as$u20$core..slice..index..SliceIndex$LT$$u5b$T$u5d$$GT$$GT$9index_mut17hd29b90e61e493f7bE', symObjAddr: 0xC120, symBinAddr: 0xFFB4, symSize: 0x1C }
  - { offset: 0x8A7AF, size: 0x8, addend: 0x0, symName: '__ZN110_$LT$core..ops..range..RangeFrom$LT$usize$GT$$u20$as$u20$core..slice..index..SliceIndex$LT$$u5b$T$u5d$$GT$$GT$9index_mut17h2f20ca5f222e9df8E', symObjAddr: 0xC844, symBinAddr: 0x106D8, symSize: 0x20 }
  - { offset: 0x8AA2C, size: 0x8, addend: 0x0, symName: '__ZN4core5slice29_$LT$impl$u20$$u5b$T$u5d$$GT$7reverse17ha635fc331b3c0efeE', symObjAddr: 0xBDDC, symBinAddr: 0xFC70, symSize: 0x58 }
  - { offset: 0x8ABE9, size: 0x8, addend: 0x0, symName: __ZN4core5slice4sort6stable5drift16stable_quicksort17h1b45caaf02fdadeaE, symObjAddr: 0xBE68, symBinAddr: 0xFCFC, symSize: 0x10 }
  - { offset: 0x8AC5F, size: 0x8, addend: 0x0, symName: __ZN4core5slice4sort6stable5drift16stable_quicksort17hbb4d96753f35706eE, symObjAddr: 0xBE78, symBinAddr: 0xFD0C, symSize: 0x10 }
  - { offset: 0x8ACD5, size: 0x8, addend: 0x0, symName: __ZN4core5slice4sort6stable5drift16stable_quicksort17hbd3a142cc1240f24E, symObjAddr: 0xBE88, symBinAddr: 0xFD1C, symSize: 0x10 }
  - { offset: 0x8AD4B, size: 0x8, addend: 0x0, symName: __ZN4core5slice4sort6stable5drift16stable_quicksort17hdeaae86dc6d38da1E, symObjAddr: 0xBE98, symBinAddr: 0xFD2C, symSize: 0x10 }
  - { offset: 0x8AF1F, size: 0x8, addend: 0x0, symName: __ZN4core5slice4sort6stable5drift4sort17h274b8affea9e252aE, symObjAddr: 0xBEA8, symBinAddr: 0xFD3C, symSize: 0x278 }
  - { offset: 0x8B67A, size: 0x8, addend: 0x0, symName: __ZN4core5slice4sort6stable5drift4sort17h5234b80b37fbf183E, symObjAddr: 0xC13C, symBinAddr: 0xFFD0, symSize: 0x278 }
  - { offset: 0x8BE4A, size: 0x8, addend: 0x0, symName: __ZN4core5slice4sort6stable5drift4sort17h53c3218d5eda4d7cE, symObjAddr: 0xC3B4, symBinAddr: 0x10248, symSize: 0x490 }
  - { offset: 0x8CB55, size: 0x8, addend: 0x0, symName: __ZN4core5slice4sort6stable5drift4sort17h7a81eb29cbd1063dE, symObjAddr: 0xC864, symBinAddr: 0x106F8, symSize: 0x278 }
  - { offset: 0x8D3BA, size: 0x8, addend: 0x0, symName: __ZN4core3ops8function5FnMut8call_mut17h89a711af54110778E, symObjAddr: 0xBE4C, symBinAddr: 0xFCE0, symSize: 0x18 }
  - { offset: 0x8E0D0, size: 0x8, addend: 0x0, symName: '__ZN99_$LT$powersync_core..sync..line..StreamSubscriptionErrorCause$u20$as$u20$serde..de..Deserialize$GT$11deserialize17ha4769b9c0aa220d8E', symObjAddr: 0xF8AC, symBinAddr: 0x12F00, symSize: 0x20C }
  - { offset: 0x8E25E, size: 0x8, addend: 0x0, symName: '__ZN99_$LT$powersync_core..sync..line..StreamSubscriptionErrorCause$u20$as$u20$serde..de..Deserialize$GT$11deserialize17hadeee317ae23f16bE', symObjAddr: 0xFAB8, symBinAddr: 0x1310C, symSize: 0x18C }
  - { offset: 0x8E78B, size: 0x8, addend: 0x0, symName: '__ZN189_$LT$powersync_core..sync..line.._..$LT$impl$u20$serde..de..Deserialize$u20$for$u20$powersync_core..sync..line..Checkpoint$GT$..deserialize..__FieldVisitor$u20$as$u20$serde..de..Visitor$GT$9visit_str17h9fb9cb82f444a9faE', symObjAddr: 0x10214, symBinAddr: 0x13868, symSize: 0x98 }
  - { offset: 0x8E8C1, size: 0x8, addend: 0x0, symName: '__ZN196_$LT$powersync_core..sync..line.._..$LT$impl$u20$serde..de..Deserialize$u20$for$u20$powersync_core..sync..line..StreamDescription$GT$..deserialize..__FieldVisitor$u20$as$u20$serde..de..Visitor$GT$9visit_str17h8d2c87e74052b83cE', symObjAddr: 0x102AC, symBinAddr: 0x13900, symSize: 0x7C }
  - { offset: 0x8E9BC, size: 0x8, addend: 0x0, symName: '__ZN202_$LT$powersync_core..sync..line.._..$LT$impl$u20$serde..de..Deserialize$u20$for$u20$powersync_core..sync..line..StreamSubscriptionError$GT$..deserialize..__FieldVisitor$u20$as$u20$serde..de..Visitor$GT$9visit_str17hd2b8602fe270e97cE', symObjAddr: 0x10328, symBinAddr: 0x1397C, symSize: 0x60 }
  - { offset: 0x8EA7C, size: 0x8, addend: 0x0, symName: '__ZN193_$LT$powersync_core..sync..line.._..$LT$impl$u20$serde..de..Deserialize$u20$for$u20$powersync_core..sync..line..CheckpointDiff$GT$..deserialize..__FieldVisitor$u20$as$u20$serde..de..Visitor$GT$9visit_str17h6f173ea63cc4f510E', symObjAddr: 0x10388, symBinAddr: 0x139DC, symSize: 0x98 }
  - { offset: 0x8EBB2, size: 0x8, addend: 0x0, symName: '__ZN206_$LT$powersync_core..sync..line.._..$LT$impl$u20$serde..de..Deserialize$u20$for$u20$powersync_core..sync..line..CheckpointPartiallyComplete$GT$..deserialize..__FieldVisitor$u20$as$u20$serde..de..Visitor$GT$9visit_str17hc69d36b15372a573E', symObjAddr: 0x10420, symBinAddr: 0x13A74, symSize: 0x38 }
  - { offset: 0x8EC37, size: 0x8, addend: 0x0, symName: '__ZN193_$LT$powersync_core..sync..line.._..$LT$impl$u20$serde..de..Deserialize$u20$for$u20$powersync_core..sync..line..BucketChecksum$GT$..deserialize..__FieldVisitor$u20$as$u20$serde..de..Visitor$GT$9visit_str17h17ba51a761b03b86E', symObjAddr: 0x10458, symBinAddr: 0x13AAC, symSize: 0xB4 }
  - { offset: 0x8EDE0, size: 0x8, addend: 0x0, symName: '__ZN187_$LT$powersync_core..sync..line.._..$LT$impl$u20$serde..de..Deserialize$u20$for$u20$powersync_core..sync..line..DataLine$GT$..deserialize..__FieldVisitor$u20$as$u20$serde..de..Visitor$GT$9visit_str17h6cfcd17213d769aeE', symObjAddr: 0x1098C, symBinAddr: 0x13FE0, symSize: 0x60 }
  - { offset: 0x8EEA1, size: 0x8, addend: 0x0, symName: '__ZN189_$LT$powersync_core..sync..line.._..$LT$impl$u20$serde..de..Deserialize$u20$for$u20$powersync_core..sync..line..OplogEntry$GT$..deserialize..__FieldVisitor$u20$as$u20$serde..de..Visitor$GT$9visit_str17h434a9b025bb4b53eE', symObjAddr: 0x109EC, symBinAddr: 0x14040, symSize: 0xF0 }
  - { offset: 0x8F0CE, size: 0x8, addend: 0x0, symName: '__ZN185_$LT$powersync_core..sync..line.._..$LT$impl$u20$serde..de..Deserialize$u20$for$u20$powersync_core..sync..line..OpType$GT$..deserialize..__FieldVisitor$u20$as$u20$serde..de..Visitor$GT$9visit_str17h8e29a73c755497f0E', symObjAddr: 0x11240, symBinAddr: 0x14894, symSize: 0xB0 }
  - { offset: 0x8F20B, size: 0x8, addend: 0x0, symName: '__ZN185_$LT$powersync_core..sync..line.._..$LT$impl$u20$serde..de..Deserialize$u20$for$u20$powersync_core..sync..line..OpType$GT$..deserialize..__FieldVisitor$u20$as$u20$serde..de..Visitor$GT$11visit_bytes17h567a0abd84783c43E', symObjAddr: 0x112F0, symBinAddr: 0x14944, symSize: 0x230 }
  - { offset: 0x904DC, size: 0x8, addend: 0x0, symName: '__ZN14powersync_core4sync4line1_91_$LT$impl$u20$serde..de..Deserialize$u20$for$u20$powersync_core..sync..line..Checkpoint$GT$11deserialize17ha9defcfdbe740368E', symObjAddr: 0xFC44, symBinAddr: 0x13298, symSize: 0x5D0 }
  - { offset: 0x90D57, size: 0x8, addend: 0x0, symName: '__ZN14powersync_core4sync4line1_89_$LT$impl$u20$serde..de..Deserialize$u20$for$u20$powersync_core..sync..line..DataLine$GT$11deserialize17hb51f2b35596e41d9E', symObjAddr: 0x1050C, symBinAddr: 0x13B60, symSize: 0x480 }
  - { offset: 0x91200, size: 0x8, addend: 0x0, symName: '__ZN14powersync_core4sync4line1_87_$LT$impl$u20$serde..de..Deserialize$u20$for$u20$powersync_core..sync..line..OpType$GT$11deserialize17h167e8518cf28f2c7E', symObjAddr: 0x10ADC, symBinAddr: 0x14130, symSize: 0x580 }
  - { offset: 0x91999, size: 0x8, addend: 0x0, symName: '__ZN14powersync_core4sync4line1_87_$LT$impl$u20$serde..de..Deserialize$u20$for$u20$powersync_core..sync..line..OpType$GT$11deserialize17h9922a1a00b4b080eE', symObjAddr: 0x1105C, symBinAddr: 0x146B0, symSize: 0x1E4 }
  - { offset: 0x91F07, size: 0x8, addend: 0x0, symName: '__ZN147_$LT$$LT$powersync_core..sync..line..SyncLine$u20$as$u20$serde..de..Deserialize$GT$..deserialize..SyncLineVisitor$u20$as$u20$serde..de..Visitor$GT$10visit_enum17hd5f5109869096341E', symObjAddr: 0xDB3C, symBinAddr: 0x11190, symSize: 0x1D70 }
  - { offset: 0x96BDD, size: 0x8, addend: 0x0, symName: __ZN14powersync_core4diff14powersync_diff17h87773552322c8061E, symObjAddr: 0xD31C, symBinAddr: 0x10970, symSize: 0x53C }
  - { offset: 0x98380, size: 0x8, addend: 0x0, symName: __ZN5serde2de7Visitor10visit_bool17h0d0413e288a7183dE, symObjAddr: 0xCADC, symBinAddr: 0x41D1C, symSize: 0x34 }
  - { offset: 0x983D0, size: 0x8, addend: 0x0, symName: __ZN5serde2de7Visitor11visit_bytes17h0d688c73fb88a5ecE, symObjAddr: 0xCB10, symBinAddr: 0x41D50, symSize: 0x28 }
  - { offset: 0x98420, size: 0x8, addend: 0x0, symName: __ZN5serde2de7Visitor11visit_bytes17h13ec0a50434e6886E, symObjAddr: 0xCB38, symBinAddr: 0x41D78, symSize: 0x2C }
  - { offset: 0x98470, size: 0x8, addend: 0x0, symName: __ZN5serde2de7Visitor11visit_bytes17h14ee6be7245c3feaE, symObjAddr: 0xCB64, symBinAddr: 0x41DA4, symSize: 0x2C }
  - { offset: 0x984C0, size: 0x8, addend: 0x0, symName: __ZN5serde2de7Visitor11visit_bytes17h3dadb0e8038f119dE, symObjAddr: 0xCB90, symBinAddr: 0x41DD0, symSize: 0x2C }
  - { offset: 0x98510, size: 0x8, addend: 0x0, symName: __ZN5serde2de7Visitor11visit_bytes17h52f659ddf14828e7E, symObjAddr: 0xCBBC, symBinAddr: 0x41DFC, symSize: 0x2C }
  - { offset: 0x98560, size: 0x8, addend: 0x0, symName: __ZN5serde2de7Visitor11visit_bytes17h56f3dbbcb2860c47E, symObjAddr: 0xCBE8, symBinAddr: 0x41E28, symSize: 0x2C }
  - { offset: 0x985B0, size: 0x8, addend: 0x0, symName: __ZN5serde2de7Visitor11visit_bytes17h89d80cff677a3625E, symObjAddr: 0xCC14, symBinAddr: 0x41E54, symSize: 0x30 }
  - { offset: 0x98600, size: 0x8, addend: 0x0, symName: __ZN5serde2de7Visitor11visit_bytes17haa1e3023d78b4ae6E, symObjAddr: 0xCC44, symBinAddr: 0x41E84, symSize: 0x2C }
  - { offset: 0x98650, size: 0x8, addend: 0x0, symName: __ZN5serde2de7Visitor11visit_bytes17hbc9cef24564b06d7E, symObjAddr: 0xCC70, symBinAddr: 0x41EB0, symSize: 0x2C }
  - { offset: 0x986A0, size: 0x8, addend: 0x0, symName: __ZN5serde2de7Visitor11visit_bytes17hcd68bbb9188dd3ceE, symObjAddr: 0xCC9C, symBinAddr: 0x41EDC, symSize: 0x2C }
  - { offset: 0x986F0, size: 0x8, addend: 0x0, symName: __ZN5serde2de7Visitor11visit_bytes17hcf98a52936123942E, symObjAddr: 0xCCC8, symBinAddr: 0x41F08, symSize: 0x2C }
  - { offset: 0x98740, size: 0x8, addend: 0x0, symName: __ZN5serde2de7Visitor11visit_bytes17hd94140bcaccf1026E, symObjAddr: 0xCCF4, symBinAddr: 0x41F34, symSize: 0x2C }
  - { offset: 0x98790, size: 0x8, addend: 0x0, symName: __ZN5serde2de7Visitor11visit_bytes17hf9bffe8e56a88a76E, symObjAddr: 0xCD20, symBinAddr: 0x41F60, symSize: 0x2C }
  - { offset: 0x987E0, size: 0x8, addend: 0x0, symName: __ZN5serde2de7Visitor9visit_i6417h414e3bb29ce7c65eE, symObjAddr: 0xCD4C, symBinAddr: 0x41F8C, symSize: 0x2C }
  - { offset: 0x98830, size: 0x8, addend: 0x0, symName: __ZN5serde2de7Visitor9visit_i6417h33059fcb8611c5d1E, symObjAddr: 0xCD78, symBinAddr: 0x41FB8, symSize: 0x28 }
  - { offset: 0x98880, size: 0x8, addend: 0x0, symName: __ZN5serde2de7Visitor9visit_i6417h4582de85081a1cd4E, symObjAddr: 0xCDA0, symBinAddr: 0x41FE0, symSize: 0x2C }
  - { offset: 0x988D0, size: 0x8, addend: 0x0, symName: __ZN5serde2de7Visitor9visit_i6417h19bda785ea14a984E, symObjAddr: 0xCDCC, symBinAddr: 0x4200C, symSize: 0x2C }
  - { offset: 0x98920, size: 0x8, addend: 0x0, symName: __ZN5serde2de7Visitor9visit_i6417h650a1d11e0a5ab97E, symObjAddr: 0xCDF8, symBinAddr: 0x42038, symSize: 0x2C }
  - { offset: 0x98970, size: 0x8, addend: 0x0, symName: __ZN5serde2de7Visitor9visit_i6417h35130358c438d3d6E, symObjAddr: 0xCE24, symBinAddr: 0x42064, symSize: 0x2C }
  - { offset: 0x989C0, size: 0x8, addend: 0x0, symName: __ZN5serde2de7Visitor9visit_i6417h861ed9da6f4edd7aE, symObjAddr: 0xCE50, symBinAddr: 0x42090, symSize: 0x28 }
  - { offset: 0x98A10, size: 0x8, addend: 0x0, symName: __ZN5serde2de7Visitor9visit_i6417h7e16e3131bc60bf4E, symObjAddr: 0xCE78, symBinAddr: 0x420B8, symSize: 0x2C }
  - { offset: 0x98A60, size: 0x8, addend: 0x0, symName: __ZN5serde2de7Visitor9visit_i6417hadc66c28cec8e53aE, symObjAddr: 0xCEA4, symBinAddr: 0x420E4, symSize: 0x2C }
  - { offset: 0x98AB0, size: 0x8, addend: 0x0, symName: __ZN5serde2de7Visitor9visit_i6417hfd20bdd9d8654e7dE, symObjAddr: 0xCED0, symBinAddr: 0x42110, symSize: 0x2C }
  - { offset: 0x98B00, size: 0x8, addend: 0x0, symName: __ZN5serde2de7Visitor9visit_i6417h92314c6a06a879baE, symObjAddr: 0xCEFC, symBinAddr: 0x4213C, symSize: 0x2C }
  - { offset: 0x98B50, size: 0x8, addend: 0x0, symName: __ZN5serde2de7Visitor9visit_i6417hcd1a6eaf41c7c988E, symObjAddr: 0xCF28, symBinAddr: 0x42168, symSize: 0x2C }
  - { offset: 0x98BA1, size: 0x8, addend: 0x0, symName: __ZN5serde2de7Visitor9visit_i6417h78b1a570eb7d4580E, symObjAddr: 0xCF54, symBinAddr: 0x42194, symSize: 0x2C }
  - { offset: 0x98BF1, size: 0x8, addend: 0x0, symName: __ZN5serde2de7Visitor9visit_i6417h7cca52bdb06a4876E, symObjAddr: 0xCF80, symBinAddr: 0x421C0, symSize: 0x2C }
  - { offset: 0x98C41, size: 0x8, addend: 0x0, symName: __ZN5serde2de7Visitor9visit_i6417ha894296df63288a4E, symObjAddr: 0xCFAC, symBinAddr: 0x421EC, symSize: 0x2C }
  - { offset: 0x98C91, size: 0x8, addend: 0x0, symName: __ZN5serde2de7Visitor9visit_i6417hff9bc42261b0b6baE, symObjAddr: 0xCFD8, symBinAddr: 0x42218, symSize: 0x30 }
  - { offset: 0x98CE1, size: 0x8, addend: 0x0, symName: __ZN5serde2de7Visitor9visit_i6417h358f033e067637c0E, symObjAddr: 0xD008, symBinAddr: 0x42248, symSize: 0x2C }
  - { offset: 0x98D31, size: 0x8, addend: 0x0, symName: __ZN5serde2de7Visitor9visit_i6417h6acef9a03a684ed2E, symObjAddr: 0xD034, symBinAddr: 0x42274, symSize: 0x2C }
  - { offset: 0x98D81, size: 0x8, addend: 0x0, symName: __ZN5serde2de7Visitor9visit_i6417h18becd81f63ff6e8E, symObjAddr: 0xD060, symBinAddr: 0x422A0, symSize: 0x2C }
  - { offset: 0x98DD1, size: 0x8, addend: 0x0, symName: __ZN5serde2de7Visitor9visit_i6417h6839be52d43b010fE, symObjAddr: 0xD08C, symBinAddr: 0x422CC, symSize: 0x2C }
  - { offset: 0x98E21, size: 0x8, addend: 0x0, symName: __ZN5serde2de7Visitor9visit_i6417h1b3fea48a5d605f7E, symObjAddr: 0xD0B8, symBinAddr: 0x422F8, symSize: 0x2C }
  - { offset: 0x98E71, size: 0x8, addend: 0x0, symName: __ZN5serde2de7Visitor9visit_i6417h3fbd93e3b33b4193E, symObjAddr: 0xD0E4, symBinAddr: 0x42324, symSize: 0x2C }
  - { offset: 0x98EC1, size: 0x8, addend: 0x0, symName: __ZN5serde2de7Visitor9visit_str17h0edeb92cd3f6837eE, symObjAddr: 0xD110, symBinAddr: 0x42350, symSize: 0x2C }
  - { offset: 0x98F11, size: 0x8, addend: 0x0, symName: __ZN5serde2de7Visitor9visit_str17h2130f6b03577314fE, symObjAddr: 0xD13C, symBinAddr: 0x4237C, symSize: 0x2C }
  - { offset: 0x98F61, size: 0x8, addend: 0x0, symName: __ZN5serde2de7Visitor9visit_str17h223ca78ade2dbf30E, symObjAddr: 0xD168, symBinAddr: 0x423A8, symSize: 0x2C }
  - { offset: 0x98FB1, size: 0x8, addend: 0x0, symName: __ZN5serde2de7Visitor9visit_str17h42685eccbfb887adE, symObjAddr: 0xD194, symBinAddr: 0x423D4, symSize: 0x2C }
  - { offset: 0x99001, size: 0x8, addend: 0x0, symName: __ZN5serde2de7Visitor9visit_str17h4c61ea9a19d8c497E, symObjAddr: 0xD1C0, symBinAddr: 0x42400, symSize: 0x30 }
  - { offset: 0x99051, size: 0x8, addend: 0x0, symName: __ZN5serde2de7Visitor9visit_str17h52b95a6e5188dccaE, symObjAddr: 0xD1F0, symBinAddr: 0x42430, symSize: 0x2C }
  - { offset: 0x990A1, size: 0x8, addend: 0x0, symName: __ZN5serde2de7Visitor9visit_str17h768718122f85ad14E, symObjAddr: 0xD21C, symBinAddr: 0x4245C, symSize: 0x24 }
  - { offset: 0x990F1, size: 0x8, addend: 0x0, symName: __ZN5serde2de7Visitor9visit_str17h8173e96869855bfcE, symObjAddr: 0xD240, symBinAddr: 0x42480, symSize: 0x2C }
  - { offset: 0x99141, size: 0x8, addend: 0x0, symName: __ZN5serde2de7Visitor9visit_str17h97b52d419345eea2E, symObjAddr: 0xD26C, symBinAddr: 0x424AC, symSize: 0x2C }
  - { offset: 0x99191, size: 0x8, addend: 0x0, symName: __ZN5serde2de7Visitor9visit_str17habb71233b1b49e1cE, symObjAddr: 0xD298, symBinAddr: 0x424D8, symSize: 0x2C }
  - { offset: 0x991E1, size: 0x8, addend: 0x0, symName: __ZN5serde2de7Visitor9visit_str17hadf523c6acf5e9fbE, symObjAddr: 0xD2C4, symBinAddr: 0x42504, symSize: 0x2C }
  - { offset: 0x99231, size: 0x8, addend: 0x0, symName: __ZN5serde2de7Visitor9visit_str17he92829606540a213E, symObjAddr: 0xD2F0, symBinAddr: 0x42530, symSize: 0x2C }
  - { offset: 0x9AAB0, size: 0x8, addend: 0x0, symName: '__ZN41_$LT$T$u20$as$u20$serde..de..Expected$GT$3fmt17h1f443628579417afE', symObjAddr: 0xBC50, symBinAddr: 0xFAE4, symSize: 0x18 }
  - { offset: 0x9AB29, size: 0x8, addend: 0x0, symName: '__ZN41_$LT$T$u20$as$u20$serde..de..Expected$GT$3fmt17h6adc697d52a288b2E', symObjAddr: 0xBC68, symBinAddr: 0xFAFC, symSize: 0x18 }
  - { offset: 0x9ABA2, size: 0x8, addend: 0x0, symName: '__ZN41_$LT$T$u20$as$u20$serde..de..Expected$GT$3fmt17h6dd4001ef041f095E', symObjAddr: 0xBC80, symBinAddr: 0xFB14, symSize: 0x14 }
  - { offset: 0x9AC1A, size: 0x8, addend: 0x0, symName: '__ZN41_$LT$T$u20$as$u20$serde..de..Expected$GT$3fmt17h7b1fde896d5f2552E', symObjAddr: 0xBC94, symBinAddr: 0xFB28, symSize: 0x24 }
  - { offset: 0x9AC93, size: 0x8, addend: 0x0, symName: '__ZN41_$LT$T$u20$as$u20$serde..de..Expected$GT$3fmt17h917042711264b328E', symObjAddr: 0xBCB8, symBinAddr: 0xFB4C, symSize: 0x14 }
  - { offset: 0x9AD0D, size: 0x8, addend: 0x0, symName: '__ZN41_$LT$T$u20$as$u20$serde..de..Expected$GT$3fmt17ha364a49e7c03a73dE', symObjAddr: 0xBCCC, symBinAddr: 0xFB60, symSize: 0x14 }
  - { offset: 0x9AD86, size: 0x8, addend: 0x0, symName: '__ZN41_$LT$T$u20$as$u20$serde..de..Expected$GT$3fmt17hb0fcd3e0f2e01d15E', symObjAddr: 0xBCE0, symBinAddr: 0xFB74, symSize: 0x18 }
  - { offset: 0x9ADFE, size: 0x8, addend: 0x0, symName: '__ZN41_$LT$T$u20$as$u20$serde..de..Expected$GT$3fmt17hb39e84ec57ddf983E', symObjAddr: 0xBCF8, symBinAddr: 0xFB8C, symSize: 0x24 }
  - { offset: 0x9AE77, size: 0x8, addend: 0x0, symName: '__ZN41_$LT$T$u20$as$u20$serde..de..Expected$GT$3fmt17hb4ee1329ddc7a2d4E', symObjAddr: 0xBD1C, symBinAddr: 0xFBB0, symSize: 0x18 }
  - { offset: 0x9AEF0, size: 0x8, addend: 0x0, symName: '__ZN41_$LT$T$u20$as$u20$serde..de..Expected$GT$3fmt17hbfb6551d6c0a3646E', symObjAddr: 0xBD34, symBinAddr: 0xFBC8, symSize: 0x18 }
  - { offset: 0x9AF69, size: 0x8, addend: 0x0, symName: '__ZN41_$LT$T$u20$as$u20$serde..de..Expected$GT$3fmt17hcca7929205b2824bE', symObjAddr: 0xBD4C, symBinAddr: 0xFBE0, symSize: 0x18 }
  - { offset: 0x9AFE2, size: 0x8, addend: 0x0, symName: '__ZN41_$LT$T$u20$as$u20$serde..de..Expected$GT$3fmt17hcd7fba5c78c20e45E', symObjAddr: 0xBD64, symBinAddr: 0xFBF8, symSize: 0x18 }
  - { offset: 0x9B05C, size: 0x8, addend: 0x0, symName: '__ZN41_$LT$T$u20$as$u20$serde..de..Expected$GT$3fmt17hd14f3269770b83b7E', symObjAddr: 0xBD7C, symBinAddr: 0xFC10, symSize: 0x18 }
  - { offset: 0x9B0D4, size: 0x8, addend: 0x0, symName: '__ZN41_$LT$T$u20$as$u20$serde..de..Expected$GT$3fmt17hf6db648b25cc84efE', symObjAddr: 0xBD94, symBinAddr: 0xFC28, symSize: 0x24 }
  - { offset: 0x9CCC3, size: 0x8, addend: 0x0, symName: '__ZN4core6result19Result$LT$T$C$E$GT$7map_err17h72e8033500c632f8E', symObjAddr: 0xD858, symBinAddr: 0x10EAC, symSize: 0x3C }
  - { offset: 0x9D026, size: 0x8, addend: 0x0, symName: _OUTLINED_FUNCTION_4, symObjAddr: 0x3B0B4, symBinAddr: 0x3D5F4, symSize: 0x14 }
  - { offset: 0x9D03D, size: 0x8, addend: 0x0, symName: _OUTLINED_FUNCTION_6, symObjAddr: 0x3B0DC, symBinAddr: 0x3D61C, symSize: 0x14 }
  - { offset: 0x9D054, size: 0x8, addend: 0x0, symName: _OUTLINED_FUNCTION_8, symObjAddr: 0x3B104, symBinAddr: 0x3D644, symSize: 0x14 }
  - { offset: 0x9D06B, size: 0x8, addend: 0x0, symName: _OUTLINED_FUNCTION_10, symObjAddr: 0x3B128, symBinAddr: 0x3D668, symSize: 0x10 }
  - { offset: 0x9D082, size: 0x8, addend: 0x0, symName: _OUTLINED_FUNCTION_14, symObjAddr: 0x3B170, symBinAddr: 0x3D6B0, symSize: 0xC }
  - { offset: 0x9D099, size: 0x8, addend: 0x0, symName: _OUTLINED_FUNCTION_15, symObjAddr: 0x3B17C, symBinAddr: 0x3D6BC, symSize: 0x10 }
  - { offset: 0x9D0B0, size: 0x8, addend: 0x0, symName: _OUTLINED_FUNCTION_33, symObjAddr: 0x3B2B0, symBinAddr: 0x3D7F0, symSize: 0x10 }
  - { offset: 0x9D0C7, size: 0x8, addend: 0x0, symName: _OUTLINED_FUNCTION_34, symObjAddr: 0x3B2C0, symBinAddr: 0x3D800, symSize: 0x50 }
  - { offset: 0x9D0DE, size: 0x8, addend: 0x0, symName: _OUTLINED_FUNCTION_39, symObjAddr: 0x3B358, symBinAddr: 0x3D898, symSize: 0x1C }
  - { offset: 0x9D0F5, size: 0x8, addend: 0x0, symName: _OUTLINED_FUNCTION_42, symObjAddr: 0x3B3AC, symBinAddr: 0x3D8EC, symSize: 0xC }
  - { offset: 0x9D10C, size: 0x8, addend: 0x0, symName: _OUTLINED_FUNCTION_45, symObjAddr: 0x3B3E0, symBinAddr: 0x3D920, symSize: 0xC }
  - { offset: 0x9D123, size: 0x8, addend: 0x0, symName: _OUTLINED_FUNCTION_50, symObjAddr: 0x3B430, symBinAddr: 0x3D970, symSize: 0xC }
  - { offset: 0x9D13A, size: 0x8, addend: 0x0, symName: _OUTLINED_FUNCTION_52, symObjAddr: 0x3B450, symBinAddr: 0x3D990, symSize: 0x24 }
  - { offset: 0x9D151, size: 0x8, addend: 0x0, symName: _OUTLINED_FUNCTION_62, symObjAddr: 0x3B510, symBinAddr: 0x3DA50, symSize: 0x10 }
  - { offset: 0x9D168, size: 0x8, addend: 0x0, symName: _OUTLINED_FUNCTION_67, symObjAddr: 0x3B568, symBinAddr: 0x3DAA8, symSize: 0xC }
  - { offset: 0x9D17F, size: 0x8, addend: 0x0, symName: _OUTLINED_FUNCTION_69, symObjAddr: 0x3B584, symBinAddr: 0x3DAC4, symSize: 0x18 }
  - { offset: 0x9D196, size: 0x8, addend: 0x0, symName: _OUTLINED_FUNCTION_71, symObjAddr: 0x3B600, symBinAddr: 0x3DB40, symSize: 0xC }
  - { offset: 0x9D1AD, size: 0x8, addend: 0x0, symName: _OUTLINED_FUNCTION_74, symObjAddr: 0x3B640, symBinAddr: 0x3DB80, symSize: 0xC }
  - { offset: 0x9D1C4, size: 0x8, addend: 0x0, symName: _OUTLINED_FUNCTION_75, symObjAddr: 0x3B64C, symBinAddr: 0x3DB8C, symSize: 0x28 }
  - { offset: 0x9D1DB, size: 0x8, addend: 0x0, symName: _OUTLINED_FUNCTION_76, symObjAddr: 0x3B674, symBinAddr: 0x3DBB4, symSize: 0xC }
  - { offset: 0x9D1F2, size: 0x8, addend: 0x0, symName: _OUTLINED_FUNCTION_77, symObjAddr: 0x3B680, symBinAddr: 0x3DBC0, symSize: 0xC }
  - { offset: 0x9D209, size: 0x8, addend: 0x0, symName: _OUTLINED_FUNCTION_90, symObjAddr: 0x3B784, symBinAddr: 0x3DCC4, symSize: 0x10 }
  - { offset: 0x9D220, size: 0x8, addend: 0x0, symName: _OUTLINED_FUNCTION_96, symObjAddr: 0x3B7E8, symBinAddr: 0x3DD28, symSize: 0x30 }
  - { offset: 0x9D237, size: 0x8, addend: 0x0, symName: _OUTLINED_FUNCTION_103, symObjAddr: 0x3B874, symBinAddr: 0x3DDB4, symSize: 0x14 }
  - { offset: 0x9D24E, size: 0x8, addend: 0x0, symName: _OUTLINED_FUNCTION_114, symObjAddr: 0x3B944, symBinAddr: 0x3DE84, symSize: 0x2C }
  - { offset: 0x9D265, size: 0x8, addend: 0x0, symName: _OUTLINED_FUNCTION_128, symObjAddr: 0x3BAB8, symBinAddr: 0x3DFF8, symSize: 0x10 }
  - { offset: 0x9D27C, size: 0x8, addend: 0x0, symName: _OUTLINED_FUNCTION_129, symObjAddr: 0x3BAC8, symBinAddr: 0x3E008, symSize: 0xC }
  - { offset: 0x9D293, size: 0x8, addend: 0x0, symName: _OUTLINED_FUNCTION_130, symObjAddr: 0x3BAD4, symBinAddr: 0x3E014, symSize: 0xC }
  - { offset: 0x9D2AA, size: 0x8, addend: 0x0, symName: _OUTLINED_FUNCTION_131, symObjAddr: 0x3BAE0, symBinAddr: 0x3E020, symSize: 0xC }
  - { offset: 0x9D2C1, size: 0x8, addend: 0x0, symName: _OUTLINED_FUNCTION_134, symObjAddr: 0x3BB0C, symBinAddr: 0x3E04C, symSize: 0x24 }
  - { offset: 0x9D2D8, size: 0x8, addend: 0x0, symName: _OUTLINED_FUNCTION_135, symObjAddr: 0x3BB30, symBinAddr: 0x3E070, symSize: 0x18 }
  - { offset: 0x9D2EF, size: 0x8, addend: 0x0, symName: _OUTLINED_FUNCTION_140, symObjAddr: 0x3BB94, symBinAddr: 0x3E0D4, symSize: 0x24 }
  - { offset: 0x9D306, size: 0x8, addend: 0x0, symName: _OUTLINED_FUNCTION_155, symObjAddr: 0x3BCD0, symBinAddr: 0x3E210, symSize: 0xC }
  - { offset: 0x9D31D, size: 0x8, addend: 0x0, symName: _OUTLINED_FUNCTION_156, symObjAddr: 0x3BCDC, symBinAddr: 0x3E21C, symSize: 0xC }
  - { offset: 0x9D334, size: 0x8, addend: 0x0, symName: _OUTLINED_FUNCTION_157, symObjAddr: 0x3BCE8, symBinAddr: 0x3E228, symSize: 0xC }
  - { offset: 0x9D34B, size: 0x8, addend: 0x0, symName: _OUTLINED_FUNCTION_158, symObjAddr: 0x3BCF4, symBinAddr: 0x3E234, symSize: 0xC }
  - { offset: 0x9D362, size: 0x8, addend: 0x0, symName: _OUTLINED_FUNCTION_159, symObjAddr: 0x3BD00, symBinAddr: 0x3E240, symSize: 0xC }
  - { offset: 0x9D379, size: 0x8, addend: 0x0, symName: _OUTLINED_FUNCTION_160, symObjAddr: 0x3BD0C, symBinAddr: 0x3E24C, symSize: 0xC }
  - { offset: 0x9D390, size: 0x8, addend: 0x0, symName: _OUTLINED_FUNCTION_163, symObjAddr: 0x3BD3C, symBinAddr: 0x3E27C, symSize: 0xC }
  - { offset: 0x9D3A7, size: 0x8, addend: 0x0, symName: _OUTLINED_FUNCTION_165, symObjAddr: 0x3BD60, symBinAddr: 0x3E2A0, symSize: 0x14 }
  - { offset: 0x9D3BE, size: 0x8, addend: 0x0, symName: _OUTLINED_FUNCTION_173, symObjAddr: 0x3BDB4, symBinAddr: 0x3E2F4, symSize: 0x20 }
  - { offset: 0x9D3D5, size: 0x8, addend: 0x0, symName: _OUTLINED_FUNCTION_174, symObjAddr: 0x3BDD4, symBinAddr: 0x3E314, symSize: 0x20 }
  - { offset: 0x9D3EC, size: 0x8, addend: 0x0, symName: _OUTLINED_FUNCTION_186, symObjAddr: 0x3BEE4, symBinAddr: 0x3E424, symSize: 0xC }
  - { offset: 0x9D403, size: 0x8, addend: 0x0, symName: _OUTLINED_FUNCTION_207, symObjAddr: 0x3C034, symBinAddr: 0x3E574, symSize: 0xC }
  - { offset: 0x9D41A, size: 0x8, addend: 0x0, symName: _OUTLINED_FUNCTION_225, symObjAddr: 0x3C0F0, symBinAddr: 0x3E630, symSize: 0xC }
  - { offset: 0x9D431, size: 0x8, addend: 0x0, symName: _OUTLINED_FUNCTION_227, symObjAddr: 0x3C108, symBinAddr: 0x3E648, symSize: 0xC }
  - { offset: 0x9D448, size: 0x8, addend: 0x0, symName: _OUTLINED_FUNCTION_229, symObjAddr: 0x3C11C, symBinAddr: 0x3E65C, symSize: 0xC }
  - { offset: 0x9D45F, size: 0x8, addend: 0x0, symName: _OUTLINED_FUNCTION_233, symObjAddr: 0x3C160, symBinAddr: 0x3E6A0, symSize: 0x1C }
  - { offset: 0x9D476, size: 0x8, addend: 0x0, symName: _OUTLINED_FUNCTION_234, symObjAddr: 0x3C17C, symBinAddr: 0x3E6BC, symSize: 0x10 }
  - { offset: 0x9D48D, size: 0x8, addend: 0x0, symName: _OUTLINED_FUNCTION_235, symObjAddr: 0x3C18C, symBinAddr: 0x3E6CC, symSize: 0x10 }
  - { offset: 0x9D4A4, size: 0x8, addend: 0x0, symName: _OUTLINED_FUNCTION_236, symObjAddr: 0x3C19C, symBinAddr: 0x3E6DC, symSize: 0x10 }
  - { offset: 0x9D4BB, size: 0x8, addend: 0x0, symName: _OUTLINED_FUNCTION_237, symObjAddr: 0x3C1AC, symBinAddr: 0x3E6EC, symSize: 0xC }
  - { offset: 0x9D4D2, size: 0x8, addend: 0x0, symName: _OUTLINED_FUNCTION_239, symObjAddr: 0x3C1C8, symBinAddr: 0x3E708, symSize: 0x1C }
  - { offset: 0x9D4E9, size: 0x8, addend: 0x0, symName: _OUTLINED_FUNCTION_242, symObjAddr: 0x3C210, symBinAddr: 0x3E750, symSize: 0x10 }
  - { offset: 0x9D500, size: 0x8, addend: 0x0, symName: _OUTLINED_FUNCTION_272, symObjAddr: 0x3C3B0, symBinAddr: 0x3E8F0, symSize: 0xC }
  - { offset: 0x9D517, size: 0x8, addend: 0x0, symName: _OUTLINED_FUNCTION_286, symObjAddr: 0x3C498, symBinAddr: 0x3E9D8, symSize: 0xC }
  - { offset: 0x9D52E, size: 0x8, addend: 0x0, symName: _OUTLINED_FUNCTION_308, symObjAddr: 0x3C5A4, symBinAddr: 0x3EAE4, symSize: 0x10 }
  - { offset: 0x9D545, size: 0x8, addend: 0x0, symName: _OUTLINED_FUNCTION_316, symObjAddr: 0x3C618, symBinAddr: 0x3EB58, symSize: 0xC }
  - { offset: 0x9D55C, size: 0x8, addend: 0x0, symName: _OUTLINED_FUNCTION_317, symObjAddr: 0x3C624, symBinAddr: 0x3EB64, symSize: 0xC }
  - { offset: 0x9D573, size: 0x8, addend: 0x0, symName: _OUTLINED_FUNCTION_320, symObjAddr: 0x3C644, symBinAddr: 0x3EB84, symSize: 0x10 }
  - { offset: 0x9D58A, size: 0x8, addend: 0x0, symName: _OUTLINED_FUNCTION_321, symObjAddr: 0x3C654, symBinAddr: 0x3EB94, symSize: 0x10 }
  - { offset: 0x9D5A1, size: 0x8, addend: 0x0, symName: _OUTLINED_FUNCTION_340, symObjAddr: 0x3C754, symBinAddr: 0x3EC94, symSize: 0x8 }
  - { offset: 0x9D5B8, size: 0x8, addend: 0x0, symName: _OUTLINED_FUNCTION_350, symObjAddr: 0x3C7D4, symBinAddr: 0x3ED14, symSize: 0x10 }
  - { offset: 0x9D5CF, size: 0x8, addend: 0x0, symName: _OUTLINED_FUNCTION_351, symObjAddr: 0x3C7E4, symBinAddr: 0x3ED24, symSize: 0xC }
  - { offset: 0x9D5E6, size: 0x8, addend: 0x0, symName: _OUTLINED_FUNCTION_354, symObjAddr: 0x3C80C, symBinAddr: 0x3ED4C, symSize: 0xC }
  - { offset: 0x9D5FD, size: 0x8, addend: 0x0, symName: _OUTLINED_FUNCTION_367, symObjAddr: 0x3C8A4, symBinAddr: 0x3EDE4, symSize: 0xC }
  - { offset: 0x9D614, size: 0x8, addend: 0x0, symName: _OUTLINED_FUNCTION_371, symObjAddr: 0x3C90C, symBinAddr: 0x3EE4C, symSize: 0x8 }
  - { offset: 0x9D62B, size: 0x8, addend: 0x0, symName: _OUTLINED_FUNCTION_378, symObjAddr: 0x3C97C, symBinAddr: 0x3EEBC, symSize: 0x10 }
  - { offset: 0x9D642, size: 0x8, addend: 0x0, symName: _OUTLINED_FUNCTION_384, symObjAddr: 0x3C9D4, symBinAddr: 0x3EF14, symSize: 0xC }
  - { offset: 0x9D659, size: 0x8, addend: 0x0, symName: _OUTLINED_FUNCTION_404, symObjAddr: 0x3CB0C, symBinAddr: 0x3F04C, symSize: 0xC }
  - { offset: 0x9D670, size: 0x8, addend: 0x0, symName: _OUTLINED_FUNCTION_407, symObjAddr: 0x3CB44, symBinAddr: 0x3F084, symSize: 0x8 }
  - { offset: 0x9D687, size: 0x8, addend: 0x0, symName: _OUTLINED_FUNCTION_417, symObjAddr: 0x3CBB8, symBinAddr: 0x3F0F8, symSize: 0xC }
  - { offset: 0x9D69E, size: 0x8, addend: 0x0, symName: _OUTLINED_FUNCTION_422, symObjAddr: 0x3CBEC, symBinAddr: 0x3F12C, symSize: 0xC }
  - { offset: 0x9D6B5, size: 0x8, addend: 0x0, symName: _OUTLINED_FUNCTION_429, symObjAddr: 0x3CC2C, symBinAddr: 0x3F16C, symSize: 0x8 }
  - { offset: 0x9D6CC, size: 0x8, addend: 0x0, symName: _OUTLINED_FUNCTION_439, symObjAddr: 0x3CC84, symBinAddr: 0x3F1C4, symSize: 0x8 }
  - { offset: 0x9D6E3, size: 0x8, addend: 0x0, symName: _OUTLINED_FUNCTION_455, symObjAddr: 0x3CD64, symBinAddr: 0x3F2A4, symSize: 0x8 }
  - { offset: 0x9D6FA, size: 0x8, addend: 0x0, symName: _OUTLINED_FUNCTION_457, symObjAddr: 0x3CD74, symBinAddr: 0x3F2B4, symSize: 0x1C }
  - { offset: 0x9D711, size: 0x8, addend: 0x0, symName: _OUTLINED_FUNCTION_465, symObjAddr: 0x3CE04, symBinAddr: 0x3F344, symSize: 0x8 }
  - { offset: 0x9D728, size: 0x8, addend: 0x0, symName: _OUTLINED_FUNCTION_489, symObjAddr: 0x3CFC8, symBinAddr: 0x3F508, symSize: 0xC }
  - { offset: 0x9D73F, size: 0x8, addend: 0x0, symName: _OUTLINED_FUNCTION_490, symObjAddr: 0x3CFD4, symBinAddr: 0x3F514, symSize: 0xC }
  - { offset: 0x9D756, size: 0x8, addend: 0x0, symName: _OUTLINED_FUNCTION_497, symObjAddr: 0x3D02C, symBinAddr: 0x3F56C, symSize: 0xC }
  - { offset: 0x9D76D, size: 0x8, addend: 0x0, symName: _OUTLINED_FUNCTION_498, symObjAddr: 0x3D038, symBinAddr: 0x3F578, symSize: 0x8 }
  - { offset: 0x9D784, size: 0x8, addend: 0x0, symName: _OUTLINED_FUNCTION_512, symObjAddr: 0x3D0FC, symBinAddr: 0x3F63C, symSize: 0x14 }
  - { offset: 0x9D79B, size: 0x8, addend: 0x0, symName: _OUTLINED_FUNCTION_513, symObjAddr: 0x3D110, symBinAddr: 0x3F650, symSize: 0x10 }
  - { offset: 0x9D7B2, size: 0x8, addend: 0x0, symName: _OUTLINED_FUNCTION_514, symObjAddr: 0x3D120, symBinAddr: 0x3F660, symSize: 0x8 }
  - { offset: 0x9D7C9, size: 0x8, addend: 0x0, symName: _OUTLINED_FUNCTION_517, symObjAddr: 0x3D150, symBinAddr: 0x3F690, symSize: 0x10 }
  - { offset: 0x9D7E0, size: 0x8, addend: 0x0, symName: _OUTLINED_FUNCTION_518, symObjAddr: 0x3D160, symBinAddr: 0x3F6A0, symSize: 0xC }
  - { offset: 0x9D7F7, size: 0x8, addend: 0x0, symName: _OUTLINED_FUNCTION_523, symObjAddr: 0x3D1A8, symBinAddr: 0x3F6E8, symSize: 0x14 }
  - { offset: 0x9D80E, size: 0x8, addend: 0x0, symName: _OUTLINED_FUNCTION_530, symObjAddr: 0x3D230, symBinAddr: 0x3F770, symSize: 0x14 }
  - { offset: 0x9D825, size: 0x8, addend: 0x0, symName: _OUTLINED_FUNCTION_532, symObjAddr: 0x3D250, symBinAddr: 0x3F790, symSize: 0x14 }
  - { offset: 0x9D83C, size: 0x8, addend: 0x0, symName: _OUTLINED_FUNCTION_535, symObjAddr: 0x3D27C, symBinAddr: 0x3F7BC, symSize: 0x14 }
  - { offset: 0x9D853, size: 0x8, addend: 0x0, symName: _OUTLINED_FUNCTION_536, symObjAddr: 0x3D290, symBinAddr: 0x3F7D0, symSize: 0x14 }
  - { offset: 0x9D86A, size: 0x8, addend: 0x0, symName: _OUTLINED_FUNCTION_549, symObjAddr: 0x3D31C, symBinAddr: 0x3F85C, symSize: 0x14 }
  - { offset: 0x9D881, size: 0x8, addend: 0x0, symName: _OUTLINED_FUNCTION_561, symObjAddr: 0x3D3A4, symBinAddr: 0x3F8E4, symSize: 0xC }
  - { offset: 0x9D898, size: 0x8, addend: 0x0, symName: _OUTLINED_FUNCTION_584, symObjAddr: 0x3D4D4, symBinAddr: 0x3FA14, symSize: 0x8 }
  - { offset: 0x9D8AF, size: 0x8, addend: 0x0, symName: _OUTLINED_FUNCTION_585, symObjAddr: 0x3D4DC, symBinAddr: 0x3FA1C, symSize: 0x14 }
  - { offset: 0x9D8C6, size: 0x8, addend: 0x0, symName: _OUTLINED_FUNCTION_588, symObjAddr: 0x3D520, symBinAddr: 0x3FA60, symSize: 0xC }
  - { offset: 0x9D8DD, size: 0x8, addend: 0x0, symName: _OUTLINED_FUNCTION_594, symObjAddr: 0x3D56C, symBinAddr: 0x3FAAC, symSize: 0x8 }
  - { offset: 0x9D8F4, size: 0x8, addend: 0x0, symName: _OUTLINED_FUNCTION_598, symObjAddr: 0x3D59C, symBinAddr: 0x3FADC, symSize: 0x14 }
  - { offset: 0x9D90B, size: 0x8, addend: 0x0, symName: _OUTLINED_FUNCTION_612, symObjAddr: 0x3D638, symBinAddr: 0x3FB78, symSize: 0xC }
  - { offset: 0x9D922, size: 0x8, addend: 0x0, symName: _OUTLINED_FUNCTION_621, symObjAddr: 0x3D6F4, symBinAddr: 0x3FC34, symSize: 0xC }
  - { offset: 0x9D939, size: 0x8, addend: 0x0, symName: _OUTLINED_FUNCTION_622, symObjAddr: 0x3D700, symBinAddr: 0x3FC40, symSize: 0xC }
  - { offset: 0x9D950, size: 0x8, addend: 0x0, symName: _OUTLINED_FUNCTION_633, symObjAddr: 0x3D7E4, symBinAddr: 0x3FD24, symSize: 0xC }
  - { offset: 0x9D967, size: 0x8, addend: 0x0, symName: _OUTLINED_FUNCTION_636, symObjAddr: 0x3D808, symBinAddr: 0x3FD48, symSize: 0xC }
  - { offset: 0x9D97E, size: 0x8, addend: 0x0, symName: _OUTLINED_FUNCTION_674, symObjAddr: 0x3D9EC, symBinAddr: 0x3FF2C, symSize: 0x20 }
  - { offset: 0x9D995, size: 0x8, addend: 0x0, symName: _OUTLINED_FUNCTION_678, symObjAddr: 0x3DA6C, symBinAddr: 0x3FFAC, symSize: 0xC }
  - { offset: 0x9D9AC, size: 0x8, addend: 0x0, symName: _OUTLINED_FUNCTION_680, symObjAddr: 0x3DA84, symBinAddr: 0x3FFC4, symSize: 0x20 }
  - { offset: 0x9D9C3, size: 0x8, addend: 0x0, symName: _OUTLINED_FUNCTION_709, symObjAddr: 0x3DC78, symBinAddr: 0x401B8, symSize: 0x8 }
  - { offset: 0x9D9DA, size: 0x8, addend: 0x0, symName: _OUTLINED_FUNCTION_713, symObjAddr: 0x3DCA0, symBinAddr: 0x401E0, symSize: 0xC }
  - { offset: 0x9D9F1, size: 0x8, addend: 0x0, symName: _OUTLINED_FUNCTION_714, symObjAddr: 0x3DCAC, symBinAddr: 0x401EC, symSize: 0xC }
  - { offset: 0x9DA08, size: 0x8, addend: 0x0, symName: _OUTLINED_FUNCTION_722, symObjAddr: 0x3DD0C, symBinAddr: 0x4024C, symSize: 0x8 }
  - { offset: 0x9DA1F, size: 0x8, addend: 0x0, symName: _OUTLINED_FUNCTION_726, symObjAddr: 0x3DD34, symBinAddr: 0x40274, symSize: 0xC }
  - { offset: 0x9DA36, size: 0x8, addend: 0x0, symName: _OUTLINED_FUNCTION_728, symObjAddr: 0x3DD4C, symBinAddr: 0x4028C, symSize: 0xC }
  - { offset: 0x9DA4D, size: 0x8, addend: 0x0, symName: _OUTLINED_FUNCTION_730, symObjAddr: 0x3DD60, symBinAddr: 0x402A0, symSize: 0xC }
  - { offset: 0x9DA64, size: 0x8, addend: 0x0, symName: _OUTLINED_FUNCTION_731, symObjAddr: 0x3DD6C, symBinAddr: 0x402AC, symSize: 0x10 }
  - { offset: 0x9DA7B, size: 0x8, addend: 0x0, symName: _OUTLINED_FUNCTION_735, symObjAddr: 0x3DD98, symBinAddr: 0x402D8, symSize: 0x8 }
  - { offset: 0x9DA92, size: 0x8, addend: 0x0, symName: _OUTLINED_FUNCTION_736, symObjAddr: 0x3DDA0, symBinAddr: 0x402E0, symSize: 0x8 }
  - { offset: 0x9DAA9, size: 0x8, addend: 0x0, symName: _OUTLINED_FUNCTION_737, symObjAddr: 0x3DDA8, symBinAddr: 0x402E8, symSize: 0xC }
  - { offset: 0x9DAC0, size: 0x8, addend: 0x0, symName: _OUTLINED_FUNCTION_738, symObjAddr: 0x3DDB4, symBinAddr: 0x402F4, symSize: 0xC }
  - { offset: 0x9DAD7, size: 0x8, addend: 0x0, symName: _OUTLINED_FUNCTION_749, symObjAddr: 0x3DE60, symBinAddr: 0x403A0, symSize: 0x10 }
  - { offset: 0x9DAEE, size: 0x8, addend: 0x0, symName: _OUTLINED_FUNCTION_761, symObjAddr: 0x3DF14, symBinAddr: 0x40454, symSize: 0xC }
  - { offset: 0x9DB05, size: 0x8, addend: 0x0, symName: _OUTLINED_FUNCTION_771, symObjAddr: 0x3DF94, symBinAddr: 0x404D4, symSize: 0xC }
  - { offset: 0x9DB1C, size: 0x8, addend: 0x0, symName: _OUTLINED_FUNCTION_778, symObjAddr: 0x3DFF8, symBinAddr: 0x40538, symSize: 0xC }
  - { offset: 0x9DB33, size: 0x8, addend: 0x0, symName: _OUTLINED_FUNCTION_786, symObjAddr: 0x3E058, symBinAddr: 0x40598, symSize: 0x8 }
  - { offset: 0x9DB4A, size: 0x8, addend: 0x0, symName: _OUTLINED_FUNCTION_788, symObjAddr: 0x3E068, symBinAddr: 0x405A8, symSize: 0xC }
  - { offset: 0x9DB61, size: 0x8, addend: 0x0, symName: _OUTLINED_FUNCTION_801, symObjAddr: 0x3E0F0, symBinAddr: 0x40630, symSize: 0xC }
  - { offset: 0x9DB78, size: 0x8, addend: 0x0, symName: _OUTLINED_FUNCTION_809, symObjAddr: 0x3E144, symBinAddr: 0x40684, symSize: 0xC }
  - { offset: 0x9DB8F, size: 0x8, addend: 0x0, symName: _OUTLINED_FUNCTION_812, symObjAddr: 0x3E174, symBinAddr: 0x406B4, symSize: 0x8 }
  - { offset: 0x9DBA6, size: 0x8, addend: 0x0, symName: _OUTLINED_FUNCTION_815, symObjAddr: 0x3E1B4, symBinAddr: 0x406F4, symSize: 0xC }
  - { offset: 0x9DBBD, size: 0x8, addend: 0x0, symName: _OUTLINED_FUNCTION_828, symObjAddr: 0x3E23C, symBinAddr: 0x4077C, symSize: 0x10 }
  - { offset: 0x9DBD4, size: 0x8, addend: 0x0, symName: _OUTLINED_FUNCTION_830, symObjAddr: 0x3E25C, symBinAddr: 0x4079C, symSize: 0x10 }
  - { offset: 0x9DBEB, size: 0x8, addend: 0x0, symName: _OUTLINED_FUNCTION_831, symObjAddr: 0x3E26C, symBinAddr: 0x407AC, symSize: 0x10 }
  - { offset: 0x9DC02, size: 0x8, addend: 0x0, symName: _OUTLINED_FUNCTION_832, symObjAddr: 0x3E27C, symBinAddr: 0x407BC, symSize: 0x10 }
  - { offset: 0x9DC19, size: 0x8, addend: 0x0, symName: _OUTLINED_FUNCTION_834, symObjAddr: 0x3E29C, symBinAddr: 0x407DC, symSize: 0x10 }
  - { offset: 0x9DC30, size: 0x8, addend: 0x0, symName: _OUTLINED_FUNCTION_837, symObjAddr: 0x3E2CC, symBinAddr: 0x4080C, symSize: 0x10 }
  - { offset: 0x9DC47, size: 0x8, addend: 0x0, symName: _OUTLINED_FUNCTION_839, symObjAddr: 0x3E2EC, symBinAddr: 0x4082C, symSize: 0x10 }
  - { offset: 0x9DC5E, size: 0x8, addend: 0x0, symName: _OUTLINED_FUNCTION_840, symObjAddr: 0x3E2FC, symBinAddr: 0x4083C, symSize: 0x10 }
  - { offset: 0x9DC75, size: 0x8, addend: 0x0, symName: _OUTLINED_FUNCTION_842, symObjAddr: 0x3E31C, symBinAddr: 0x4085C, symSize: 0x10 }
  - { offset: 0x9DC8C, size: 0x8, addend: 0x0, symName: _OUTLINED_FUNCTION_843, symObjAddr: 0x3E32C, symBinAddr: 0x4086C, symSize: 0x10 }
  - { offset: 0x9DCA3, size: 0x8, addend: 0x0, symName: _OUTLINED_FUNCTION_845, symObjAddr: 0x3E34C, symBinAddr: 0x4088C, symSize: 0x10 }
  - { offset: 0x9DCBA, size: 0x8, addend: 0x0, symName: _OUTLINED_FUNCTION_875, symObjAddr: 0x3E54C, symBinAddr: 0x40A8C, symSize: 0xC }
  - { offset: 0x9DCD1, size: 0x8, addend: 0x0, symName: _OUTLINED_FUNCTION_877, symObjAddr: 0x3E570, symBinAddr: 0x40AB0, symSize: 0xC }
  - { offset: 0x9DCE8, size: 0x8, addend: 0x0, symName: _OUTLINED_FUNCTION_893, symObjAddr: 0x3E678, symBinAddr: 0x40BB8, symSize: 0xC }
  - { offset: 0x9DCFF, size: 0x8, addend: 0x0, symName: _OUTLINED_FUNCTION_899, symObjAddr: 0x3E6D8, symBinAddr: 0x40C18, symSize: 0xC }
  - { offset: 0x9DD16, size: 0x8, addend: 0x0, symName: _OUTLINED_FUNCTION_902, symObjAddr: 0x3E6FC, symBinAddr: 0x40C3C, symSize: 0xC }
  - { offset: 0x9DD2D, size: 0x8, addend: 0x0, symName: _OUTLINED_FUNCTION_917, symObjAddr: 0x3E7D4, symBinAddr: 0x40D14, symSize: 0xC }
  - { offset: 0x9DD44, size: 0x8, addend: 0x0, symName: _OUTLINED_FUNCTION_922, symObjAddr: 0x3E810, symBinAddr: 0x40D50, symSize: 0xC }
  - { offset: 0x9DD5B, size: 0x8, addend: 0x0, symName: _OUTLINED_FUNCTION_930, symObjAddr: 0x3E87C, symBinAddr: 0x40DBC, symSize: 0x8 }
  - { offset: 0x9DD72, size: 0x8, addend: 0x0, symName: _OUTLINED_FUNCTION_937, symObjAddr: 0x3E8C8, symBinAddr: 0x40E08, symSize: 0x8 }
  - { offset: 0x9DD89, size: 0x8, addend: 0x0, symName: _OUTLINED_FUNCTION_943, symObjAddr: 0x3E904, symBinAddr: 0x40E44, symSize: 0xC }
  - { offset: 0x9DDA0, size: 0x8, addend: 0x0, symName: _OUTLINED_FUNCTION_947, symObjAddr: 0x3E93C, symBinAddr: 0x40E7C, symSize: 0xC }
  - { offset: 0x9DDB7, size: 0x8, addend: 0x0, symName: _OUTLINED_FUNCTION_950, symObjAddr: 0x3E960, symBinAddr: 0x40EA0, symSize: 0x8 }
  - { offset: 0x9DDCE, size: 0x8, addend: 0x0, symName: _OUTLINED_FUNCTION_965, symObjAddr: 0x3EA0C, symBinAddr: 0x40F4C, symSize: 0xC }
  - { offset: 0x9DDE5, size: 0x8, addend: 0x0, symName: _OUTLINED_FUNCTION_968, symObjAddr: 0x3EA2C, symBinAddr: 0x40F6C, symSize: 0xC }
  - { offset: 0x9DDFC, size: 0x8, addend: 0x0, symName: _OUTLINED_FUNCTION_969, symObjAddr: 0x3EA38, symBinAddr: 0x40F78, symSize: 0xC }
  - { offset: 0x9DE13, size: 0x8, addend: 0x0, symName: _OUTLINED_FUNCTION_976, symObjAddr: 0x3EA80, symBinAddr: 0x40FC0, symSize: 0x8 }
  - { offset: 0x9DE2A, size: 0x8, addend: 0x0, symName: _OUTLINED_FUNCTION_977, symObjAddr: 0x3EA88, symBinAddr: 0x40FC8, symSize: 0x8 }
  - { offset: 0x9DE41, size: 0x8, addend: 0x0, symName: _OUTLINED_FUNCTION_984, symObjAddr: 0x3EACC, symBinAddr: 0x4100C, symSize: 0xC }
  - { offset: 0x9DE58, size: 0x8, addend: 0x0, symName: _OUTLINED_FUNCTION_985, symObjAddr: 0x3EAD8, symBinAddr: 0x41018, symSize: 0x8 }
  - { offset: 0x9DE6F, size: 0x8, addend: 0x0, symName: _OUTLINED_FUNCTION_997, symObjAddr: 0x3EB50, symBinAddr: 0x41090, symSize: 0x8 }
  - { offset: 0x9DE86, size: 0x8, addend: 0x0, symName: _OUTLINED_FUNCTION_1002, symObjAddr: 0x3EB78, symBinAddr: 0x410B8, symSize: 0x8 }
  - { offset: 0x9DE9D, size: 0x8, addend: 0x0, symName: _OUTLINED_FUNCTION_1049, symObjAddr: 0x3ED48, symBinAddr: 0x41288, symSize: 0x8 }
  - { offset: 0x9DEB4, size: 0x8, addend: 0x0, symName: _OUTLINED_FUNCTION_1053, symObjAddr: 0x3ED68, symBinAddr: 0x412A8, symSize: 0x8 }
  - { offset: 0x9DECB, size: 0x8, addend: 0x0, symName: _OUTLINED_FUNCTION_1054, symObjAddr: 0x3ED70, symBinAddr: 0x412B0, symSize: 0x8 }
  - { offset: 0x9DEE2, size: 0x8, addend: 0x0, symName: _OUTLINED_FUNCTION_1055, symObjAddr: 0x3ED78, symBinAddr: 0x412B8, symSize: 0xC }
  - { offset: 0x9DEF9, size: 0x8, addend: 0x0, symName: _OUTLINED_FUNCTION_1081, symObjAddr: 0x3EE78, symBinAddr: 0x413B8, symSize: 0x8 }
  - { offset: 0x9DF10, size: 0x8, addend: 0x0, symName: _OUTLINED_FUNCTION_1108, symObjAddr: 0x3EF90, symBinAddr: 0x414D0, symSize: 0x14 }
  - { offset: 0x9DF27, size: 0x8, addend: 0x0, symName: _OUTLINED_FUNCTION_1111, symObjAddr: 0x3EFCC, symBinAddr: 0x4150C, symSize: 0xC }
  - { offset: 0x9DF3E, size: 0x8, addend: 0x0, symName: _OUTLINED_FUNCTION_1118, symObjAddr: 0x3F030, symBinAddr: 0x41570, symSize: 0x14 }
  - { offset: 0x9DF55, size: 0x8, addend: 0x0, symName: _OUTLINED_FUNCTION_1127, symObjAddr: 0x3F0BC, symBinAddr: 0x415FC, symSize: 0x14 }
  - { offset: 0x9DF6C, size: 0x8, addend: 0x0, symName: _OUTLINED_FUNCTION_1143, symObjAddr: 0x3F1BC, symBinAddr: 0x416FC, symSize: 0xC }
  - { offset: 0x9DF83, size: 0x8, addend: 0x0, symName: _OUTLINED_FUNCTION_1159, symObjAddr: 0x3F29C, symBinAddr: 0x417DC, symSize: 0x14 }
  - { offset: 0x9DF9A, size: 0x8, addend: 0x0, symName: _OUTLINED_FUNCTION_1169, symObjAddr: 0x3F33C, symBinAddr: 0x4187C, symSize: 0xC }
  - { offset: 0x9DFB1, size: 0x8, addend: 0x0, symName: _OUTLINED_FUNCTION_1176, symObjAddr: 0x3F3A0, symBinAddr: 0x418E0, symSize: 0xC }
  - { offset: 0x9DFC8, size: 0x8, addend: 0x0, symName: _OUTLINED_FUNCTION_1178, symObjAddr: 0x3F3B8, symBinAddr: 0x418F8, symSize: 0xC }
  - { offset: 0x9DFDF, size: 0x8, addend: 0x0, symName: _OUTLINED_FUNCTION_1194, symObjAddr: 0x3F4A0, symBinAddr: 0x419E0, symSize: 0xC }
  - { offset: 0x9DFF6, size: 0x8, addend: 0x0, symName: _OUTLINED_FUNCTION_1212, symObjAddr: 0x3F5F0, symBinAddr: 0x41B30, symSize: 0x18 }
  - { offset: 0x1B7EEE, size: 0x8, addend: 0x0, symName: __ZN4itoa6Buffer6format17h54f75212191d4beeE, symObjAddr: 0x394FC, symBinAddr: 0x3BA48, symSize: 0xD8 }
  - { offset: 0x1B83A6, size: 0x8, addend: 0x0, symName: __ZN4itoa6Buffer6format17h54f75212191d4beeE, symObjAddr: 0x394FC, symBinAddr: 0x3BA48, symSize: 0xD8 }
  - { offset: 0x1B8513, size: 0x8, addend: 0x0, symName: __ZN4itoa6Buffer6format17heac5157190cb7fc1E, symObjAddr: 0x395D4, symBinAddr: 0x3BB20, symSize: 0xBC }
  - { offset: 0x19BB9A, size: 0x8, addend: 0x0, symName: '__ZN5alloc11collections5btree4node21LeafNode$LT$K$C$V$GT$3new17hb1f70cbbc586b08cE', symObjAddr: 0x35C3C, symBinAddr: 0x38730, symSize: 0x24 }
  - { offset: 0x19D818, size: 0x8, addend: 0x0, symName: '__ZN4core5array88_$LT$impl$u20$core..ops..index..IndexMut$LT$I$GT$$u20$for$u20$$u5b$T$u3b$$u20$N$u5d$$GT$9index_mut17h7e58c222427512c6E', symObjAddr: 0x35DB8, symBinAddr: 0x388AC, symSize: 0x18 }
  - { offset: 0x19D857, size: 0x8, addend: 0x0, symName: '__ZN4core5array88_$LT$impl$u20$core..ops..index..IndexMut$LT$I$GT$$u20$for$u20$$u5b$T$u3b$$u20$N$u5d$$GT$9index_mut17h7e58c222427512c6E', symObjAddr: 0x35DB8, symBinAddr: 0x388AC, symSize: 0x18 }
  - { offset: 0x19D87C, size: 0x8, addend: 0x0, symName: '__ZN4core5array88_$LT$impl$u20$core..ops..index..IndexMut$LT$I$GT$$u20$for$u20$$u5b$T$u3b$$u20$N$u5d$$GT$9index_mut17h7e58c222427512c6E', symObjAddr: 0x35DB8, symBinAddr: 0x388AC, symSize: 0x18 }
  - { offset: 0x19D8A0, size: 0x8, addend: 0x0, symName: '__ZN4core5array88_$LT$impl$u20$core..ops..index..IndexMut$LT$I$GT$$u20$for$u20$$u5b$T$u3b$$u20$N$u5d$$GT$9index_mut17h7e58c222427512c6E', symObjAddr: 0x35DB8, symBinAddr: 0x388AC, symSize: 0x18 }
  - { offset: 0x19D8C3, size: 0x8, addend: 0x0, symName: '__ZN4core5array88_$LT$impl$u20$core..ops..index..IndexMut$LT$I$GT$$u20$for$u20$$u5b$T$u3b$$u20$N$u5d$$GT$9index_mut17h7e58c222427512c6E', symObjAddr: 0x35DB8, symBinAddr: 0x388AC, symSize: 0x18 }
  - { offset: 0x19EB3D, size: 0x8, addend: 0x0, symName: __ZN5alloc11collections5btree4node12slice_insert17hf8067c1609ac894aE, symObjAddr: 0x35CF8, symBinAddr: 0x387EC, symSize: 0x5C }
  - { offset: 0x19EC3B, size: 0x8, addend: 0x0, symName: __ZN5alloc11collections5btree4node13move_to_slice17h195776b9f6ce3e38E, symObjAddr: 0x35D54, symBinAddr: 0x38848, symSize: 0x20 }
  - { offset: 0x19ECAA, size: 0x8, addend: 0x0, symName: __ZN5alloc11collections5btree4node13move_to_slice17h3abc12583ff24e95E, symObjAddr: 0x35D74, symBinAddr: 0x38868, symSize: 0x20 }
  - { offset: 0x19ED19, size: 0x8, addend: 0x0, symName: __ZN5alloc11collections5btree4node13move_to_slice17hf3c995c2e6378c20E, symObjAddr: 0x35D94, symBinAddr: 0x38888, symSize: 0x24 }
  - { offset: 0x1A0ADD, size: 0x8, addend: 0x0, symName: '__ZN5alloc11collections5btree4node21LeafNode$LT$K$C$V$GT$3new17hb1f70cbbc586b08cE', symObjAddr: 0x35C3C, symBinAddr: 0x38730, symSize: 0x24 }
  - { offset: 0x1A0CB5, size: 0x8, addend: 0x0, symName: '__ZN5alloc11collections5btree4node119NodeRef$LT$alloc..collections..btree..node..marker..Mut$C$K$C$V$C$alloc..collections..btree..node..marker..Internal$GT$30correct_childrens_parent_links17ha77e9ce7ddfc1624E', symObjAddr: 0x35C60, symBinAddr: 0x38754, symSize: 0x24 }
  - { offset: 0x1A0CE4, size: 0x8, addend: 0x0, symName: '__ZN5alloc11collections5btree4node119NodeRef$LT$alloc..collections..btree..node..marker..Mut$C$K$C$V$C$alloc..collections..btree..node..marker..Internal$GT$30correct_childrens_parent_links17ha77e9ce7ddfc1624E', symObjAddr: 0x35C60, symBinAddr: 0x38754, symSize: 0x24 }
  - { offset: 0x1A0E81, size: 0x8, addend: 0x0, symName: '__ZN5alloc11collections5btree4node25InternalNode$LT$K$C$V$GT$3new17h43a99a59fd05dcedE', symObjAddr: 0x35C84, symBinAddr: 0x38778, symSize: 0x24 }
  - { offset: 0x1A103F, size: 0x8, addend: 0x0, symName: '__ZN5alloc11collections5btree4node121NodeRef$LT$alloc..collections..btree..node..marker..Owned$C$K$C$V$C$alloc..collections..btree..node..marker..Internal$GT$17from_new_internal17h9f1f75ffb4e2ae4eE', symObjAddr: 0x35CA8, symBinAddr: 0x3879C, symSize: 0x38 }
  - { offset: 0x1A1323, size: 0x8, addend: 0x0, symName: '__ZN5alloc11collections5btree4node127NodeRef$LT$alloc..collections..btree..node..marker..Dying$C$K$C$V$C$alloc..collections..btree..node..marker..LeafOrInternal$GT$21deallocate_and_ascend17h543009d2ed40eae4E', symObjAddr: 0x35CE0, symBinAddr: 0x387D4, symSize: 0x18 }
  - { offset: 0x1A1352, size: 0x8, addend: 0x0, symName: '__ZN5alloc11collections5btree4node127NodeRef$LT$alloc..collections..btree..node..marker..Dying$C$K$C$V$C$alloc..collections..btree..node..marker..LeafOrInternal$GT$21deallocate_and_ascend17h543009d2ed40eae4E', symObjAddr: 0x35CE0, symBinAddr: 0x387D4, symSize: 0x18 }
  - { offset: 0x1A136E, size: 0x8, addend: 0x0, symName: '__ZN5alloc11collections5btree4node127NodeRef$LT$alloc..collections..btree..node..marker..Dying$C$K$C$V$C$alloc..collections..btree..node..marker..LeafOrInternal$GT$21deallocate_and_ascend17h543009d2ed40eae4E', symObjAddr: 0x35CE0, symBinAddr: 0x387D4, symSize: 0x18 }
  - { offset: 0x1A138E, size: 0x8, addend: 0x0, symName: '__ZN5alloc11collections5btree4node127NodeRef$LT$alloc..collections..btree..node..marker..Dying$C$K$C$V$C$alloc..collections..btree..node..marker..LeafOrInternal$GT$21deallocate_and_ascend17h543009d2ed40eae4E', symObjAddr: 0x35CE0, symBinAddr: 0x387D4, symSize: 0x18 }
  - { offset: 0x1A13A8, size: 0x8, addend: 0x0, symName: '__ZN5alloc11collections5btree4node127NodeRef$LT$alloc..collections..btree..node..marker..Dying$C$K$C$V$C$alloc..collections..btree..node..marker..LeafOrInternal$GT$21deallocate_and_ascend17h543009d2ed40eae4E', symObjAddr: 0x35CE0, symBinAddr: 0x387D4, symSize: 0x18 }
  - { offset: 0x1A153B, size: 0x8, addend: 0x0, symName: '__ZN5alloc11collections5btree4node210Handle$LT$alloc..collections..btree..node..NodeRef$LT$alloc..collections..btree..node..marker..Mut$C$K$C$V$C$alloc..collections..btree..node..marker..Leaf$GT$$C$alloc..collections..btree..node..marker..Edge$GT$10insert_fit17h8eb3da44f1fd982fE', symObjAddr: 0x35DD0, symBinAddr: 0x388C4, symSize: 0x80 }
  - { offset: 0x1A1730, size: 0x8, addend: 0x0, symName: '__ZN5alloc11collections5btree4node214Handle$LT$alloc..collections..btree..node..NodeRef$LT$alloc..collections..btree..node..marker..Mut$C$K$C$V$C$alloc..collections..btree..node..marker..Internal$GT$$C$alloc..collections..btree..node..marker..Edge$GT$10insert_fit17haa7e796621e162b0E', symObjAddr: 0x35E50, symBinAddr: 0x38944, symSize: 0xA8 }
  - { offset: 0x124C0D, size: 0x8, addend: 0x0, symName: '__ZN66_$LT$alloc..borrow..Cow$LT$B$GT$$u20$as$u20$core..fmt..Display$GT$3fmt17h4a5c799d3233cab1E', symObjAddr: 0x24E98, symBinAddr: 0x27D6C, symSize: 0x20 }
  - { offset: 0x124C91, size: 0x8, addend: 0x0, symName: '__ZN66_$LT$alloc..borrow..Cow$LT$B$GT$$u20$as$u20$core..clone..Clone$GT$5clone17he869c2de5f61e243E', symObjAddr: 0x24EC0, symBinAddr: 0x27D94, symSize: 0x24 }
  - { offset: 0x126173, size: 0x8, addend: 0x0, symName: '__ZN4core3ptr99drop_in_place$LT$powersync_core..sync..storage_adapter..StorageAdapter..sync_local..PartialArgs$GT$17ha06ee00ecbfb0c7aE', symObjAddr: 0x25DBC, symBinAddr: 0x28C5C, symSize: 0xC }
  - { offset: 0x126199, size: 0x8, addend: 0x0, symName: '__ZN4core3ptr99drop_in_place$LT$powersync_core..sync..storage_adapter..StorageAdapter..sync_local..PartialArgs$GT$17ha06ee00ecbfb0c7aE', symObjAddr: 0x25DBC, symBinAddr: 0x28C5C, symSize: 0xC }
  - { offset: 0x1261AE, size: 0x8, addend: 0x0, symName: '__ZN4core3ptr99drop_in_place$LT$powersync_core..sync..storage_adapter..StorageAdapter..sync_local..PartialArgs$GT$17ha06ee00ecbfb0c7aE', symObjAddr: 0x25DBC, symBinAddr: 0x28C5C, symSize: 0xC }
  - { offset: 0x1261C3, size: 0x8, addend: 0x0, symName: '__ZN4core3ptr99drop_in_place$LT$powersync_core..sync..storage_adapter..StorageAdapter..sync_local..PartialArgs$GT$17ha06ee00ecbfb0c7aE', symObjAddr: 0x25DBC, symBinAddr: 0x28C5C, symSize: 0xC }
  - { offset: 0x12671F, size: 0x8, addend: 0x0, symName: '__ZN44_$LT$$RF$T$u20$as$u20$core..fmt..Display$GT$3fmt17h29788723a6b188c9E', symObjAddr: 0x24E90, symBinAddr: 0x27D64, symSize: 0x8 }
  - { offset: 0x126766, size: 0x8, addend: 0x0, symName: '__ZN44_$LT$$RF$T$u20$as$u20$core..fmt..Display$GT$3fmt17h3c2e6d24585779e2E', symObjAddr: 0x24EB8, symBinAddr: 0x27D8C, symSize: 0x8 }
  - { offset: 0x12A80D, size: 0x8, addend: 0x0, symName: '__ZN95_$LT$$BP$mut$u20$sqlite3_capi..bindings..sqlite3$u20$as$u20$sqlite_nostd..nostd..Connection$GT$10prepare_v217h7ab4544c84af73cdE.2012', symObjAddr: 0x24FB0, symBinAddr: 0x27E50, symSize: 0x550 }
  - { offset: 0x12A8EA, size: 0x8, addend: 0x0, symName: '__ZN95_$LT$$BP$mut$u20$sqlite3_capi..bindings..sqlite3$u20$as$u20$sqlite_nostd..nostd..Connection$GT$9exec_safe17h3f8926a20cc1984dE.2031', symObjAddr: 0x25D54, symBinAddr: 0x28BF4, symSize: 0x54 }
  - { offset: 0x12B229, size: 0x8, addend: 0x0, symName: '__ZN94_$LT$powersync_core..sync..storage_adapter..CheckpointResult$u20$as$u20$core..fmt..Display$GT$3fmt17he02d9177172afc87E', symObjAddr: 0x26174, symBinAddr: 0x29014, symSize: 0x174 }
  - { offset: 0x12B744, size: 0x8, addend: 0x0, symName: '__ZN147_$LT$powersync_core..sync..checkpoint..OwnedBucketChecksum$u20$as$u20$core..convert..From$LT$$RF$powersync_core..sync..line..BucketChecksum$GT$$GT$4from17h3aebf20cbd09c82aE', symObjAddr: 0x25514, symBinAddr: 0x283B4, symSize: 0x7C }
  - { offset: 0x12C270, size: 0x8, addend: 0x0, symName: '__ZN101_$LT$$BP$mut$u20$sqlite3_capi..bindings..sqlite3$u20$as$u20$powersync_core..ext..ExtendedDatabase$GT$9exec_text17he05345f3f4ae48bcE', symObjAddr: 0x24F18, symBinAddr: 0x27DB8, symSize: 0x98 }
  - { offset: 0x12C530, size: 0x8, addend: 0x0, symName: __ZN14powersync_core4uuid7uuid_v417hae37589af7aa2a2aE, symObjAddr: 0x262EC, symBinAddr: 0x2918C, symSize: 0x1DC }
  - { offset: 0x12DC65, size: 0x8, addend: 0x0, symName: '__ZN89_$LT$serde..de..value..private..UnitOnly$LT$E$GT$$u20$as$u20$serde..de..VariantAccess$GT$20newtype_variant_seed17h590f4f8ed3636b88E', symObjAddr: 0x24EE4, symBinAddr: 0x42CDC, symSize: 0x34 }
  - { offset: 0x12DD73, size: 0x8, addend: 0x0, symName: __ZN12sqlite_nostd5nostd11ManagedStmt9bind_text17hce20d91db352c96eE.2013, symObjAddr: 0x25500, symBinAddr: 0x283A0, symSize: 0x14 }
  - { offset: 0x12DEE8, size: 0x8, addend: 0x0, symName: '__ZN5alloc3vec16Vec$LT$T$C$A$GT$4push17h05af2f44c7f28efeE', symObjAddr: 0x25590, symBinAddr: 0x28430, symSize: 0x28 }
  - { offset: 0x12DF56, size: 0x8, addend: 0x0, symName: __ZN14powersync_core4sync15storage_adapter14StorageAdapter3new17hc76d69aa943259dbE, symObjAddr: 0x255B8, symBinAddr: 0x28458, symSize: 0x110 }
  - { offset: 0x12E079, size: 0x8, addend: 0x0, symName: __ZN12sqlite_nostd5nostd11ManagedStmt11column_text17h5c3ec0fbe87d7d38E.2018, symObjAddr: 0x256C8, symBinAddr: 0x28568, symSize: 0x34 }
  - { offset: 0x12E536, size: 0x8, addend: 0x0, symName: __ZN14powersync_core4sync15storage_adapter14StorageAdapter18offline_sync_state17h8c5558faccebaf02E, symObjAddr: 0x256FC, symBinAddr: 0x2859C, symSize: 0x254 }
  - { offset: 0x12EA87, size: 0x8, addend: 0x0, symName: __ZN14powersync_core4sync15storage_adapter14StorageAdapter24read_stream_subscription17h73253aaa3d805515E, symObjAddr: 0x25950, symBinAddr: 0x287F0, symSize: 0x3C0 }
  - { offset: 0x12F366, size: 0x8, addend: 0x0, symName: __ZN12sqlite_nostd5nostd11ManagedStmt11column_type17h4e0bf30e4246e7e0E, symObjAddr: 0x25D10, symBinAddr: 0x28BB0, symSize: 0x44 }
  - { offset: 0x12F413, size: 0x8, addend: 0x0, symName: __ZN12sqlite_nostd5nostd11ManagedStmt10bind_int6417h14df5919c8b710d1E.2036, symObjAddr: 0x25DA8, symBinAddr: 0x28C48, symSize: 0x14 }
  - { offset: 0x12F72D, size: 0x8, addend: 0x0, symName: __ZN14powersync_core4sync15storage_adapter14StorageAdapter29collect_subscription_requests17h0b8e35e3e071f0eeE, symObjAddr: 0x25DC8, symBinAddr: 0x28C68, symSize: 0x244 }
  - { offset: 0x12FC12, size: 0x8, addend: 0x0, symName: __ZN14powersync_core4sync15storage_adapter14StorageAdapter3now17hf166f23d4e533941E, symObjAddr: 0x2600C, symBinAddr: 0x28EAC, symSize: 0x50 }
  - { offset: 0x12FCEF, size: 0x8, addend: 0x0, symName: __ZN14powersync_core4sync15storage_adapter14StorageAdapter12increase_ttl17h4d867975e99cae69E, symObjAddr: 0x2605C, symBinAddr: 0x28EFC, symSize: 0xF0 }
  - { offset: 0x12FED5, size: 0x8, addend: 0x0, symName: __ZN12sqlite_nostd5nostd11ManagedStmt8bind_int17hcae9d74ba618c0f2E.2038, symObjAddr: 0x2614C, symBinAddr: 0x28FEC, symSize: 0x14 }
  - { offset: 0x12FF15, size: 0x8, addend: 0x0, symName: __ZN12sqlite_nostd5nostd11ManagedStmt9bind_null17hdb0b29c0888445cfE.2039, symObjAddr: 0x26160, symBinAddr: 0x29000, symSize: 0x14 }
  - { offset: 0x1301FC, size: 0x8, addend: 0x0, symName: __ZN4core3fmt9Formatter9write_fmt17hac6a9372802011c5E.2040, symObjAddr: 0x262E8, symBinAddr: 0x29188, symSize: 0x4 }
  - { offset: 0x131408, size: 0x8, addend: 0x0, symName: _OUTLINED_FUNCTION_266, symObjAddr: 0x3C368, symBinAddr: 0x3E8A8, symSize: 0x8 }
  - { offset: 0x13141F, size: 0x8, addend: 0x0, symName: _OUTLINED_FUNCTION_382, symObjAddr: 0x3C9C4, symBinAddr: 0x3EF04, symSize: 0x8 }
  - { offset: 0x131436, size: 0x8, addend: 0x0, symName: _OUTLINED_FUNCTION_759, symObjAddr: 0x3DEFC, symBinAddr: 0x4043C, symSize: 0x8 }
  - { offset: 0x13144D, size: 0x8, addend: 0x0, symName: _OUTLINED_FUNCTION_769, symObjAddr: 0x3DF80, symBinAddr: 0x404C0, symSize: 0x8 }
  - { offset: 0x131464, size: 0x8, addend: 0x0, symName: _OUTLINED_FUNCTION_792, symObjAddr: 0x3E090, symBinAddr: 0x405D0, symSize: 0x8 }
  - { offset: 0x13147B, size: 0x8, addend: 0x0, symName: _OUTLINED_FUNCTION_819, symObjAddr: 0x3E1E4, symBinAddr: 0x40724, symSize: 0x8 }
  - { offset: 0x131492, size: 0x8, addend: 0x0, symName: _OUTLINED_FUNCTION_919, symObjAddr: 0x3E7EC, symBinAddr: 0x40D2C, symSize: 0xC }
  - { offset: 0x1314A9, size: 0x8, addend: 0x0, symName: _OUTLINED_FUNCTION_990, symObjAddr: 0x3EB0C, symBinAddr: 0x4104C, symSize: 0x8 }
  - { offset: 0x1314C0, size: 0x8, addend: 0x0, symName: _OUTLINED_FUNCTION_1047, symObjAddr: 0x3ED34, symBinAddr: 0x41274, symSize: 0x8 }
  - { offset: 0x1314D7, size: 0x8, addend: 0x0, symName: _OUTLINED_FUNCTION_1090, symObjAddr: 0x3EECC, symBinAddr: 0x4140C, symSize: 0x8 }
  - { offset: 0x1314EE, size: 0x8, addend: 0x0, symName: _OUTLINED_FUNCTION_1140, symObjAddr: 0x3F190, symBinAddr: 0x416D0, symSize: 0xC }
  - { offset: 0x131505, size: 0x8, addend: 0x0, symName: _OUTLINED_FUNCTION_1190, symObjAddr: 0x3F470, symBinAddr: 0x419B0, symSize: 0xC }
  - { offset: 0x1B48CC, size: 0x8, addend: 0x0, symName: __ZN10serde_json3ser9Formatter9end_array17h07f27dfc5958215aE, symObjAddr: 0x39178, symBinAddr: 0x3B6E4, symSize: 0x14 }
  - { offset: 0x1B4907, size: 0x8, addend: 0x0, symName: __ZN10serde_json3ser9Formatter9end_array17h07f27dfc5958215aE, symObjAddr: 0x39178, symBinAddr: 0x3B6E4, symSize: 0x14 }
  - { offset: 0x1B4925, size: 0x8, addend: 0x0, symName: __ZN10serde_json3ser9Formatter9end_array17h07f27dfc5958215aE, symObjAddr: 0x39178, symBinAddr: 0x3B6E4, symSize: 0x14 }
  - { offset: 0x1B4942, size: 0x8, addend: 0x0, symName: __ZN10serde_json3ser9Formatter9end_array17h07f27dfc5958215aE, symObjAddr: 0x39178, symBinAddr: 0x3B6E4, symSize: 0x14 }
  - { offset: 0x1B495B, size: 0x8, addend: 0x0, symName: __ZN10serde_json3ser9Formatter9end_array17h07f27dfc5958215aE, symObjAddr: 0x39178, symBinAddr: 0x3B6E4, symSize: 0x14 }
  - { offset: 0x1B4A76, size: 0x8, addend: 0x0, symName: __ZN10serde_json3ser9Formatter10end_object17hb8be1fd573f45454E.2939, symObjAddr: 0x39334, symBinAddr: 0x3B8A0, symSize: 0x14 }
  - { offset: 0x1B4AB1, size: 0x8, addend: 0x0, symName: __ZN10serde_json3ser9Formatter10end_object17hb8be1fd573f45454E.2939, symObjAddr: 0x39334, symBinAddr: 0x3B8A0, symSize: 0x14 }
  - { offset: 0x1B4ACF, size: 0x8, addend: 0x0, symName: __ZN10serde_json3ser9Formatter10end_object17hb8be1fd573f45454E.2939, symObjAddr: 0x39334, symBinAddr: 0x3B8A0, symSize: 0x14 }
  - { offset: 0x1B4AEC, size: 0x8, addend: 0x0, symName: __ZN10serde_json3ser9Formatter10end_object17hb8be1fd573f45454E.2939, symObjAddr: 0x39334, symBinAddr: 0x3B8A0, symSize: 0x14 }
  - { offset: 0x1B4B05, size: 0x8, addend: 0x0, symName: __ZN10serde_json3ser9Formatter10end_object17hb8be1fd573f45454E.2939, symObjAddr: 0x39334, symBinAddr: 0x3B8A0, symSize: 0x14 }
  - { offset: 0x1B4D19, size: 0x8, addend: 0x0, symName: __ZN10serde_json3ser6ESCAPE17hcbea021a684610b4E, symObjAddr: 0x4BF86, symBinAddr: 0x50036, symSize: 0x0 }
  - { offset: 0x1B54A3, size: 0x8, addend: 0x0, symName: __ZN10serde_json3ser18format_escaped_str17h62ee518d57d331e4E, symObjAddr: 0x393D4, symBinAddr: 0x3B940, symSize: 0x108 }
  - { offset: 0x1B5905, size: 0x8, addend: 0x0, symName: __ZN10serde_json3ser17invalid_raw_value17h009ffdaa69d1ebecE, symObjAddr: 0x394DC, symBinAddr: 0x43644, symSize: 0x20 }
  - { offset: 0x1B5A7C, size: 0x8, addend: 0x0, symName: '__ZN10serde_json5value3ser76_$LT$impl$u20$serde..ser..Serialize$u20$for$u20$serde_json..value..Value$GT$9serialize17h265b6d9ad1a3b058E', symObjAddr: 0x3918C, symBinAddr: 0x3B6F8, symSize: 0x1A8 }
  - { offset: 0x1B754C, size: 0x8, addend: 0x0, symName: __ZN5serde3ser10Serializer11collect_seq17hdb52cac3eba6b166E, symObjAddr: 0x390B4, symBinAddr: 0x3B620, symSize: 0xC4 }
  - { offset: 0x1B78F1, size: 0x8, addend: 0x0, symName: __ZN5serde3ser12SerializeMap15serialize_entry17hced17b86b258ccbbE, symObjAddr: 0x39348, symBinAddr: 0x3B8B4, symSize: 0x8C }
  - { offset: 0x1B7E7E, size: 0x8, addend: 0x0, symName: _OUTLINED_FUNCTION_381, symObjAddr: 0x3C9B4, symBinAddr: 0x3EEF4, symSize: 0x10 }
  - { offset: 0x1B7E95, size: 0x8, addend: 0x0, symName: _OUTLINED_FUNCTION_442, symObjAddr: 0x3CCC0, symBinAddr: 0x3F200, symSize: 0xC }
  - { offset: 0x1B7EAC, size: 0x8, addend: 0x0, symName: _OUTLINED_FUNCTION_582, symObjAddr: 0x3D4BC, symBinAddr: 0x3F9FC, symSize: 0x8 }
  - { offset: 0x504A8, size: 0x8, addend: 0x0, symName: __ZN5serde2de12Deserializer21__deserialize_content17h7485fb540c932f21E, symObjAddr: 0x7324, symBinAddr: 0xB210, symSize: 0x544 }
  - { offset: 0x50D50, size: 0x8, addend: 0x0, symName: '__ZN81_$LT$core..marker..PhantomData$LT$T$GT$$u20$as$u20$serde..de..DeserializeSeed$GT$11deserialize17h643b76716571dda1E', symObjAddr: 0x7AA8, symBinAddr: 0xB994, symSize: 0x34 }
  - { offset: 0x54301, size: 0x8, addend: 0x0, symName: '__ZN4core3ptr65drop_in_place$LT$alloc..vec..Vec$LT$alloc..string..String$GT$$GT$17h46b089ecec9b2363E', symObjAddr: 0x6C3C, symBinAddr: 0xAB28, symSize: 0x20 }
  - { offset: 0x5434F, size: 0x8, addend: 0x0, symName: '__ZN4core3ptr69drop_in_place$LT$powersync_core..sync..interface..StartSyncStream$GT$17ha4cc6f6241a426daE', symObjAddr: 0x6C5C, symBinAddr: 0xAB48, symSize: 0x2C }
  - { offset: 0x543BE, size: 0x8, addend: 0x0, symName: '__ZN4core3ptr125drop_in_place$LT$core..option..Option$LT$serde_json..map..Map$LT$alloc..string..String$C$serde_json..value..Value$GT$$GT$$GT$17had0eeab80f5ac915E', symObjAddr: 0x6C88, symBinAddr: 0xAB74, symSize: 0x14 }
  - { offset: 0x5441A, size: 0x8, addend: 0x0, symName: '__ZN4core3ptr51drop_in_place$LT$powersync_core..schema..Schema$GT$17hdcd6706d51b604d1E', symObjAddr: 0x6C9C, symBinAddr: 0xAB88, symSize: 0x24 }
  - { offset: 0x5444B, size: 0x8, addend: 0x0, symName: '__ZN4core3ptr111drop_in_place$LT$alloc..rc..Rc$LT$alloc..vec..Vec$LT$powersync_core..sync..subscriptions..StreamKey$GT$$GT$$GT$17hcf2ec54e74f62832E', symObjAddr: 0x6CC0, symBinAddr: 0xABAC, symSize: 0x18 }
  - { offset: 0x5447E, size: 0x8, addend: 0x0, symName: '__ZN4core3ptr111drop_in_place$LT$alloc..rc..Rc$LT$alloc..vec..Vec$LT$powersync_core..sync..subscriptions..StreamKey$GT$$GT$$GT$17hcf2ec54e74f62832E', symObjAddr: 0x6CC0, symBinAddr: 0xABAC, symSize: 0x18 }
  - { offset: 0x5449A, size: 0x8, addend: 0x0, symName: '__ZN4core3ptr111drop_in_place$LT$alloc..rc..Rc$LT$alloc..vec..Vec$LT$powersync_core..sync..subscriptions..StreamKey$GT$$GT$$GT$17hcf2ec54e74f62832E', symObjAddr: 0x6CC0, symBinAddr: 0xABAC, symSize: 0x18 }
  - { offset: 0x544B6, size: 0x8, addend: 0x0, symName: '__ZN4core3ptr111drop_in_place$LT$alloc..rc..Rc$LT$alloc..vec..Vec$LT$powersync_core..sync..subscriptions..StreamKey$GT$$GT$$GT$17hcf2ec54e74f62832E', symObjAddr: 0x6CC0, symBinAddr: 0xABAC, symSize: 0x18 }
  - { offset: 0x54567, size: 0x8, addend: 0x0, symName: '__ZN4core3ptr85drop_in_place$LT$alloc..vec..Vec$LT$powersync_core..schema..table_info..Table$GT$$GT$17h30e62a1d12198862E', symObjAddr: 0x6CD8, symBinAddr: 0xABC4, symSize: 0x24 }
  - { offset: 0x545D6, size: 0x8, addend: 0x0, symName: '__ZN4core3ptr88drop_in_place$LT$alloc..vec..Vec$LT$powersync_core..schema..table_info..RawTable$GT$$GT$17hb81af163a268a8e1E', symObjAddr: 0x6CFC, symBinAddr: 0xABE8, symSize: 0x20 }
  - { offset: 0x54624, size: 0x8, addend: 0x0, symName: '__ZN4core3ptr67drop_in_place$LT$powersync_core..sync..subscriptions..StreamKey$GT$17h2d62a0303d676b41E', symObjAddr: 0x6D1C, symBinAddr: 0xAC08, symSize: 0x20 }
  - { offset: 0x54655, size: 0x8, addend: 0x0, symName: '__ZN4core3ptr59drop_in_place$LT$powersync_core..sync..line..Checkpoint$GT$17h15cf7b1af0ffde3fE', symObjAddr: 0x6D3C, symBinAddr: 0xAC28, symSize: 0x20 }
  - { offset: 0x54686, size: 0x8, addend: 0x0, symName: '__ZN4core3ptr63drop_in_place$LT$powersync_core..sync..line..CheckpointDiff$GT$17h6171521f66922803E', symObjAddr: 0x6D5C, symBinAddr: 0xAC48, symSize: 0x20 }
  - { offset: 0x546B7, size: 0x8, addend: 0x0, symName: '__ZN4core3ptr57drop_in_place$LT$powersync_core..sync..line..DataLine$GT$17h4952daccdab2468aE', symObjAddr: 0x6D7C, symBinAddr: 0xAC68, symSize: 0x24 }
  - { offset: 0x54745, size: 0x8, addend: 0x0, symName: '__ZN4core3ptr50drop_in_place$LT$alloc..borrow..Cow$LT$str$GT$$GT$17h55f66ffa7b8d14d3E', symObjAddr: 0x6DA0, symBinAddr: 0xAC8C, symSize: 0x14 }
  - { offset: 0x547D1, size: 0x8, addend: 0x0, symName: '__ZN4core3ptr82drop_in_place$LT$alloc..vec..Vec$LT$powersync_core..sync..line..OplogEntry$GT$$GT$17h4ece4a60fdc7eeb2E', symObjAddr: 0x6DB4, symBinAddr: 0xACA0, symSize: 0x20 }
  - { offset: 0x5483E, size: 0x8, addend: 0x0, symName: '__ZN4core3ptr86drop_in_place$LT$alloc..vec..Vec$LT$powersync_core..sync..line..BucketChecksum$GT$$GT$17heb287f16f2c96329E', symObjAddr: 0x6DD4, symBinAddr: 0xACC0, symSize: 0x20 }
  - { offset: 0x548AB, size: 0x8, addend: 0x0, symName: '__ZN4core3ptr73drop_in_place$LT$alloc..vec..Vec$LT$alloc..borrow..Cow$LT$str$GT$$GT$$GT$17hb6749a9477ab5fd7E', symObjAddr: 0x6DF4, symBinAddr: 0xACE0, symSize: 0x20 }
  - { offset: 0x54918, size: 0x8, addend: 0x0, symName: '__ZN4core3ptr89drop_in_place$LT$alloc..vec..Vec$LT$powersync_core..sync..line..StreamDescription$GT$$GT$17h543857f1b308b4bfE', symObjAddr: 0x6E14, symBinAddr: 0xAD00, symSize: 0x20 }
  - { offset: 0x54966, size: 0x8, addend: 0x0, symName: '__ZN4core3ptr62drop_in_place$LT$powersync_core..schema..table_info..Table$GT$17hfb4e0eb6fd19597fE', symObjAddr: 0x6E34, symBinAddr: 0xAD20, symSize: 0x38 }
  - { offset: 0x549B6, size: 0x8, addend: 0x0, symName: '__ZN4core3ptr86drop_in_place$LT$alloc..vec..Vec$LT$powersync_core..schema..table_info..Column$GT$$GT$17hdaa3a93089e7ff87E', symObjAddr: 0x6E6C, symBinAddr: 0xAD58, symSize: 0x20 }
  - { offset: 0x54A23, size: 0x8, addend: 0x0, symName: '__ZN4core3ptr85drop_in_place$LT$alloc..vec..Vec$LT$powersync_core..schema..table_info..Index$GT$$GT$17h793ece728e679d76E', symObjAddr: 0x6E8C, symBinAddr: 0xAD78, symSize: 0x20 }
  - { offset: 0x54A90, size: 0x8, addend: 0x0, symName: '__ZN4core3ptr99drop_in_place$LT$core..option..Option$LT$powersync_core..schema..table_info..DiffIncludeOld$GT$$GT$17h1171076ef4b2a66eE', symObjAddr: 0x6EAC, symBinAddr: 0xAD98, symSize: 0x1C }
  - { offset: 0x54B4F, size: 0x8, addend: 0x0, symName: '__ZN4core3ptr59drop_in_place$LT$serde..__private..de..content..Content$GT$17ha2b9f1ee83780447E', symObjAddr: 0x7868, symBinAddr: 0xB754, symSize: 0x70 }
  - { offset: 0x54C52, size: 0x8, addend: 0x0, symName: '__ZN4core3ptr45drop_in_place$LT$serde_json..error..Error$GT$17ha6d50119cd35f6e7E', symObjAddr: 0x78D8, symBinAddr: 0xB7C4, symSize: 0x2C }
  - { offset: 0x54DEE, size: 0x8, addend: 0x0, symName: '__ZN4core3ptr84drop_in_place$LT$alloc..boxed..Box$LT$serde..__private..de..content..Content$GT$$GT$17hb9b9ec8bbb5dcdc4E', symObjAddr: 0x7904, symBinAddr: 0xB7F0, symSize: 0x20 }
  - { offset: 0x54F9A, size: 0x8, addend: 0x0, symName: '__ZN4core3ptr159drop_in_place$LT$alloc..vec..Vec$LT$core..option..Option$LT$$LP$serde..__private..de..content..Content$C$serde..__private..de..content..Content$RP$$GT$$GT$$GT$17h281b44b12e18b0f9E', symObjAddr: 0x9F60, symBinAddr: 0xDE18, symSize: 0x4C }
  - { offset: 0x55051, size: 0x8, addend: 0x0, symName: '__ZN4core3ptr101drop_in_place$LT$alloc..vec..Vec$LT$powersync_core..schema..table_info..PendingStatementValue$GT$$GT$17h92d30954caebe7c9E', symObjAddr: 0x9FAC, symBinAddr: 0xDE64, symSize: 0x20 }
  - { offset: 0x550BE, size: 0x8, addend: 0x0, symName: '__ZN4core3ptr93drop_in_place$LT$alloc..vec..Vec$LT$powersync_core..schema..table_info..IndexedColumn$GT$$GT$17he6e27b1868a40b7eE', symObjAddr: 0x9FCC, symBinAddr: 0xDE84, symSize: 0x24 }
  - { offset: 0x5510E, size: 0x8, addend: 0x0, symName: '__ZN4core3ptr63drop_in_place$LT$powersync_core..schema..table_info..Column$GT$17h43d0f806a4457a0cE', symObjAddr: 0xA0C4, symBinAddr: 0xDF7C, symSize: 0x1C }
  - { offset: 0x55189, size: 0x8, addend: 0x0, symName: '__ZN4core3ptr66drop_in_place$LT$powersync_core..sync..line..StreamDescription$GT$17h24d964a4f1924a7bE', symObjAddr: 0xA0E0, symBinAddr: 0xDF98, symSize: 0x24 }
  - { offset: 0x551BA, size: 0x8, addend: 0x0, symName: '__ZN4core3ptr78drop_in_place$LT$core..option..Option$LT$alloc..borrow..Cow$LT$str$GT$$GT$$GT$17hafc0e4c1de7ce155E', symObjAddr: 0xA104, symBinAddr: 0xDFBC, symSize: 0x18 }
  - { offset: 0x551E6, size: 0x8, addend: 0x0, symName: '__ZN4core3ptr116drop_in_place$LT$alloc..rc..Rc$LT$alloc..vec..Vec$LT$powersync_core..sync..line..StreamSubscriptionError$GT$$GT$$GT$17h3c2492580c20b247E', symObjAddr: 0xA11C, symBinAddr: 0xDFD4, symSize: 0x18 }
  - { offset: 0x55219, size: 0x8, addend: 0x0, symName: '__ZN4core3ptr116drop_in_place$LT$alloc..rc..Rc$LT$alloc..vec..Vec$LT$powersync_core..sync..line..StreamSubscriptionError$GT$$GT$$GT$17h3c2492580c20b247E', symObjAddr: 0xA11C, symBinAddr: 0xDFD4, symSize: 0x18 }
  - { offset: 0x55235, size: 0x8, addend: 0x0, symName: '__ZN4core3ptr116drop_in_place$LT$alloc..rc..Rc$LT$alloc..vec..Vec$LT$powersync_core..sync..line..StreamSubscriptionError$GT$$GT$$GT$17h3c2492580c20b247E', symObjAddr: 0xA11C, symBinAddr: 0xDFD4, symSize: 0x18 }
  - { offset: 0x55251, size: 0x8, addend: 0x0, symName: '__ZN4core3ptr116drop_in_place$LT$alloc..rc..Rc$LT$alloc..vec..Vec$LT$powersync_core..sync..line..StreamSubscriptionError$GT$$GT$$GT$17h3c2492580c20b247E', symObjAddr: 0xA11C, symBinAddr: 0xDFD4, symSize: 0x18 }
  - { offset: 0x552E3, size: 0x8, addend: 0x0, symName: '__ZN4core3ptr116drop_in_place$LT$core..option..Option$LT$alloc..vec..Vec$LT$powersync_core..schema..table_info..RawTable$GT$$GT$$GT$17hda5300054eb96dcbE', symObjAddr: 0xA134, symBinAddr: 0xDFEC, symSize: 0x1C }
  - { offset: 0x55311, size: 0x8, addend: 0x0, symName: '__ZN4core3ptr73drop_in_place$LT$powersync_core..schema..table_info..PendingStatement$GT$17heb52137919fab894E', symObjAddr: 0xA150, symBinAddr: 0xE008, symSize: 0x20 }
  - { offset: 0x55342, size: 0x8, addend: 0x0, symName: '__ZN4core3ptr114drop_in_place$LT$core..option..Option$LT$alloc..vec..Vec$LT$powersync_core..sync..line..BucketChecksum$GT$$GT$$GT$17hd322a88b8df13d8cE', symObjAddr: 0xA170, symBinAddr: 0xE028, symSize: 0x1C }
  - { offset: 0x55370, size: 0x8, addend: 0x0, symName: '__ZN4core3ptr153drop_in_place$LT$core..option..Option$LT$core..option..Option$LT$serde_json..map..Map$LT$alloc..string..String$C$serde_json..value..Value$GT$$GT$$GT$$GT$17h157db5428d56ffffE', symObjAddr: 0xA18C, symBinAddr: 0xE044, symSize: 0x14 }
  - { offset: 0x5539E, size: 0x8, addend: 0x0, symName: '__ZN4core3ptr79drop_in_place$LT$core..option..Option$LT$powersync_core..schema..Schema$GT$$GT$17h80ec27dc2035e6d1E', symObjAddr: 0xA1A0, symBinAddr: 0xE058, symSize: 0x1C }
  - { offset: 0x553CC, size: 0x8, addend: 0x0, symName: '__ZN4core3ptr139drop_in_place$LT$core..option..Option$LT$alloc..rc..Rc$LT$alloc..vec..Vec$LT$powersync_core..sync..subscriptions..StreamKey$GT$$GT$$GT$$GT$17h7bdf4034ba84bf8aE', symObjAddr: 0xA1BC, symBinAddr: 0xE074, symSize: 0xC }
  - { offset: 0x553F8, size: 0x8, addend: 0x0, symName: '__ZN4core3ptr127drop_in_place$LT$core..option..Option$LT$core..option..Option$LT$alloc..boxed..Box$LT$serde_json..raw..RawValue$GT$$GT$$GT$$GT$17hd6bf2ce7e0c0c3a3E', symObjAddr: 0xA1C8, symBinAddr: 0xE080, symSize: 0x18 }
  - { offset: 0x55429, size: 0x8, addend: 0x0, symName: '__ZN4core3ptr59drop_in_place$LT$powersync_core..sync..line..OplogEntry$GT$17h42cab3f03aaae23cE', symObjAddr: 0xA1E0, symBinAddr: 0xE098, symSize: 0x24 }
  - { offset: 0x5545A, size: 0x8, addend: 0x0, symName: '__ZN4core3ptr106drop_in_place$LT$core..option..Option$LT$core..option..Option$LT$alloc..borrow..Cow$LT$str$GT$$GT$$GT$$GT$17h1a1674d7b314e999E', symObjAddr: 0xA204, symBinAddr: 0xE0BC, symSize: 0x1C }
  - { offset: 0x55486, size: 0x8, addend: 0x0, symName: '__ZN4core3ptr62drop_in_place$LT$powersync_core..schema..table_info..Index$GT$17hfce97db60967a9fbE', symObjAddr: 0xA220, symBinAddr: 0xE0D8, symSize: 0x20 }
  - { offset: 0x554B7, size: 0x8, addend: 0x0, symName: '__ZN4core3ptr63drop_in_place$LT$powersync_core..sync..line..BucketChecksum$GT$17hafb942a7483f309fE', symObjAddr: 0xA264, symBinAddr: 0xE11C, symSize: 0x24 }
  - { offset: 0x554E8, size: 0x8, addend: 0x0, symName: '__ZN4core3ptr145drop_in_place$LT$core..option..Option$LT$alloc..rc..Rc$LT$alloc..vec..Vec$LT$powersync_core..sync..line..BucketSubscriptionReason$GT$$GT$$GT$$GT$17h39a2533ef72682bfE', symObjAddr: 0xA288, symBinAddr: 0xE140, symSize: 0xC }
  - { offset: 0x55514, size: 0x8, addend: 0x0, symName: '__ZN4core3ptr117drop_in_place$LT$alloc..rc..Rc$LT$alloc..vec..Vec$LT$powersync_core..sync..line..BucketSubscriptionReason$GT$$GT$$GT$17h4ef025dda42cd18cE', symObjAddr: 0xA294, symBinAddr: 0xE14C, symSize: 0x18 }
  - { offset: 0x55547, size: 0x8, addend: 0x0, symName: '__ZN4core3ptr117drop_in_place$LT$alloc..rc..Rc$LT$alloc..vec..Vec$LT$powersync_core..sync..line..BucketSubscriptionReason$GT$$GT$$GT$17h4ef025dda42cd18cE', symObjAddr: 0xA294, symBinAddr: 0xE14C, symSize: 0x18 }
  - { offset: 0x55563, size: 0x8, addend: 0x0, symName: '__ZN4core3ptr117drop_in_place$LT$alloc..rc..Rc$LT$alloc..vec..Vec$LT$powersync_core..sync..line..BucketSubscriptionReason$GT$$GT$$GT$17h4ef025dda42cd18cE', symObjAddr: 0xA294, symBinAddr: 0xE14C, symSize: 0x18 }
  - { offset: 0x5557F, size: 0x8, addend: 0x0, symName: '__ZN4core3ptr117drop_in_place$LT$alloc..rc..Rc$LT$alloc..vec..Vec$LT$powersync_core..sync..line..BucketSubscriptionReason$GT$$GT$$GT$17h4ef025dda42cd18cE', symObjAddr: 0xA294, symBinAddr: 0xE14C, symSize: 0x18 }
  - { offset: 0x55611, size: 0x8, addend: 0x0, symName: '__ZN4core3ptr70drop_in_place$LT$powersync_core..schema..table_info..IndexedColumn$GT$17hf3913ffa82826858E', symObjAddr: 0xA2AC, symBinAddr: 0xE164, symSize: 0x1C }
  - { offset: 0x5568C, size: 0x8, addend: 0x0, symName: '__ZN4core3ptr117drop_in_place$LT$core..option..Option$LT$alloc..vec..Vec$LT$powersync_core..sync..line..StreamDescription$GT$$GT$$GT$17h8a05e05e5642f1bdE', symObjAddr: 0xA2C8, symBinAddr: 0xE180, symSize: 0x1C }
  - { offset: 0x556BA, size: 0x8, addend: 0x0, symName: '__ZN4core3ptr65drop_in_place$LT$powersync_core..schema..table_info..RawTable$GT$17h3565c0f02774ebecE', symObjAddr: 0xA2E4, symBinAddr: 0xE19C, symSize: 0x28 }
  - { offset: 0x556EB, size: 0x8, addend: 0x0, symName: '__ZN4core3ptr101drop_in_place$LT$core..option..Option$LT$powersync_core..schema..table_info..PendingStatement$GT$$GT$17h6f72087f438496d7E', symObjAddr: 0xA30C, symBinAddr: 0xE1C4, symSize: 0x1C }
  - { offset: 0x60A5B, size: 0x8, addend: 0x0, symName: '__ZN65_$LT$alloc..rc..Rc$LT$T$GT$$u20$as$u20$core..default..Default$GT$7default17h1d20eb73f4e8e6ccE', symObjAddr: 0xA240, symBinAddr: 0xE0F8, symSize: 0x24 }
  - { offset: 0x61407, size: 0x8, addend: 0x0, symName: '__ZN93_$LT$$RF$mut$u20$serde_json..de..Deserializer$LT$R$GT$$u20$as$u20$serde..de..Deserializer$GT$15deserialize_str17h3022487f272f44cbE', symObjAddr: 0x7F2C, symBinAddr: 0xBE18, symSize: 0xD8 }
  - { offset: 0x6153F, size: 0x8, addend: 0x0, symName: '__ZN93_$LT$$RF$mut$u20$serde_json..de..Deserializer$LT$R$GT$$u20$as$u20$serde..de..Deserializer$GT$15deserialize_str17hb8baf19adb192e9dE', symObjAddr: 0x8004, symBinAddr: 0xBEF0, symSize: 0x114 }
  - { offset: 0x616EF, size: 0x8, addend: 0x0, symName: '__ZN93_$LT$$RF$mut$u20$serde_json..de..Deserializer$LT$R$GT$$u20$as$u20$serde..de..Deserializer$GT$15deserialize_str17h37cc4c97cc68ae5bE', symObjAddr: 0x8174, symBinAddr: 0xC060, symSize: 0xD8 }
  - { offset: 0x61CFA, size: 0x8, addend: 0x0, symName: '__ZN93_$LT$$RF$mut$u20$serde_json..de..Deserializer$LT$R$GT$$u20$as$u20$serde..de..Deserializer$GT$15deserialize_map17hd2b79f3a7261f5a8E', symObjAddr: 0x8400, symBinAddr: 0xC2B8, symSize: 0x1B60 }
  - { offset: 0x645E3, size: 0x8, addend: 0x0, symName: '__ZN93_$LT$$RF$mut$u20$serde_json..de..Deserializer$LT$R$GT$$u20$as$u20$serde..de..Deserializer$GT$15deserialize_str17h04102fd8b6867124E', symObjAddr: 0x9FF0, symBinAddr: 0xDEA8, symSize: 0xD4 }
  - { offset: 0x66C31, size: 0x8, addend: 0x0, symName: '__ZN75_$LT$serde_json..de..MapAccess$LT$R$GT$$u20$as$u20$serde..de..MapAccess$GT$15next_value_seed17h08adddb77dce00baE', symObjAddr: 0x7924, symBinAddr: 0xB810, symSize: 0x30 }
  - { offset: 0x66C99, size: 0x8, addend: 0x0, symName: '__ZN75_$LT$serde_json..de..MapAccess$LT$R$GT$$u20$as$u20$serde..de..MapAccess$GT$15next_value_seed17h1d7e7c9b954a2d7cE', symObjAddr: 0x7954, symBinAddr: 0xB840, symSize: 0x30 }
  - { offset: 0x66D01, size: 0x8, addend: 0x0, symName: '__ZN75_$LT$serde_json..de..MapAccess$LT$R$GT$$u20$as$u20$serde..de..MapAccess$GT$15next_value_seed17h1ee8474db572f38dE', symObjAddr: 0x7984, symBinAddr: 0xB870, symSize: 0x34 }
  - { offset: 0x66D86, size: 0x8, addend: 0x0, symName: '__ZN75_$LT$serde_json..de..MapAccess$LT$R$GT$$u20$as$u20$serde..de..MapAccess$GT$15next_value_seed17h4af548e6b54a018aE', symObjAddr: 0x79B8, symBinAddr: 0xB8A4, symSize: 0x30 }
  - { offset: 0x66DEE, size: 0x8, addend: 0x0, symName: '__ZN75_$LT$serde_json..de..MapAccess$LT$R$GT$$u20$as$u20$serde..de..MapAccess$GT$15next_value_seed17h9377d3b0c000c1d9E', symObjAddr: 0x79E8, symBinAddr: 0xB8D4, symSize: 0x30 }
  - { offset: 0x66E56, size: 0x8, addend: 0x0, symName: '__ZN75_$LT$serde_json..de..MapAccess$LT$R$GT$$u20$as$u20$serde..de..MapAccess$GT$15next_value_seed17h9b65061dc63fc62cE', symObjAddr: 0x7A18, symBinAddr: 0xB904, symSize: 0x30 }
  - { offset: 0x66EBE, size: 0x8, addend: 0x0, symName: '__ZN75_$LT$serde_json..de..MapAccess$LT$R$GT$$u20$as$u20$serde..de..MapAccess$GT$15next_value_seed17hbb4ccefe0f140967E', symObjAddr: 0x7A48, symBinAddr: 0xB934, symSize: 0x30 }
  - { offset: 0x66F63, size: 0x8, addend: 0x0, symName: '__ZN75_$LT$serde_json..de..MapAccess$LT$R$GT$$u20$as$u20$serde..de..MapAccess$GT$15next_value_seed17hc9cf08ef9619fd6dE', symObjAddr: 0x7A78, symBinAddr: 0xB964, symSize: 0x30 }
  - { offset: 0x66FAC, size: 0x8, addend: 0x0, symName: '__ZN75_$LT$serde_json..de..MapAccess$LT$R$GT$$u20$as$u20$serde..de..MapAccess$GT$15next_value_seed17hd64209af24bea380E', symObjAddr: 0x7ADC, symBinAddr: 0xB9C8, symSize: 0x30 }
  - { offset: 0x67014, size: 0x8, addend: 0x0, symName: '__ZN75_$LT$serde_json..de..MapAccess$LT$R$GT$$u20$as$u20$serde..de..MapAccess$GT$15next_value_seed17hd7e9c66b61a212b4E', symObjAddr: 0x7B0C, symBinAddr: 0xB9F8, symSize: 0x30 }
  - { offset: 0x6707C, size: 0x8, addend: 0x0, symName: '__ZN75_$LT$serde_json..de..MapAccess$LT$R$GT$$u20$as$u20$serde..de..MapAccess$GT$15next_value_seed17hde862d20de9878fcE', symObjAddr: 0x7B3C, symBinAddr: 0xBA28, symSize: 0x40 }
  - { offset: 0x69551, size: 0x8, addend: 0x0, symName: '__ZN75_$LT$serde_json..de..SeqAccess$LT$R$GT$$u20$as$u20$serde..de..SeqAccess$GT$17next_element_seed17h0bee4b3cac5e8591E', symObjAddr: 0x7B7C, symBinAddr: 0xBA68, symSize: 0x68 }
  - { offset: 0x695B3, size: 0x8, addend: 0x0, symName: '__ZN75_$LT$serde_json..de..SeqAccess$LT$R$GT$$u20$as$u20$serde..de..SeqAccess$GT$17next_element_seed17h2803018d7202c6ebE', symObjAddr: 0x7BE4, symBinAddr: 0xBAD0, symSize: 0x64 }
  - { offset: 0x69615, size: 0x8, addend: 0x0, symName: '__ZN75_$LT$serde_json..de..SeqAccess$LT$R$GT$$u20$as$u20$serde..de..SeqAccess$GT$17next_element_seed17h51ec5c6302f548d1E', symObjAddr: 0x7C48, symBinAddr: 0xBB34, symSize: 0x54 }
  - { offset: 0x69677, size: 0x8, addend: 0x0, symName: '__ZN75_$LT$serde_json..de..SeqAccess$LT$R$GT$$u20$as$u20$serde..de..SeqAccess$GT$17next_element_seed17h62811809180d5aefE', symObjAddr: 0x7C9C, symBinAddr: 0xBB88, symSize: 0x54 }
  - { offset: 0x696D9, size: 0x8, addend: 0x0, symName: '__ZN75_$LT$serde_json..de..SeqAccess$LT$R$GT$$u20$as$u20$serde..de..SeqAccess$GT$17next_element_seed17h685a336b068efa44E', symObjAddr: 0x7CF0, symBinAddr: 0xBBDC, symSize: 0x64 }
  - { offset: 0x6973B, size: 0x8, addend: 0x0, symName: '__ZN75_$LT$serde_json..de..SeqAccess$LT$R$GT$$u20$as$u20$serde..de..SeqAccess$GT$17next_element_seed17h6cf196952d7e05a5E', symObjAddr: 0x7D54, symBinAddr: 0xBC40, symSize: 0x64 }
  - { offset: 0x69788, size: 0x8, addend: 0x0, symName: '__ZN75_$LT$serde_json..de..SeqAccess$LT$R$GT$$u20$as$u20$serde..de..SeqAccess$GT$17next_element_seed17h975353d24ea5cb1cE', symObjAddr: 0x7DB8, symBinAddr: 0xBCA4, symSize: 0x58 }
  - { offset: 0x697EA, size: 0x8, addend: 0x0, symName: '__ZN75_$LT$serde_json..de..SeqAccess$LT$R$GT$$u20$as$u20$serde..de..SeqAccess$GT$17next_element_seed17hb358c5c40a95648aE', symObjAddr: 0x7E10, symBinAddr: 0xBCFC, symSize: 0x58 }
  - { offset: 0x6984C, size: 0x8, addend: 0x0, symName: '__ZN75_$LT$serde_json..de..SeqAccess$LT$R$GT$$u20$as$u20$serde..de..SeqAccess$GT$17next_element_seed17hbabf4fbf59487808E', symObjAddr: 0x7E68, symBinAddr: 0xBD54, symSize: 0x60 }
  - { offset: 0x698AE, size: 0x8, addend: 0x0, symName: '__ZN75_$LT$serde_json..de..SeqAccess$LT$R$GT$$u20$as$u20$serde..de..SeqAccess$GT$17next_element_seed17hc9db485b7801f386E', symObjAddr: 0x7EC8, symBinAddr: 0xBDB4, symSize: 0x64 }
  - { offset: 0x6AA98, size: 0x8, addend: 0x0, symName: '__ZN80_$LT$serde_json..de..VariantAccess$LT$R$GT$$u20$as$u20$serde..de..EnumAccess$GT$12variant_seed17hc517eb818f3862a6E', symObjAddr: 0x8118, symBinAddr: 0xC004, symSize: 0x5C }
  - { offset: 0x6ACE6, size: 0x8, addend: 0x0, symName: '__ZN83_$LT$serde_json..de..VariantAccess$LT$R$GT$$u20$as$u20$serde..de..VariantAccess$GT$12unit_variant17h1411fc849b649744E', symObjAddr: 0x824C, symBinAddr: 0xC138, symSize: 0x80 }
  - { offset: 0x6AD6A, size: 0x8, addend: 0x0, symName: '__ZN83_$LT$serde_json..de..VariantAccess$LT$R$GT$$u20$as$u20$serde..de..VariantAccess$GT$20newtype_variant_seed17h6a3cc7c9ec5251b7E', symObjAddr: 0x82CC, symBinAddr: 0xC1B8, symSize: 0xC4 }
  - { offset: 0x6B0D7, size: 0x8, addend: 0x0, symName: '__ZN84_$LT$serde_json..de..UnitVariantAccess$LT$R$GT$$u20$as$u20$serde..de..EnumAccess$GT$12variant_seed17h95449db085a329c5E', symObjAddr: 0x8390, symBinAddr: 0xC27C, symSize: 0x3C }
  - { offset: 0x6B29A, size: 0x8, addend: 0x0, symName: '__ZN87_$LT$serde_json..de..UnitVariantAccess$LT$R$GT$$u20$as$u20$serde..de..VariantAccess$GT$20newtype_variant_seed17hc4d35f49d8689d70E', symObjAddr: 0x83CC, symBinAddr: 0x41CC4, symSize: 0x34 }
  - { offset: 0x6C05A, size: 0x8, addend: 0x0, symName: __ZN10serde_json2de12ParserNumber5visit17h498f11ac05f28488E, symObjAddr: 0x6EC8, symBinAddr: 0xADB4, symSize: 0x84 }
  - { offset: 0x6C16D, size: 0x8, addend: 0x0, symName: __ZN10serde_json2de12ParserNumber5visit17h53b8f7e5e72bcb68E, symObjAddr: 0x6F4C, symBinAddr: 0xAE38, symSize: 0x78 }
  - { offset: 0x6C21B, size: 0x8, addend: 0x0, symName: __ZN10serde_json2de12ParserNumber5visit17h75e926f0e9e4c662E, symObjAddr: 0x6FC4, symBinAddr: 0xAEB0, symSize: 0x78 }
  - { offset: 0x6C2C9, size: 0x8, addend: 0x0, symName: __ZN10serde_json2de12ParserNumber5visit17h9a509c03d27273c1E, symObjAddr: 0x703C, symBinAddr: 0xAF28, symSize: 0xD4 }
  - { offset: 0x6C412, size: 0x8, addend: 0x0, symName: __ZN10serde_json2de12ParserNumber5visit17ha057a5da55f24dd5E, symObjAddr: 0x7110, symBinAddr: 0xAFFC, symSize: 0x6C }
  - { offset: 0x6C512, size: 0x8, addend: 0x0, symName: __ZN10serde_json2de12ParserNumber5visit17hddaec57eac4456dcE, symObjAddr: 0x717C, symBinAddr: 0xB068, symSize: 0x74 }
  - { offset: 0x6C605, size: 0x8, addend: 0x0, symName: __ZN10serde_json2de12ParserNumber5visit17heb86a7adb9c1a574E, symObjAddr: 0x71F0, symBinAddr: 0xB0DC, symSize: 0x8C }
  - { offset: 0x6C6B4, size: 0x8, addend: 0x0, symName: __ZN10serde_json2de12ParserNumber5visit17hfa858346a2057701E, symObjAddr: 0x727C, symBinAddr: 0xB168, symSize: 0xA8 }
  - { offset: 0x6D458, size: 0x8, addend: 0x0, symName: _OUTLINED_FUNCTION_2, symObjAddr: 0x3B08C, symBinAddr: 0x3D5CC, symSize: 0x14 }
  - { offset: 0x6D46F, size: 0x8, addend: 0x0, symName: _OUTLINED_FUNCTION_3, symObjAddr: 0x3B0A0, symBinAddr: 0x3D5E0, symSize: 0x14 }
  - { offset: 0x6D486, size: 0x8, addend: 0x0, symName: _OUTLINED_FUNCTION_5, symObjAddr: 0x3B0C8, symBinAddr: 0x3D608, symSize: 0x14 }
  - { offset: 0x6D49D, size: 0x8, addend: 0x0, symName: _OUTLINED_FUNCTION_7, symObjAddr: 0x3B0F0, symBinAddr: 0x3D630, symSize: 0x14 }
  - { offset: 0x6D4B4, size: 0x8, addend: 0x0, symName: _OUTLINED_FUNCTION_18, symObjAddr: 0x3B1AC, symBinAddr: 0x3D6EC, symSize: 0x10 }
  - { offset: 0x6D4CB, size: 0x8, addend: 0x0, symName: _OUTLINED_FUNCTION_21, symObjAddr: 0x3B1DC, symBinAddr: 0x3D71C, symSize: 0x10 }
  - { offset: 0x6D4E2, size: 0x8, addend: 0x0, symName: _OUTLINED_FUNCTION_22, symObjAddr: 0x3B1EC, symBinAddr: 0x3D72C, symSize: 0x10 }
  - { offset: 0x6D4F9, size: 0x8, addend: 0x0, symName: _OUTLINED_FUNCTION_25, symObjAddr: 0x3B224, symBinAddr: 0x3D764, symSize: 0x18 }
  - { offset: 0x6D510, size: 0x8, addend: 0x0, symName: _OUTLINED_FUNCTION_35, symObjAddr: 0x3B310, symBinAddr: 0x3D850, symSize: 0x10 }
  - { offset: 0x6D527, size: 0x8, addend: 0x0, symName: _OUTLINED_FUNCTION_36, symObjAddr: 0x3B320, symBinAddr: 0x3D860, symSize: 0xC }
  - { offset: 0x6D53E, size: 0x8, addend: 0x0, symName: _OUTLINED_FUNCTION_37, symObjAddr: 0x3B32C, symBinAddr: 0x3D86C, symSize: 0x10 }
  - { offset: 0x6D555, size: 0x8, addend: 0x0, symName: _OUTLINED_FUNCTION_43, symObjAddr: 0x3B3B8, symBinAddr: 0x3D8F8, symSize: 0x10 }
  - { offset: 0x6D56C, size: 0x8, addend: 0x0, symName: _OUTLINED_FUNCTION_47, symObjAddr: 0x3B404, symBinAddr: 0x3D944, symSize: 0x14 }
  - { offset: 0x6D583, size: 0x8, addend: 0x0, symName: _OUTLINED_FUNCTION_48, symObjAddr: 0x3B418, symBinAddr: 0x3D958, symSize: 0xC }
  - { offset: 0x6D59A, size: 0x8, addend: 0x0, symName: _OUTLINED_FUNCTION_49, symObjAddr: 0x3B424, symBinAddr: 0x3D964, symSize: 0xC }
  - { offset: 0x6D5B1, size: 0x8, addend: 0x0, symName: _OUTLINED_FUNCTION_54, symObjAddr: 0x3B488, symBinAddr: 0x3D9C8, symSize: 0x10 }
  - { offset: 0x6D5C8, size: 0x8, addend: 0x0, symName: _OUTLINED_FUNCTION_56, symObjAddr: 0x3B4A8, symBinAddr: 0x3D9E8, symSize: 0x10 }
  - { offset: 0x6D5DF, size: 0x8, addend: 0x0, symName: _OUTLINED_FUNCTION_57, symObjAddr: 0x3B4B8, symBinAddr: 0x3D9F8, symSize: 0x10 }
  - { offset: 0x6D5F6, size: 0x8, addend: 0x0, symName: _OUTLINED_FUNCTION_58, symObjAddr: 0x3B4C8, symBinAddr: 0x3DA08, symSize: 0x1C }
  - { offset: 0x6D60D, size: 0x8, addend: 0x0, symName: _OUTLINED_FUNCTION_60, symObjAddr: 0x3B4F0, symBinAddr: 0x3DA30, symSize: 0x10 }
  - { offset: 0x6D624, size: 0x8, addend: 0x0, symName: _OUTLINED_FUNCTION_61, symObjAddr: 0x3B500, symBinAddr: 0x3DA40, symSize: 0x10 }
  - { offset: 0x6D63B, size: 0x8, addend: 0x0, symName: _OUTLINED_FUNCTION_66, symObjAddr: 0x3B558, symBinAddr: 0x3DA98, symSize: 0x10 }
  - { offset: 0x6D652, size: 0x8, addend: 0x0, symName: _OUTLINED_FUNCTION_72, symObjAddr: 0x3B60C, symBinAddr: 0x3DB4C, symSize: 0x14 }
  - { offset: 0x6D669, size: 0x8, addend: 0x0, symName: _OUTLINED_FUNCTION_88, symObjAddr: 0x3B760, symBinAddr: 0x3DCA0, symSize: 0x10 }
  - { offset: 0x6D680, size: 0x8, addend: 0x0, symName: _OUTLINED_FUNCTION_89, symObjAddr: 0x3B770, symBinAddr: 0x3DCB0, symSize: 0x14 }
  - { offset: 0x6D697, size: 0x8, addend: 0x0, symName: _OUTLINED_FUNCTION_93, symObjAddr: 0x3B7B8, symBinAddr: 0x3DCF8, symSize: 0x10 }
  - { offset: 0x6D6AE, size: 0x8, addend: 0x0, symName: _OUTLINED_FUNCTION_100, symObjAddr: 0x3B848, symBinAddr: 0x3DD88, symSize: 0xC }
  - { offset: 0x6D6C5, size: 0x8, addend: 0x0, symName: _OUTLINED_FUNCTION_111, symObjAddr: 0x3B91C, symBinAddr: 0x3DE5C, symSize: 0xC }
  - { offset: 0x6D6DC, size: 0x8, addend: 0x0, symName: _OUTLINED_FUNCTION_121, symObjAddr: 0x3BA08, symBinAddr: 0x3DF48, symSize: 0xC }
  - { offset: 0x6D6F3, size: 0x8, addend: 0x0, symName: _OUTLINED_FUNCTION_148, symObjAddr: 0x3BC20, symBinAddr: 0x3E160, symSize: 0x14 }
  - { offset: 0x6D70A, size: 0x8, addend: 0x0, symName: _OUTLINED_FUNCTION_151, symObjAddr: 0x3BC64, symBinAddr: 0x3E1A4, symSize: 0x14 }
  - { offset: 0x6D721, size: 0x8, addend: 0x0, symName: _OUTLINED_FUNCTION_166, symObjAddr: 0x3BD74, symBinAddr: 0x3E2B4, symSize: 0x8 }
  - { offset: 0x6D738, size: 0x8, addend: 0x0, symName: _OUTLINED_FUNCTION_178, symObjAddr: 0x3BE24, symBinAddr: 0x3E364, symSize: 0x10 }
  - { offset: 0x6D74F, size: 0x8, addend: 0x0, symName: _OUTLINED_FUNCTION_179, symObjAddr: 0x3BE34, symBinAddr: 0x3E374, symSize: 0x10 }
  - { offset: 0x6D766, size: 0x8, addend: 0x0, symName: _OUTLINED_FUNCTION_193, symObjAddr: 0x3BF30, symBinAddr: 0x3E470, symSize: 0x8 }
  - { offset: 0x6D77D, size: 0x8, addend: 0x0, symName: _OUTLINED_FUNCTION_194, symObjAddr: 0x3BF38, symBinAddr: 0x3E478, symSize: 0xC }
  - { offset: 0x6D794, size: 0x8, addend: 0x0, symName: _OUTLINED_FUNCTION_208, symObjAddr: 0x3C040, symBinAddr: 0x3E580, symSize: 0x10 }
  - { offset: 0x6D7AB, size: 0x8, addend: 0x0, symName: _OUTLINED_FUNCTION_210, symObjAddr: 0x3C05C, symBinAddr: 0x3E59C, symSize: 0xC }
  - { offset: 0x6D7C2, size: 0x8, addend: 0x0, symName: _OUTLINED_FUNCTION_213, symObjAddr: 0x3C080, symBinAddr: 0x3E5C0, symSize: 0x8 }
  - { offset: 0x6D7D9, size: 0x8, addend: 0x0, symName: _OUTLINED_FUNCTION_215, symObjAddr: 0x3C090, symBinAddr: 0x3E5D0, symSize: 0x8 }
  - { offset: 0x6D7F0, size: 0x8, addend: 0x0, symName: _OUTLINED_FUNCTION_217, symObjAddr: 0x3C0A0, symBinAddr: 0x3E5E0, symSize: 0x8 }
  - { offset: 0x6D807, size: 0x8, addend: 0x0, symName: _OUTLINED_FUNCTION_219, symObjAddr: 0x3C0B4, symBinAddr: 0x3E5F4, symSize: 0x8 }
  - { offset: 0x6D81E, size: 0x8, addend: 0x0, symName: _OUTLINED_FUNCTION_220, symObjAddr: 0x3C0BC, symBinAddr: 0x3E5FC, symSize: 0x8 }
  - { offset: 0x6D835, size: 0x8, addend: 0x0, symName: _OUTLINED_FUNCTION_221, symObjAddr: 0x3C0C4, symBinAddr: 0x3E604, symSize: 0x8 }
  - { offset: 0x6D84C, size: 0x8, addend: 0x0, symName: _OUTLINED_FUNCTION_223, symObjAddr: 0x3C0D8, symBinAddr: 0x3E618, symSize: 0xC }
  - { offset: 0x6D863, size: 0x8, addend: 0x0, symName: _OUTLINED_FUNCTION_226, symObjAddr: 0x3C0FC, symBinAddr: 0x3E63C, symSize: 0xC }
  - { offset: 0x6D87A, size: 0x8, addend: 0x0, symName: _OUTLINED_FUNCTION_231, symObjAddr: 0x3C138, symBinAddr: 0x3E678, symSize: 0x18 }
  - { offset: 0x6D891, size: 0x8, addend: 0x0, symName: _OUTLINED_FUNCTION_232, symObjAddr: 0x3C150, symBinAddr: 0x3E690, symSize: 0x10 }
  - { offset: 0x6D8A8, size: 0x8, addend: 0x0, symName: _OUTLINED_FUNCTION_245, symObjAddr: 0x3C238, symBinAddr: 0x3E778, symSize: 0x10 }
  - { offset: 0x6D8BF, size: 0x8, addend: 0x0, symName: _OUTLINED_FUNCTION_246, symObjAddr: 0x3C248, symBinAddr: 0x3E788, symSize: 0x10 }
  - { offset: 0x6D8D6, size: 0x8, addend: 0x0, symName: _OUTLINED_FUNCTION_249, symObjAddr: 0x3C290, symBinAddr: 0x3E7D0, symSize: 0x10 }
  - { offset: 0x6D8ED, size: 0x8, addend: 0x0, symName: _OUTLINED_FUNCTION_257, symObjAddr: 0x3C2F4, symBinAddr: 0x3E834, symSize: 0x8 }
  - { offset: 0x6D904, size: 0x8, addend: 0x0, symName: _OUTLINED_FUNCTION_262, symObjAddr: 0x3C340, symBinAddr: 0x3E880, symSize: 0x8 }
  - { offset: 0x6D91B, size: 0x8, addend: 0x0, symName: _OUTLINED_FUNCTION_267, symObjAddr: 0x3C370, symBinAddr: 0x3E8B0, symSize: 0x8 }
  - { offset: 0x6D932, size: 0x8, addend: 0x0, symName: _OUTLINED_FUNCTION_268, symObjAddr: 0x3C378, symBinAddr: 0x3E8B8, symSize: 0xC }
  - { offset: 0x6D949, size: 0x8, addend: 0x0, symName: _OUTLINED_FUNCTION_277, symObjAddr: 0x3C40C, symBinAddr: 0x3E94C, symSize: 0x14 }
  - { offset: 0x6D960, size: 0x8, addend: 0x0, symName: _OUTLINED_FUNCTION_279, symObjAddr: 0x3C434, symBinAddr: 0x3E974, symSize: 0x14 }
  - { offset: 0x6D977, size: 0x8, addend: 0x0, symName: _OUTLINED_FUNCTION_283, symObjAddr: 0x3C47C, symBinAddr: 0x3E9BC, symSize: 0x8 }
  - { offset: 0x6D98E, size: 0x8, addend: 0x0, symName: _OUTLINED_FUNCTION_287, symObjAddr: 0x3C4A4, symBinAddr: 0x3E9E4, symSize: 0x8 }
  - { offset: 0x6D9A5, size: 0x8, addend: 0x0, symName: _OUTLINED_FUNCTION_290, symObjAddr: 0x3C4D8, symBinAddr: 0x3EA18, symSize: 0xC }
  - { offset: 0x6D9BC, size: 0x8, addend: 0x0, symName: _OUTLINED_FUNCTION_292, symObjAddr: 0x3C4EC, symBinAddr: 0x3EA2C, symSize: 0x8 }
  - { offset: 0x6D9D3, size: 0x8, addend: 0x0, symName: _OUTLINED_FUNCTION_293, symObjAddr: 0x3C4F4, symBinAddr: 0x3EA34, symSize: 0xC }
  - { offset: 0x6D9EA, size: 0x8, addend: 0x0, symName: _OUTLINED_FUNCTION_294, symObjAddr: 0x3C500, symBinAddr: 0x3EA40, symSize: 0xC }
  - { offset: 0x6DA01, size: 0x8, addend: 0x0, symName: _OUTLINED_FUNCTION_295, symObjAddr: 0x3C50C, symBinAddr: 0x3EA4C, symSize: 0xC }
  - { offset: 0x6DA18, size: 0x8, addend: 0x0, symName: _OUTLINED_FUNCTION_301, symObjAddr: 0x3C54C, symBinAddr: 0x3EA8C, symSize: 0xC }
  - { offset: 0x6DA2F, size: 0x8, addend: 0x0, symName: _OUTLINED_FUNCTION_310, symObjAddr: 0x3C5C4, symBinAddr: 0x3EB04, symSize: 0x18 }
  - { offset: 0x6DA46, size: 0x8, addend: 0x0, symName: _OUTLINED_FUNCTION_312, symObjAddr: 0x3C5E8, symBinAddr: 0x3EB28, symSize: 0xC }
  - { offset: 0x6DA5D, size: 0x8, addend: 0x0, symName: _OUTLINED_FUNCTION_319, symObjAddr: 0x3C63C, symBinAddr: 0x3EB7C, symSize: 0x8 }
  - { offset: 0x6DA74, size: 0x8, addend: 0x0, symName: _OUTLINED_FUNCTION_328, symObjAddr: 0x3C6B4, symBinAddr: 0x3EBF4, symSize: 0x8 }
  - { offset: 0x6DA8B, size: 0x8, addend: 0x0, symName: _OUTLINED_FUNCTION_357, symObjAddr: 0x3C838, symBinAddr: 0x3ED78, symSize: 0xC }
  - { offset: 0x6DAA2, size: 0x8, addend: 0x0, symName: _OUTLINED_FUNCTION_363, symObjAddr: 0x3C878, symBinAddr: 0x3EDB8, symSize: 0x8 }
  - { offset: 0x6DAB9, size: 0x8, addend: 0x0, symName: _OUTLINED_FUNCTION_370, symObjAddr: 0x3C900, symBinAddr: 0x3EE40, symSize: 0xC }
  - { offset: 0x6DAD0, size: 0x8, addend: 0x0, symName: _OUTLINED_FUNCTION_372, symObjAddr: 0x3C914, symBinAddr: 0x3EE54, symSize: 0xC }
  - { offset: 0x6DAE7, size: 0x8, addend: 0x0, symName: _OUTLINED_FUNCTION_375, symObjAddr: 0x3C948, symBinAddr: 0x3EE88, symSize: 0xC }
  - { offset: 0x6DAFE, size: 0x8, addend: 0x0, symName: _OUTLINED_FUNCTION_380, symObjAddr: 0x3C9A4, symBinAddr: 0x3EEE4, symSize: 0x10 }
  - { offset: 0x6DB15, size: 0x8, addend: 0x0, symName: _OUTLINED_FUNCTION_387, symObjAddr: 0x3CA10, symBinAddr: 0x3EF50, symSize: 0x10 }
  - { offset: 0x6DB2C, size: 0x8, addend: 0x0, symName: _OUTLINED_FUNCTION_393, symObjAddr: 0x3CA7C, symBinAddr: 0x3EFBC, symSize: 0x8 }
  - { offset: 0x6DB43, size: 0x8, addend: 0x0, symName: _OUTLINED_FUNCTION_396, symObjAddr: 0x3CAA8, symBinAddr: 0x3EFE8, symSize: 0x10 }
  - { offset: 0x6DB5A, size: 0x8, addend: 0x0, symName: _OUTLINED_FUNCTION_401, symObjAddr: 0x3CAE8, symBinAddr: 0x3F028, symSize: 0xC }
  - { offset: 0x6DB71, size: 0x8, addend: 0x0, symName: _OUTLINED_FUNCTION_403, symObjAddr: 0x3CB00, symBinAddr: 0x3F040, symSize: 0xC }
  - { offset: 0x6DB88, size: 0x8, addend: 0x0, symName: _OUTLINED_FUNCTION_408, symObjAddr: 0x3CB4C, symBinAddr: 0x3F08C, symSize: 0x8 }
  - { offset: 0x6DB9F, size: 0x8, addend: 0x0, symName: _OUTLINED_FUNCTION_419, symObjAddr: 0x3CBD0, symBinAddr: 0x3F110, symSize: 0xC }
  - { offset: 0x6DBB6, size: 0x8, addend: 0x0, symName: _OUTLINED_FUNCTION_423, symObjAddr: 0x3CBF8, symBinAddr: 0x3F138, symSize: 0x8 }
  - { offset: 0x6DBCD, size: 0x8, addend: 0x0, symName: _OUTLINED_FUNCTION_428, symObjAddr: 0x3CC24, symBinAddr: 0x3F164, symSize: 0x8 }
  - { offset: 0x6DBE4, size: 0x8, addend: 0x0, symName: _OUTLINED_FUNCTION_430, symObjAddr: 0x3CC34, symBinAddr: 0x3F174, symSize: 0x8 }
  - { offset: 0x6DBFB, size: 0x8, addend: 0x0, symName: _OUTLINED_FUNCTION_436, symObjAddr: 0x3CC68, symBinAddr: 0x3F1A8, symSize: 0x8 }
  - { offset: 0x6DC12, size: 0x8, addend: 0x0, symName: _OUTLINED_FUNCTION_437, symObjAddr: 0x3CC70, symBinAddr: 0x3F1B0, symSize: 0x8 }
  - { offset: 0x6DC29, size: 0x8, addend: 0x0, symName: _OUTLINED_FUNCTION_444, symObjAddr: 0x3CCD8, symBinAddr: 0x3F218, symSize: 0xC }
  - { offset: 0x6DC40, size: 0x8, addend: 0x0, symName: _OUTLINED_FUNCTION_471, symObjAddr: 0x3CE84, symBinAddr: 0x3F3C4, symSize: 0x8 }
  - { offset: 0x6DC57, size: 0x8, addend: 0x0, symName: _OUTLINED_FUNCTION_472, symObjAddr: 0x3CE8C, symBinAddr: 0x3F3CC, symSize: 0x8 }
  - { offset: 0x6DC6E, size: 0x8, addend: 0x0, symName: _OUTLINED_FUNCTION_473, symObjAddr: 0x3CE94, symBinAddr: 0x3F3D4, symSize: 0x8 }
  - { offset: 0x6DC85, size: 0x8, addend: 0x0, symName: _OUTLINED_FUNCTION_478, symObjAddr: 0x3CEF8, symBinAddr: 0x3F438, symSize: 0x8 }
  - { offset: 0x6DC9C, size: 0x8, addend: 0x0, symName: _OUTLINED_FUNCTION_479, symObjAddr: 0x3CF00, symBinAddr: 0x3F440, symSize: 0x8 }
  - { offset: 0x6DCB3, size: 0x8, addend: 0x0, symName: _OUTLINED_FUNCTION_481, symObjAddr: 0x3CF24, symBinAddr: 0x3F464, symSize: 0x8 }
  - { offset: 0x6DCCA, size: 0x8, addend: 0x0, symName: _OUTLINED_FUNCTION_484, symObjAddr: 0x3CF3C, symBinAddr: 0x3F47C, symSize: 0x1C }
  - { offset: 0x6DCE1, size: 0x8, addend: 0x0, symName: _OUTLINED_FUNCTION_494, symObjAddr: 0x3D004, symBinAddr: 0x3F544, symSize: 0xC }
  - { offset: 0x6DCF8, size: 0x8, addend: 0x0, symName: _OUTLINED_FUNCTION_522, symObjAddr: 0x3D1A0, symBinAddr: 0x3F6E0, symSize: 0x8 }
  - { offset: 0x6DD0F, size: 0x8, addend: 0x0, symName: _OUTLINED_FUNCTION_543, symObjAddr: 0x3D2DC, symBinAddr: 0x3F81C, symSize: 0x8 }
  - { offset: 0x6DD26, size: 0x8, addend: 0x0, symName: _OUTLINED_FUNCTION_546, symObjAddr: 0x3D2F4, symBinAddr: 0x3F834, symSize: 0x8 }
  - { offset: 0x6DD3D, size: 0x8, addend: 0x0, symName: _OUTLINED_FUNCTION_548, symObjAddr: 0x3D310, symBinAddr: 0x3F850, symSize: 0xC }
  - { offset: 0x6DD54, size: 0x8, addend: 0x0, symName: _OUTLINED_FUNCTION_557, symObjAddr: 0x3D380, symBinAddr: 0x3F8C0, symSize: 0x8 }
  - { offset: 0x6DD6B, size: 0x8, addend: 0x0, symName: _OUTLINED_FUNCTION_577, symObjAddr: 0x3D480, symBinAddr: 0x3F9C0, symSize: 0xC }
  - { offset: 0x6DD82, size: 0x8, addend: 0x0, symName: _OUTLINED_FUNCTION_579, symObjAddr: 0x3D494, symBinAddr: 0x3F9D4, symSize: 0xC }
  - { offset: 0x6DD99, size: 0x8, addend: 0x0, symName: _OUTLINED_FUNCTION_589, symObjAddr: 0x3D52C, symBinAddr: 0x3FA6C, symSize: 0xC }
  - { offset: 0x6DDB0, size: 0x8, addend: 0x0, symName: _OUTLINED_FUNCTION_590, symObjAddr: 0x3D538, symBinAddr: 0x3FA78, symSize: 0x8 }
  - { offset: 0x6DDC7, size: 0x8, addend: 0x0, symName: _OUTLINED_FUNCTION_591, symObjAddr: 0x3D540, symBinAddr: 0x3FA80, symSize: 0xC }
  - { offset: 0x6DDDE, size: 0x8, addend: 0x0, symName: _OUTLINED_FUNCTION_592, symObjAddr: 0x3D54C, symBinAddr: 0x3FA8C, symSize: 0x14 }
  - { offset: 0x6DDF5, size: 0x8, addend: 0x0, symName: _OUTLINED_FUNCTION_593, symObjAddr: 0x3D560, symBinAddr: 0x3FAA0, symSize: 0xC }
  - { offset: 0x6DE0C, size: 0x8, addend: 0x0, symName: _OUTLINED_FUNCTION_596, symObjAddr: 0x3D584, symBinAddr: 0x3FAC4, symSize: 0xC }
  - { offset: 0x6DE23, size: 0x8, addend: 0x0, symName: _OUTLINED_FUNCTION_605, symObjAddr: 0x3D5F0, symBinAddr: 0x3FB30, symSize: 0x8 }
  - { offset: 0x6DE3A, size: 0x8, addend: 0x0, symName: _OUTLINED_FUNCTION_606, symObjAddr: 0x3D5F8, symBinAddr: 0x3FB38, symSize: 0x8 }
  - { offset: 0x6DE51, size: 0x8, addend: 0x0, symName: _OUTLINED_FUNCTION_607, symObjAddr: 0x3D600, symBinAddr: 0x3FB40, symSize: 0x8 }
  - { offset: 0x6DE68, size: 0x8, addend: 0x0, symName: _OUTLINED_FUNCTION_613, symObjAddr: 0x3D644, symBinAddr: 0x3FB84, symSize: 0xC }
  - { offset: 0x6DE7F, size: 0x8, addend: 0x0, symName: _OUTLINED_FUNCTION_614, symObjAddr: 0x3D650, symBinAddr: 0x3FB90, symSize: 0x10 }
  - { offset: 0x6DE96, size: 0x8, addend: 0x0, symName: _OUTLINED_FUNCTION_616, symObjAddr: 0x3D688, symBinAddr: 0x3FBC8, symSize: 0xC }
  - { offset: 0x6DEAD, size: 0x8, addend: 0x0, symName: _OUTLINED_FUNCTION_631, symObjAddr: 0x3D7CC, symBinAddr: 0x3FD0C, symSize: 0xC }
  - { offset: 0x6DEC4, size: 0x8, addend: 0x0, symName: _OUTLINED_FUNCTION_639, symObjAddr: 0x3D844, symBinAddr: 0x3FD84, symSize: 0xC }
  - { offset: 0x6DEDB, size: 0x8, addend: 0x0, symName: _OUTLINED_FUNCTION_658, symObjAddr: 0x3D938, symBinAddr: 0x3FE78, symSize: 0x8 }
  - { offset: 0x6DEF2, size: 0x8, addend: 0x0, symName: _OUTLINED_FUNCTION_663, symObjAddr: 0x3D978, symBinAddr: 0x3FEB8, symSize: 0x8 }
  - { offset: 0x6DF09, size: 0x8, addend: 0x0, symName: _OUTLINED_FUNCTION_665, symObjAddr: 0x3D988, symBinAddr: 0x3FEC8, symSize: 0x8 }
  - { offset: 0x6DF20, size: 0x8, addend: 0x0, symName: _OUTLINED_FUNCTION_666, symObjAddr: 0x3D990, symBinAddr: 0x3FED0, symSize: 0x8 }
  - { offset: 0x6DF37, size: 0x8, addend: 0x0, symName: _OUTLINED_FUNCTION_673, symObjAddr: 0x3D9E0, symBinAddr: 0x3FF20, symSize: 0xC }
  - { offset: 0x6DF4E, size: 0x8, addend: 0x0, symName: _OUTLINED_FUNCTION_676, symObjAddr: 0x3DA2C, symBinAddr: 0x3FF6C, symSize: 0x20 }
  - { offset: 0x6DF65, size: 0x8, addend: 0x0, symName: _OUTLINED_FUNCTION_677, symObjAddr: 0x3DA4C, symBinAddr: 0x3FF8C, symSize: 0x20 }
  - { offset: 0x6DF7C, size: 0x8, addend: 0x0, symName: _OUTLINED_FUNCTION_684, symObjAddr: 0x3DAC8, symBinAddr: 0x40008, symSize: 0xC }
  - { offset: 0x6DF93, size: 0x8, addend: 0x0, symName: _OUTLINED_FUNCTION_694, symObjAddr: 0x3DB54, symBinAddr: 0x40094, symSize: 0xC }
  - { offset: 0x6DFAA, size: 0x8, addend: 0x0, symName: _OUTLINED_FUNCTION_695, symObjAddr: 0x3DB60, symBinAddr: 0x400A0, symSize: 0xC }
  - { offset: 0x6DFC1, size: 0x8, addend: 0x0, symName: _OUTLINED_FUNCTION_697, symObjAddr: 0x3DB78, symBinAddr: 0x400B8, symSize: 0xC }
  - { offset: 0x6DFD8, size: 0x8, addend: 0x0, symName: _OUTLINED_FUNCTION_698, symObjAddr: 0x3DB84, symBinAddr: 0x400C4, symSize: 0xC }
  - { offset: 0x6DFEF, size: 0x8, addend: 0x0, symName: _OUTLINED_FUNCTION_701, symObjAddr: 0x3DBA8, symBinAddr: 0x400E8, symSize: 0xC }
  - { offset: 0x6E006, size: 0x8, addend: 0x0, symName: _OUTLINED_FUNCTION_702, symObjAddr: 0x3DBB4, symBinAddr: 0x400F4, symSize: 0x18 }
  - { offset: 0x6E01D, size: 0x8, addend: 0x0, symName: _OUTLINED_FUNCTION_753, symObjAddr: 0x3DE98, symBinAddr: 0x403D8, symSize: 0x8 }
  - { offset: 0x6E034, size: 0x8, addend: 0x0, symName: _OUTLINED_FUNCTION_787, symObjAddr: 0x3E060, symBinAddr: 0x405A0, symSize: 0x8 }
  - { offset: 0x6E04B, size: 0x8, addend: 0x0, symName: _OUTLINED_FUNCTION_790, symObjAddr: 0x3E080, symBinAddr: 0x405C0, symSize: 0x8 }
  - { offset: 0x6E062, size: 0x8, addend: 0x0, symName: _OUTLINED_FUNCTION_791, symObjAddr: 0x3E088, symBinAddr: 0x405C8, symSize: 0x8 }
  - { offset: 0x6E079, size: 0x8, addend: 0x0, symName: _OUTLINED_FUNCTION_796, symObjAddr: 0x3E0BC, symBinAddr: 0x405FC, symSize: 0x8 }
  - { offset: 0x6E090, size: 0x8, addend: 0x0, symName: _OUTLINED_FUNCTION_800, symObjAddr: 0x3E0E4, symBinAddr: 0x40624, symSize: 0xC }
  - { offset: 0x6E0A7, size: 0x8, addend: 0x0, symName: _OUTLINED_FUNCTION_802, symObjAddr: 0x3E0FC, symBinAddr: 0x4063C, symSize: 0xC }
  - { offset: 0x6E0BE, size: 0x8, addend: 0x0, symName: _OUTLINED_FUNCTION_803, symObjAddr: 0x3E108, symBinAddr: 0x40648, symSize: 0x8 }
  - { offset: 0x6E0D5, size: 0x8, addend: 0x0, symName: _OUTLINED_FUNCTION_811, symObjAddr: 0x3E16C, symBinAddr: 0x406AC, symSize: 0x8 }
  - { offset: 0x6E0EC, size: 0x8, addend: 0x0, symName: _OUTLINED_FUNCTION_821, symObjAddr: 0x3E1F4, symBinAddr: 0x40734, symSize: 0x8 }
  - { offset: 0x6E103, size: 0x8, addend: 0x0, symName: _OUTLINED_FUNCTION_829, symObjAddr: 0x3E24C, symBinAddr: 0x4078C, symSize: 0x10 }
  - { offset: 0x6E11A, size: 0x8, addend: 0x0, symName: _OUTLINED_FUNCTION_835, symObjAddr: 0x3E2AC, symBinAddr: 0x407EC, symSize: 0x10 }
  - { offset: 0x6E131, size: 0x8, addend: 0x0, symName: _OUTLINED_FUNCTION_862, symObjAddr: 0x3E45C, symBinAddr: 0x4099C, symSize: 0x10 }
  - { offset: 0x6E148, size: 0x8, addend: 0x0, symName: _OUTLINED_FUNCTION_866, symObjAddr: 0x3E49C, symBinAddr: 0x409DC, symSize: 0x10 }
  - { offset: 0x6E15F, size: 0x8, addend: 0x0, symName: _OUTLINED_FUNCTION_870, symObjAddr: 0x3E4F8, symBinAddr: 0x40A38, symSize: 0xC }
  - { offset: 0x6E176, size: 0x8, addend: 0x0, symName: _OUTLINED_FUNCTION_898, symObjAddr: 0x3E6C0, symBinAddr: 0x40C00, symSize: 0x18 }
  - { offset: 0x6E18D, size: 0x8, addend: 0x0, symName: _OUTLINED_FUNCTION_907, symObjAddr: 0x3E744, symBinAddr: 0x40C84, symSize: 0xC }
  - { offset: 0x6E1A4, size: 0x8, addend: 0x0, symName: _OUTLINED_FUNCTION_912, symObjAddr: 0x3E798, symBinAddr: 0x40CD8, symSize: 0xC }
  - { offset: 0x6E1BB, size: 0x8, addend: 0x0, symName: _OUTLINED_FUNCTION_913, symObjAddr: 0x3E7A4, symBinAddr: 0x40CE4, symSize: 0xC }
  - { offset: 0x6E1D2, size: 0x8, addend: 0x0, symName: _OUTLINED_FUNCTION_914, symObjAddr: 0x3E7B0, symBinAddr: 0x40CF0, symSize: 0xC }
  - { offset: 0x6E1E9, size: 0x8, addend: 0x0, symName: _OUTLINED_FUNCTION_915, symObjAddr: 0x3E7BC, symBinAddr: 0x40CFC, symSize: 0xC }
  - { offset: 0x6E200, size: 0x8, addend: 0x0, symName: _OUTLINED_FUNCTION_916, symObjAddr: 0x3E7C8, symBinAddr: 0x40D08, symSize: 0xC }
  - { offset: 0x6E217, size: 0x8, addend: 0x0, symName: _OUTLINED_FUNCTION_918, symObjAddr: 0x3E7E0, symBinAddr: 0x40D20, symSize: 0xC }
  - { offset: 0x6E22E, size: 0x8, addend: 0x0, symName: _OUTLINED_FUNCTION_926, symObjAddr: 0x3E840, symBinAddr: 0x40D80, symSize: 0xC }
  - { offset: 0x6E245, size: 0x8, addend: 0x0, symName: _OUTLINED_FUNCTION_928, symObjAddr: 0x3E864, symBinAddr: 0x40DA4, symSize: 0xC }
  - { offset: 0x6E25C, size: 0x8, addend: 0x0, symName: _OUTLINED_FUNCTION_955, symObjAddr: 0x3E99C, symBinAddr: 0x40EDC, symSize: 0xC }
  - { offset: 0x6E273, size: 0x8, addend: 0x0, symName: _OUTLINED_FUNCTION_986, symObjAddr: 0x3EAE0, symBinAddr: 0x41020, symSize: 0x8 }
  - { offset: 0x6E28A, size: 0x8, addend: 0x0, symName: _OUTLINED_FUNCTION_1000, symObjAddr: 0x3EB68, symBinAddr: 0x410A8, symSize: 0x8 }
  - { offset: 0x6E2A1, size: 0x8, addend: 0x0, symName: _OUTLINED_FUNCTION_1001, symObjAddr: 0x3EB70, symBinAddr: 0x410B0, symSize: 0x8 }
  - { offset: 0x6E2B8, size: 0x8, addend: 0x0, symName: _OUTLINED_FUNCTION_1005, symObjAddr: 0x3EB94, symBinAddr: 0x410D4, symSize: 0x8 }
  - { offset: 0x6E2CF, size: 0x8, addend: 0x0, symName: _OUTLINED_FUNCTION_1010, symObjAddr: 0x3EBC8, symBinAddr: 0x41108, symSize: 0x8 }
  - { offset: 0x6E2E6, size: 0x8, addend: 0x0, symName: _OUTLINED_FUNCTION_1045, symObjAddr: 0x3ED24, symBinAddr: 0x41264, symSize: 0x8 }
  - { offset: 0x6E2FD, size: 0x8, addend: 0x0, symName: _OUTLINED_FUNCTION_1051, symObjAddr: 0x3ED58, symBinAddr: 0x41298, symSize: 0x8 }
  - { offset: 0x6E314, size: 0x8, addend: 0x0, symName: _OUTLINED_FUNCTION_1052, symObjAddr: 0x3ED60, symBinAddr: 0x412A0, symSize: 0x8 }
  - { offset: 0x6E32B, size: 0x8, addend: 0x0, symName: _OUTLINED_FUNCTION_1060, symObjAddr: 0x3EDB0, symBinAddr: 0x412F0, symSize: 0x8 }
  - { offset: 0x6E342, size: 0x8, addend: 0x0, symName: _OUTLINED_FUNCTION_1066, symObjAddr: 0x3EDEC, symBinAddr: 0x4132C, symSize: 0x8 }
  - { offset: 0x6E359, size: 0x8, addend: 0x0, symName: _OUTLINED_FUNCTION_1072, symObjAddr: 0x3EE20, symBinAddr: 0x41360, symSize: 0xC }
  - { offset: 0x6E370, size: 0x8, addend: 0x0, symName: _OUTLINED_FUNCTION_1089, symObjAddr: 0x3EEC0, symBinAddr: 0x41400, symSize: 0xC }
  - { offset: 0x6E387, size: 0x8, addend: 0x0, symName: _OUTLINED_FUNCTION_1096, symObjAddr: 0x3EF04, symBinAddr: 0x41444, symSize: 0x8 }
  - { offset: 0x6E39E, size: 0x8, addend: 0x0, symName: _OUTLINED_FUNCTION_1099, symObjAddr: 0x3EF20, symBinAddr: 0x41460, symSize: 0xC }
  - { offset: 0x6E3B5, size: 0x8, addend: 0x0, symName: _OUTLINED_FUNCTION_1170, symObjAddr: 0x3F348, symBinAddr: 0x41888, symSize: 0x14 }
  - { offset: 0x6E3CC, size: 0x8, addend: 0x0, symName: _OUTLINED_FUNCTION_1179, symObjAddr: 0x3F3C4, symBinAddr: 0x41904, symSize: 0x14 }
  - { offset: 0x6E3E3, size: 0x8, addend: 0x0, symName: _OUTLINED_FUNCTION_1180, symObjAddr: 0x3F3D8, symBinAddr: 0x41918, symSize: 0x14 }
  - { offset: 0x6E3FA, size: 0x8, addend: 0x0, symName: _OUTLINED_FUNCTION_1192, symObjAddr: 0x3F488, symBinAddr: 0x419C8, symSize: 0xC }
  - { offset: 0x6E411, size: 0x8, addend: 0x0, symName: _OUTLINED_FUNCTION_1196, symObjAddr: 0x3F4B8, symBinAddr: 0x419F8, symSize: 0x14 }
  - { offset: 0x6E428, size: 0x8, addend: 0x0, symName: _OUTLINED_FUNCTION_1200, symObjAddr: 0x3F4F0, symBinAddr: 0x41A30, symSize: 0xC }
  - { offset: 0x6E43F, size: 0x8, addend: 0x0, symName: _OUTLINED_FUNCTION_1201, symObjAddr: 0x3F4FC, symBinAddr: 0x41A3C, symSize: 0xC }
  - { offset: 0x6E456, size: 0x8, addend: 0x0, symName: _OUTLINED_FUNCTION_1207, symObjAddr: 0x3F564, symBinAddr: 0x41AA4, symSize: 0x1C }
  - { offset: 0x6E46D, size: 0x8, addend: 0x0, symName: _OUTLINED_FUNCTION_1213, symObjAddr: 0x3F608, symBinAddr: 0x41B48, symSize: 0x1C }
  - { offset: 0x6E484, size: 0x8, addend: 0x0, symName: _OUTLINED_FUNCTION_1216, symObjAddr: 0x3F65C, symBinAddr: 0x41B9C, symSize: 0x14 }
  - { offset: 0x13A5A, size: 0x8, addend: 0x0, symName: __ZN4core3num7dec2flt5float8RawFloat14integer_decode17h6af9804f2b5f9c0cE, symObjAddr: 0x31E0, symBinAddr: 0x70F0, symSize: 0x3C }
  - { offset: 0x13AED, size: 0x8, addend: 0x0, symName: __ZN4core3num7dec2flt5float8RawFloat14integer_decode17h6af9804f2b5f9c0cE, symObjAddr: 0x31E0, symBinAddr: 0x70F0, symSize: 0x3C }
  - { offset: 0x13B1D, size: 0x8, addend: 0x0, symName: __ZN4core3num7dec2flt5float8RawFloat14integer_decode17h6af9804f2b5f9c0cE, symObjAddr: 0x31E0, symBinAddr: 0x70F0, symSize: 0x3C }
  - { offset: 0x13B3A, size: 0x8, addend: 0x0, symName: __ZN4core3num7dec2flt5float8RawFloat14integer_decode17h6af9804f2b5f9c0cE, symObjAddr: 0x31E0, symBinAddr: 0x70F0, symSize: 0x3C }
  - { offset: 0x13C0E, size: 0x8, addend: 0x0, symName: __ZN4core3num14overflow_panic3add17h567525486b5b1bb2E, symObjAddr: 0x321C, symBinAddr: 0x41CA0, symSize: 0xC }
  - { offset: 0x13E79, size: 0x8, addend: 0x0, symName: __ZN4core3num6bignum8Big32x4010mul_digits9mul_inner17h0d0396fd97b918beE, symObjAddr: 0x35EC, symBinAddr: 0x74F0, symSize: 0xB4 }
  - { offset: 0x141DE, size: 0x8, addend: 0x0, symName: '__ZN62_$LT$core..num..bignum..Big32x40$u20$as$u20$core..cmp..Ord$GT$3cmp17hfb757ce0d8eddbebE', symObjAddr: 0x36F8, symBinAddr: 0x75FC, symSize: 0x7C }
  - { offset: 0x1501B, size: 0x8, addend: 0x0, symName: '__ZN4core5array85_$LT$impl$u20$core..ops..index..Index$LT$I$GT$$u20$for$u20$$u5b$T$u3b$$u20$N$u5d$$GT$5index17hf02e35a0e1c561fbE', symObjAddr: 0x3288, symBinAddr: 0x718C, symSize: 0x1C }
  - { offset: 0x150E0, size: 0x8, addend: 0x0, symName: '__ZN4core5array88_$LT$impl$u20$core..ops..index..IndexMut$LT$I$GT$$u20$for$u20$$u5b$T$u3b$$u20$N$u5d$$GT$9index_mut17h54209f874e28cbc1E', symObjAddr: 0x332C, symBinAddr: 0x7230, symSize: 0x1C }
  - { offset: 0x15A31, size: 0x8, addend: 0x0, symName: __ZN4core3num6bignum8Big32x408from_u6417hb6e760e0a4530b09E, symObjAddr: 0x3228, symBinAddr: 0x712C, symSize: 0x58 }
  - { offset: 0x15AA4, size: 0x8, addend: 0x0, symName: __ZN4core3num6bignum8Big32x406digits17h5432af535a7ddf27E, symObjAddr: 0x3280, symBinAddr: 0x7184, symSize: 0x8 }
  - { offset: 0x15B1B, size: 0x8, addend: 0x0, symName: __ZN4core3num6bignum8Big32x403add17h9fae628fb0d19f3dE, symObjAddr: 0x32A4, symBinAddr: 0x71A8, symSize: 0x88 }
  - { offset: 0x15D00, size: 0x8, addend: 0x0, symName: __ZN4core3num6bignum8Big32x403sub17hdb165150d1c9b586E, symObjAddr: 0x3348, symBinAddr: 0x724C, symSize: 0x78 }
  - { offset: 0x15EF2, size: 0x8, addend: 0x0, symName: __ZN4core3num6bignum8Big32x409mul_small17h5e231e0d28970adfE, symObjAddr: 0x33C0, symBinAddr: 0x72C4, symSize: 0x78 }
  - { offset: 0x1601A, size: 0x8, addend: 0x0, symName: __ZN4core3num6bignum8Big32x408mul_pow217h4bcbff080723a226E, symObjAddr: 0x3438, symBinAddr: 0x733C, symSize: 0x138 }
  - { offset: 0x16223, size: 0x8, addend: 0x0, symName: __ZN4core3num6bignum8Big32x4010mul_digits17hace576dd7a1b1bd6E, symObjAddr: 0x3570, symBinAddr: 0x7474, symSize: 0x7C }
  - { offset: 0x1632D, size: 0x8, addend: 0x0, symName: __ZN4core3num6bignum8Big32x4013div_rem_small17h3ef49971380ba801E, symObjAddr: 0x36A0, symBinAddr: 0x75A4, symSize: 0x58 }
  - { offset: 0x164BC, size: 0x8, addend: 0x0, symName: _OUTLINED_FUNCTION_187, symObjAddr: 0x3BEF0, symBinAddr: 0x3E430, symSize: 0xC }
  - { offset: 0x164D3, size: 0x8, addend: 0x0, symName: _OUTLINED_FUNCTION_303, symObjAddr: 0x3C564, symBinAddr: 0x3EAA4, symSize: 0x10 }
  - { offset: 0x164EA, size: 0x8, addend: 0x0, symName: _OUTLINED_FUNCTION_373, symObjAddr: 0x3C920, symBinAddr: 0x3EE60, symSize: 0x18 }
  - { offset: 0x16501, size: 0x8, addend: 0x0, symName: _OUTLINED_FUNCTION_431, symObjAddr: 0x3CC3C, symBinAddr: 0x3F17C, symSize: 0xC }
  - { offset: 0x16518, size: 0x8, addend: 0x0, symName: _OUTLINED_FUNCTION_454, symObjAddr: 0x3CD5C, symBinAddr: 0x3F29C, symSize: 0x8 }
  - { offset: 0x1652F, size: 0x8, addend: 0x0, symName: _OUTLINED_FUNCTION_668, symObjAddr: 0x3D9A0, symBinAddr: 0x3FEE0, symSize: 0x14 }
  - { offset: 0x16546, size: 0x8, addend: 0x0, symName: _OUTLINED_FUNCTION_669, symObjAddr: 0x3D9B4, symBinAddr: 0x3FEF4, symSize: 0x8 }
  - { offset: 0x1655D, size: 0x8, addend: 0x0, symName: _OUTLINED_FUNCTION_712, symObjAddr: 0x3DC90, symBinAddr: 0x401D0, symSize: 0x10 }
  - { offset: 0x16574, size: 0x8, addend: 0x0, symName: _OUTLINED_FUNCTION_1079, symObjAddr: 0x3EE64, symBinAddr: 0x413A4, symSize: 0xC }
  - { offset: 0x8A55, size: 0x8, addend: 0x0, symName: __ZN4core3fmt5write17h51b9cd6a5aefb293E, symObjAddr: 0x9A8, symBinAddr: 0x490C, symSize: 0x190 }
  - { offset: 0x8FDD, size: 0x8, addend: 0x0, symName: __ZN4core3fmt9Formatter12pad_integral12write_prefix17hdda3912117252a3cE, symObjAddr: 0xE84, symBinAddr: 0x4DE8, symSize: 0x68 }
  - { offset: 0x909D, size: 0x8, addend: 0x0, symName: '__ZN43_$LT$bool$u20$as$u20$core..fmt..Display$GT$3fmt17hf64c4119f45fd17aE', symObjAddr: 0x146C, symBinAddr: 0x53D0, symSize: 0x2C }
  - { offset: 0x90E1, size: 0x8, addend: 0x0, symName: '__ZN43_$LT$char$u20$as$u20$core..fmt..Display$GT$3fmt17h8b948414e789357dE', symObjAddr: 0x16DC, symBinAddr: 0x5640, symSize: 0xE0 }
  - { offset: 0x91E9, size: 0x8, addend: 0x0, symName: '__ZN44_$LT$$RF$T$u20$as$u20$core..fmt..Display$GT$3fmt17h46020ea2bcfe751cE', symObjAddr: 0x17BC, symBinAddr: 0x5720, symSize: 0xC }
  - { offset: 0x9882, size: 0x8, addend: 0x0, symName: '__ZN81_$LT$core..str..iter..Chars$u20$as$u20$core..iter..traits..iterator..Iterator$GT$5count17h67a41ebc4a9de43bE', symObjAddr: 0xD2C, symBinAddr: 0x4C90, symSize: 0x158 }
  - { offset: 0x98B2, size: 0x8, addend: 0x0, symName: '__ZN81_$LT$core..str..iter..Chars$u20$as$u20$core..iter..traits..iterator..Iterator$GT$5count17h67a41ebc4a9de43bE', symObjAddr: 0xD2C, symBinAddr: 0x4C90, symSize: 0x158 }
  - { offset: 0x98C6, size: 0x8, addend: 0x0, symName: '__ZN81_$LT$core..str..iter..Chars$u20$as$u20$core..iter..traits..iterator..Iterator$GT$5count17h67a41ebc4a9de43bE', symObjAddr: 0xD2C, symBinAddr: 0x4C90, symSize: 0x158 }
  - { offset: 0x98DA, size: 0x8, addend: 0x0, symName: '__ZN81_$LT$core..str..iter..Chars$u20$as$u20$core..iter..traits..iterator..Iterator$GT$5count17h67a41ebc4a9de43bE', symObjAddr: 0xD2C, symBinAddr: 0x4C90, symSize: 0x158 }
  - { offset: 0x98EA, size: 0x8, addend: 0x0, symName: '__ZN81_$LT$core..str..iter..Chars$u20$as$u20$core..iter..traits..iterator..Iterator$GT$5count17h67a41ebc4a9de43bE', symObjAddr: 0xD2C, symBinAddr: 0x4C90, symSize: 0x158 }
  - { offset: 0x9902, size: 0x8, addend: 0x0, symName: '__ZN81_$LT$core..str..iter..Chars$u20$as$u20$core..iter..traits..iterator..Iterator$GT$5count17h67a41ebc4a9de43bE', symObjAddr: 0xD2C, symBinAddr: 0x4C90, symSize: 0x158 }
  - { offset: 0x9924, size: 0x8, addend: 0x0, symName: '__ZN81_$LT$core..str..iter..Chars$u20$as$u20$core..iter..traits..iterator..Iterator$GT$5count17h67a41ebc4a9de43bE', symObjAddr: 0xD2C, symBinAddr: 0x4C90, symSize: 0x158 }
  - { offset: 0x9947, size: 0x8, addend: 0x0, symName: '__ZN81_$LT$core..str..iter..Chars$u20$as$u20$core..iter..traits..iterator..Iterator$GT$5count17h67a41ebc4a9de43bE', symObjAddr: 0xD2C, symBinAddr: 0x4C90, symSize: 0x158 }
  - { offset: 0x9966, size: 0x8, addend: 0x0, symName: '__ZN81_$LT$core..str..iter..Chars$u20$as$u20$core..iter..traits..iterator..Iterator$GT$5count17h67a41ebc4a9de43bE', symObjAddr: 0xD2C, symBinAddr: 0x4C90, symSize: 0x158 }
  - { offset: 0xA0E7, size: 0x8, addend: 0x0, symName: '__ZN81_$LT$core..str..iter..Chars$u20$as$u20$core..iter..traits..iterator..Iterator$GT$4next17hf2c30d6996b89146E.151', symObjAddr: 0x10F0, symBinAddr: 0x5054, symSize: 0x94 }
  - { offset: 0xA467, size: 0x8, addend: 0x0, symName: '__ZN4core3str6traits66_$LT$impl$u20$core..ops..index..Index$LT$I$GT$$u20$for$u20$str$GT$5index17hddcd6710054bb52eE', symObjAddr: 0x1498, symBinAddr: 0x53FC, symSize: 0x54 }
  - { offset: 0xA4A7, size: 0x8, addend: 0x0, symName: '__ZN4core3str6traits66_$LT$impl$u20$core..ops..index..Index$LT$I$GT$$u20$for$u20$str$GT$5index17hddcd6710054bb52eE', symObjAddr: 0x1498, symBinAddr: 0x53FC, symSize: 0x54 }
  - { offset: 0xA4C9, size: 0x8, addend: 0x0, symName: '__ZN4core3str6traits66_$LT$impl$u20$core..ops..index..Index$LT$I$GT$$u20$for$u20$str$GT$5index17hddcd6710054bb52eE', symObjAddr: 0x1498, symBinAddr: 0x53FC, symSize: 0x54 }
  - { offset: 0xAEE1, size: 0x8, addend: 0x0, symName: '__ZN4core4char7methods22_$LT$impl$u20$char$GT$16escape_debug_ext17he974661d09a3730aE', symObjAddr: 0x14EC, symBinAddr: 0x5450, symSize: 0x1F0 }
  - { offset: 0xC199, size: 0x8, addend: 0x0, symName: __ZN4core3fmt11PostPadding5write17hb4f805635690b383E, symObjAddr: 0xB38, symBinAddr: 0x4A9C, symSize: 0x58 }
  - { offset: 0xC300, size: 0x8, addend: 0x0, symName: __ZN4core3fmt9Formatter12pad_integral17h2ef6baaab6179790E, symObjAddr: 0xB90, symBinAddr: 0x4AF4, symSize: 0x19C }
  - { offset: 0xC576, size: 0x8, addend: 0x0, symName: __ZN4core3fmt9Formatter7padding17h44f24df733054738E, symObjAddr: 0xEEC, symBinAddr: 0x4E50, symSize: 0xA8 }
  - { offset: 0xC75E, size: 0x8, addend: 0x0, symName: __ZN4core3fmt9Formatter3pad17ha97e9db4f5443afeE, symObjAddr: 0xF94, symBinAddr: 0x4EF8, symSize: 0x15C }
  - { offset: 0xCB7A, size: 0x8, addend: 0x0, symName: __ZN4core3fmt9Formatter19pad_formatted_parts17h7e294f75e6602cf8E, symObjAddr: 0x1184, symBinAddr: 0x50E8, symSize: 0x194 }
  - { offset: 0xCE2E, size: 0x8, addend: 0x0, symName: __ZN4core3fmt9Formatter21write_formatted_parts17hd2068258e2f3abc1E, symObjAddr: 0x1318, symBinAddr: 0x527C, symSize: 0x154 }
  - { offset: 0xD158, size: 0x8, addend: 0x0, symName: _OUTLINED_FUNCTION_167, symObjAddr: 0x3BD7C, symBinAddr: 0x3E2BC, symSize: 0x8 }
  - { offset: 0xD16F, size: 0x8, addend: 0x0, symName: _OUTLINED_FUNCTION_190, symObjAddr: 0x3BF10, symBinAddr: 0x3E450, symSize: 0xC }
  - { offset: 0xD186, size: 0x8, addend: 0x0, symName: _OUTLINED_FUNCTION_222, symObjAddr: 0x3C0CC, symBinAddr: 0x3E60C, symSize: 0xC }
  - { offset: 0xD19D, size: 0x8, addend: 0x0, symName: _OUTLINED_FUNCTION_324, symObjAddr: 0x3C680, symBinAddr: 0x3EBC0, symSize: 0xC }
  - { offset: 0xD1B4, size: 0x8, addend: 0x0, symName: _OUTLINED_FUNCTION_329, symObjAddr: 0x3C6BC, symBinAddr: 0x3EBFC, symSize: 0x10 }
  - { offset: 0xD1CB, size: 0x8, addend: 0x0, symName: _OUTLINED_FUNCTION_342, symObjAddr: 0x3C768, symBinAddr: 0x3ECA8, symSize: 0x10 }
  - { offset: 0xD1E2, size: 0x8, addend: 0x0, symName: _OUTLINED_FUNCTION_468, symObjAddr: 0x3CE30, symBinAddr: 0x3F370, symSize: 0x1C }
  - { offset: 0xD1F9, size: 0x8, addend: 0x0, symName: _OUTLINED_FUNCTION_469, symObjAddr: 0x3CE4C, symBinAddr: 0x3F38C, symSize: 0x1C }
  - { offset: 0xD210, size: 0x8, addend: 0x0, symName: _OUTLINED_FUNCTION_486, symObjAddr: 0x3CF74, symBinAddr: 0x3F4B4, symSize: 0x1C }
  - { offset: 0xD227, size: 0x8, addend: 0x0, symName: _OUTLINED_FUNCTION_491, symObjAddr: 0x3CFE0, symBinAddr: 0x3F520, symSize: 0xC }
  - { offset: 0xD23E, size: 0x8, addend: 0x0, symName: _OUTLINED_FUNCTION_544, symObjAddr: 0x3D2E4, symBinAddr: 0x3F824, symSize: 0x8 }
  - { offset: 0xD255, size: 0x8, addend: 0x0, symName: _OUTLINED_FUNCTION_565, symObjAddr: 0x3D3D0, symBinAddr: 0x3F910, symSize: 0x8 }
  - { offset: 0xD26C, size: 0x8, addend: 0x0, symName: _OUTLINED_FUNCTION_601, symObjAddr: 0x3D5C8, symBinAddr: 0x3FB08, symSize: 0xC }
  - { offset: 0xD283, size: 0x8, addend: 0x0, symName: _OUTLINED_FUNCTION_644, symObjAddr: 0x3D880, symBinAddr: 0x3FDC0, symSize: 0x1C }
  - { offset: 0xD29A, size: 0x8, addend: 0x0, symName: _OUTLINED_FUNCTION_662, symObjAddr: 0x3D964, symBinAddr: 0x3FEA4, symSize: 0x14 }
  - { offset: 0xD2B1, size: 0x8, addend: 0x0, symName: _OUTLINED_FUNCTION_687, symObjAddr: 0x3DAEC, symBinAddr: 0x4002C, symSize: 0xC }
  - { offset: 0xD2C8, size: 0x8, addend: 0x0, symName: _OUTLINED_FUNCTION_689, symObjAddr: 0x3DB04, symBinAddr: 0x40044, symSize: 0xC }
  - { offset: 0xD2DF, size: 0x8, addend: 0x0, symName: _OUTLINED_FUNCTION_789, symObjAddr: 0x3E074, symBinAddr: 0x405B4, symSize: 0xC }
  - { offset: 0xD2F6, size: 0x8, addend: 0x0, symName: _OUTLINED_FUNCTION_805, symObjAddr: 0x3E118, symBinAddr: 0x40658, symSize: 0x10 }
  - { offset: 0xD30D, size: 0x8, addend: 0x0, symName: _OUTLINED_FUNCTION_888, symObjAddr: 0x3E624, symBinAddr: 0x40B64, symSize: 0xC }
  - { offset: 0xD324, size: 0x8, addend: 0x0, symName: _OUTLINED_FUNCTION_911, symObjAddr: 0x3E78C, symBinAddr: 0x40CCC, symSize: 0xC }
  - { offset: 0xD33B, size: 0x8, addend: 0x0, symName: _OUTLINED_FUNCTION_992, symObjAddr: 0x3EB20, symBinAddr: 0x41060, symSize: 0x8 }
  - { offset: 0xD352, size: 0x8, addend: 0x0, symName: _OUTLINED_FUNCTION_996, symObjAddr: 0x3EB44, symBinAddr: 0x41084, symSize: 0xC }
  - { offset: 0xD369, size: 0x8, addend: 0x0, symName: _OUTLINED_FUNCTION_1087, symObjAddr: 0x3EEAC, symBinAddr: 0x413EC, symSize: 0x8 }
  - { offset: 0x4E47, size: 0x8, addend: 0x0, symName: __ZN5alloc7raw_vec12handle_error17hf915c7f9528ae1f0E, symObjAddr: 0x570, symBinAddr: 0x41BB0, symSize: 0x14 }
  - { offset: 0x4EE8, size: 0x8, addend: 0x0, symName: __ZN5alloc7raw_vec11finish_grow17h74f568c0aca49cedE, symObjAddr: 0x584, symBinAddr: 0x41BC4, symSize: 0x68 }
  - { offset: 0x5078, size: 0x8, addend: 0x0, symName: '__ZN77_$LT$alloc..raw_vec..RawVec$LT$T$C$A$GT$$u20$as$u20$core..ops..drop..Drop$GT$4drop17hd296f0d28b46a8c2E', symObjAddr: 0x61C, symBinAddr: 0x45A0, symSize: 0xC }
  - { offset: 0x50BC, size: 0x8, addend: 0x0, symName: '__ZN5alloc7raw_vec20RawVecInner$LT$A$GT$7reserve21do_reserve_and_handle17h5d6e33cb8753521bE', symObjAddr: 0x6FC, symBinAddr: 0x41C2C, symSize: 0x20 }
  - { offset: 0x5562, size: 0x8, addend: 0x0, symName: '__ZN5alloc7raw_vec19RawVec$LT$T$C$A$GT$8grow_one17h7bc53cb5466c55dcE', symObjAddr: 0x464, symBinAddr: 0x4464, symSize: 0x30 }
  - { offset: 0x57AF, size: 0x8, addend: 0x0, symName: '__ZN5alloc7raw_vec20RawVecInner$LT$A$GT$14grow_amortized17h22fb48ccb224f073E', symObjAddr: 0x494, symBinAddr: 0x4494, symSize: 0xDC }
  - { offset: 0x5C73, size: 0x8, addend: 0x0, symName: __ZN5alloc5alloc6Global10alloc_impl17hf4a1d0124027c822E, symObjAddr: 0x5EC, symBinAddr: 0x4570, symSize: 0x30 }
  - { offset: 0x5D05, size: 0x8, addend: 0x0, symName: '__ZN5alloc7raw_vec20RawVecInner$LT$A$GT$10deallocate17h7471e4b0298eec12E', symObjAddr: 0x628, symBinAddr: 0x45AC, symSize: 0x48 }
  - { offset: 0x5E33, size: 0x8, addend: 0x0, symName: '__ZN5alloc7raw_vec20RawVecInner$LT$A$GT$15try_allocate_in17h45c0461780b61471E', symObjAddr: 0x670, symBinAddr: 0x45F4, symSize: 0x8C }
  - { offset: 0x61A9, size: 0x8, addend: 0x0, symName: _OUTLINED_FUNCTION_224, symObjAddr: 0x3C0E4, symBinAddr: 0x3E624, symSize: 0xC }
  - { offset: 0x61C0, size: 0x8, addend: 0x0, symName: _OUTLINED_FUNCTION_282, symObjAddr: 0x3C470, symBinAddr: 0x3E9B0, symSize: 0xC }
  - { offset: 0x61D7, size: 0x8, addend: 0x0, symName: _OUTLINED_FUNCTION_341, symObjAddr: 0x3C75C, symBinAddr: 0x3EC9C, symSize: 0xC }
  - { offset: 0x61EE, size: 0x8, addend: 0x0, symName: _OUTLINED_FUNCTION_664, symObjAddr: 0x3D980, symBinAddr: 0x3FEC0, symSize: 0x8 }
  - { offset: 0x6205, size: 0x8, addend: 0x0, symName: _OUTLINED_FUNCTION_923, symObjAddr: 0x3E81C, symBinAddr: 0x40D5C, symSize: 0xC }
  - { offset: 0x621C, size: 0x8, addend: 0x0, symName: _OUTLINED_FUNCTION_929, symObjAddr: 0x3E870, symBinAddr: 0x40DB0, symSize: 0xC }
  - { offset: 0x10C94, size: 0x8, addend: 0x0, symName: '__ZN4core6escape24EscapeIterInner$LT$_$GT$7unicode17h89c9703b415acd27E', symObjAddr: 0x2280, symBinAddr: 0x61E4, symSize: 0xBC }
  - { offset: 0x10ED4, size: 0x8, addend: 0x0, symName: '__ZN4core5slice29_$LT$impl$u20$$u5b$T$u5d$$GT$15copy_from_slice17len_mismatch_fail17hc49b6dbe7fa834adE', symObjAddr: 0x2370, symBinAddr: 0x41C4C, symSize: 0xC }
  - { offset: 0x116CF, size: 0x8, addend: 0x0, symName: __ZN4core4iter6traits8iterator8Iterator3sum17h6d337a9a4cbfef00E, symObjAddr: 0x233C, symBinAddr: 0x62A0, symSize: 0x34 }
  - { offset: 0x11701, size: 0x8, addend: 0x0, symName: __ZN4core4iter6traits8iterator8Iterator3sum17h6d337a9a4cbfef00E, symObjAddr: 0x233C, symBinAddr: 0x62A0, symSize: 0x34 }
  - { offset: 0x1171F, size: 0x8, addend: 0x0, symName: __ZN4core4iter6traits8iterator8Iterator3sum17h6d337a9a4cbfef00E, symObjAddr: 0x233C, symBinAddr: 0x62A0, symSize: 0x34 }
  - { offset: 0x11742, size: 0x8, addend: 0x0, symName: __ZN4core4iter6traits8iterator8Iterator3sum17h6d337a9a4cbfef00E, symObjAddr: 0x233C, symBinAddr: 0x62A0, symSize: 0x34 }
  - { offset: 0x11A58, size: 0x8, addend: 0x0, symName: '__ZN4core6escape24EscapeIterInner$LT$_$GT$7unicode17h89c9703b415acd27E', symObjAddr: 0x2280, symBinAddr: 0x61E4, symSize: 0xBC }
  - { offset: 0x9E230, size: 0x8, addend: 0x0, symName: '__ZN60_$LT$alloc..string..String$u20$as$u20$core..fmt..Display$GT$3fmt17h5f721447fa56adccE', symObjAddr: 0x13A88, symBinAddr: 0x170DC, symSize: 0xC }
  - { offset: 0x9FE9A, size: 0x8, addend: 0x0, symName: '__ZN5alloc3str21_$LT$impl$u20$str$GT$7replace17hc32b11f8310e46bcE', symObjAddr: 0x13854, symBinAddr: 0x16EA8, symSize: 0x234 }
  - { offset: 0xA0628, size: 0x8, addend: 0x0, symName: __ZN5alloc3fmt6format17hc3e3b503b382cc0dE, symObjAddr: 0x134B8, symBinAddr: 0x16B0C, symSize: 0x38 }
  - { offset: 0xA0BEC, size: 0x8, addend: 0x0, symName: '__ZN4core3ptr104drop_in_place$LT$core..option..Option$LT$powersync_core..sync..sync_status..SyncDownloadProgress$GT$$GT$17h9199df8137073e32E', symObjAddr: 0x122D4, symBinAddr: 0x15928, symSize: 0x14 }
  - { offset: 0xA0D12, size: 0x8, addend: 0x0, symName: '__ZN4core3ptr103drop_in_place$LT$alloc..vec..Vec$LT$powersync_core..sync..sync_status..ActiveStreamSubscription$GT$$GT$17h535003a93d4c2e98E', symObjAddr: 0x13498, symBinAddr: 0x16AEC, symSize: 0x20 }
  - { offset: 0xA166C, size: 0x8, addend: 0x0, symName: '__ZN4core4hash5impls50_$LT$impl$u20$core..hash..Hash$u20$for$u20$str$GT$4hash17heb45a01c17cf2263E', symObjAddr: 0x11520, symBinAddr: 0x14B74, symSize: 0xFC }
  - { offset: 0xA26E6, size: 0x8, addend: 0x0, symName: '__ZN110_$LT$core..ops..range..RangeFrom$LT$usize$GT$$u20$as$u20$core..slice..index..SliceIndex$LT$$u5b$T$u5d$$GT$$GT$5index17h2a3c3a85153e9e5aE', symObjAddr: 0x1161C, symBinAddr: 0x14C70, symSize: 0x1C }
  - { offset: 0xA2833, size: 0x8, addend: 0x0, symName: '__ZN110_$LT$core..ops..range..RangeFrom$LT$usize$GT$$u20$as$u20$core..slice..index..SliceIndex$LT$$u5b$T$u5d$$GT$$GT$9index_mut17hd29b90e61e493f7bE.947', symObjAddr: 0x118C4, symBinAddr: 0x14F18, symSize: 0x1C }
  - { offset: 0xA2A5C, size: 0x8, addend: 0x0, symName: '__ZN4core5slice4sort6stable9quicksort9quicksort28_$u7b$$u7b$closure$u7d$$u7d$17h018a75e89975d2c5E', symObjAddr: 0x11638, symBinAddr: 0x14C8C, symSize: 0x1C }
  - { offset: 0xA2DAD, size: 0x8, addend: 0x0, symName: __ZN4core5slice4sort6stable9quicksort9quicksort17h698434cb9661d89dE, symObjAddr: 0x11654, symBinAddr: 0x14CA8, symSize: 0x270 }
  - { offset: 0xA3759, size: 0x8, addend: 0x0, symName: __ZN4core5slice4sort6stable9quicksort9quicksort17haebd53e845b666eeE, symObjAddr: 0x118E0, symBinAddr: 0x14F34, symSize: 0x270 }
  - { offset: 0xA4192, size: 0x8, addend: 0x0, symName: __ZN4core5slice4sort6stable9quicksort9quicksort17hbb1f7865abd9e91eE, symObjAddr: 0x11B50, symBinAddr: 0x151A4, symSize: 0x514 }
  - { offset: 0xA5512, size: 0x8, addend: 0x0, symName: __ZN4core5slice4sort6stable9quicksort9quicksort17hd8daf17c57ee1f8bE, symObjAddr: 0x12064, symBinAddr: 0x156B8, symSize: 0x270 }
  - { offset: 0xA8DB7, size: 0x8, addend: 0x0, symName: '__ZN86_$LT$serde_json..ser..Compound$LT$W$C$F$GT$$u20$as$u20$serde..ser..SerializeStruct$GT$15serialize_field17h294f1211375a4a0bE', symObjAddr: 0x130A0, symBinAddr: 0x166F4, symSize: 0x40 }
  - { offset: 0xA8EA0, size: 0x8, addend: 0x0, symName: '__ZN86_$LT$serde_json..ser..Compound$LT$W$C$F$GT$$u20$as$u20$serde..ser..SerializeStruct$GT$3end17h61d6202baeb4d845E', symObjAddr: 0x130E0, symBinAddr: 0x16734, symSize: 0x10 }
  - { offset: 0xA8EE1, size: 0x8, addend: 0x0, symName: '__ZN86_$LT$serde_json..ser..Compound$LT$W$C$F$GT$$u20$as$u20$serde..ser..SerializeStruct$GT$15serialize_field17hdd24288f9a796f6fE', symObjAddr: 0x13C98, symBinAddr: 0x172EC, symSize: 0x90 }
  - { offset: 0xA90A8, size: 0x8, addend: 0x0, symName: '__ZN86_$LT$serde_json..ser..Compound$LT$W$C$F$GT$$u20$as$u20$serde..ser..SerializeStruct$GT$15serialize_field17hb2f3b98092eba153E', symObjAddr: 0x13D28, symBinAddr: 0x1737C, symSize: 0x30 }
  - { offset: 0xA916D, size: 0x8, addend: 0x0, symName: __ZN10serde_json3ser9Formatter10end_object17h83306cd8d79eb707E, symObjAddr: 0x13124, symBinAddr: 0x16778, symSize: 0xC }
  - { offset: 0xA91A8, size: 0x8, addend: 0x0, symName: __ZN10serde_json3ser9Formatter10end_object17h83306cd8d79eb707E, symObjAddr: 0x13124, symBinAddr: 0x16778, symSize: 0xC }
  - { offset: 0xA91C6, size: 0x8, addend: 0x0, symName: __ZN10serde_json3ser9Formatter10end_object17h83306cd8d79eb707E, symObjAddr: 0x13124, symBinAddr: 0x16778, symSize: 0xC }
  - { offset: 0xA91EA, size: 0x8, addend: 0x0, symName: __ZN10serde_json3ser9Formatter10end_object17h83306cd8d79eb707E, symObjAddr: 0x13124, symBinAddr: 0x16778, symSize: 0xC }
  - { offset: 0xA9306, size: 0x8, addend: 0x0, symName: '__ZN95_$LT$$RF$mut$u20$serde_json..ser..Serializer$LT$W$C$F$GT$$u20$as$u20$serde..ser..Serializer$GT$16serialize_struct17h51d3002e3386c250E', symObjAddr: 0x13044, symBinAddr: 0x16698, symSize: 0x5C }
  - { offset: 0xA93A4, size: 0x8, addend: 0x0, symName: '__ZN95_$LT$$RF$mut$u20$serde_json..ser..Serializer$LT$W$C$F$GT$$u20$as$u20$serde..ser..Serializer$GT$13serialize_map17hd028d0287f246e45E', symObjAddr: 0x13130, symBinAddr: 0x16784, symSize: 0x4C }
  - { offset: 0xA950D, size: 0x8, addend: 0x0, symName: '__ZN83_$LT$serde_json..ser..Compound$LT$W$C$F$GT$$u20$as$u20$serde..ser..SerializeMap$GT$3end17hee276362ce962844E', symObjAddr: 0x130F0, symBinAddr: 0x16744, symSize: 0x34 }
  - { offset: 0xAA6F4, size: 0x8, addend: 0x0, symName: '__ZN95_$LT$powersync_core..sync..sync_status..DownloadSyncStatus$u20$as$u20$serde..ser..Serialize$GT$9serialize17h8328e277dcf86a2fE', symObjAddr: 0x122E8, symBinAddr: 0x1593C, symSize: 0xD5C }
  - { offset: 0xAE08D, size: 0x8, addend: 0x0, symName: __ZN14powersync_core4util12quote_string17h90cd8b2d933f916aE, symObjAddr: 0x13574, symBinAddr: 0x16BC8, symSize: 0x68 }
  - { offset: 0xAE169, size: 0x8, addend: 0x0, symName: '__ZN73_$LT$powersync_core..util..QuotedString$u20$as$u20$core..fmt..Display$GT$3fmt17h35acb227b9e1cbf0E', symObjAddr: 0x135DC, symBinAddr: 0x16C30, symSize: 0x1B8 }
  - { offset: 0xAE416, size: 0x8, addend: 0x0, symName: __ZN14powersync_core4util15quote_json_path17hba688b0978c2ee14E, symObjAddr: 0x13794, symBinAddr: 0x16DE8, symSize: 0x68 }
  - { offset: 0xAE542, size: 0x8, addend: 0x0, symName: __ZN14powersync_core4util16quote_identifier17h00eafd358e09d490E, symObjAddr: 0x137FC, symBinAddr: 0x16E50, symSize: 0x58 }
  - { offset: 0xAE596, size: 0x8, addend: 0x0, symName: __ZN14powersync_core4util19quote_internal_name17hdd1375977c555ac7E, symObjAddr: 0x13BE0, symBinAddr: 0x17234, symSize: 0x34 }
  - { offset: 0xAE5D3, size: 0x8, addend: 0x0, symName: __ZN14powersync_core4util25quote_identifier_prefixed17h0e91dd4afb5f920eE, symObjAddr: 0x13C14, symBinAddr: 0x17268, symSize: 0x84 }
  - { offset: 0xAFBAC, size: 0x8, addend: 0x0, symName: __ZN14powersync_core4sync11sync_status19SyncStatusContainer12emit_changes17hbd9f7b789d48545cE, symObjAddr: 0x1317C, symBinAddr: 0x167D0, symSize: 0x2F8 }
  - { offset: 0xB1B12, size: 0x8, addend: 0x0, symName: '__ZN4core4cell16RefCell$LT$T$GT$10borrow_mut17h410d2b064874510cE', symObjAddr: 0x13474, symBinAddr: 0x16AC8, symSize: 0x24 }
  - { offset: 0xB1B39, size: 0x8, addend: 0x0, symName: '__ZN4core4cell16RefCell$LT$T$GT$10borrow_mut17h410d2b064874510cE', symObjAddr: 0x13474, symBinAddr: 0x16AC8, symSize: 0x24 }
  - { offset: 0xB1B57, size: 0x8, addend: 0x0, symName: '__ZN4core4cell16RefCell$LT$T$GT$10borrow_mut17h410d2b064874510cE', symObjAddr: 0x13474, symBinAddr: 0x16AC8, symSize: 0x24 }
  - { offset: 0xB1B75, size: 0x8, addend: 0x0, symName: '__ZN4core4cell16RefCell$LT$T$GT$10borrow_mut17h410d2b064874510cE', symObjAddr: 0x13474, symBinAddr: 0x16AC8, symSize: 0x24 }
  - { offset: 0xB1D00, size: 0x8, addend: 0x0, symName: __ZN14powersync_core4sync11sync_status24ActiveStreamSubscription10from_local17h979bf35427dbd238E, symObjAddr: 0x134F0, symBinAddr: 0x16B44, symSize: 0x84 }
  - { offset: 0xB2164, size: 0x8, addend: 0x0, symName: __ZN4core3str7pattern14TwoWaySearcher4next17hdd2bef7ac5abf7cdE, symObjAddr: 0x13A94, symBinAddr: 0x170E8, symSize: 0x14C }
  - { offset: 0xB2E98, size: 0x8, addend: 0x0, symName: _OUTLINED_FUNCTION_17, symObjAddr: 0x3B198, symBinAddr: 0x3D6D8, symSize: 0x14 }
  - { offset: 0xB2EAF, size: 0x8, addend: 0x0, symName: _OUTLINED_FUNCTION_24, symObjAddr: 0x3B210, symBinAddr: 0x3D750, symSize: 0x14 }
  - { offset: 0xB2EC6, size: 0x8, addend: 0x0, symName: _OUTLINED_FUNCTION_53, symObjAddr: 0x3B474, symBinAddr: 0x3D9B4, symSize: 0x14 }
  - { offset: 0xB2EDD, size: 0x8, addend: 0x0, symName: _OUTLINED_FUNCTION_63, symObjAddr: 0x3B520, symBinAddr: 0x3DA60, symSize: 0x18 }
  - { offset: 0xB2EF4, size: 0x8, addend: 0x0, symName: _OUTLINED_FUNCTION_65, symObjAddr: 0x3B548, symBinAddr: 0x3DA88, symSize: 0x10 }
  - { offset: 0xB2F0B, size: 0x8, addend: 0x0, symName: _OUTLINED_FUNCTION_70, symObjAddr: 0x3B59C, symBinAddr: 0x3DADC, symSize: 0x64 }
  - { offset: 0xB2F22, size: 0x8, addend: 0x0, symName: _OUTLINED_FUNCTION_82, symObjAddr: 0x3B6C0, symBinAddr: 0x3DC00, symSize: 0x24 }
  - { offset: 0xB2F39, size: 0x8, addend: 0x0, symName: _OUTLINED_FUNCTION_83, symObjAddr: 0x3B6E4, symBinAddr: 0x3DC24, symSize: 0xC }
  - { offset: 0xB2F50, size: 0x8, addend: 0x0, symName: _OUTLINED_FUNCTION_84, symObjAddr: 0x3B6F0, symBinAddr: 0x3DC30, symSize: 0xC }
  - { offset: 0xB2F67, size: 0x8, addend: 0x0, symName: _OUTLINED_FUNCTION_102, symObjAddr: 0x3B860, symBinAddr: 0x3DDA0, symSize: 0x14 }
  - { offset: 0xB2F7E, size: 0x8, addend: 0x0, symName: _OUTLINED_FUNCTION_106, symObjAddr: 0x3B8C0, symBinAddr: 0x3DE00, symSize: 0x14 }
  - { offset: 0xB2F95, size: 0x8, addend: 0x0, symName: _OUTLINED_FUNCTION_110, symObjAddr: 0x3B908, symBinAddr: 0x3DE48, symSize: 0x14 }
  - { offset: 0xB2FAC, size: 0x8, addend: 0x0, symName: _OUTLINED_FUNCTION_118, symObjAddr: 0x3B9D4, symBinAddr: 0x3DF14, symSize: 0x1C }
  - { offset: 0xB2FC3, size: 0x8, addend: 0x0, symName: _OUTLINED_FUNCTION_139, symObjAddr: 0x3BB7C, symBinAddr: 0x3E0BC, symSize: 0x18 }
  - { offset: 0xB2FDA, size: 0x8, addend: 0x0, symName: _OUTLINED_FUNCTION_142, symObjAddr: 0x3BBD0, symBinAddr: 0x3E110, symSize: 0xC }
  - { offset: 0xB2FF1, size: 0x8, addend: 0x0, symName: _OUTLINED_FUNCTION_150, symObjAddr: 0x3BC40, symBinAddr: 0x3E180, symSize: 0x24 }
  - { offset: 0xB3008, size: 0x8, addend: 0x0, symName: _OUTLINED_FUNCTION_154, symObjAddr: 0x3BCAC, symBinAddr: 0x3E1EC, symSize: 0x24 }
  - { offset: 0xB301F, size: 0x8, addend: 0x0, symName: _OUTLINED_FUNCTION_180, symObjAddr: 0x3BE44, symBinAddr: 0x3E384, symSize: 0x20 }
  - { offset: 0xB3036, size: 0x8, addend: 0x0, symName: _OUTLINED_FUNCTION_182, symObjAddr: 0x3BE74, symBinAddr: 0x3E3B4, symSize: 0x20 }
  - { offset: 0xB304D, size: 0x8, addend: 0x0, symName: _OUTLINED_FUNCTION_198, symObjAddr: 0x3BF78, symBinAddr: 0x3E4B8, symSize: 0x14 }
  - { offset: 0xB3064, size: 0x8, addend: 0x0, symName: _OUTLINED_FUNCTION_202, symObjAddr: 0x3BFB8, symBinAddr: 0x3E4F8, symSize: 0x14 }
  - { offset: 0xB307B, size: 0x8, addend: 0x0, symName: _OUTLINED_FUNCTION_204, symObjAddr: 0x3BFD8, symBinAddr: 0x3E518, symSize: 0x14 }
  - { offset: 0xB3092, size: 0x8, addend: 0x0, symName: _OUTLINED_FUNCTION_206, symObjAddr: 0x3C000, symBinAddr: 0x3E540, symSize: 0x34 }
  - { offset: 0xB30A9, size: 0x8, addend: 0x0, symName: _OUTLINED_FUNCTION_241, symObjAddr: 0x3C200, symBinAddr: 0x3E740, symSize: 0x10 }
  - { offset: 0xB30C0, size: 0x8, addend: 0x0, symName: _OUTLINED_FUNCTION_247, symObjAddr: 0x3C258, symBinAddr: 0x3E798, symSize: 0x1C }
  - { offset: 0xB30D7, size: 0x8, addend: 0x0, symName: _OUTLINED_FUNCTION_248, symObjAddr: 0x3C274, symBinAddr: 0x3E7B4, symSize: 0x1C }
  - { offset: 0xB30EE, size: 0x8, addend: 0x0, symName: _OUTLINED_FUNCTION_250, symObjAddr: 0x3C2A0, symBinAddr: 0x3E7E0, symSize: 0x1C }
  - { offset: 0xB3105, size: 0x8, addend: 0x0, symName: _OUTLINED_FUNCTION_278, symObjAddr: 0x3C420, symBinAddr: 0x3E960, symSize: 0x14 }
  - { offset: 0xB311C, size: 0x8, addend: 0x0, symName: _OUTLINED_FUNCTION_318, symObjAddr: 0x3C630, symBinAddr: 0x3EB70, symSize: 0xC }
  - { offset: 0xB3133, size: 0x8, addend: 0x0, symName: _OUTLINED_FUNCTION_330, symObjAddr: 0x3C6CC, symBinAddr: 0x3EC0C, symSize: 0x10 }
  - { offset: 0xB314A, size: 0x8, addend: 0x0, symName: _OUTLINED_FUNCTION_335, symObjAddr: 0x3C714, symBinAddr: 0x3EC54, symSize: 0x10 }
  - { offset: 0xB3161, size: 0x8, addend: 0x0, symName: _OUTLINED_FUNCTION_339, symObjAddr: 0x3C74C, symBinAddr: 0x3EC8C, symSize: 0x8 }
  - { offset: 0xB3178, size: 0x8, addend: 0x0, symName: _OUTLINED_FUNCTION_353, symObjAddr: 0x3C7FC, symBinAddr: 0x3ED3C, symSize: 0x10 }
  - { offset: 0xB318F, size: 0x8, addend: 0x0, symName: _OUTLINED_FUNCTION_355, symObjAddr: 0x3C818, symBinAddr: 0x3ED58, symSize: 0x10 }
  - { offset: 0xB31A6, size: 0x8, addend: 0x0, symName: _OUTLINED_FUNCTION_356, symObjAddr: 0x3C828, symBinAddr: 0x3ED68, symSize: 0x10 }
  - { offset: 0xB31BD, size: 0x8, addend: 0x0, symName: _OUTLINED_FUNCTION_369, symObjAddr: 0x3C8BC, symBinAddr: 0x3EDFC, symSize: 0x44 }
  - { offset: 0xB31D4, size: 0x8, addend: 0x0, symName: _OUTLINED_FUNCTION_379, symObjAddr: 0x3C98C, symBinAddr: 0x3EECC, symSize: 0x18 }
  - { offset: 0xB31EB, size: 0x8, addend: 0x0, symName: _OUTLINED_FUNCTION_385, symObjAddr: 0x3C9E0, symBinAddr: 0x3EF20, symSize: 0x18 }
  - { offset: 0xB3202, size: 0x8, addend: 0x0, symName: _OUTLINED_FUNCTION_386, symObjAddr: 0x3C9F8, symBinAddr: 0x3EF38, symSize: 0x18 }
  - { offset: 0xB3219, size: 0x8, addend: 0x0, symName: _OUTLINED_FUNCTION_388, symObjAddr: 0x3CA20, symBinAddr: 0x3EF60, symSize: 0x18 }
  - { offset: 0xB3230, size: 0x8, addend: 0x0, symName: _OUTLINED_FUNCTION_389, symObjAddr: 0x3CA38, symBinAddr: 0x3EF78, symSize: 0x18 }
  - { offset: 0xB3247, size: 0x8, addend: 0x0, symName: _OUTLINED_FUNCTION_395, symObjAddr: 0x3CA90, symBinAddr: 0x3EFD0, symSize: 0x18 }
  - { offset: 0xB325E, size: 0x8, addend: 0x0, symName: _OUTLINED_FUNCTION_409, symObjAddr: 0x3CB54, symBinAddr: 0x3F094, symSize: 0x8 }
  - { offset: 0xB3275, size: 0x8, addend: 0x0, symName: _OUTLINED_FUNCTION_410, symObjAddr: 0x3CB5C, symBinAddr: 0x3F09C, symSize: 0x8 }
  - { offset: 0xB328C, size: 0x8, addend: 0x0, symName: _OUTLINED_FUNCTION_432, symObjAddr: 0x3CC48, symBinAddr: 0x3F188, symSize: 0x8 }
  - { offset: 0xB32A3, size: 0x8, addend: 0x0, symName: _OUTLINED_FUNCTION_461, symObjAddr: 0x3CDD0, symBinAddr: 0x3F310, symSize: 0x1C }
  - { offset: 0xB32BA, size: 0x8, addend: 0x0, symName: _OUTLINED_FUNCTION_509, symObjAddr: 0x3D0D4, symBinAddr: 0x3F614, symSize: 0x10 }
  - { offset: 0xB32D1, size: 0x8, addend: 0x0, symName: _OUTLINED_FUNCTION_538, symObjAddr: 0x3D2AC, symBinAddr: 0x3F7EC, symSize: 0x8 }
  - { offset: 0xB32E8, size: 0x8, addend: 0x0, symName: _OUTLINED_FUNCTION_539, symObjAddr: 0x3D2B4, symBinAddr: 0x3F7F4, symSize: 0x8 }
  - { offset: 0xB32FF, size: 0x8, addend: 0x0, symName: _OUTLINED_FUNCTION_551, symObjAddr: 0x3D338, symBinAddr: 0x3F878, symSize: 0x8 }
  - { offset: 0xB3316, size: 0x8, addend: 0x0, symName: _OUTLINED_FUNCTION_567, symObjAddr: 0x3D3E4, symBinAddr: 0x3F924, symSize: 0x14 }
  - { offset: 0xB332D, size: 0x8, addend: 0x0, symName: _OUTLINED_FUNCTION_569, symObjAddr: 0x3D400, symBinAddr: 0x3F940, symSize: 0xC }
  - { offset: 0xB3344, size: 0x8, addend: 0x0, symName: _OUTLINED_FUNCTION_570, symObjAddr: 0x3D40C, symBinAddr: 0x3F94C, symSize: 0x14 }
  - { offset: 0xB335B, size: 0x8, addend: 0x0, symName: _OUTLINED_FUNCTION_574, symObjAddr: 0x3D44C, symBinAddr: 0x3F98C, symSize: 0x14 }
  - { offset: 0xB3372, size: 0x8, addend: 0x0, symName: _OUTLINED_FUNCTION_576, symObjAddr: 0x3D46C, symBinAddr: 0x3F9AC, symSize: 0x14 }
  - { offset: 0xB3389, size: 0x8, addend: 0x0, symName: _OUTLINED_FUNCTION_581, symObjAddr: 0x3D4B0, symBinAddr: 0x3F9F0, symSize: 0xC }
  - { offset: 0xB33A0, size: 0x8, addend: 0x0, symName: _OUTLINED_FUNCTION_586, symObjAddr: 0x3D4F0, symBinAddr: 0x3FA30, symSize: 0x28 }
  - { offset: 0xB33B7, size: 0x8, addend: 0x0, symName: _OUTLINED_FUNCTION_637, symObjAddr: 0x3D814, symBinAddr: 0x3FD54, symSize: 0x24 }
  - { offset: 0xB33CE, size: 0x8, addend: 0x0, symName: _OUTLINED_FUNCTION_657, symObjAddr: 0x3D930, symBinAddr: 0x3FE70, symSize: 0x8 }
  - { offset: 0xB33E5, size: 0x8, addend: 0x0, symName: _OUTLINED_FUNCTION_661, symObjAddr: 0x3D95C, symBinAddr: 0x3FE9C, symSize: 0x8 }
  - { offset: 0xB33FC, size: 0x8, addend: 0x0, symName: _OUTLINED_FUNCTION_723, symObjAddr: 0x3DD14, symBinAddr: 0x40254, symSize: 0x8 }
  - { offset: 0xB3413, size: 0x8, addend: 0x0, symName: _OUTLINED_FUNCTION_742, symObjAddr: 0x3DDF8, symBinAddr: 0x40338, symSize: 0x8 }
  - { offset: 0xB342A, size: 0x8, addend: 0x0, symName: _OUTLINED_FUNCTION_747, symObjAddr: 0x3DE38, symBinAddr: 0x40378, symSize: 0xC }
  - { offset: 0xB3441, size: 0x8, addend: 0x0, symName: _OUTLINED_FUNCTION_767, symObjAddr: 0x3DF68, symBinAddr: 0x404A8, symSize: 0x10 }
  - { offset: 0xB3458, size: 0x8, addend: 0x0, symName: _OUTLINED_FUNCTION_773, symObjAddr: 0x3DFAC, symBinAddr: 0x404EC, symSize: 0x10 }
  - { offset: 0xB346F, size: 0x8, addend: 0x0, symName: _OUTLINED_FUNCTION_774, symObjAddr: 0x3DFBC, symBinAddr: 0x404FC, symSize: 0x8 }
  - { offset: 0xB3486, size: 0x8, addend: 0x0, symName: _OUTLINED_FUNCTION_780, symObjAddr: 0x3E010, symBinAddr: 0x40550, symSize: 0x8 }
  - { offset: 0xB349D, size: 0x8, addend: 0x0, symName: _OUTLINED_FUNCTION_781, symObjAddr: 0x3E018, symBinAddr: 0x40558, symSize: 0x8 }
  - { offset: 0xB34B4, size: 0x8, addend: 0x0, symName: _OUTLINED_FUNCTION_784, symObjAddr: 0x3E044, symBinAddr: 0x40584, symSize: 0xC }
  - { offset: 0xB34CB, size: 0x8, addend: 0x0, symName: _OUTLINED_FUNCTION_814, symObjAddr: 0x3E198, symBinAddr: 0x406D8, symSize: 0x1C }
  - { offset: 0xB34E2, size: 0x8, addend: 0x0, symName: _OUTLINED_FUNCTION_846, symObjAddr: 0x3E35C, symBinAddr: 0x4089C, symSize: 0x10 }
  - { offset: 0xB34F9, size: 0x8, addend: 0x0, symName: _OUTLINED_FUNCTION_854, symObjAddr: 0x3E3DC, symBinAddr: 0x4091C, symSize: 0x10 }
  - { offset: 0xB3510, size: 0x8, addend: 0x0, symName: _OUTLINED_FUNCTION_858, symObjAddr: 0x3E41C, symBinAddr: 0x4095C, symSize: 0x10 }
  - { offset: 0xB3527, size: 0x8, addend: 0x0, symName: _OUTLINED_FUNCTION_859, symObjAddr: 0x3E42C, symBinAddr: 0x4096C, symSize: 0x10 }
  - { offset: 0xB353E, size: 0x8, addend: 0x0, symName: _OUTLINED_FUNCTION_860, symObjAddr: 0x3E43C, symBinAddr: 0x4097C, symSize: 0x10 }
  - { offset: 0xB3555, size: 0x8, addend: 0x0, symName: _OUTLINED_FUNCTION_865, symObjAddr: 0x3E48C, symBinAddr: 0x409CC, symSize: 0x10 }
  - { offset: 0xB356C, size: 0x8, addend: 0x0, symName: _OUTLINED_FUNCTION_909, symObjAddr: 0x3E768, symBinAddr: 0x40CA8, symSize: 0x18 }
  - { offset: 0xB3583, size: 0x8, addend: 0x0, symName: _OUTLINED_FUNCTION_972, symObjAddr: 0x3EA58, symBinAddr: 0x40F98, symSize: 0x8 }
  - { offset: 0xB359A, size: 0x8, addend: 0x0, symName: _OUTLINED_FUNCTION_973, symObjAddr: 0x3EA60, symBinAddr: 0x40FA0, symSize: 0x8 }
  - { offset: 0xB35B1, size: 0x8, addend: 0x0, symName: _OUTLINED_FUNCTION_983, symObjAddr: 0x3EAC0, symBinAddr: 0x41000, symSize: 0xC }
  - { offset: 0xB35C8, size: 0x8, addend: 0x0, symName: _OUTLINED_FUNCTION_987, symObjAddr: 0x3EAE8, symBinAddr: 0x41028, symSize: 0x8 }
  - { offset: 0xB35DF, size: 0x8, addend: 0x0, symName: _OUTLINED_FUNCTION_1007, symObjAddr: 0x3EBA8, symBinAddr: 0x410E8, symSize: 0xC }
  - { offset: 0xB35F6, size: 0x8, addend: 0x0, symName: _OUTLINED_FUNCTION_1038, symObjAddr: 0x3ECD8, symBinAddr: 0x41218, symSize: 0x8 }
  - { offset: 0xB360D, size: 0x8, addend: 0x0, symName: _OUTLINED_FUNCTION_1059, symObjAddr: 0x3EDA4, symBinAddr: 0x412E4, symSize: 0xC }
  - { offset: 0xB3624, size: 0x8, addend: 0x0, symName: _OUTLINED_FUNCTION_1070, symObjAddr: 0x3EE10, symBinAddr: 0x41350, symSize: 0x8 }
  - { offset: 0xB363B, size: 0x8, addend: 0x0, symName: _OUTLINED_FUNCTION_1073, symObjAddr: 0x3EE2C, symBinAddr: 0x4136C, symSize: 0x8 }
  - { offset: 0xB3652, size: 0x8, addend: 0x0, symName: _OUTLINED_FUNCTION_1100, symObjAddr: 0x3EF2C, symBinAddr: 0x4146C, symSize: 0x8 }
  - { offset: 0xB3669, size: 0x8, addend: 0x0, symName: _OUTLINED_FUNCTION_1122, symObjAddr: 0x3F070, symBinAddr: 0x415B0, symSize: 0xC }
  - { offset: 0xB3680, size: 0x8, addend: 0x0, symName: _OUTLINED_FUNCTION_1129, symObjAddr: 0x3F0E4, symBinAddr: 0x41624, symSize: 0xC }
  - { offset: 0xB3697, size: 0x8, addend: 0x0, symName: _OUTLINED_FUNCTION_1147, symObjAddr: 0x3F1EC, symBinAddr: 0x4172C, symSize: 0xC }
  - { offset: 0xB36AE, size: 0x8, addend: 0x0, symName: _OUTLINED_FUNCTION_1153, symObjAddr: 0x3F244, symBinAddr: 0x41784, symSize: 0xC }
  - { offset: 0xB36C5, size: 0x8, addend: 0x0, symName: _OUTLINED_FUNCTION_1161, symObjAddr: 0x3F2C4, symBinAddr: 0x41804, symSize: 0xC }
  - { offset: 0xB36DC, size: 0x8, addend: 0x0, symName: _OUTLINED_FUNCTION_1164, symObjAddr: 0x3F2F0, symBinAddr: 0x41830, symSize: 0x14 }
  - { offset: 0xB36F3, size: 0x8, addend: 0x0, symName: _OUTLINED_FUNCTION_1167, symObjAddr: 0x3F31C, symBinAddr: 0x4185C, symSize: 0xC }
  - { offset: 0xB370A, size: 0x8, addend: 0x0, symName: _OUTLINED_FUNCTION_1171, symObjAddr: 0x3F35C, symBinAddr: 0x4189C, symSize: 0x14 }
  - { offset: 0xB3721, size: 0x8, addend: 0x0, symName: _OUTLINED_FUNCTION_1184, symObjAddr: 0x3F410, symBinAddr: 0x41950, symSize: 0x14 }
  - { offset: 0xB3738, size: 0x8, addend: 0x0, symName: _OUTLINED_FUNCTION_1187, symObjAddr: 0x3F43C, symBinAddr: 0x4197C, symSize: 0x14 }
  - { offset: 0xB374F, size: 0x8, addend: 0x0, symName: _OUTLINED_FUNCTION_1189, symObjAddr: 0x3F464, symBinAddr: 0x419A4, symSize: 0xC }
  - { offset: 0xB3766, size: 0x8, addend: 0x0, symName: _OUTLINED_FUNCTION_1197, symObjAddr: 0x3F4CC, symBinAddr: 0x41A0C, symSize: 0xC }
  - { offset: 0xB377D, size: 0x8, addend: 0x0, symName: _OUTLINED_FUNCTION_1206, symObjAddr: 0x3F548, symBinAddr: 0x41A88, symSize: 0x1C }
  - { offset: 0xB3794, size: 0x8, addend: 0x0, symName: _OUTLINED_FUNCTION_1215, symObjAddr: 0x3F640, symBinAddr: 0x41B80, symSize: 0x1C }
  - { offset: 0xF56C, size: 0x8, addend: 0x0, symName: __ZN4core3str7pattern11StrSearcher3new17h89652154dcc53691E, symObjAddr: 0x1DEC, symBinAddr: 0x5D50, symSize: 0x14C }
  - { offset: 0xF857, size: 0x8, addend: 0x0, symName: __ZN4core3str7pattern14TwoWaySearcher14maximal_suffix17ha7d230c6780f6ef7E, symObjAddr: 0x1F38, symBinAddr: 0x5E9C, symSize: 0xA4 }
  - { offset: 0xF919, size: 0x8, addend: 0x0, symName: __ZN4core3str7pattern14TwoWaySearcher22reverse_maximal_suffix17h0210641d47ce0932E, symObjAddr: 0x1FDC, symBinAddr: 0x5F40, symSize: 0xD8 }
  - { offset: 0xFAB3, size: 0x8, addend: 0x0, symName: _OUTLINED_FUNCTION_11, symObjAddr: 0x3B138, symBinAddr: 0x3D678, symSize: 0x14 }
  - { offset: 0xFACA, size: 0x8, addend: 0x0, symName: _OUTLINED_FUNCTION_243, symObjAddr: 0x3C220, symBinAddr: 0x3E760, symSize: 0xC }
  - { offset: 0xFAE1, size: 0x8, addend: 0x0, symName: _OUTLINED_FUNCTION_285, symObjAddr: 0x3C48C, symBinAddr: 0x3E9CC, symSize: 0xC }
  - { offset: 0xFAF8, size: 0x8, addend: 0x0, symName: _OUTLINED_FUNCTION_1101, symObjAddr: 0x3EF34, symBinAddr: 0x41474, symSize: 0x14 }
  - { offset: 0xFB0F, size: 0x8, addend: 0x0, symName: _OUTLINED_FUNCTION_1131, symObjAddr: 0x3F0FC, symBinAddr: 0x4163C, symSize: 0xC }
  - { offset: 0x1AE0, size: 0x8, addend: 0x0, symName: '__ZN42_$LT$$RF$T$u20$as$u20$core..fmt..Debug$GT$3fmt17ha6cc2b7756a88650E', symObjAddr: 0xEC, symBinAddr: 0x40EC, symSize: 0x194 }
  - { offset: 0x2A1D, size: 0x8, addend: 0x0, symName: '__ZN132_$LT$alloc..vec..Vec$LT$T$C$A$GT$$u20$as$u20$alloc..vec..spec_extend..SpecExtend$LT$$RF$T$C$core..slice..iter..Iter$LT$T$GT$$GT$$GT$11spec_extend17h79a454347214c181E', symObjAddr: 0x34C, symBinAddr: 0x434C, symSize: 0x44 }
  - { offset: 0x2FC1, size: 0x8, addend: 0x0, symName: __ZN5alloc3fmt6format12format_inner17h01548c1e55673266E, symObjAddr: 0x280, symBinAddr: 0x4280, symSize: 0x94 }
  - { offset: 0x3273, size: 0x8, addend: 0x0, symName: '__ZN5alloc5slice29_$LT$impl$u20$$u5b$T$u5d$$GT$9to_vec_in17h6862e7fb0286fcf9E', symObjAddr: 0x3B8, symBinAddr: 0x43B8, symSize: 0x44 }
  - { offset: 0x36C3, size: 0x8, addend: 0x0, symName: '__ZN5alloc3vec16Vec$LT$T$C$A$GT$16with_capacity_in17hecff6cdf09088b40E', symObjAddr: 0x314, symBinAddr: 0x4314, symSize: 0x38 }
  - { offset: 0x3952, size: 0x8, addend: 0x0, symName: '__ZN5alloc3vec16Vec$LT$T$C$A$GT$7reserve17h5f229b82aa23cb6dE', symObjAddr: 0x390, symBinAddr: 0x4390, symSize: 0x28 }
  - { offset: 0x3BD5, size: 0x8, addend: 0x0, symName: '__ZN5alloc3vec16Vec$LT$T$C$A$GT$16into_boxed_slice17h732cd0152497480fE', symObjAddr: 0x3FC, symBinAddr: 0x43FC, symSize: 0x68 }
  - { offset: 0x3EAE, size: 0x8, addend: 0x0, symName: _OUTLINED_FUNCTION_13, symObjAddr: 0x3B164, symBinAddr: 0x3D6A4, symSize: 0xC }
  - { offset: 0x3EC5, size: 0x8, addend: 0x0, symName: _OUTLINED_FUNCTION_16, symObjAddr: 0x3B18C, symBinAddr: 0x3D6CC, symSize: 0xC }
  - { offset: 0x3EDC, size: 0x8, addend: 0x0, symName: _OUTLINED_FUNCTION_31, symObjAddr: 0x3B28C, symBinAddr: 0x3D7CC, symSize: 0x14 }
  - { offset: 0x3EF3, size: 0x8, addend: 0x0, symName: _OUTLINED_FUNCTION_95, symObjAddr: 0x3B7D8, symBinAddr: 0x3DD18, symSize: 0x10 }
  - { offset: 0x3F0A, size: 0x8, addend: 0x0, symName: _OUTLINED_FUNCTION_97, symObjAddr: 0x3B818, symBinAddr: 0x3DD58, symSize: 0x10 }
  - { offset: 0x3F21, size: 0x8, addend: 0x0, symName: _OUTLINED_FUNCTION_108, symObjAddr: 0x3B8E8, symBinAddr: 0x3DE28, symSize: 0xC }
  - { offset: 0x3F38, size: 0x8, addend: 0x0, symName: _OUTLINED_FUNCTION_168, symObjAddr: 0x3BD84, symBinAddr: 0x3E2C4, symSize: 0xC }
  - { offset: 0x3F4F, size: 0x8, addend: 0x0, symName: _OUTLINED_FUNCTION_170, symObjAddr: 0x3BD98, symBinAddr: 0x3E2D8, symSize: 0xC }
  - { offset: 0x3F66, size: 0x8, addend: 0x0, symName: _OUTLINED_FUNCTION_211, symObjAddr: 0x3C068, symBinAddr: 0x3E5A8, symSize: 0xC }
  - { offset: 0x3F7D, size: 0x8, addend: 0x0, symName: _OUTLINED_FUNCTION_212, symObjAddr: 0x3C074, symBinAddr: 0x3E5B4, symSize: 0xC }
  - { offset: 0x3F94, size: 0x8, addend: 0x0, symName: _OUTLINED_FUNCTION_218, symObjAddr: 0x3C0A8, symBinAddr: 0x3E5E8, symSize: 0xC }
  - { offset: 0x3FAB, size: 0x8, addend: 0x0, symName: _OUTLINED_FUNCTION_251, symObjAddr: 0x3C2BC, symBinAddr: 0x3E7FC, symSize: 0x10 }
  - { offset: 0x3FC2, size: 0x8, addend: 0x0, symName: _OUTLINED_FUNCTION_364, symObjAddr: 0x3C880, symBinAddr: 0x3EDC0, symSize: 0xC }
  - { offset: 0x3FD9, size: 0x8, addend: 0x0, symName: _OUTLINED_FUNCTION_418, symObjAddr: 0x3CBC4, symBinAddr: 0x3F104, symSize: 0xC }
  - { offset: 0x3FF0, size: 0x8, addend: 0x0, symName: _OUTLINED_FUNCTION_450, symObjAddr: 0x3CD20, symBinAddr: 0x3F260, symSize: 0xC }
  - { offset: 0x4007, size: 0x8, addend: 0x0, symName: _OUTLINED_FUNCTION_474, symObjAddr: 0x3CE9C, symBinAddr: 0x3F3DC, symSize: 0x8 }
  - { offset: 0x401E, size: 0x8, addend: 0x0, symName: _OUTLINED_FUNCTION_475, symObjAddr: 0x3CEA4, symBinAddr: 0x3F3E4, symSize: 0x1C }
  - { offset: 0x4035, size: 0x8, addend: 0x0, symName: _OUTLINED_FUNCTION_578, symObjAddr: 0x3D48C, symBinAddr: 0x3F9CC, symSize: 0x8 }
  - { offset: 0x404C, size: 0x8, addend: 0x0, symName: _OUTLINED_FUNCTION_867, symObjAddr: 0x3E4AC, symBinAddr: 0x409EC, symSize: 0x1C }
  - { offset: 0x4063, size: 0x8, addend: 0x0, symName: _OUTLINED_FUNCTION_1074, symObjAddr: 0x3EE34, symBinAddr: 0x41374, symSize: 0xC }
  - { offset: 0x407A, size: 0x8, addend: 0x0, symName: _OUTLINED_FUNCTION_1093, symObjAddr: 0x3EEE4, symBinAddr: 0x41424, symSize: 0xC }
  - { offset: 0x1316F2, size: 0x8, addend: 0x0, symName: '__ZN67_$LT$serde_json..raw..RawValue$u20$as$u20$serde..ser..Serialize$GT$9serialize17h01aef28349424829E', symObjAddr: 0x2700C, symBinAddr: 0x29E54, symSize: 0x20 }
  - { offset: 0x1322FB, size: 0x8, addend: 0x0, symName: '__ZN83_$LT$serde_json..ser..Compound$LT$W$C$F$GT$$u20$as$u20$serde..ser..SerializeMap$GT$13serialize_key17h1bfe53b195b72f09E', symObjAddr: 0x26E20, symBinAddr: 0x29C68, symSize: 0x48 }
  - { offset: 0x1323E4, size: 0x8, addend: 0x0, symName: '__ZN83_$LT$serde_json..ser..Compound$LT$W$C$F$GT$$u20$as$u20$serde..ser..SerializeMap$GT$13serialize_key17h22b7f85dac29620aE', symObjAddr: 0x26E88, symBinAddr: 0x29CD0, symSize: 0x48 }
  - { offset: 0x132D91, size: 0x8, addend: 0x0, symName: '__ZN83_$LT$serde_json..ser..Compound$LT$W$C$F$GT$$u20$as$u20$serde..ser..SerializeSeq$GT$3end17h297670222cf602c4E', symObjAddr: 0x26A5C, symBinAddr: 0x298A4, symSize: 0x34 }
  - { offset: 0x132DFC, size: 0x8, addend: 0x0, symName: '__ZN83_$LT$serde_json..ser..Compound$LT$W$C$F$GT$$u20$as$u20$serde..ser..SerializeSeq$GT$17serialize_element17h0007c0e97ed988a5E', symObjAddr: 0x26A9C, symBinAddr: 0x298E4, symSize: 0x48 }
  - { offset: 0x133186, size: 0x8, addend: 0x0, symName: '__ZN95_$LT$$RF$mut$u20$serde_json..ser..Serializer$LT$W$C$F$GT$$u20$as$u20$serde..ser..Serializer$GT$13serialize_seq17h0bbe66a98dac348eE', symObjAddr: 0x26A08, symBinAddr: 0x29850, symSize: 0x54 }
  - { offset: 0x13327C, size: 0x8, addend: 0x0, symName: '__ZN95_$LT$$RF$mut$u20$serde_json..ser..Serializer$LT$W$C$F$GT$$u20$as$u20$serde..ser..Serializer$GT$14serialize_unit17h7d16477f339005f5E', symObjAddr: 0x26DA8, symBinAddr: 0x29BF0, symSize: 0x10 }
  - { offset: 0x1332A9, size: 0x8, addend: 0x0, symName: '__ZN95_$LT$$RF$mut$u20$serde_json..ser..Serializer$LT$W$C$F$GT$$u20$as$u20$serde..ser..Serializer$GT$14serialize_unit17h7d16477f339005f5E', symObjAddr: 0x26DA8, symBinAddr: 0x29BF0, symSize: 0x10 }
  - { offset: 0x1332BD, size: 0x8, addend: 0x0, symName: '__ZN95_$LT$$RF$mut$u20$serde_json..ser..Serializer$LT$W$C$F$GT$$u20$as$u20$serde..ser..Serializer$GT$14serialize_unit17h7d16477f339005f5E', symObjAddr: 0x26DA8, symBinAddr: 0x29BF0, symSize: 0x10 }
  - { offset: 0x1332DB, size: 0x8, addend: 0x0, symName: '__ZN95_$LT$$RF$mut$u20$serde_json..ser..Serializer$LT$W$C$F$GT$$u20$as$u20$serde..ser..Serializer$GT$14serialize_unit17h7d16477f339005f5E', symObjAddr: 0x26DA8, symBinAddr: 0x29BF0, symSize: 0x10 }
  - { offset: 0x1332FF, size: 0x8, addend: 0x0, symName: '__ZN95_$LT$$RF$mut$u20$serde_json..ser..Serializer$LT$W$C$F$GT$$u20$as$u20$serde..ser..Serializer$GT$14serialize_unit17h7d16477f339005f5E', symObjAddr: 0x26DA8, symBinAddr: 0x29BF0, symSize: 0x10 }
  - { offset: 0x133337, size: 0x8, addend: 0x0, symName: '__ZN95_$LT$$RF$mut$u20$serde_json..ser..Serializer$LT$W$C$F$GT$$u20$as$u20$serde..ser..Serializer$GT$14serialize_bool17h8e5af14f1aec2514E', symObjAddr: 0x26DB8, symBinAddr: 0x29C00, symSize: 0x28 }
  - { offset: 0x133373, size: 0x8, addend: 0x0, symName: '__ZN95_$LT$$RF$mut$u20$serde_json..ser..Serializer$LT$W$C$F$GT$$u20$as$u20$serde..ser..Serializer$GT$14serialize_bool17h8e5af14f1aec2514E', symObjAddr: 0x26DB8, symBinAddr: 0x29C00, symSize: 0x28 }
  - { offset: 0x1337E2, size: 0x8, addend: 0x0, symName: __ZN10serde_json3ser9Formatter9end_array17ha533d887c3fe9c70E, symObjAddr: 0x26A90, symBinAddr: 0x298D8, symSize: 0xC }
  - { offset: 0x13381D, size: 0x8, addend: 0x0, symName: __ZN10serde_json3ser9Formatter9end_array17ha533d887c3fe9c70E, symObjAddr: 0x26A90, symBinAddr: 0x298D8, symSize: 0xC }
  - { offset: 0x13383B, size: 0x8, addend: 0x0, symName: __ZN10serde_json3ser9Formatter9end_array17ha533d887c3fe9c70E, symObjAddr: 0x26A90, symBinAddr: 0x298D8, symSize: 0xC }
  - { offset: 0x13385F, size: 0x8, addend: 0x0, symName: __ZN10serde_json3ser9Formatter9end_array17ha533d887c3fe9c70E, symObjAddr: 0x26A90, symBinAddr: 0x298D8, symSize: 0xC }
  - { offset: 0x133929, size: 0x8, addend: 0x0, symName: __ZN10serde_json3ser9Formatter18begin_object_value17h7d815bc768efd021E.2113, symObjAddr: 0x26E68, symBinAddr: 0x29CB0, symSize: 0xC }
  - { offset: 0x133964, size: 0x8, addend: 0x0, symName: __ZN10serde_json3ser9Formatter18begin_object_value17h7d815bc768efd021E.2113, symObjAddr: 0x26E68, symBinAddr: 0x29CB0, symSize: 0xC }
  - { offset: 0x133982, size: 0x8, addend: 0x0, symName: __ZN10serde_json3ser9Formatter18begin_object_value17h7d815bc768efd021E.2113, symObjAddr: 0x26E68, symBinAddr: 0x29CB0, symSize: 0xC }
  - { offset: 0x1339A6, size: 0x8, addend: 0x0, symName: __ZN10serde_json3ser9Formatter18begin_object_value17h7d815bc768efd021E.2113, symObjAddr: 0x26E68, symBinAddr: 0x29CB0, symSize: 0xC }
  - { offset: 0x1339DD, size: 0x8, addend: 0x0, symName: __ZN10serde_json3ser9Formatter16begin_object_key17h03b1d24fd951d5f2E, symObjAddr: 0x26E74, symBinAddr: 0x29CBC, symSize: 0x14 }
  - { offset: 0x133B7A, size: 0x8, addend: 0x0, symName: '__ZN91_$LT$serde_json..ser..RawValueStrEmitter$LT$W$C$F$GT$$u20$as$u20$serde..ser..Serializer$GT$14serialize_bool17h7f853f010663eaf4E', symObjAddr: 0x27118, symBinAddr: 0x42D68, symSize: 0x10 }
  - { offset: 0x133E33, size: 0x8, addend: 0x0, symName: __ZN10serde_json3ser18format_escaped_str17h6f749680e90282d3E, symObjAddr: 0x264C8, symBinAddr: 0x29368, symSize: 0x10C }
  - { offset: 0x1349BA, size: 0x8, addend: 0x0, symName: '__ZN10serde_json5value3ser76_$LT$impl$u20$serde..ser..Serialize$u20$for$u20$serde_json..value..Value$GT$9serialize17h18b2cbdc6a8a59d1E', symObjAddr: 0x26B6C, symBinAddr: 0x299B4, symSize: 0x23C }
  - { offset: 0x13527B, size: 0x8, addend: 0x0, symName: '__ZN189_$LT$serde_with..de..impls..$LT$impl$u20$serde_with..de..DeserializeAs$LT$T$GT$$u20$for$u20$serde_with..DisplayFromStr$GT$..deserialize_as..Helper$LT$S$GT$$u20$as$u20$serde..de..Visitor$GT$9visit_str17hc76149feb310410eE', symObjAddr: 0x265D4, symBinAddr: 0x29474, symSize: 0x48 }
  - { offset: 0x1378F0, size: 0x8, addend: 0x0, symName: '__ZN4core3str21_$LT$impl$u20$str$GT$5parse17h17debdf3f51cd8d9E', symObjAddr: 0x2661C, symBinAddr: 0x294BC, symSize: 0x178 }
  - { offset: 0x137922, size: 0x8, addend: 0x0, symName: '__ZN4core3str21_$LT$impl$u20$str$GT$5parse17h17debdf3f51cd8d9E', symObjAddr: 0x2661C, symBinAddr: 0x294BC, symSize: 0x178 }
  - { offset: 0x137940, size: 0x8, addend: 0x0, symName: '__ZN4core3str21_$LT$impl$u20$str$GT$5parse17h17debdf3f51cd8d9E', symObjAddr: 0x2661C, symBinAddr: 0x294BC, symSize: 0x178 }
  - { offset: 0x137964, size: 0x8, addend: 0x0, symName: '__ZN4core3str21_$LT$impl$u20$str$GT$5parse17h17debdf3f51cd8d9E', symObjAddr: 0x2661C, symBinAddr: 0x294BC, symSize: 0x178 }
  - { offset: 0x1380E2, size: 0x8, addend: 0x0, symName: __ZN4core5slice4sort6shared5pivot11median3_rec17h336f8d560855eea5E, symObjAddr: 0x26834, symBinAddr: 0x296D4, symSize: 0xC0 }
  - { offset: 0x138248, size: 0x8, addend: 0x0, symName: __ZN4core5slice4sort6shared5pivot11median3_rec17hab68f44fb14a7d04E, symObjAddr: 0x268F4, symBinAddr: 0x29794, symSize: 0xBC }
  - { offset: 0x13A77B, size: 0x8, addend: 0x0, symName: '__ZN44_$LT$$RF$T$u20$as$u20$core..fmt..Display$GT$3fmt17h4cd1020e246857d8E', symObjAddr: 0x267AC, symBinAddr: 0x2964C, symSize: 0x88 }
  - { offset: 0x13BC14, size: 0x8, addend: 0x0, symName: __ZN5serde2de7Visitor11visit_bytes17h2c258487bfe80742E, symObjAddr: 0x269B0, symBinAddr: 0x42D10, symSize: 0x2C }
  - { offset: 0x13BC64, size: 0x8, addend: 0x0, symName: __ZN5serde2de7Visitor9visit_i6417hb176a2aba6ed5968E, symObjAddr: 0x269DC, symBinAddr: 0x42D3C, symSize: 0x2C }
  - { offset: 0x13BD60, size: 0x8, addend: 0x0, symName: '__ZN41_$LT$T$u20$as$u20$serde..de..Expected$GT$3fmt17ha210cb5de9a160c5E', symObjAddr: 0x26794, symBinAddr: 0x29634, symSize: 0x18 }
  - { offset: 0x13C564, size: 0x8, addend: 0x0, symName: __ZN5serde3ser12SerializeMap15serialize_entry17h759489f386f44425E, symObjAddr: 0x26DE0, symBinAddr: 0x29C28, symSize: 0x40 }
  - { offset: 0x13C5EE, size: 0x8, addend: 0x0, symName: __ZN5serde3ser12SerializeMap15serialize_entry17h0df243f2eb5ca544E, symObjAddr: 0x26ED0, symBinAddr: 0x29D18, symSize: 0x34 }
  - { offset: 0x13C6A9, size: 0x8, addend: 0x0, symName: __ZN5serde3ser12SerializeMap15serialize_entry17h0fc64982720c6277E, symObjAddr: 0x26F04, symBinAddr: 0x29D4C, symSize: 0x6C }
  - { offset: 0x13C8F4, size: 0x8, addend: 0x0, symName: __ZN5serde3ser12SerializeMap15serialize_entry17h2e78d0671ead73b5E, symObjAddr: 0x26F70, symBinAddr: 0x29DB8, symSize: 0x60 }
  - { offset: 0x13C9C2, size: 0x8, addend: 0x0, symName: __ZN5serde3ser12SerializeMap15serialize_entry17h88e0b3c440943d44E, symObjAddr: 0x26FD0, symBinAddr: 0x29E18, symSize: 0x3C }
  - { offset: 0x13CA5E, size: 0x8, addend: 0x0, symName: __ZN5serde3ser12SerializeMap15serialize_entry17hf0cd2cb86c5f64f3E, symObjAddr: 0x2702C, symBinAddr: 0x29E74, symSize: 0x58 }
  - { offset: 0x13CB6E, size: 0x8, addend: 0x0, symName: __ZN5serde3ser12SerializeMap15serialize_entry17hf5f4baf2d027319aE, symObjAddr: 0x27084, symBinAddr: 0x29ECC, symSize: 0x3C }
  - { offset: 0x13D416, size: 0x8, addend: 0x0, symName: __ZN5serde3ser10Serializer11collect_seq17ha3c51d0aa0ab6609E, symObjAddr: 0x26AE4, symBinAddr: 0x2992C, symSize: 0x88 }
  - { offset: 0x13E4B9, size: 0x8, addend: 0x0, symName: '__ZN86_$LT$alloc..vec..into_iter..IntoIter$LT$T$C$A$GT$$u20$as$u20$core..ops..drop..Drop$GT$4drop17h6fdb027d0103633bE', symObjAddr: 0x270C0, symBinAddr: 0x29F08, symSize: 0x58 }
  - { offset: 0x1408F8, size: 0x8, addend: 0x0, symName: _OUTLINED_FUNCTION_137, symObjAddr: 0x3BB58, symBinAddr: 0x3E098, symSize: 0xC }
  - { offset: 0x14090F, size: 0x8, addend: 0x0, symName: _OUTLINED_FUNCTION_352, symObjAddr: 0x3C7F0, symBinAddr: 0x3ED30, symSize: 0xC }
  - { offset: 0x140926, size: 0x8, addend: 0x0, symName: _OUTLINED_FUNCTION_741, symObjAddr: 0x3DDEC, symBinAddr: 0x4032C, symSize: 0xC }
  - { offset: 0x14093D, size: 0x8, addend: 0x0, symName: _OUTLINED_FUNCTION_776, symObjAddr: 0x3DFE0, symBinAddr: 0x40520, symSize: 0x10 }
  - { offset: 0x140954, size: 0x8, addend: 0x0, symName: _OUTLINED_FUNCTION_847, symObjAddr: 0x3E36C, symBinAddr: 0x408AC, symSize: 0x10 }
  - { offset: 0x14096B, size: 0x8, addend: 0x0, symName: _OUTLINED_FUNCTION_1022, symObjAddr: 0x3EC3C, symBinAddr: 0x4117C, symSize: 0x8 }
  - { offset: 0x140982, size: 0x8, addend: 0x0, symName: _OUTLINED_FUNCTION_1023, symObjAddr: 0x3EC44, symBinAddr: 0x41184, symSize: 0x8 }
  - { offset: 0x140999, size: 0x8, addend: 0x0, symName: _OUTLINED_FUNCTION_1024, symObjAddr: 0x3EC4C, symBinAddr: 0x4118C, symSize: 0xC }
  - { offset: 0x1409B0, size: 0x8, addend: 0x0, symName: _OUTLINED_FUNCTION_1025, symObjAddr: 0x3EC58, symBinAddr: 0x41198, symSize: 0xC }
  - { offset: 0x1BB14A, size: 0x8, addend: 0x0, symName: '__ZN71_$LT$serde_json..raw..BoxedFromString$u20$as$u20$serde..de..Visitor$GT$9visit_str17h288a85b61c779997E', symObjAddr: 0x3A078, symBinAddr: 0x3C5C4, symSize: 0x2C }
  - { offset: 0x1BB1DD, size: 0x8, addend: 0x0, symName: '__ZN68_$LT$serde_json..raw..RawValue$u20$as$u20$alloc..borrow..ToOwned$GT$8to_owned17h5eacb8968fb3a2ccE', symObjAddr: 0x39FD4, symBinAddr: 0x3C520, symSize: 0x24 }
  - { offset: 0x1BB36E, size: 0x8, addend: 0x0, symName: '__ZN81_$LT$serde_json..raw..BorrowedRawDeserializer$u20$as$u20$serde..de..MapAccess$GT$13next_key_seed17hd92586d326fa9c7cE', symObjAddr: 0x3A028, symBinAddr: 0x3C574, symSize: 0x50 }
  - { offset: 0x1BC7E6, size: 0x8, addend: 0x0, symName: '__ZN4core3cmp5impls69_$LT$impl$u20$core..cmp..PartialEq$LT$$RF$B$GT$$u20$for$u20$$RF$A$GT$2eq17h4d9568ddde0c621cE', symObjAddr: 0x3A024, symBinAddr: 0x3C570, symSize: 0x4 }
  - { offset: 0x1BCB32, size: 0x8, addend: 0x0, symName: '__ZN4core5slice3cmp56_$LT$impl$u20$core..cmp..Ord$u20$for$u20$$u5b$T$u5d$$GT$3cmp17h1bf904c38741a6c7E', symObjAddr: 0x398E0, symBinAddr: 0x3BE2C, symSize: 0x44 }
  - { offset: 0x1BCFE1, size: 0x8, addend: 0x0, symName: '__ZN108_$LT$alloc..collections..btree..map..Iter$LT$K$C$V$GT$$u20$as$u20$core..iter..traits..iterator..Iterator$GT$4next17h08e120f0c3688095E', symObjAddr: 0x397C4, symBinAddr: 0x3BD10, symSize: 0xC8 }
  - { offset: 0x1BD8C3, size: 0x8, addend: 0x0, symName: '__ZN99_$LT$alloc..collections..btree..map..BTreeMap$LT$K$C$V$C$A$GT$$u20$as$u20$core..ops..drop..Drop$GT$4drop17h1e891d846797d0f4E', symObjAddr: 0x39EB8, symBinAddr: 0x3C404, symSize: 0x11C }
  - { offset: 0x1BEE26, size: 0x8, addend: 0x0, symName: '__ZN41_$LT$T$u20$as$u20$serde..de..Expected$GT$3fmt17h0ffaea0adf358c49E', symObjAddr: 0x3988C, symBinAddr: 0x3BDD8, symSize: 0x24 }
  - { offset: 0x1BEEA0, size: 0x8, addend: 0x0, symName: '__ZN41_$LT$T$u20$as$u20$serde..de..Expected$GT$3fmt17h16530ca69b139559E', symObjAddr: 0x398B0, symBinAddr: 0x3BDFC, symSize: 0x18 }
  - { offset: 0x1BEF1A, size: 0x8, addend: 0x0, symName: '__ZN41_$LT$T$u20$as$u20$serde..de..Expected$GT$3fmt17hf35f0a9e3b13276bE', symObjAddr: 0x398C8, symBinAddr: 0x3BE14, symSize: 0x18 }
  - { offset: 0x1BF340, size: 0x8, addend: 0x0, symName: '__ZN5alloc11collections5btree3map25BTreeMap$LT$K$C$V$C$A$GT$3get17h5949bf0e8c5b8b10E', symObjAddr: 0x39924, symBinAddr: 0x3BE70, symSize: 0x8C }
  - { offset: 0x1BF8C0, size: 0x8, addend: 0x0, symName: '__ZN5alloc11collections5btree3map25BTreeMap$LT$K$C$V$C$A$GT$6insert17h4d4ce4a492022832E', symObjAddr: 0x399B0, symBinAddr: 0x3BEFC, symSize: 0x508 }
  - { offset: 0x1C1063, size: 0x8, addend: 0x0, symName: __ZN5alloc6string6String14into_boxed_str17h7a4e74f732f7d2a9E, symObjAddr: 0x39FF8, symBinAddr: 0x3C544, symSize: 0x2C }
  - { offset: 0x1C1100, size: 0x8, addend: 0x0, symName: _OUTLINED_FUNCTION_967, symObjAddr: 0x3EA20, symBinAddr: 0x40F60, symSize: 0xC }
  - { offset: 0x187D3E, size: 0x8, addend: 0x0, symName: '__ZN145_$LT$$LT$powersync_core..sync..checksum..Checksum$u20$as$u20$serde..de..Deserialize$GT$..deserialize..MyVisitor$u20$as$u20$serde..de..Visitor$GT$9visit_i6417had67e7ffc6858e2eE', symObjAddr: 0x33B44, symBinAddr: 0x36638, symSize: 0x58 }
  - { offset: 0x187DD7, size: 0x8, addend: 0x0, symName: '__ZN145_$LT$$LT$powersync_core..sync..checksum..Checksum$u20$as$u20$serde..de..Deserialize$GT$..deserialize..MyVisitor$u20$as$u20$serde..de..Visitor$GT$9visit_i6417hbdff49d9cba0d7c3E', symObjAddr: 0x33B9C, symBinAddr: 0x36690, symSize: 0x58 }
  - { offset: 0x187EBE, size: 0x8, addend: 0x0, symName: '__ZN83_$LT$powersync_core..sync..checksum..Checksum$u20$as$u20$serde..de..Deserialize$GT$11deserialize17h01f1425e202ec999E', symObjAddr: 0x33844, symBinAddr: 0x36338, symSize: 0xF4 }
  - { offset: 0x187F80, size: 0x8, addend: 0x0, symName: '__ZN83_$LT$powersync_core..sync..checksum..Checksum$u20$as$u20$serde..de..Deserialize$GT$11deserialize17h4924e2688668b7cdE', symObjAddr: 0x33938, symBinAddr: 0x3642C, symSize: 0x20C }
  - { offset: 0x1882FE, size: 0x8, addend: 0x0, symName: '__ZN79_$LT$powersync_core..sync..checksum..Checksum$u20$as$u20$core..fmt..Display$GT$3fmt17hd5011b34e429c549E', symObjAddr: 0x337E8, symBinAddr: 0x362DC, symSize: 0x5C }
  - { offset: 0x1887F9, size: 0x8, addend: 0x0, symName: '__ZN14powersync_core4sync13subscriptions1_99_$LT$impl$u20$serde..de..Deserialize$u20$for$u20$powersync_core..sync..subscriptions..StreamKey$GT$11deserialize17hed02324c0c42f58aE', symObjAddr: 0x34A18, symBinAddr: 0x3750C, symSize: 0x3B4 }
  - { offset: 0x189A59, size: 0x8, addend: 0x0, symName: __ZN14powersync_core8fix_data39powersync_remove_duplicate_key_encoding17hafdfac3784c34390E, symObjAddr: 0x334AC, symBinAddr: 0x35FA0, symSize: 0x264 }
  - { offset: 0x18A865, size: 0x8, addend: 0x0, symName: '__ZN95_$LT$$BP$mut$u20$sqlite3_capi..bindings..sqlite3$u20$as$u20$sqlite_nostd..nostd..Connection$GT$9exec_safe17h3f8926a20cc1984dE.2723', symObjAddr: 0x3475C, symBinAddr: 0x37250, symSize: 0x54 }
  - { offset: 0x18B13C, size: 0x8, addend: 0x0, symName: '__ZN4core3ptr67drop_in_place$LT$powersync_core..sync..subscriptions..StreamKey$GT$17h2d62a0303d676b41E.2716', symObjAddr: 0x33C1C, symBinAddr: 0x36710, symSize: 0x30 }
  - { offset: 0x18B2D2, size: 0x8, addend: 0x0, symName: '__ZN4core3ptr94drop_in_place$LT$core..option..Option$LT$powersync_core..sync_local..ParsedSchemaTable$GT$$GT$17h8adfff766fa9230aE', symObjAddr: 0x34714, symBinAddr: 0x37208, symSize: 0x48 }
  - { offset: 0x18B394, size: 0x8, addend: 0x0, symName: '__ZN4core3ptr114drop_in_place$LT$core..option..Option$LT$powersync_core..sync_local..SyncOperation..apply..CachedStatement$GT$$GT$17h22db13690e2e6c2cE', symObjAddr: 0x347B0, symBinAddr: 0x372A4, symSize: 0x38 }
  - { offset: 0x18B47F, size: 0x8, addend: 0x0, symName: '__ZN4core3ptr45drop_in_place$LT$serde_json..value..Value$GT$17h3015c761c6bcb32bE.2725', symObjAddr: 0x34930, symBinAddr: 0x37424, symSize: 0x58 }
  - { offset: 0x18B550, size: 0x8, addend: 0x0, symName: '__ZN4core3ptr83drop_in_place$LT$powersync_core..sync..subscriptions..SubscriptionChangeRequest$GT$17hdfe562abe700bc69E', symObjAddr: 0x349FC, symBinAddr: 0x374F0, symSize: 0x1C }
  - { offset: 0x18D884, size: 0x8, addend: 0x0, symName: '__ZN4core3str6traits66_$LT$impl$u20$core..ops..index..Index$LT$I$GT$$u20$for$u20$str$GT$5index17h70563a8706b95686E', symObjAddr: 0x333B0, symBinAddr: 0x35ED0, symSize: 0x54 }
  - { offset: 0x18D8C4, size: 0x8, addend: 0x0, symName: '__ZN4core3str6traits66_$LT$impl$u20$core..ops..index..Index$LT$I$GT$$u20$for$u20$str$GT$5index17h70563a8706b95686E', symObjAddr: 0x333B0, symBinAddr: 0x35ED0, symSize: 0x54 }
  - { offset: 0x18D8E6, size: 0x8, addend: 0x0, symName: '__ZN4core3str6traits66_$LT$impl$u20$core..ops..index..Index$LT$I$GT$$u20$for$u20$str$GT$5index17h70563a8706b95686E', symObjAddr: 0x333B0, symBinAddr: 0x35ED0, symSize: 0x54 }
  - { offset: 0x18D977, size: 0x8, addend: 0x0, symName: '__ZN4core3str6traits66_$LT$impl$u20$core..ops..index..Index$LT$I$GT$$u20$for$u20$str$GT$5index17hcd3dfcd854cf1e34E', symObjAddr: 0x33430, symBinAddr: 0x35F24, symSize: 0x34 }
  - { offset: 0x18DB82, size: 0x8, addend: 0x0, symName: '__ZN4core3str6traits112_$LT$impl$u20$core..slice..index..SliceIndex$LT$str$GT$$u20$for$u20$core..ops..range..RangeFrom$LT$usize$GT$$GT$3get17he2d12c3aba19a488E', symObjAddr: 0x337B4, symBinAddr: 0x362A8, symSize: 0x34 }
  - { offset: 0x18DBC4, size: 0x8, addend: 0x0, symName: '__ZN4core3str6traits112_$LT$impl$u20$core..slice..index..SliceIndex$LT$str$GT$$u20$for$u20$core..ops..range..RangeFrom$LT$usize$GT$$GT$3get17he2d12c3aba19a488E', symObjAddr: 0x337B4, symBinAddr: 0x362A8, symSize: 0x34 }
  - { offset: 0x18DE29, size: 0x8, addend: 0x0, symName: '__ZN102_$LT$core..str..iter..CharIndices$u20$as$u20$core..iter..traits..double_ended..DoubleEndedIterator$GT$9next_back17hea39632fc11fac71E', symObjAddr: 0x33710, symBinAddr: 0x36204, symSize: 0xA4 }
  - { offset: 0x190574, size: 0x8, addend: 0x0, symName: '__ZN4core5slice29_$LT$impl$u20$$u5b$T$u5d$$GT$15copy_from_slice17hc5e61fd147532fe9E', symObjAddr: 0x332AC, symBinAddr: 0x35E24, symSize: 0x28 }
  - { offset: 0x1906EC, size: 0x8, addend: 0x0, symName: '__ZN104_$LT$core..iter..adapters..cloned..Cloned$LT$I$GT$$u20$as$u20$core..iter..traits..iterator..Iterator$GT$4next17h0b1912b058d3bdcdE', symObjAddr: 0x331F0, symBinAddr: 0x35D68, symSize: 0x34 }
  - { offset: 0x191308, size: 0x8, addend: 0x0, symName: '__ZN84_$LT$serde..de..value..StrDeserializer$LT$E$GT$$u20$as$u20$serde..de..EnumAccess$GT$12variant_seed17h8cc957479020470bE', symObjAddr: 0x33404, symBinAddr: 0x43090, symSize: 0x2C }
  - { offset: 0x19160E, size: 0x8, addend: 0x0, symName: __ZN5serde2de7Visitor11visit_bytes17h3deabe6bab794618E, symObjAddr: 0x33358, symBinAddr: 0x43038, symSize: 0x2C }
  - { offset: 0x19165F, size: 0x8, addend: 0x0, symName: __ZN5serde2de7Visitor9visit_str17hb5a78628d0a261a1E, symObjAddr: 0x33384, symBinAddr: 0x43064, symSize: 0x2C }
  - { offset: 0x19172F, size: 0x8, addend: 0x0, symName: '__ZN41_$LT$T$u20$as$u20$serde..de..Expected$GT$3fmt17h19b3142abdbc8e45E', symObjAddr: 0x33224, symBinAddr: 0x35D9C, symSize: 0x14 }
  - { offset: 0x1917A8, size: 0x8, addend: 0x0, symName: '__ZN41_$LT$T$u20$as$u20$serde..de..Expected$GT$3fmt17h2878c960b8f565b0E', symObjAddr: 0x33238, symBinAddr: 0x35DB0, symSize: 0x18 }
  - { offset: 0x191821, size: 0x8, addend: 0x0, symName: '__ZN41_$LT$T$u20$as$u20$serde..de..Expected$GT$3fmt17h45e3992dbef63fa8E', symObjAddr: 0x33250, symBinAddr: 0x35DC8, symSize: 0x18 }
  - { offset: 0x19189A, size: 0x8, addend: 0x0, symName: '__ZN41_$LT$T$u20$as$u20$serde..de..Expected$GT$3fmt17h7cd26695dee15108E', symObjAddr: 0x33268, symBinAddr: 0x35DE0, symSize: 0x18 }
  - { offset: 0x191912, size: 0x8, addend: 0x0, symName: '__ZN41_$LT$T$u20$as$u20$serde..de..Expected$GT$3fmt17h7e6aa65925f564b7E', symObjAddr: 0x33280, symBinAddr: 0x35DF8, symSize: 0x2C }
  - { offset: 0x1941DC, size: 0x8, addend: 0x0, symName: '__ZN5alloc4sync16Arc$LT$T$C$A$GT$9drop_slow17hdb78ad5dbad0c4d1E', symObjAddr: 0x332D4, symBinAddr: 0x35E4C, symSize: 0x2C }
  - { offset: 0x1941FF, size: 0x8, addend: 0x0, symName: '__ZN5alloc4sync16Arc$LT$T$C$A$GT$9drop_slow17hdb78ad5dbad0c4d1E', symObjAddr: 0x332D4, symBinAddr: 0x35E4C, symSize: 0x2C }
  - { offset: 0x194214, size: 0x8, addend: 0x0, symName: '__ZN5alloc4sync16Arc$LT$T$C$A$GT$9drop_slow17hdb78ad5dbad0c4d1E', symObjAddr: 0x332D4, symBinAddr: 0x35E4C, symSize: 0x2C }
  - { offset: 0x194401, size: 0x8, addend: 0x0, symName: '__ZN5alloc4sync16Arc$LT$T$C$A$GT$9drop_slow17he373d84b3bf051c8E', symObjAddr: 0x33300, symBinAddr: 0x35E78, symSize: 0x58 }
  - { offset: 0x194712, size: 0x8, addend: 0x0, symName: __ZN12sqlite_nostd5nostd11ManagedStmt11column_text17h5c3ec0fbe87d7d38E.2668, symObjAddr: 0x33464, symBinAddr: 0x35F58, symSize: 0x34 }
  - { offset: 0x19477E, size: 0x8, addend: 0x0, symName: __ZN12sqlite_nostd5nostd11ManagedStmt9bind_text17hce20d91db352c96eE.2672, symObjAddr: 0x33498, symBinAddr: 0x35F8C, symSize: 0x14 }
  - { offset: 0x194C7E, size: 0x8, addend: 0x0, symName: __ZN12sqlite_nostd5nostd11ManagedStmt8bind_int17hcae9d74ba618c0f2E.2714, symObjAddr: 0x33BF4, symBinAddr: 0x366E8, symSize: 0x14 }
  - { offset: 0x194CBE, size: 0x8, addend: 0x0, symName: __ZN12sqlite_nostd5nostd11ManagedStmt9bind_null17hdb0b29c0888445cfE.2715, symObjAddr: 0x33C08, symBinAddr: 0x366FC, symSize: 0x14 }
  - { offset: 0x19569F, size: 0x8, addend: 0x0, symName: __ZN14powersync_core10sync_local13SyncOperation5apply17h8fb3ef0d05042208E, symObjAddr: 0x33C4C, symBinAddr: 0x36740, symSize: 0xAC8 }
  - { offset: 0x196FFE, size: 0x8, addend: 0x0, symName: __ZN14powersync_core10sync_local28RawTableWithCachedStatements14prepare_lazily17hd8b1ec2db45abf62E, symObjAddr: 0x347E8, symBinAddr: 0x372DC, symSize: 0x148 }
  - { offset: 0x1973A9, size: 0x8, addend: 0x0, symName: __ZN14powersync_core10sync_local13SyncOperation10use_schema17hf91913534b9b6a31E, symObjAddr: 0x34988, symBinAddr: 0x3747C, symSize: 0x74 }
  - { offset: 0x197485, size: 0x8, addend: 0x0, symName: _OUTLINED_FUNCTION_120, symObjAddr: 0x3B9FC, symBinAddr: 0x3DF3C, symSize: 0xC }
  - { offset: 0x19749C, size: 0x8, addend: 0x0, symName: _OUTLINED_FUNCTION_447, symObjAddr: 0x3CCFC, symBinAddr: 0x3F23C, symSize: 0xC }
  - { offset: 0x1974B3, size: 0x8, addend: 0x0, symName: _OUTLINED_FUNCTION_477, symObjAddr: 0x3CEDC, symBinAddr: 0x3F41C, symSize: 0x1C }
  - { offset: 0x1974CA, size: 0x8, addend: 0x0, symName: _OUTLINED_FUNCTION_563, symObjAddr: 0x3D3BC, symBinAddr: 0x3F8FC, symSize: 0xC }
  - { offset: 0x1974E1, size: 0x8, addend: 0x0, symName: _OUTLINED_FUNCTION_568, symObjAddr: 0x3D3F8, symBinAddr: 0x3F938, symSize: 0x8 }
  - { offset: 0x1974F8, size: 0x8, addend: 0x0, symName: _OUTLINED_FUNCTION_764, symObjAddr: 0x3DF40, symBinAddr: 0x40480, symSize: 0x10 }
  - { offset: 0x19750F, size: 0x8, addend: 0x0, symName: _OUTLINED_FUNCTION_785, symObjAddr: 0x3E050, symBinAddr: 0x40590, symSize: 0x8 }
  - { offset: 0x197526, size: 0x8, addend: 0x0, symName: _OUTLINED_FUNCTION_810, symObjAddr: 0x3E150, symBinAddr: 0x40690, symSize: 0x1C }
  - { offset: 0x19753D, size: 0x8, addend: 0x0, symName: _OUTLINED_FUNCTION_901, symObjAddr: 0x3E6F0, symBinAddr: 0x40C30, symSize: 0xC }
  - { offset: 0x197554, size: 0x8, addend: 0x0, symName: _OUTLINED_FUNCTION_906, symObjAddr: 0x3E738, symBinAddr: 0x40C78, symSize: 0xC }
  - { offset: 0x19756B, size: 0x8, addend: 0x0, symName: _OUTLINED_FUNCTION_945, symObjAddr: 0x3E91C, symBinAddr: 0x40E5C, symSize: 0x8 }
  - { offset: 0x197582, size: 0x8, addend: 0x0, symName: _OUTLINED_FUNCTION_961, symObjAddr: 0x3E9E4, symBinAddr: 0x40F24, symSize: 0x8 }
  - { offset: 0x197599, size: 0x8, addend: 0x0, symName: _OUTLINED_FUNCTION_1026, symObjAddr: 0x3EC64, symBinAddr: 0x411A4, symSize: 0xC }
  - { offset: 0x1975B0, size: 0x8, addend: 0x0, symName: _OUTLINED_FUNCTION_1039, symObjAddr: 0x3ECE0, symBinAddr: 0x41220, symSize: 0xC }
  - { offset: 0x1975C7, size: 0x8, addend: 0x0, symName: _OUTLINED_FUNCTION_1041, symObjAddr: 0x3ECF4, symBinAddr: 0x41234, symSize: 0xC }
  - { offset: 0x1975DE, size: 0x8, addend: 0x0, symName: _OUTLINED_FUNCTION_1065, symObjAddr: 0x3EDE4, symBinAddr: 0x41324, symSize: 0x8 }
  - { offset: 0xCACC5, size: 0x8, addend: 0x0, symName: __ZN5serde2de7Visitor11visit_bytes17h3ef4cb80eb2051fcE, symObjAddr: 0x15E5C, symBinAddr: 0x42698, symSize: 0x2C }
  - { offset: 0xCAD16, size: 0x8, addend: 0x0, symName: __ZN5serde2de7Visitor9visit_str17hf9cb675c824cab68E, symObjAddr: 0x15E88, symBinAddr: 0x426C4, symSize: 0x2C }
  - { offset: 0xCAF42, size: 0x8, addend: 0x0, symName: '__ZN41_$LT$T$u20$as$u20$serde..de..Expected$GT$3fmt17h71639f10ed9cb0f3E', symObjAddr: 0x15DDC, symBinAddr: 0x192F4, symSize: 0x18 }
  - { offset: 0xCAFBB, size: 0x8, addend: 0x0, symName: '__ZN41_$LT$T$u20$as$u20$serde..de..Expected$GT$3fmt17hcc610f1840e5d25aE', symObjAddr: 0x15DF4, symBinAddr: 0x1930C, symSize: 0x18 }
  - { offset: 0xCB43B, size: 0x8, addend: 0x0, symName: '__ZN84_$LT$serde..__private..de..content..ContentVisitor$u20$as$u20$serde..de..Visitor$GT$9visit_str17h481b4d4ab372432aE', symObjAddr: 0x15EE4, symBinAddr: 0x193A4, symSize: 0x4C }
  - { offset: 0xCBA85, size: 0x8, addend: 0x0, symName: '__ZN164_$LT$$LT$powersync_core..sync..bucket_priority..BucketPriority$u20$as$u20$serde..de..Deserialize$GT$..deserialize..PriorityVisitor$u20$as$u20$serde..de..Visitor$GT$9visit_i3217h439cdb378349773cE', symObjAddr: 0x187F8, symBinAddr: 0x1BCB8, symSize: 0x60 }
  - { offset: 0xCBB50, size: 0x8, addend: 0x0, symName: '__ZN164_$LT$$LT$powersync_core..sync..bucket_priority..BucketPriority$u20$as$u20$serde..de..Deserialize$GT$..deserialize..PriorityVisitor$u20$as$u20$serde..de..Visitor$GT$9visit_i3217h51f9851548e6e827E', symObjAddr: 0x18858, symBinAddr: 0x1BD18, symSize: 0x60 }
  - { offset: 0xCBC43, size: 0x8, addend: 0x0, symName: '__ZN96_$LT$powersync_core..sync..bucket_priority..BucketPriority$u20$as$u20$serde..de..Deserialize$GT$11deserialize17h7ebd458f733f5ceaE', symObjAddr: 0x18564, symBinAddr: 0x1BA24, symSize: 0xF4 }
  - { offset: 0xCBD05, size: 0x8, addend: 0x0, symName: '__ZN96_$LT$powersync_core..sync..bucket_priority..BucketPriority$u20$as$u20$serde..de..Deserialize$GT$11deserialize17hbc7ad47c014c4bf1E', symObjAddr: 0x18658, symBinAddr: 0x1BB18, symSize: 0x1A0 }
  - { offset: 0xCC028, size: 0x8, addend: 0x0, symName: '__ZN107_$LT$powersync_core..sync..bucket_priority..BucketPriority$u20$as$u20$core..convert..TryFrom$LT$i32$GT$$GT$8try_from17heb1b838801370ea6E', symObjAddr: 0x1851C, symBinAddr: 0x1B9DC, symSize: 0x48 }
  - { offset: 0xCC05C, size: 0x8, addend: 0x0, symName: '__ZN95_$LT$powersync_core..sync..bucket_priority..BucketPriority$u20$as$u20$serde..ser..Serialize$GT$9serialize17h5416b22b3dc0b0feE', symObjAddr: 0x188B8, symBinAddr: 0x1BD78, symSize: 0xFC }
  - { offset: 0xCC7A9, size: 0x8, addend: 0x0, symName: __ZN14powersync_core4sync10operations24insert_bucket_operations17hd65b3b1271f6a684E, symObjAddr: 0x16F08, symBinAddr: 0x1A3C8, symSize: 0x724 }
  - { offset: 0xCD74B, size: 0x8, addend: 0x0, symName: __ZN14powersync_core10operations13delete_bucket17hca88ebf4db0415d2E, symObjAddr: 0x176C0, symBinAddr: 0x1AB80, symSize: 0x164 }
  - { offset: 0xCDC26, size: 0x8, addend: 0x0, symName: __ZN14powersync_core6schema10management24powersync_replace_schema17h1707d762872eecdaE, symObjAddr: 0x17824, symBinAddr: 0x1ACE4, symSize: 0xE0 }
  - { offset: 0xCE430, size: 0x8, addend: 0x0, symName: __ZN14powersync_core6schema10management29powersync_replace_schema_impl17ha88ccde6f99685c4E, symObjAddr: 0x17904, symBinAddr: 0x1ADC4, symSize: 0xBE0 }
  - { offset: 0xCFF5F, size: 0x8, addend: 0x0, symName: __ZN14powersync_core2kv9client_id17hf460c1b29b2176c9E, symObjAddr: 0x15F30, symBinAddr: 0x193F0, symSize: 0xAC }
  - { offset: 0xD012D, size: 0x8, addend: 0x0, symName: __ZN14powersync_core2kv19powersync_client_id17hb22f67b58d3c105aE, symObjAddr: 0x16560, symBinAddr: 0x19A20, symSize: 0x5C }
  - { offset: 0xD0301, size: 0x8, addend: 0x0, symName: __ZN14powersync_core2kv24powersync_last_synced_at17h88e75932ea655099E, symObjAddr: 0x165BC, symBinAddr: 0x19A7C, symSize: 0x108 }
  - { offset: 0xD0504, size: 0x8, addend: 0x0, symName: __ZN14powersync_core10migrations17powersync_migrate17h77c945aacac59eedE, symObjAddr: 0x166D8, symBinAddr: 0x19B98, symSize: 0x7B4 }
  - { offset: 0xD1346, size: 0x8, addend: 0x0, symName: __ZN14powersync_core7version20powersync_rs_version17had2c79af4a8aeff3E, symObjAddr: 0x189B4, symBinAddr: 0x1BE74, symSize: 0xB0 }
  - { offset: 0xD15BF, size: 0x8, addend: 0x0, symName: '__ZN95_$LT$$BP$mut$u20$sqlite3_capi..bindings..sqlite3$u20$as$u20$sqlite_nostd..nostd..Connection$GT$10prepare_v217h7ab4544c84af73cdE', symObjAddr: 0x15FDC, symBinAddr: 0x1949C, symSize: 0x550 }
  - { offset: 0xD169C, size: 0x8, addend: 0x0, symName: '__ZN95_$LT$$BP$mut$u20$sqlite3_capi..bindings..sqlite3$u20$as$u20$sqlite_nostd..nostd..Connection$GT$9exec_safe17h3f8926a20cc1984dE', symObjAddr: 0x16E8C, symBinAddr: 0x1A34C, symSize: 0x54 }
  - { offset: 0xD1E04, size: 0x8, addend: 0x0, symName: '__ZN4core3ptr59drop_in_place$LT$serde..__private..de..content..Content$GT$17ha2b9f1ee83780447E.1051', symObjAddr: 0x15D34, symBinAddr: 0x1924C, symSize: 0x48 }
  - { offset: 0xD1E54, size: 0x8, addend: 0x0, symName: '__ZN4core3ptr131drop_in_place$LT$alloc..vec..Vec$LT$$LP$serde..__private..de..content..Content$C$serde..__private..de..content..Content$RP$$GT$$GT$17h99ccf743e7111193E', symObjAddr: 0x15D7C, symBinAddr: 0x19294, symSize: 0x20 }
  - { offset: 0xD1EA2, size: 0x8, addend: 0x0, symName: '__ZN4core3ptr84drop_in_place$LT$alloc..boxed..Box$LT$serde..__private..de..content..Content$GT$$GT$17hb9b9ec8bbb5dcdc4E.1052', symObjAddr: 0x15D9C, symBinAddr: 0x192B4, symSize: 0x20 }
  - { offset: 0xD1FA2, size: 0x8, addend: 0x0, symName: '__ZN4core3ptr82drop_in_place$LT$alloc..vec..Vec$LT$serde..__private..de..content..Content$GT$$GT$17hbdcc8e40d0abc241E', symObjAddr: 0x15DBC, symBinAddr: 0x192D4, symSize: 0x20 }
  - { offset: 0xD20D2, size: 0x8, addend: 0x0, symName: '__ZN4core3ptr74drop_in_place$LT$powersync_core..sync..storage_adapter..StorageAdapter$GT$17h001ebe0575aea396E', symObjAddr: 0x1762C, symBinAddr: 0x1AAEC, symSize: 0x38 }
  - { offset: 0xD21BD, size: 0x8, addend: 0x0, symName: '__ZN4core3ptr78drop_in_place$LT$powersync_core..operations..insert_operation..BucketBatch$GT$17h975eb328fa6949f2E', symObjAddr: 0x17664, symBinAddr: 0x1AB24, symSize: 0x20 }
  - { offset: 0xD22BC, size: 0x8, addend: 0x0, symName: '__ZN4core3ptr51drop_in_place$LT$powersync_core..schema..Schema$GT$17hdcd6706d51b604d1E.1120', symObjAddr: 0x184E4, symBinAddr: 0x1B9A4, symSize: 0x38 }
  - { offset: 0xDB2B7, size: 0x8, addend: 0x0, symName: '__ZN5serde9__private2de7content28ContentDeserializer$LT$E$GT$12invalid_type17h87bd5e945986d2a1E', symObjAddr: 0x15C0C, symBinAddr: 0x42570, symSize: 0x128 }
  - { offset: 0xDB5B0, size: 0x8, addend: 0x0, symName: '__ZN5alloc11collections5btree8navigate142_$LT$impl$u20$alloc..collections..btree..node..NodeRef$LT$BorrowType$C$K$C$V$C$alloc..collections..btree..node..marker..LeafOrInternal$GT$$GT$15first_leaf_edge17h7429305e33bf0700E', symObjAddr: 0x15E0C, symBinAddr: 0x19324, symSize: 0x14 }
  - { offset: 0xDB5D3, size: 0x8, addend: 0x0, symName: '__ZN5alloc11collections5btree8navigate142_$LT$impl$u20$alloc..collections..btree..node..NodeRef$LT$BorrowType$C$K$C$V$C$alloc..collections..btree..node..marker..LeafOrInternal$GT$$GT$15first_leaf_edge17h7429305e33bf0700E', symObjAddr: 0x15E0C, symBinAddr: 0x19324, symSize: 0x14 }
  - { offset: 0xDB6D8, size: 0x8, addend: 0x0, symName: '__ZN5alloc11collections5btree8navigate142_$LT$impl$u20$alloc..collections..btree..node..NodeRef$LT$BorrowType$C$K$C$V$C$alloc..collections..btree..node..marker..LeafOrInternal$GT$$GT$15first_leaf_edge17h2ab23ebcaf2ff854E', symObjAddr: 0x15E20, symBinAddr: 0x19338, symSize: 0x14 }
  - { offset: 0xDB6FB, size: 0x8, addend: 0x0, symName: '__ZN5alloc11collections5btree8navigate142_$LT$impl$u20$alloc..collections..btree..node..NodeRef$LT$BorrowType$C$K$C$V$C$alloc..collections..btree..node..marker..LeafOrInternal$GT$$GT$15first_leaf_edge17h2ab23ebcaf2ff854E', symObjAddr: 0x15E20, symBinAddr: 0x19338, symSize: 0x14 }
  - { offset: 0xDB800, size: 0x8, addend: 0x0, symName: '__ZN5alloc11collections5btree8navigate142_$LT$impl$u20$alloc..collections..btree..node..NodeRef$LT$BorrowType$C$K$C$V$C$alloc..collections..btree..node..marker..LeafOrInternal$GT$$GT$15first_leaf_edge17h9f490d0d517f873aE', symObjAddr: 0x15E34, symBinAddr: 0x1934C, symSize: 0x14 }
  - { offset: 0xDB823, size: 0x8, addend: 0x0, symName: '__ZN5alloc11collections5btree8navigate142_$LT$impl$u20$alloc..collections..btree..node..NodeRef$LT$BorrowType$C$K$C$V$C$alloc..collections..btree..node..marker..LeafOrInternal$GT$$GT$15first_leaf_edge17h9f490d0d517f873aE', symObjAddr: 0x15E34, symBinAddr: 0x1934C, symSize: 0x14 }
  - { offset: 0xDB928, size: 0x8, addend: 0x0, symName: '__ZN5alloc11collections5btree8navigate142_$LT$impl$u20$alloc..collections..btree..node..NodeRef$LT$BorrowType$C$K$C$V$C$alloc..collections..btree..node..marker..LeafOrInternal$GT$$GT$15first_leaf_edge17h0a7478f3d5faa976E', symObjAddr: 0x15E48, symBinAddr: 0x19360, symSize: 0x14 }
  - { offset: 0xDB94B, size: 0x8, addend: 0x0, symName: '__ZN5alloc11collections5btree8navigate142_$LT$impl$u20$alloc..collections..btree..node..NodeRef$LT$BorrowType$C$K$C$V$C$alloc..collections..btree..node..marker..LeafOrInternal$GT$$GT$15first_leaf_edge17h0a7478f3d5faa976E', symObjAddr: 0x15E48, symBinAddr: 0x19360, symSize: 0x14 }
  - { offset: 0xDBA50, size: 0x8, addend: 0x0, symName: '__ZN5alloc7raw_vec20RawVecInner$LT$A$GT$16with_capacity_in17h633275a306cd70aaE', symObjAddr: 0x15EB4, symBinAddr: 0x19374, symSize: 0x30 }
  - { offset: 0xDBB24, size: 0x8, addend: 0x0, symName: __ZN12sqlite_nostd5nostd11ManagedStmt11column_text17h5c3ec0fbe87d7d38E, symObjAddr: 0x1652C, symBinAddr: 0x199EC, symSize: 0x34 }
  - { offset: 0xDBBF8, size: 0x8, addend: 0x0, symName: __ZN12sqlite_nostd5nostd11ManagedStmt8bind_int17hcae9d74ba618c0f2E, symObjAddr: 0x166C4, symBinAddr: 0x19B84, symSize: 0x14 }
  - { offset: 0xDBF40, size: 0x8, addend: 0x0, symName: '__ZN5alloc3vec16Vec$LT$T$C$A$GT$4push17h012f1e8def97779eE', symObjAddr: 0x16EE0, symBinAddr: 0x1A3A0, symSize: 0x28 }
  - { offset: 0xDC103, size: 0x8, addend: 0x0, symName: __ZN12sqlite_nostd5nostd11ManagedStmt10bind_int6417h14df5919c8b710d1E, symObjAddr: 0x17684, symBinAddr: 0x1AB44, symSize: 0x14 }
  - { offset: 0xDC143, size: 0x8, addend: 0x0, symName: __ZN12sqlite_nostd5nostd11ManagedStmt9bind_text17hce20d91db352c96eE, symObjAddr: 0x17698, symBinAddr: 0x1AB58, symSize: 0x14 }
  - { offset: 0xDC193, size: 0x8, addend: 0x0, symName: __ZN12sqlite_nostd5nostd11ManagedStmt9bind_null17hdb0b29c0888445cfE, symObjAddr: 0x176AC, symBinAddr: 0x1AB6C, symSize: 0x14 }
  - { offset: 0xDCAB4, size: 0x8, addend: 0x0, symName: _OUTLINED_FUNCTION_1, symObjAddr: 0x3B070, symBinAddr: 0x3D5B0, symSize: 0x1C }
  - { offset: 0xDCACB, size: 0x8, addend: 0x0, symName: _OUTLINED_FUNCTION_9, symObjAddr: 0x3B118, symBinAddr: 0x3D658, symSize: 0x10 }
  - { offset: 0xDCAE2, size: 0x8, addend: 0x0, symName: _OUTLINED_FUNCTION_12, symObjAddr: 0x3B14C, symBinAddr: 0x3D68C, symSize: 0x18 }
  - { offset: 0xDCAF9, size: 0x8, addend: 0x0, symName: _OUTLINED_FUNCTION_27, symObjAddr: 0x3B24C, symBinAddr: 0x3D78C, symSize: 0x10 }
  - { offset: 0xDCB10, size: 0x8, addend: 0x0, symName: _OUTLINED_FUNCTION_29, symObjAddr: 0x3B26C, symBinAddr: 0x3D7AC, symSize: 0x10 }
  - { offset: 0xDCB27, size: 0x8, addend: 0x0, symName: _OUTLINED_FUNCTION_30, symObjAddr: 0x3B27C, symBinAddr: 0x3D7BC, symSize: 0x10 }
  - { offset: 0xDCB3E, size: 0x8, addend: 0x0, symName: _OUTLINED_FUNCTION_32, symObjAddr: 0x3B2A0, symBinAddr: 0x3D7E0, symSize: 0x10 }
  - { offset: 0xDCB55, size: 0x8, addend: 0x0, symName: _OUTLINED_FUNCTION_81, symObjAddr: 0x3B6B0, symBinAddr: 0x3DBF0, symSize: 0x10 }
  - { offset: 0xDCB6C, size: 0x8, addend: 0x0, symName: _OUTLINED_FUNCTION_85, symObjAddr: 0x3B6FC, symBinAddr: 0x3DC3C, symSize: 0x24 }
  - { offset: 0xDCB83, size: 0x8, addend: 0x0, symName: _OUTLINED_FUNCTION_94, symObjAddr: 0x3B7C8, symBinAddr: 0x3DD08, symSize: 0x10 }
  - { offset: 0xDCB9A, size: 0x8, addend: 0x0, symName: _OUTLINED_FUNCTION_98, symObjAddr: 0x3B828, symBinAddr: 0x3DD68, symSize: 0x10 }
  - { offset: 0xDCBB1, size: 0x8, addend: 0x0, symName: _OUTLINED_FUNCTION_109, symObjAddr: 0x3B8F4, symBinAddr: 0x3DE34, symSize: 0x14 }
  - { offset: 0xDCBC8, size: 0x8, addend: 0x0, symName: _OUTLINED_FUNCTION_119, symObjAddr: 0x3B9F0, symBinAddr: 0x3DF30, symSize: 0xC }
  - { offset: 0xDCBDF, size: 0x8, addend: 0x0, symName: _OUTLINED_FUNCTION_124, symObjAddr: 0x3BA48, symBinAddr: 0x3DF88, symSize: 0x28 }
  - { offset: 0xDCBF6, size: 0x8, addend: 0x0, symName: _OUTLINED_FUNCTION_132, symObjAddr: 0x3BAEC, symBinAddr: 0x3E02C, symSize: 0x10 }
  - { offset: 0xDCC0D, size: 0x8, addend: 0x0, symName: _OUTLINED_FUNCTION_147, symObjAddr: 0x3BC14, symBinAddr: 0x3E154, symSize: 0xC }
  - { offset: 0xDCC24, size: 0x8, addend: 0x0, symName: _OUTLINED_FUNCTION_149, symObjAddr: 0x3BC34, symBinAddr: 0x3E174, symSize: 0xC }
  - { offset: 0xDCC3B, size: 0x8, addend: 0x0, symName: _OUTLINED_FUNCTION_161, symObjAddr: 0x3BD18, symBinAddr: 0x3E258, symSize: 0x18 }
  - { offset: 0xDCC52, size: 0x8, addend: 0x0, symName: _OUTLINED_FUNCTION_164, symObjAddr: 0x3BD48, symBinAddr: 0x3E288, symSize: 0x18 }
  - { offset: 0xDCC69, size: 0x8, addend: 0x0, symName: _OUTLINED_FUNCTION_172, symObjAddr: 0x3BDAC, symBinAddr: 0x3E2EC, symSize: 0x8 }
  - { offset: 0xDCC80, size: 0x8, addend: 0x0, symName: _OUTLINED_FUNCTION_205, symObjAddr: 0x3BFEC, symBinAddr: 0x3E52C, symSize: 0x14 }
  - { offset: 0xDCC97, size: 0x8, addend: 0x0, symName: _OUTLINED_FUNCTION_260, symObjAddr: 0x3C328, symBinAddr: 0x3E868, symSize: 0x10 }
  - { offset: 0xDCCAE, size: 0x8, addend: 0x0, symName: _OUTLINED_FUNCTION_261, symObjAddr: 0x3C338, symBinAddr: 0x3E878, symSize: 0x8 }
  - { offset: 0xDCCC5, size: 0x8, addend: 0x0, symName: _OUTLINED_FUNCTION_263, symObjAddr: 0x3C348, symBinAddr: 0x3E888, symSize: 0x8 }
  - { offset: 0xDCCDC, size: 0x8, addend: 0x0, symName: _OUTLINED_FUNCTION_270, symObjAddr: 0x3C390, symBinAddr: 0x3E8D0, symSize: 0xC }
  - { offset: 0xDCCF3, size: 0x8, addend: 0x0, symName: _OUTLINED_FUNCTION_288, symObjAddr: 0x3C4AC, symBinAddr: 0x3E9EC, symSize: 0x8 }
  - { offset: 0xDCD0A, size: 0x8, addend: 0x0, symName: _OUTLINED_FUNCTION_297, symObjAddr: 0x3C520, symBinAddr: 0x3EA60, symSize: 0x8 }
  - { offset: 0xDCD21, size: 0x8, addend: 0x0, symName: _OUTLINED_FUNCTION_304, symObjAddr: 0x3C574, symBinAddr: 0x3EAB4, symSize: 0xC }
  - { offset: 0xDCD38, size: 0x8, addend: 0x0, symName: _OUTLINED_FUNCTION_309, symObjAddr: 0x3C5B4, symBinAddr: 0x3EAF4, symSize: 0x10 }
  - { offset: 0xDCD4F, size: 0x8, addend: 0x0, symName: _OUTLINED_FUNCTION_313, symObjAddr: 0x3C5F4, symBinAddr: 0x3EB34, symSize: 0xC }
  - { offset: 0xDCD66, size: 0x8, addend: 0x0, symName: _OUTLINED_FUNCTION_326, symObjAddr: 0x3C698, symBinAddr: 0x3EBD8, symSize: 0xC }
  - { offset: 0xDCD7D, size: 0x8, addend: 0x0, symName: _OUTLINED_FUNCTION_332, symObjAddr: 0x3C6E8, symBinAddr: 0x3EC28, symSize: 0xC }
  - { offset: 0xDCD94, size: 0x8, addend: 0x0, symName: _OUTLINED_FUNCTION_336, symObjAddr: 0x3C724, symBinAddr: 0x3EC64, symSize: 0x10 }
  - { offset: 0xDCDAB, size: 0x8, addend: 0x0, symName: _OUTLINED_FUNCTION_337, symObjAddr: 0x3C734, symBinAddr: 0x3EC74, symSize: 0x10 }
  - { offset: 0xDCDC2, size: 0x8, addend: 0x0, symName: _OUTLINED_FUNCTION_346, symObjAddr: 0x3C7A0, symBinAddr: 0x3ECE0, symSize: 0xC }
  - { offset: 0xDCDD9, size: 0x8, addend: 0x0, symName: _OUTLINED_FUNCTION_347, symObjAddr: 0x3C7AC, symBinAddr: 0x3ECEC, symSize: 0xC }
  - { offset: 0xDCDF0, size: 0x8, addend: 0x0, symName: _OUTLINED_FUNCTION_349, symObjAddr: 0x3C7C4, symBinAddr: 0x3ED04, symSize: 0x10 }
  - { offset: 0xDCE07, size: 0x8, addend: 0x0, symName: _OUTLINED_FUNCTION_359, symObjAddr: 0x3C854, symBinAddr: 0x3ED94, symSize: 0xC }
  - { offset: 0xDCE1E, size: 0x8, addend: 0x0, symName: _OUTLINED_FUNCTION_360, symObjAddr: 0x3C860, symBinAddr: 0x3EDA0, symSize: 0x8 }
  - { offset: 0xDCE35, size: 0x8, addend: 0x0, symName: _OUTLINED_FUNCTION_361, symObjAddr: 0x3C868, symBinAddr: 0x3EDA8, symSize: 0x8 }
  - { offset: 0xDCE4C, size: 0x8, addend: 0x0, symName: _OUTLINED_FUNCTION_362, symObjAddr: 0x3C870, symBinAddr: 0x3EDB0, symSize: 0x8 }
  - { offset: 0xDCE63, size: 0x8, addend: 0x0, symName: _OUTLINED_FUNCTION_365, symObjAddr: 0x3C88C, symBinAddr: 0x3EDCC, symSize: 0xC }
  - { offset: 0xDCE7A, size: 0x8, addend: 0x0, symName: _OUTLINED_FUNCTION_392, symObjAddr: 0x3CA64, symBinAddr: 0x3EFA4, symSize: 0x18 }
  - { offset: 0xDCE91, size: 0x8, addend: 0x0, symName: _OUTLINED_FUNCTION_394, symObjAddr: 0x3CA84, symBinAddr: 0x3EFC4, symSize: 0xC }
  - { offset: 0xDCEA8, size: 0x8, addend: 0x0, symName: _OUTLINED_FUNCTION_411, symObjAddr: 0x3CB64, symBinAddr: 0x3F0A4, symSize: 0x8 }
  - { offset: 0xDCEBF, size: 0x8, addend: 0x0, symName: _OUTLINED_FUNCTION_434, symObjAddr: 0x3CC58, symBinAddr: 0x3F198, symSize: 0x8 }
  - { offset: 0xDCED6, size: 0x8, addend: 0x0, symName: _OUTLINED_FUNCTION_435, symObjAddr: 0x3CC60, symBinAddr: 0x3F1A0, symSize: 0x8 }
  - { offset: 0xDCEED, size: 0x8, addend: 0x0, symName: _OUTLINED_FUNCTION_448, symObjAddr: 0x3CD08, symBinAddr: 0x3F248, symSize: 0xC }
  - { offset: 0xDCF04, size: 0x8, addend: 0x0, symName: _OUTLINED_FUNCTION_449, symObjAddr: 0x3CD14, symBinAddr: 0x3F254, symSize: 0xC }
  - { offset: 0xDCF1B, size: 0x8, addend: 0x0, symName: _OUTLINED_FUNCTION_451, symObjAddr: 0x3CD2C, symBinAddr: 0x3F26C, symSize: 0xC }
  - { offset: 0xDCF32, size: 0x8, addend: 0x0, symName: _OUTLINED_FUNCTION_452, symObjAddr: 0x3CD38, symBinAddr: 0x3F278, symSize: 0xC }
  - { offset: 0xDCF49, size: 0x8, addend: 0x0, symName: _OUTLINED_FUNCTION_456, symObjAddr: 0x3CD6C, symBinAddr: 0x3F2AC, symSize: 0x8 }
  - { offset: 0xDCF60, size: 0x8, addend: 0x0, symName: _OUTLINED_FUNCTION_466, symObjAddr: 0x3CE0C, symBinAddr: 0x3F34C, symSize: 0x8 }
  - { offset: 0xDCF77, size: 0x8, addend: 0x0, symName: _OUTLINED_FUNCTION_482, symObjAddr: 0x3CF2C, symBinAddr: 0x3F46C, symSize: 0x8 }
  - { offset: 0xDCF8E, size: 0x8, addend: 0x0, symName: _OUTLINED_FUNCTION_483, symObjAddr: 0x3CF34, symBinAddr: 0x3F474, symSize: 0x8 }
  - { offset: 0xDCFA5, size: 0x8, addend: 0x0, symName: _OUTLINED_FUNCTION_493, symObjAddr: 0x3CFF8, symBinAddr: 0x3F538, symSize: 0xC }
  - { offset: 0xDCFBC, size: 0x8, addend: 0x0, symName: _OUTLINED_FUNCTION_545, symObjAddr: 0x3D2EC, symBinAddr: 0x3F82C, symSize: 0x8 }
  - { offset: 0xDCFD3, size: 0x8, addend: 0x0, symName: _OUTLINED_FUNCTION_552, symObjAddr: 0x3D340, symBinAddr: 0x3F880, symSize: 0x8 }
  - { offset: 0xDCFEA, size: 0x8, addend: 0x0, symName: _OUTLINED_FUNCTION_556, symObjAddr: 0x3D374, symBinAddr: 0x3F8B4, symSize: 0xC }
  - { offset: 0xDD001, size: 0x8, addend: 0x0, symName: _OUTLINED_FUNCTION_558, symObjAddr: 0x3D388, symBinAddr: 0x3F8C8, symSize: 0x8 }
  - { offset: 0xDD018, size: 0x8, addend: 0x0, symName: _OUTLINED_FUNCTION_564, symObjAddr: 0x3D3C8, symBinAddr: 0x3F908, symSize: 0x8 }
  - { offset: 0xDD02F, size: 0x8, addend: 0x0, symName: _OUTLINED_FUNCTION_573, symObjAddr: 0x3D440, symBinAddr: 0x3F980, symSize: 0xC }
  - { offset: 0xDD046, size: 0x8, addend: 0x0, symName: _OUTLINED_FUNCTION_580, symObjAddr: 0x3D4A0, symBinAddr: 0x3F9E0, symSize: 0x10 }
  - { offset: 0xDD05D, size: 0x8, addend: 0x0, symName: _OUTLINED_FUNCTION_632, symObjAddr: 0x3D7D8, symBinAddr: 0x3FD18, symSize: 0xC }
  - { offset: 0xDD074, size: 0x8, addend: 0x0, symName: _OUTLINED_FUNCTION_641, symObjAddr: 0x3D85C, symBinAddr: 0x3FD9C, symSize: 0xC }
  - { offset: 0xDD08B, size: 0x8, addend: 0x0, symName: _OUTLINED_FUNCTION_647, symObjAddr: 0x3D8B0, symBinAddr: 0x3FDF0, symSize: 0x8 }
  - { offset: 0xDD0A2, size: 0x8, addend: 0x0, symName: _OUTLINED_FUNCTION_660, symObjAddr: 0x3D954, symBinAddr: 0x3FE94, symSize: 0x8 }
  - { offset: 0xDD0B9, size: 0x8, addend: 0x0, symName: _OUTLINED_FUNCTION_670, symObjAddr: 0x3D9BC, symBinAddr: 0x3FEFC, symSize: 0x8 }
  - { offset: 0xDD0D0, size: 0x8, addend: 0x0, symName: _OUTLINED_FUNCTION_691, symObjAddr: 0x3DB30, symBinAddr: 0x40070, symSize: 0xC }
  - { offset: 0xDD0E7, size: 0x8, addend: 0x0, symName: _OUTLINED_FUNCTION_693, symObjAddr: 0x3DB48, symBinAddr: 0x40088, symSize: 0xC }
  - { offset: 0xDD0FE, size: 0x8, addend: 0x0, symName: _OUTLINED_FUNCTION_700, symObjAddr: 0x3DB9C, symBinAddr: 0x400DC, symSize: 0xC }
  - { offset: 0xDD115, size: 0x8, addend: 0x0, symName: _OUTLINED_FUNCTION_707, symObjAddr: 0x3DC3C, symBinAddr: 0x4017C, symSize: 0x1C }
  - { offset: 0xDD12C, size: 0x8, addend: 0x0, symName: _OUTLINED_FUNCTION_772, symObjAddr: 0x3DFA0, symBinAddr: 0x404E0, symSize: 0xC }
  - { offset: 0xDD143, size: 0x8, addend: 0x0, symName: _OUTLINED_FUNCTION_797, symObjAddr: 0x3E0C4, symBinAddr: 0x40604, symSize: 0x10 }
  - { offset: 0xDD15A, size: 0x8, addend: 0x0, symName: _OUTLINED_FUNCTION_798, symObjAddr: 0x3E0D4, symBinAddr: 0x40614, symSize: 0x8 }
  - { offset: 0xDD171, size: 0x8, addend: 0x0, symName: _OUTLINED_FUNCTION_820, symObjAddr: 0x3E1EC, symBinAddr: 0x4072C, symSize: 0x8 }
  - { offset: 0xDD188, size: 0x8, addend: 0x0, symName: _OUTLINED_FUNCTION_823, symObjAddr: 0x3E204, symBinAddr: 0x40744, symSize: 0x8 }
  - { offset: 0xDD19F, size: 0x8, addend: 0x0, symName: _OUTLINED_FUNCTION_824, symObjAddr: 0x3E20C, symBinAddr: 0x4074C, symSize: 0x8 }
  - { offset: 0xDD1B6, size: 0x8, addend: 0x0, symName: _OUTLINED_FUNCTION_910, symObjAddr: 0x3E780, symBinAddr: 0x40CC0, symSize: 0xC }
  - { offset: 0xDD1CD, size: 0x8, addend: 0x0, symName: _OUTLINED_FUNCTION_925, symObjAddr: 0x3E834, symBinAddr: 0x40D74, symSize: 0xC }
  - { offset: 0xDD1E4, size: 0x8, addend: 0x0, symName: _OUTLINED_FUNCTION_939, symObjAddr: 0x3E8D8, symBinAddr: 0x40E18, symSize: 0xC }
  - { offset: 0xDD1FB, size: 0x8, addend: 0x0, symName: _OUTLINED_FUNCTION_948, symObjAddr: 0x3E948, symBinAddr: 0x40E88, symSize: 0xC }
  - { offset: 0xDD212, size: 0x8, addend: 0x0, symName: _OUTLINED_FUNCTION_964, symObjAddr: 0x3EA00, symBinAddr: 0x40F40, symSize: 0xC }
  - { offset: 0xDD229, size: 0x8, addend: 0x0, symName: _OUTLINED_FUNCTION_1021, symObjAddr: 0x3EC34, symBinAddr: 0x41174, symSize: 0x8 }
  - { offset: 0xDD240, size: 0x8, addend: 0x0, symName: _OUTLINED_FUNCTION_1031, symObjAddr: 0x3EC94, symBinAddr: 0x411D4, symSize: 0xC }
  - { offset: 0xDD257, size: 0x8, addend: 0x0, symName: _OUTLINED_FUNCTION_1046, symObjAddr: 0x3ED2C, symBinAddr: 0x4126C, symSize: 0x8 }
  - { offset: 0xDD26E, size: 0x8, addend: 0x0, symName: _OUTLINED_FUNCTION_1056, symObjAddr: 0x3ED84, symBinAddr: 0x412C4, symSize: 0x8 }
  - { offset: 0xDD285, size: 0x8, addend: 0x0, symName: _OUTLINED_FUNCTION_1057, symObjAddr: 0x3ED8C, symBinAddr: 0x412CC, symSize: 0xC }
  - { offset: 0xDD29C, size: 0x8, addend: 0x0, symName: _OUTLINED_FUNCTION_1058, symObjAddr: 0x3ED98, symBinAddr: 0x412D8, symSize: 0xC }
  - { offset: 0xDD2B3, size: 0x8, addend: 0x0, symName: _OUTLINED_FUNCTION_1062, symObjAddr: 0x3EDC4, symBinAddr: 0x41304, symSize: 0xC }
  - { offset: 0xDD2CA, size: 0x8, addend: 0x0, symName: _OUTLINED_FUNCTION_1076, symObjAddr: 0x3EE4C, symBinAddr: 0x4138C, symSize: 0x8 }
  - { offset: 0xDD2E1, size: 0x8, addend: 0x0, symName: _OUTLINED_FUNCTION_1077, symObjAddr: 0x3EE54, symBinAddr: 0x41394, symSize: 0x8 }
  - { offset: 0xDD2F8, size: 0x8, addend: 0x0, symName: _OUTLINED_FUNCTION_1091, symObjAddr: 0x3EED4, symBinAddr: 0x41414, symSize: 0x8 }
  - { offset: 0xDD30F, size: 0x8, addend: 0x0, symName: _OUTLINED_FUNCTION_1092, symObjAddr: 0x3EEDC, symBinAddr: 0x4141C, symSize: 0x8 }
  - { offset: 0xDD326, size: 0x8, addend: 0x0, symName: _OUTLINED_FUNCTION_1104, symObjAddr: 0x3EF60, symBinAddr: 0x414A0, symSize: 0xC }
  - { offset: 0xDD33D, size: 0x8, addend: 0x0, symName: _OUTLINED_FUNCTION_1107, symObjAddr: 0x3EF84, symBinAddr: 0x414C4, symSize: 0xC }
  - { offset: 0xDD354, size: 0x8, addend: 0x0, symName: _OUTLINED_FUNCTION_1144, symObjAddr: 0x3F1C8, symBinAddr: 0x41708, symSize: 0xC }
  - { offset: 0xDD36B, size: 0x8, addend: 0x0, symName: _OUTLINED_FUNCTION_1173, symObjAddr: 0x3F37C, symBinAddr: 0x418BC, symSize: 0xC }
  - { offset: 0xDD382, size: 0x8, addend: 0x0, symName: _OUTLINED_FUNCTION_1183, symObjAddr: 0x3F404, symBinAddr: 0x41944, symSize: 0xC }
  - { offset: 0xDD399, size: 0x8, addend: 0x0, symName: _OUTLINED_FUNCTION_1198, symObjAddr: 0x3F4D8, symBinAddr: 0x41A18, symSize: 0xC }
  - { offset: 0xDD3B0, size: 0x8, addend: 0x0, symName: _OUTLINED_FUNCTION_1199, symObjAddr: 0x3F4E4, symBinAddr: 0x41A24, symSize: 0xC }
  - { offset: 0xDD3C7, size: 0x8, addend: 0x0, symName: _OUTLINED_FUNCTION_1203, symObjAddr: 0x3F514, symBinAddr: 0x41A54, symSize: 0xC }
  - { offset: 0xDD3DE, size: 0x8, addend: 0x0, symName: _OUTLINED_FUNCTION_1210, symObjAddr: 0x3F5B8, symBinAddr: 0x41AF8, symSize: 0x1C }
  - { offset: 0x1A8862, size: 0x8, addend: 0x0, symName: __ZN10serde_json2de5POW1017hcc2fd987b0fcbc9dE, symObjAddr: 0x4B378, symBinAddr: 0x4F428, symSize: 0x0 }
  - { offset: 0x1A8E42, size: 0x8, addend: 0x0, symName: '__ZN75_$LT$serde_json..de..SeqAccess$LT$R$GT$$u20$as$u20$serde..de..SeqAccess$GT$17next_element_seed16has_next_element17h0b1b1b8729bd7168E', symObjAddr: 0x37C30, symBinAddr: 0x3A2D8, symSize: 0xD4 }
  - { offset: 0x1A929B, size: 0x8, addend: 0x0, symName: '__ZN75_$LT$serde_json..de..MapAccess$LT$R$GT$$u20$as$u20$serde..de..MapAccess$GT$13next_key_seed12has_next_key17h7148d3316fbc2d67E', symObjAddr: 0x383D8, symBinAddr: 0x3AA80, symSize: 0xF0 }
  - { offset: 0x1A92E7, size: 0x8, addend: 0x0, symName: '__ZN75_$LT$serde_json..de..MapAccess$LT$R$GT$$u20$as$u20$serde..de..MapAccess$GT$13next_key_seed17hdc79ad0f5b4553c0E', symObjAddr: 0x384C8, symBinAddr: 0x3AB70, symSize: 0x8C }
  - { offset: 0x1A93E1, size: 0x8, addend: 0x0, symName: '__ZN75_$LT$serde_json..de..MapAccess$LT$R$GT$$u20$as$u20$serde..de..MapAccess$GT$15next_value_seed17hbc3e76c01540b526E', symObjAddr: 0x38554, symBinAddr: 0x3ABFC, symSize: 0x38 }
  - { offset: 0x1A954A, size: 0x8, addend: 0x0, symName: __ZN10serde_json2de8from_str17h349d48ceb910bf14E, symObjAddr: 0x3858C, symBinAddr: 0x3AC34, symSize: 0x64 }
  - { offset: 0x1A9C84, size: 0x8, addend: 0x0, symName: '__ZN10serde_json5value2de77_$LT$impl$u20$serde..de..Deserialize$u20$for$u20$serde_json..value..Value$GT$11deserialize17h361272047e147b95E', symObjAddr: 0x37D04, symBinAddr: 0x3A3AC, symSize: 0x6D4 }
  - { offset: 0x1AAC26, size: 0x8, addend: 0x0, symName: '__ZN4core3ptr45drop_in_place$LT$serde_json..value..Value$GT$17h9af133753907d1e7E', symObjAddr: 0x36AF4, symBinAddr: 0x394F8, symSize: 0x30 }
  - { offset: 0x1AACC0, size: 0x8, addend: 0x0, symName: '__ZN4core3ptr68drop_in_place$LT$alloc..vec..Vec$LT$serde_json..value..Value$GT$$GT$17h6d851dac67f9a7a6E', symObjAddr: 0x36B24, symBinAddr: 0x39528, symSize: 0x20 }
  - { offset: 0x1AC366, size: 0x8, addend: 0x0, symName: __ZN10serde_json2de12ParserNumber5visit17h2025ae24e36ad578E, symObjAddr: 0x36A4C, symBinAddr: 0x39450, symSize: 0xA8 }
  - { offset: 0x1AC525, size: 0x8, addend: 0x0, symName: __ZN10serde_json2de12ParserNumber12invalid_type17hba21095bf1740658E, symObjAddr: 0x36B44, symBinAddr: 0x39548, symSize: 0x54 }
  - { offset: 0x1AC5AF, size: 0x8, addend: 0x0, symName: '__ZN10serde_json2de21Deserializer$LT$R$GT$3end17hb2be8b55be1bd163E', symObjAddr: 0x36B98, symBinAddr: 0x3959C, symSize: 0x44 }
  - { offset: 0x1AC5F6, size: 0x8, addend: 0x0, symName: '__ZN10serde_json2de21Deserializer$LT$R$GT$16parse_whitespace17h158942923bd96047E', symObjAddr: 0x36BDC, symBinAddr: 0x395E0, symSize: 0x5C }
  - { offset: 0x1AC6EF, size: 0x8, addend: 0x0, symName: '__ZN10serde_json2de21Deserializer$LT$R$GT$10peek_error17h2b09f35ad4295e00E', symObjAddr: 0x36C38, symBinAddr: 0x431AC, symSize: 0x48 }
  - { offset: 0x1AC80C, size: 0x8, addend: 0x0, symName: '__ZN10serde_json2de21Deserializer$LT$R$GT$9next_char17h0a71a7914a07c281E', symObjAddr: 0x36C80, symBinAddr: 0x3963C, symSize: 0x34 }
  - { offset: 0x1AC830, size: 0x8, addend: 0x0, symName: '__ZN10serde_json2de21Deserializer$LT$R$GT$9next_char17h0a71a7914a07c281E', symObjAddr: 0x36C80, symBinAddr: 0x3963C, symSize: 0x34 }
  - { offset: 0x1AC84D, size: 0x8, addend: 0x0, symName: '__ZN10serde_json2de21Deserializer$LT$R$GT$9next_char17h0a71a7914a07c281E', symObjAddr: 0x36C80, symBinAddr: 0x3963C, symSize: 0x34 }
  - { offset: 0x1AC8AA, size: 0x8, addend: 0x0, symName: '__ZN10serde_json2de21Deserializer$LT$R$GT$17next_char_or_null17h152c8a7a55171f82E', symObjAddr: 0x36CB4, symBinAddr: 0x39670, symSize: 0x4C }
  - { offset: 0x1AC8FA, size: 0x8, addend: 0x0, symName: '__ZN10serde_json2de21Deserializer$LT$R$GT$5error17h1b85092df42fe201E', symObjAddr: 0x36D00, symBinAddr: 0x431F4, symSize: 0x38 }
  - { offset: 0x1ACA4C, size: 0x8, addend: 0x0, symName: '__ZN10serde_json2de21Deserializer$LT$R$GT$17peek_invalid_type17hfe6dfcf2c5949eccE', symObjAddr: 0x36D38, symBinAddr: 0x4322C, symSize: 0x1C4 }
  - { offset: 0x1ACC62, size: 0x8, addend: 0x0, symName: '__ZN10serde_json2de21Deserializer$LT$R$GT$11parse_ident17hecb6e6386f2514a9E', symObjAddr: 0x36EFC, symBinAddr: 0x396BC, symSize: 0x84 }
  - { offset: 0x1ACD07, size: 0x8, addend: 0x0, symName: '__ZN10serde_json2de21Deserializer$LT$R$GT$13parse_integer17h3d822ba41980343eE', symObjAddr: 0x36F80, symBinAddr: 0x39740, symSize: 0x15C }
  - { offset: 0x1ACF34, size: 0x8, addend: 0x0, symName: '__ZN10serde_json2de21Deserializer$LT$R$GT$12parse_number17he59daa6c9197866cE', symObjAddr: 0x370DC, symBinAddr: 0x3989C, symSize: 0xBC }
  - { offset: 0x1AD057, size: 0x8, addend: 0x0, symName: '__ZN10serde_json2de21Deserializer$LT$R$GT$18parse_long_integer17h214ccf6263fc90b3E', symObjAddr: 0x37198, symBinAddr: 0x433F0, symSize: 0x58 }
  - { offset: 0x1AD192, size: 0x8, addend: 0x0, symName: '__ZN10serde_json2de21Deserializer$LT$R$GT$14f64_from_parts17h167037d44c0bab17E', symObjAddr: 0x371F0, symBinAddr: 0x39958, symSize: 0xA4 }
  - { offset: 0x1AD260, size: 0x8, addend: 0x0, symName: '__ZN10serde_json2de21Deserializer$LT$R$GT$13parse_decimal17h785d88baf0ddff40E', symObjAddr: 0x37294, symBinAddr: 0x399FC, symSize: 0x108 }
  - { offset: 0x1AD47E, size: 0x8, addend: 0x0, symName: '__ZN10serde_json2de21Deserializer$LT$R$GT$14parse_exponent17h06614f58776804f4E', symObjAddr: 0x3739C, symBinAddr: 0x39B04, symSize: 0x184 }
  - { offset: 0x1AD7F3, size: 0x8, addend: 0x0, symName: '__ZN10serde_json2de21Deserializer$LT$R$GT$23parse_exponent_overflow17h952c4f03863ab3afE', symObjAddr: 0x37520, symBinAddr: 0x43448, symSize: 0x80 }
  - { offset: 0x1AD920, size: 0x8, addend: 0x0, symName: '__ZN10serde_json2de21Deserializer$LT$R$GT$22parse_decimal_overflow17h2efadc6993934b21E', symObjAddr: 0x375A0, symBinAddr: 0x434C8, symSize: 0x40 }
  - { offset: 0x1ADA4D, size: 0x8, addend: 0x0, symName: '__ZN10serde_json2de21Deserializer$LT$R$GT$18parse_object_colon17h199163a004c086b9E', symObjAddr: 0x375E0, symBinAddr: 0x39C88, symSize: 0x5C }
  - { offset: 0x1ADA87, size: 0x8, addend: 0x0, symName: '__ZN10serde_json2de21Deserializer$LT$R$GT$7end_seq17h3a5d6c4c79df4263E', symObjAddr: 0x3763C, symBinAddr: 0x39CE4, symSize: 0xD4 }
  - { offset: 0x1ADAD3, size: 0x8, addend: 0x0, symName: '__ZN10serde_json2de21Deserializer$LT$R$GT$7end_map17h7f1e0886e32983a6E', symObjAddr: 0x37710, symBinAddr: 0x39DB8, symSize: 0x6C }
  - { offset: 0x1ADB00, size: 0x8, addend: 0x0, symName: '__ZN10serde_json2de21Deserializer$LT$R$GT$12ignore_value17hb47d526565e9df6cE', symObjAddr: 0x3777C, symBinAddr: 0x39E24, symSize: 0x2A0 }
  - { offset: 0x1ADEEE, size: 0x8, addend: 0x0, symName: '__ZN10serde_json2de21Deserializer$LT$R$GT$14ignore_integer17h9f3e502236776142E', symObjAddr: 0x37A1C, symBinAddr: 0x3A0C4, symSize: 0x13C }
  - { offset: 0x1AE255, size: 0x8, addend: 0x0, symName: '__ZN5alloc3vec16Vec$LT$T$C$A$GT$3pop17he22fb88285f74bd3E', symObjAddr: 0x37B58, symBinAddr: 0x3A200, symSize: 0x28 }
  - { offset: 0x1AE321, size: 0x8, addend: 0x0, symName: '__ZN10serde_json2de21Deserializer$LT$R$GT$15ignore_exponent17hb53f3686be4aa366E', symObjAddr: 0x37B80, symBinAddr: 0x3A228, symSize: 0xB0 }
  - { offset: 0x1AE779, size: 0x8, addend: 0x0, symName: _OUTLINED_FUNCTION_113, symObjAddr: 0x3B934, symBinAddr: 0x3DE74, symSize: 0x10 }
  - { offset: 0x1AE790, size: 0x8, addend: 0x0, symName: _OUTLINED_FUNCTION_244, symObjAddr: 0x3C22C, symBinAddr: 0x3E76C, symSize: 0xC }
  - { offset: 0x1AE7A7, size: 0x8, addend: 0x0, symName: _OUTLINED_FUNCTION_672, symObjAddr: 0x3D9CC, symBinAddr: 0x3FF0C, symSize: 0x14 }
  - { offset: 0x1AE7BE, size: 0x8, addend: 0x0, symName: _OUTLINED_FUNCTION_743, symObjAddr: 0x3DE00, symBinAddr: 0x40340, symSize: 0x10 }
  - { offset: 0x1AE7D5, size: 0x8, addend: 0x0, symName: _OUTLINED_FUNCTION_1193, symObjAddr: 0x3F494, symBinAddr: 0x419D4, symSize: 0xC }
  - { offset: 0xB390C, size: 0x8, addend: 0x0, symName: '__ZN99_$LT$core..array..iter..IntoIter$LT$T$C$_$GT$$u20$as$u20$core..iter..traits..iterator..Iterator$GT$4next17hc51f975d0a089d84E', symObjAddr: 0x145CC, symBinAddr: 0x17C20, symSize: 0x24 }
  - { offset: 0xB393A, size: 0x8, addend: 0x0, symName: '__ZN99_$LT$core..array..iter..IntoIter$LT$T$C$_$GT$$u20$as$u20$core..iter..traits..iterator..Iterator$GT$4next17hc51f975d0a089d84E', symObjAddr: 0x145CC, symBinAddr: 0x17C20, symSize: 0x24 }
  - { offset: 0xB3957, size: 0x8, addend: 0x0, symName: '__ZN99_$LT$core..array..iter..IntoIter$LT$T$C$_$GT$$u20$as$u20$core..iter..traits..iterator..Iterator$GT$4next17hc51f975d0a089d84E', symObjAddr: 0x145CC, symBinAddr: 0x17C20, symSize: 0x24 }
  - { offset: 0xB3974, size: 0x8, addend: 0x0, symName: '__ZN99_$LT$core..array..iter..IntoIter$LT$T$C$_$GT$$u20$as$u20$core..iter..traits..iterator..Iterator$GT$4next17hc51f975d0a089d84E', symObjAddr: 0x145CC, symBinAddr: 0x17C20, symSize: 0x24 }
  - { offset: 0xB3988, size: 0x8, addend: 0x0, symName: '__ZN99_$LT$core..array..iter..IntoIter$LT$T$C$_$GT$$u20$as$u20$core..iter..traits..iterator..Iterator$GT$4next17hc51f975d0a089d84E', symObjAddr: 0x145CC, symBinAddr: 0x17C20, symSize: 0x24 }
  - { offset: 0xB39A3, size: 0x8, addend: 0x0, symName: '__ZN99_$LT$core..array..iter..IntoIter$LT$T$C$_$GT$$u20$as$u20$core..iter..traits..iterator..Iterator$GT$4next17hc51f975d0a089d84E', symObjAddr: 0x145CC, symBinAddr: 0x17C20, symSize: 0x24 }
  - { offset: 0xB3D69, size: 0x8, addend: 0x0, symName: __ZN4core3cmp9PartialEq2ne17h2a7909b3bdcc993cE, symObjAddr: 0x1404C, symBinAddr: 0x176A0, symSize: 0x18 }
  - { offset: 0xB7B7E, size: 0x8, addend: 0x0, symName: '__ZN110_$LT$core..ops..range..RangeFrom$LT$usize$GT$$u20$as$u20$core..slice..index..SliceIndex$LT$$u5b$T$u5d$$GT$$GT$5index17h2a3c3a85153e9e5aE.1016', symObjAddr: 0x151B4, symBinAddr: 0x18808, symSize: 0x1C }
  - { offset: 0xB838B, size: 0x8, addend: 0x0, symName: __ZN4core5slice4sort6shared9smallsort11insert_tail17h141db40248680894E, symObjAddr: 0x1421C, symBinAddr: 0x17870, symSize: 0x50 }
  - { offset: 0xB84B0, size: 0x8, addend: 0x0, symName: __ZN4core5slice4sort6shared9smallsort11insert_tail17h63184e421cb40684E, symObjAddr: 0x14280, symBinAddr: 0x178D4, symSize: 0x74 }
  - { offset: 0xB8616, size: 0x8, addend: 0x0, symName: __ZN4core5slice4sort6shared9smallsort12sort4_stable17h37f75a98632b766dE, symObjAddr: 0x142F4, symBinAddr: 0x17948, symSize: 0xF4 }
  - { offset: 0xB8A91, size: 0x8, addend: 0x0, symName: __ZN4core5slice4sort6shared9smallsort12sort4_stable17h44341649dd8edbf3E, symObjAddr: 0x143E8, symBinAddr: 0x17A3C, symSize: 0xC8 }
  - { offset: 0xB8DFE, size: 0x8, addend: 0x0, symName: __ZN4core5slice4sort6shared9smallsort12sort8_stable17h00e69e61608c7d87E, symObjAddr: 0x144B0, symBinAddr: 0x17B04, symSize: 0x44 }
  - { offset: 0xB8F91, size: 0x8, addend: 0x0, symName: __ZN4core5slice4sort6shared9smallsort19bidirectional_merge17h0ba8893fb8fd52a3E, symObjAddr: 0x144F4, symBinAddr: 0x17B48, symSize: 0xD8 }
  - { offset: 0xBAA5C, size: 0x8, addend: 0x0, symName: '__ZN4core4hash5impls52_$LT$impl$u20$core..hash..Hash$u20$for$u20$$RF$T$GT$4hash17h0d537dff68725a7bE', symObjAddr: 0x150B8, symBinAddr: 0x1870C, symSize: 0xFC }
  - { offset: 0xBB867, size: 0x8, addend: 0x0, symName: '__ZN92_$LT$powersync_core..sync..checkpoint..OwnedBucketChecksum$u20$as$u20$core..clone..Clone$GT$5clone17h35a72be7ef6f1f6dE', symObjAddr: 0x1532C, symBinAddr: 0x18980, symSize: 0x60 }
  - { offset: 0xBCE90, size: 0x8, addend: 0x0, symName: '__ZN110_$LT$alloc..collections..btree..map..Values$LT$K$C$V$GT$$u20$as$u20$core..iter..traits..iterator..Iterator$GT$4next17h8c0dec1819a2b541E', symObjAddr: 0x13EEC, symBinAddr: 0x17540, symSize: 0x1C }
  - { offset: 0xBD779, size: 0x8, addend: 0x0, symName: '__ZN108_$LT$alloc..collections..btree..map..Iter$LT$K$C$V$GT$$u20$as$u20$core..iter..traits..iterator..Iterator$GT$4next17h640578a3c67912eaE', symObjAddr: 0x13D58, symBinAddr: 0x173AC, symSize: 0xC4 }
  - { offset: 0xBDC20, size: 0x8, addend: 0x0, symName: '__ZN108_$LT$alloc..collections..btree..map..Iter$LT$K$C$V$GT$$u20$as$u20$core..iter..traits..iterator..Iterator$GT$4next17hf431acd9bed45207E', symObjAddr: 0x13E1C, symBinAddr: 0x17470, symSize: 0xD0 }
  - { offset: 0xBE55A, size: 0x8, addend: 0x0, symName: '__ZN99_$LT$alloc..collections..btree..map..BTreeMap$LT$K$C$V$C$A$GT$$u20$as$u20$core..ops..drop..Drop$GT$4drop17h6085a2d966b79b41E', symObjAddr: 0x1462C, symBinAddr: 0x17C80, symSize: 0x38 }
  - { offset: 0xBE62C, size: 0x8, addend: 0x0, symName: '__ZN99_$LT$alloc..collections..btree..map..BTreeMap$LT$K$C$V$C$A$GT$$u20$as$u20$core..ops..drop..Drop$GT$4drop17h35f7cb44e7ffb046E', symObjAddr: 0x1538C, symBinAddr: 0x189E0, symSize: 0x114 }
  - { offset: 0xBEADA, size: 0x8, addend: 0x0, symName: '__ZN99_$LT$alloc..collections..btree..map..BTreeMap$LT$K$C$V$C$A$GT$$u20$as$u20$core..ops..drop..Drop$GT$4drop17h7238de8f739689b7E', symObjAddr: 0x154A0, symBinAddr: 0x18AF4, symSize: 0x10C }
  - { offset: 0xBEF4F, size: 0x8, addend: 0x0, symName: '__ZN99_$LT$alloc..collections..btree..map..BTreeMap$LT$K$C$V$C$A$GT$$u20$as$u20$core..ops..drop..Drop$GT$4drop17haffc83fcf1d2ddd2E', symObjAddr: 0x155AC, symBinAddr: 0x18C00, symSize: 0x100 }
  - { offset: 0xBF44D, size: 0x8, addend: 0x0, symName: '__ZN99_$LT$alloc..collections..btree..map..BTreeMap$LT$K$C$V$C$A$GT$$u20$as$u20$core..ops..drop..Drop$GT$4drop17hc957f458109c6b5eE', symObjAddr: 0x156AC, symBinAddr: 0x18D00, symSize: 0x124 }
  - { offset: 0xBF8F8, size: 0x8, addend: 0x0, symName: '__ZN99_$LT$alloc..collections..btree..map..IntoIter$LT$K$C$V$C$A$GT$$u20$as$u20$core..ops..drop..Drop$GT$4drop17h1292d53484499374E', symObjAddr: 0x14664, symBinAddr: 0x17CB8, symSize: 0x44 }
  - { offset: 0xC002B, size: 0x8, addend: 0x0, symName: '__ZN96_$LT$alloc..collections..btree..map..BTreeMap$LT$K$C$V$C$A$GT$$u20$as$u20$core..clone..Clone$GT$5clone13clone_subtree17h40afc8b0e79f14a2E', symObjAddr: 0x151D0, symBinAddr: 0x18824, symSize: 0x15C }
  - { offset: 0xC33C3, size: 0x8, addend: 0x0, symName: '__ZN5alloc5slice29_$LT$impl$u20$$u5b$T$u5d$$GT$11sort_by_key28_$u7b$$u7b$closure$u7d$$u7d$17h10a84e14a0c515abE.982', symObjAddr: 0x1426C, symBinAddr: 0x178C0, symSize: 0x14 }
  - { offset: 0xC39F1, size: 0x8, addend: 0x0, symName: '__ZN65_$LT$serde_json..value..Value$u20$as$u20$core..cmp..PartialEq$GT$2eq17hdace3179dc062c8cE', symObjAddr: 0x14064, symBinAddr: 0x176B8, symSize: 0x1B8 }
  - { offset: 0xC53FC, size: 0x8, addend: 0x0, symName: '__ZN5alloc11collections5btree3map25IntoIter$LT$K$C$V$C$A$GT$10dying_next17hdab3ce0adee78d47E', symObjAddr: 0x13F08, symBinAddr: 0x1755C, symSize: 0x144 }
  - { offset: 0xC5CD8, size: 0x8, addend: 0x0, symName: '__ZN5alloc11collections5btree3map25BTreeMap$LT$K$C$V$C$A$GT$16extract_if_inner17h1c47e634a2f91c85E', symObjAddr: 0x145F0, symBinAddr: 0x17C44, symSize: 0x3C }
  - { offset: 0xC5CF9, size: 0x8, addend: 0x0, symName: '__ZN5alloc11collections5btree3map25BTreeMap$LT$K$C$V$C$A$GT$16extract_if_inner17h1c47e634a2f91c85E', symObjAddr: 0x145F0, symBinAddr: 0x17C44, symSize: 0x3C }
  - { offset: 0xC5D17, size: 0x8, addend: 0x0, symName: '__ZN5alloc11collections5btree3map25BTreeMap$LT$K$C$V$C$A$GT$16extract_if_inner17h1c47e634a2f91c85E', symObjAddr: 0x145F0, symBinAddr: 0x17C44, symSize: 0x3C }
  - { offset: 0xC60B5, size: 0x8, addend: 0x0, symName: '__ZN5alloc11collections5btree3map25BTreeMap$LT$K$C$V$C$A$GT$6insert17h0379678767ad35bbE', symObjAddr: 0x146A8, symBinAddr: 0x17CFC, symSize: 0x490 }
  - { offset: 0xC70E4, size: 0x8, addend: 0x0, symName: '__ZN5alloc11collections5btree3map25BTreeMap$LT$K$C$V$C$A$GT$6insert17h6ad5ebb2f8ba3092E', symObjAddr: 0x14B38, symBinAddr: 0x1818C, symSize: 0x4F4 }
  - { offset: 0xC832E, size: 0x8, addend: 0x0, symName: '__ZN5alloc11collections5btree3map25BTreeMap$LT$K$C$V$C$A$GT$7get_mut17hf2ab5ad7a76a5e58E', symObjAddr: 0x1502C, symBinAddr: 0x18680, symSize: 0x8C }
  - { offset: 0xC8E50, size: 0x8, addend: 0x0, symName: __ZN14powersync_core4bson6parser6Parser5error17hbb7d87236571a0d8E, symObjAddr: 0x157D0, symBinAddr: 0x4255C, symSize: 0x14 }
  - { offset: 0xC8FC6, size: 0x8, addend: 0x0, symName: __ZN14powersync_core4bson6parser6Parser10read_int3217heb8d076f51cfeb3fE, symObjAddr: 0x157E4, symBinAddr: 0x18E24, symSize: 0x58 }
  - { offset: 0xC9125, size: 0x8, addend: 0x0, symName: __ZN14powersync_core4bson6parser6Parser15advance_checked17hd40c379681b95fafE, symObjAddr: 0x1583C, symBinAddr: 0x18E7C, symSize: 0x58 }
  - { offset: 0xC9279, size: 0x8, addend: 0x0, symName: __ZN14powersync_core4bson6parser6Parser10read_int6417h3954df8caab095aaE, symObjAddr: 0x15894, symBinAddr: 0x18ED4, symSize: 0x28 }
  - { offset: 0xC933A, size: 0x8, addend: 0x0, symName: __ZN14powersync_core4bson6parser6Parser13advance_bytes17he34f8f45fda48b66E, symObjAddr: 0x158BC, symBinAddr: 0x18EFC, symSize: 0x50 }
  - { offset: 0xC93EB, size: 0x8, addend: 0x0, symName: __ZN14powersync_core4bson6parser6Parser11read_double17haceac2cde64c50eaE, symObjAddr: 0x1590C, symBinAddr: 0x18F4C, symSize: 0x3C }
  - { offset: 0xC949A, size: 0x8, addend: 0x0, symName: __ZN14powersync_core4bson6parser6Parser9read_bool17hf3f61e0ff4cb7ec3E, symObjAddr: 0x15948, symBinAddr: 0x18F88, symSize: 0x48 }
  - { offset: 0xC951C, size: 0x8, addend: 0x0, symName: __ZN14powersync_core4bson6parser6Parser12advance_byte17hb090949b509dbe33E, symObjAddr: 0x15990, symBinAddr: 0x18FD0, symSize: 0x50 }
  - { offset: 0xC95AC, size: 0x8, addend: 0x0, symName: __ZN14powersync_core4bson6parser6Parser14read_object_id17hdb076712ef5cd379E, symObjAddr: 0x159E0, symBinAddr: 0x19020, symSize: 0x8 }
  - { offset: 0xC962E, size: 0x8, addend: 0x0, symName: __ZN14powersync_core4bson6parser6Parser11read_string17h8d69c2503b1c7ba9E, symObjAddr: 0x159E8, symBinAddr: 0x19028, symSize: 0xA0 }
  - { offset: 0xC9841, size: 0x8, addend: 0x0, symName: __ZN14powersync_core4bson6parser6Parser11read_length17hdf8e25cec15408acE, symObjAddr: 0x15A88, symBinAddr: 0x190C8, symSize: 0x5C }
  - { offset: 0xC98D4, size: 0x8, addend: 0x0, symName: __ZN14powersync_core4bson6parser6Parser11read_binary17h2151f35340eb0591E, symObjAddr: 0x15AE4, symBinAddr: 0x19124, symSize: 0x7C }
  - { offset: 0xC9A28, size: 0x8, addend: 0x0, symName: __ZN14powersync_core4bson6parser6Parser9subreader17h18c676dd63918c08E, symObjAddr: 0x15B60, symBinAddr: 0x191A0, symSize: 0x38 }
  - { offset: 0xC9B12, size: 0x8, addend: 0x0, symName: __ZN14powersync_core4bson6parser6Parser13skip_document17h26ad4c9feeda8f3eE, symObjAddr: 0x15B98, symBinAddr: 0x191D8, symSize: 0x74 }
  - { offset: 0xCA808, size: 0x8, addend: 0x0, symName: _OUTLINED_FUNCTION_44, symObjAddr: 0x3B3C8, symBinAddr: 0x3D908, symSize: 0x18 }
  - { offset: 0xCA81F, size: 0x8, addend: 0x0, symName: _OUTLINED_FUNCTION_117, symObjAddr: 0x3B9B8, symBinAddr: 0x3DEF8, symSize: 0x1C }
  - { offset: 0xCA836, size: 0x8, addend: 0x0, symName: _OUTLINED_FUNCTION_265, symObjAddr: 0x3C35C, symBinAddr: 0x3E89C, symSize: 0xC }
  - { offset: 0xCA84D, size: 0x8, addend: 0x0, symName: _OUTLINED_FUNCTION_291, symObjAddr: 0x3C4E4, symBinAddr: 0x3EA24, symSize: 0x8 }
  - { offset: 0xCA864, size: 0x8, addend: 0x0, symName: _OUTLINED_FUNCTION_327, symObjAddr: 0x3C6A4, symBinAddr: 0x3EBE4, symSize: 0x10 }
  - { offset: 0xCA87B, size: 0x8, addend: 0x0, symName: _OUTLINED_FUNCTION_334, symObjAddr: 0x3C704, symBinAddr: 0x3EC44, symSize: 0x10 }
  - { offset: 0xCA892, size: 0x8, addend: 0x0, symName: _OUTLINED_FUNCTION_376, symObjAddr: 0x3C954, symBinAddr: 0x3EE94, symSize: 0x10 }
  - { offset: 0xCA8A9, size: 0x8, addend: 0x0, symName: _OUTLINED_FUNCTION_420, symObjAddr: 0x3CBDC, symBinAddr: 0x3F11C, symSize: 0x8 }
  - { offset: 0xCA8C0, size: 0x8, addend: 0x0, symName: _OUTLINED_FUNCTION_446, symObjAddr: 0x3CCF0, symBinAddr: 0x3F230, symSize: 0xC }
  - { offset: 0xCA8D7, size: 0x8, addend: 0x0, symName: _OUTLINED_FUNCTION_463, symObjAddr: 0x3CDF4, symBinAddr: 0x3F334, symSize: 0x8 }
  - { offset: 0xCA8EE, size: 0x8, addend: 0x0, symName: _OUTLINED_FUNCTION_487, symObjAddr: 0x3CF90, symBinAddr: 0x3F4D0, symSize: 0xC }
  - { offset: 0xCA905, size: 0x8, addend: 0x0, symName: _OUTLINED_FUNCTION_506, symObjAddr: 0x3D0A0, symBinAddr: 0x3F5E0, symSize: 0x18 }
  - { offset: 0xCA91C, size: 0x8, addend: 0x0, symName: _OUTLINED_FUNCTION_507, symObjAddr: 0x3D0B8, symBinAddr: 0x3F5F8, symSize: 0xC }
  - { offset: 0xCA933, size: 0x8, addend: 0x0, symName: _OUTLINED_FUNCTION_508, symObjAddr: 0x3D0C4, symBinAddr: 0x3F604, symSize: 0x10 }
  - { offset: 0xCA94A, size: 0x8, addend: 0x0, symName: _OUTLINED_FUNCTION_520, symObjAddr: 0x3D17C, symBinAddr: 0x3F6BC, symSize: 0x8 }
  - { offset: 0xCA961, size: 0x8, addend: 0x0, symName: _OUTLINED_FUNCTION_525, symObjAddr: 0x3D1D0, symBinAddr: 0x3F710, symSize: 0xC }
  - { offset: 0xCA978, size: 0x8, addend: 0x0, symName: _OUTLINED_FUNCTION_526, symObjAddr: 0x3D1DC, symBinAddr: 0x3F71C, symSize: 0x14 }
  - { offset: 0xCA98F, size: 0x8, addend: 0x0, symName: _OUTLINED_FUNCTION_571, symObjAddr: 0x3D420, symBinAddr: 0x3F960, symSize: 0x14 }
  - { offset: 0xCA9A6, size: 0x8, addend: 0x0, symName: _OUTLINED_FUNCTION_624, symObjAddr: 0x3D730, symBinAddr: 0x3FC70, symSize: 0x24 }
  - { offset: 0xCA9BD, size: 0x8, addend: 0x0, symName: _OUTLINED_FUNCTION_725, symObjAddr: 0x3DD24, symBinAddr: 0x40264, symSize: 0x10 }
  - { offset: 0xCA9D4, size: 0x8, addend: 0x0, symName: _OUTLINED_FUNCTION_739, symObjAddr: 0x3DDC0, symBinAddr: 0x40300, symSize: 0x1C }
  - { offset: 0xCA9EB, size: 0x8, addend: 0x0, symName: _OUTLINED_FUNCTION_745, symObjAddr: 0x3DE18, symBinAddr: 0x40358, symSize: 0x10 }
  - { offset: 0xCAA02, size: 0x8, addend: 0x0, symName: _OUTLINED_FUNCTION_768, symObjAddr: 0x3DF78, symBinAddr: 0x404B8, symSize: 0x8 }
  - { offset: 0xCAA19, size: 0x8, addend: 0x0, symName: _OUTLINED_FUNCTION_783, symObjAddr: 0x3E03C, symBinAddr: 0x4057C, symSize: 0x8 }
  - { offset: 0xCAA30, size: 0x8, addend: 0x0, symName: _OUTLINED_FUNCTION_872, symObjAddr: 0x3E51C, symBinAddr: 0x40A5C, symSize: 0x18 }
  - { offset: 0xCAA47, size: 0x8, addend: 0x0, symName: _OUTLINED_FUNCTION_878, symObjAddr: 0x3E57C, symBinAddr: 0x40ABC, symSize: 0xC }
  - { offset: 0xCAA5E, size: 0x8, addend: 0x0, symName: _OUTLINED_FUNCTION_892, symObjAddr: 0x3E660, symBinAddr: 0x40BA0, symSize: 0x18 }
  - { offset: 0xCAA75, size: 0x8, addend: 0x0, symName: _OUTLINED_FUNCTION_904, symObjAddr: 0x3E714, symBinAddr: 0x40C54, symSize: 0xC }
  - { offset: 0xCAA8C, size: 0x8, addend: 0x0, symName: _OUTLINED_FUNCTION_946, symObjAddr: 0x3E924, symBinAddr: 0x40E64, symSize: 0x18 }
  - { offset: 0xCAAA3, size: 0x8, addend: 0x0, symName: _OUTLINED_FUNCTION_952, symObjAddr: 0x3E974, symBinAddr: 0x40EB4, symSize: 0x18 }
  - { offset: 0xCAABA, size: 0x8, addend: 0x0, symName: _OUTLINED_FUNCTION_959, symObjAddr: 0x3E9CC, symBinAddr: 0x40F0C, symSize: 0xC }
  - { offset: 0xCAAD1, size: 0x8, addend: 0x0, symName: _OUTLINED_FUNCTION_975, symObjAddr: 0x3EA74, symBinAddr: 0x40FB4, symSize: 0xC }
  - { offset: 0xCAAE8, size: 0x8, addend: 0x0, symName: _OUTLINED_FUNCTION_1071, symObjAddr: 0x3EE18, symBinAddr: 0x41358, symSize: 0x8 }
  - { offset: 0xCAAFF, size: 0x8, addend: 0x0, symName: _OUTLINED_FUNCTION_1112, symObjAddr: 0x3EFD8, symBinAddr: 0x41518, symSize: 0xC }
  - { offset: 0xCAB16, size: 0x8, addend: 0x0, symName: _OUTLINED_FUNCTION_1113, symObjAddr: 0x3EFE4, symBinAddr: 0x41524, symSize: 0xC }
  - { offset: 0xCAB2D, size: 0x8, addend: 0x0, symName: _OUTLINED_FUNCTION_1146, symObjAddr: 0x3F1E0, symBinAddr: 0x41720, symSize: 0xC }
  - { offset: 0xCAB44, size: 0x8, addend: 0x0, symName: _OUTLINED_FUNCTION_1208, symObjAddr: 0x3F580, symBinAddr: 0x41AC0, symSize: 0x1C }
  - { offset: 0x1A41AF, size: 0x8, addend: 0x0, symName: __ZN10serde_json4read4HEX017hd205394a7c21bd7eE, symObjAddr: 0x4AF70, symBinAddr: 0x4F020, symSize: 0x0 }
  - { offset: 0x1A41CB, size: 0x8, addend: 0x0, symName: __ZN10serde_json4read4HEX117h88884a6655ff0391E, symObjAddr: 0x4B170, symBinAddr: 0x4F220, symSize: 0x0 }
  - { offset: 0x1A41F7, size: 0x8, addend: 0x0, symName: '__ZN70_$LT$serde_json..read..SliceRead$u20$as$u20$serde_json..read..Read$GT$8position17h0c2d74bfbfb96d2eE', symObjAddr: 0x35EF8, symBinAddr: 0x389EC, symSize: 0x10 }
  - { offset: 0x1A4253, size: 0x8, addend: 0x0, symName: '__ZN70_$LT$serde_json..read..SliceRead$u20$as$u20$serde_json..read..Read$GT$17decode_hex_escape17ha49a44cc3c3675daE', symObjAddr: 0x363F8, symBinAddr: 0x38E88, symSize: 0xB4 }
  - { offset: 0x1A4520, size: 0x8, addend: 0x0, symName: '__ZN68_$LT$serde_json..read..StrRead$u20$as$u20$serde_json..read..Read$GT$9parse_str17h976506c91ee96764E', symObjAddr: 0x3663C, symBinAddr: 0x39040, symSize: 0x2F0 }
  - { offset: 0x1A4869, size: 0x8, addend: 0x0, symName: '__ZN68_$LT$serde_json..read..StrRead$u20$as$u20$serde_json..read..Read$GT$10ignore_str17hbaafea08ff258d93E', symObjAddr: 0x3692C, symBinAddr: 0x39330, symSize: 0x120 }
  - { offset: 0x1A496C, size: 0x8, addend: 0x0, symName: __ZN10serde_json4read5error17hd50f568d53eb4e96E, symObjAddr: 0x3630C, symBinAddr: 0x430BC, symSize: 0x30 }
  - { offset: 0x1A4A15, size: 0x8, addend: 0x0, symName: __ZN10serde_json4read11next_or_eof17hfcd8b120d2aa7b07E, symObjAddr: 0x3633C, symBinAddr: 0x38E00, symSize: 0x44 }
  - { offset: 0x1A4A47, size: 0x8, addend: 0x0, symName: __ZN10serde_json4read11next_or_eof17hfcd8b120d2aa7b07E, symObjAddr: 0x3633C, symBinAddr: 0x38E00, symSize: 0x44 }
  - { offset: 0x1A4A9C, size: 0x8, addend: 0x0, symName: __ZN10serde_json4read5error17h46344d55d0112487E, symObjAddr: 0x36380, symBinAddr: 0x430EC, symSize: 0x34 }
  - { offset: 0x1A4BE6, size: 0x8, addend: 0x0, symName: __ZN10serde_json4read11peek_or_eof17hac4e52b41d2c9cb5E, symObjAddr: 0x364AC, symBinAddr: 0x38F3C, symSize: 0x34 }
  - { offset: 0x1A4C18, size: 0x8, addend: 0x0, symName: __ZN10serde_json4read11peek_or_eof17hac4e52b41d2c9cb5E, symObjAddr: 0x364AC, symBinAddr: 0x38F3C, symSize: 0x34 }
  - { offset: 0x1A4C3B, size: 0x8, addend: 0x0, symName: __ZN10serde_json4read19push_wtf8_codepoint17h4cfd1109b2298bc8E, symObjAddr: 0x364E0, symBinAddr: 0x38F70, symSize: 0xD0 }
  - { offset: 0x1A4F95, size: 0x8, addend: 0x0, symName: __ZN10serde_json4read5error17hd9fc4814f08deb46E, symObjAddr: 0x365B0, symBinAddr: 0x43120, symSize: 0x28 }
  - { offset: 0x1A5000, size: 0x8, addend: 0x0, symName: __ZN10serde_json4read5error17h264f20d126f4f405E, symObjAddr: 0x365D8, symBinAddr: 0x43148, symSize: 0x28 }
  - { offset: 0x1A62BC, size: 0x8, addend: 0x0, symName: __ZN10serde_json4read9SliceRead17position_of_index17h0d34d28040991bf2E, symObjAddr: 0x35F08, symBinAddr: 0x389FC, symSize: 0x318 }
  - { offset: 0x1A7D4C, size: 0x8, addend: 0x0, symName: __ZN10serde_json4read9SliceRead14skip_to_escape17h4f3f5f64cb4e060fE, symObjAddr: 0x36220, symBinAddr: 0x38D14, symSize: 0xEC }
  - { offset: 0x1A840E, size: 0x8, addend: 0x0, symName: '__ZN5alloc3vec16Vec$LT$T$C$A$GT$4push17heb7fe566dffd0abbE', symObjAddr: 0x363B4, symBinAddr: 0x38E44, symSize: 0x44 }
  - { offset: 0x1A85A1, size: 0x8, addend: 0x0, symName: __ZN10serde_json4read9SliceRead19skip_to_escape_slow17h241b586fcc971424E, symObjAddr: 0x36600, symBinAddr: 0x43170, symSize: 0x3C }
  - { offset: 0x1A87AB, size: 0x8, addend: 0x0, symName: _OUTLINED_FUNCTION_240, symObjAddr: 0x3C1E4, symBinAddr: 0x3E724, symSize: 0x1C }
  - { offset: 0x1A87C2, size: 0x8, addend: 0x0, symName: _OUTLINED_FUNCTION_289, symObjAddr: 0x3C4B4, symBinAddr: 0x3E9F4, symSize: 0x24 }
  - { offset: 0x1A87D9, size: 0x8, addend: 0x0, symName: _OUTLINED_FUNCTION_740, symObjAddr: 0x3DDDC, symBinAddr: 0x4031C, symSize: 0x10 }
  - { offset: 0x1A87F0, size: 0x8, addend: 0x0, symName: _OUTLINED_FUNCTION_757, symObjAddr: 0x3DED0, symBinAddr: 0x40410, symSize: 0x10 }
  - { offset: 0x1A8807, size: 0x8, addend: 0x0, symName: _OUTLINED_FUNCTION_1142, symObjAddr: 0x3F1A8, symBinAddr: 0x416E8, symSize: 0x14 }
  - { offset: 0x1B86AB, size: 0x8, addend: 0x0, symName: '__ZN4core3ptr73drop_in_place$LT$core..option..Option$LT$serde_json..value..Value$GT$$GT$17hd8ecbf9826057304E', symObjAddr: 0x39690, symBinAddr: 0x3BBDC, symSize: 0x60 }
  - { offset: 0x1B88CC, size: 0x8, addend: 0x0, symName: '__ZN4core3ptr73drop_in_place$LT$core..option..Option$LT$serde_json..value..Value$GT$$GT$17hd8ecbf9826057304E', symObjAddr: 0x39690, symBinAddr: 0x3BBDC, symSize: 0x60 }
  - { offset: 0x1C1142, size: 0x8, addend: 0x0, symName: '__ZN44_$LT$$RF$T$u20$as$u20$core..fmt..Display$GT$3fmt17h33e3634f0987a67bE', symObjAddr: 0x3A0A4, symBinAddr: 0x3C5F0, symSize: 0x10 }
  - { offset: 0x1C1D03, size: 0x8, addend: 0x0, symName: '__ZN44_$LT$$RF$T$u20$as$u20$core..fmt..Display$GT$3fmt17h33e3634f0987a67bE', symObjAddr: 0x3A0A4, symBinAddr: 0x3C5F0, symSize: 0x10 }
  - { offset: 0x1C1E18, size: 0x8, addend: 0x0, symName: '__ZN4core5slice29_$LT$impl$u20$$u5b$T$u5d$$GT$11starts_with17h92ee3d7726f32360E', symObjAddr: 0x3A0F0, symBinAddr: 0x3C63C, symSize: 0x20 }
  - { offset: 0x1C1E56, size: 0x8, addend: 0x0, symName: '__ZN4core5slice29_$LT$impl$u20$$u5b$T$u5d$$GT$11starts_with17h92ee3d7726f32360E', symObjAddr: 0x3A0F0, symBinAddr: 0x3C63C, symSize: 0x20 }
  - { offset: 0x1C2503, size: 0x8, addend: 0x0, symName: '__ZN65_$LT$serde_json..io..imp..Error$u20$as$u20$core..fmt..Display$GT$3fmt17hf972eaff6619b566E', symObjAddr: 0x3A144, symBinAddr: 0x43664, symSize: 0xC }
  - { offset: 0x1C2742, size: 0x8, addend: 0x0, symName: '__ZN77_$LT$alloc..raw_vec..RawVec$LT$T$C$A$GT$$u20$as$u20$core..ops..drop..Drop$GT$4drop17h0c85b4bd51cf9b49E', symObjAddr: 0x3A0E4, symBinAddr: 0x3C630, symSize: 0xC }
  - { offset: 0x1C2788, size: 0x8, addend: 0x0, symName: '__ZN63_$LT$alloc..alloc..Global$u20$as$u20$core..alloc..Allocator$GT$8allocate17hf8c099a57ad288afE.3086', symObjAddr: 0x3A110, symBinAddr: 0x3C65C, symSize: 0x4 }
  - { offset: 0x1C29FC, size: 0x8, addend: 0x0, symName: '__ZN70_$LT$alloc..vec..Vec$LT$T$C$A$GT$$u20$as$u20$core..ops..drop..Drop$GT$4drop17h492aef0e938f5dd1E', symObjAddr: 0x3A0B4, symBinAddr: 0x3C600, symSize: 0x30 }
  - { offset: 0x1C345A, size: 0x8, addend: 0x0, symName: '__ZN5alloc7raw_vec19RawVec$LT$T$C$A$GT$8grow_one17h4400f0d7fa121d96E', symObjAddr: 0x3A114, symBinAddr: 0x3C660, symSize: 0x30 }
  - { offset: 0x66BC, size: 0x8, addend: 0x0, symName: '__ZN72_$LT$$RF$str$u20$as$u20$alloc..ffi..c_str..CString..new..SpecNewImpl$GT$13spec_new_impl17hd6f2fb12da96263eE', symObjAddr: 0x800, symBinAddr: 0x4764, symSize: 0xF0 }
  - { offset: 0x708E, size: 0x8, addend: 0x0, symName: __ZN5alloc3ffi5c_str7CString19_from_vec_unchecked17h0535814ff58087c3E, symObjAddr: 0x71C, symBinAddr: 0x4680, symSize: 0xE4 }
  - { offset: 0x766D, size: 0x8, addend: 0x0, symName: _OUTLINED_FUNCTION_55, symObjAddr: 0x3B498, symBinAddr: 0x3D9D8, symSize: 0x10 }
  - { offset: 0x7684, size: 0x8, addend: 0x0, symName: _OUTLINED_FUNCTION_92, symObjAddr: 0x3B7A8, symBinAddr: 0x3DCE8, symSize: 0x10 }
  - { offset: 0x769B, size: 0x8, addend: 0x0, symName: _OUTLINED_FUNCTION_445, symObjAddr: 0x3CCE4, symBinAddr: 0x3F224, symSize: 0xC }
  - { offset: 0x76B2, size: 0x8, addend: 0x0, symName: _OUTLINED_FUNCTION_597, symObjAddr: 0x3D590, symBinAddr: 0x3FAD0, symSize: 0xC }
  - { offset: 0x76C9, size: 0x8, addend: 0x0, symName: _OUTLINED_FUNCTION_634, symObjAddr: 0x3D7F0, symBinAddr: 0x3FD30, symSize: 0xC }
  - { offset: 0x19934E, size: 0x8, addend: 0x0, symName: '__ZN128_$LT$$LT$serde..de..WithDecimalPoint$u20$as$u20$core..fmt..Display$GT$..fmt..LookForDecimalPoint$u20$as$u20$core..fmt..Write$GT$9write_str17h6ff392150c06c104E', symObjAddr: 0x356F4, symBinAddr: 0x381E8, symSize: 0x74 }
  - { offset: 0x199490, size: 0x8, addend: 0x0, symName: '__ZN128_$LT$$LT$serde..de..WithDecimalPoint$u20$as$u20$core..fmt..Display$GT$..fmt..LookForDecimalPoint$u20$as$u20$core..fmt..Write$GT$10write_char17hba263207bcab0885E', symObjAddr: 0x35768, symBinAddr: 0x3825C, symSize: 0x1C }
  - { offset: 0x1994CE, size: 0x8, addend: 0x0, symName: '__ZN66_$LT$serde..de..WithDecimalPoint$u20$as$u20$core..fmt..Display$GT$3fmt17ha725e1799f95208eE', symObjAddr: 0x35A14, symBinAddr: 0x38508, symSize: 0xBC }
  - { offset: 0x19994C, size: 0x8, addend: 0x0, symName: '__ZN60_$LT$serde..de..Unexpected$u20$as$u20$core..fmt..Display$GT$3fmt17h160cbb119e4ce245E', symObjAddr: 0x357D0, symBinAddr: 0x382C4, symSize: 0x244 }
  - { offset: 0x199C98, size: 0x8, addend: 0x0, symName: '__ZN47_$LT$$RF$str$u20$as$u20$serde..de..Expected$GT$3fmt17h9ca3cd56984c50f6E', symObjAddr: 0x35AD0, symBinAddr: 0x385C4, symSize: 0x8 }
  - { offset: 0x199CD9, size: 0x8, addend: 0x0, symName: '__ZN55_$LT$serde..de..OneOf$u20$as$u20$core..fmt..Display$GT$3fmt17haa81c4de5a6db093E', symObjAddr: 0x35AD8, symBinAddr: 0x385CC, symSize: 0x164 }
  - { offset: 0x19A315, size: 0x8, addend: 0x0, symName: '__ZN44_$LT$$RF$T$u20$as$u20$core..fmt..Display$GT$3fmt17h6dbec31f1d193a22E', symObjAddr: 0x35670, symBinAddr: 0x38164, symSize: 0x8 }
  - { offset: 0x19A3AC, size: 0x8, addend: 0x0, symName: __ZN4core3fmt5Write9write_fmt17h5c1c635f908e3fdfE, symObjAddr: 0x35678, symBinAddr: 0x3816C, symSize: 0x48 }
  - { offset: 0x19B910, size: 0x8, addend: 0x0, symName: __ZN4core3fmt9Arguments23as_statically_known_str17hebe8921f6721a8a2E.2760, symObjAddr: 0x356C0, symBinAddr: 0x381B4, symSize: 0x34 }
  - { offset: 0x19B935, size: 0x8, addend: 0x0, symName: __ZN4core3fmt9Arguments23as_statically_known_str17hebe8921f6721a8a2E.2760, symObjAddr: 0x356C0, symBinAddr: 0x381B4, symSize: 0x34 }
  - { offset: 0x19B98F, size: 0x8, addend: 0x0, symName: __ZN4core3fmt9Formatter9write_fmt17hac6a9372802011c5E.2763, symObjAddr: 0x35784, symBinAddr: 0x38278, symSize: 0x4C }
  - { offset: 0x19BB1A, size: 0x8, addend: 0x0, symName: _OUTLINED_FUNCTION_273, symObjAddr: 0x3C3BC, symBinAddr: 0x3E8FC, symSize: 0x14 }
  - { offset: 0x19BB31, size: 0x8, addend: 0x0, symName: _OUTLINED_FUNCTION_883, symObjAddr: 0x3E5C4, symBinAddr: 0x40B04, symSize: 0xC }
  - { offset: 0x1B34E5, size: 0x8, addend: 0x0, symName: __ZN10serde_json3ser9Formatter10end_object17hb8be1fd573f45454E, symObjAddr: 0x390A0, symBinAddr: 0x3B60C, symSize: 0x14 }
  - { offset: 0x1B3520, size: 0x8, addend: 0x0, symName: __ZN10serde_json3ser9Formatter10end_object17hb8be1fd573f45454E, symObjAddr: 0x390A0, symBinAddr: 0x3B60C, symSize: 0x14 }
  - { offset: 0x1B353E, size: 0x8, addend: 0x0, symName: __ZN10serde_json3ser9Formatter10end_object17hb8be1fd573f45454E, symObjAddr: 0x390A0, symBinAddr: 0x3B60C, symSize: 0x14 }
  - { offset: 0x1B355B, size: 0x8, addend: 0x0, symName: __ZN10serde_json3ser9Formatter10end_object17hb8be1fd573f45454E, symObjAddr: 0x390A0, symBinAddr: 0x3B60C, symSize: 0x14 }
  - { offset: 0x1B3574, size: 0x8, addend: 0x0, symName: __ZN10serde_json3ser9Formatter10end_object17hb8be1fd573f45454E, symObjAddr: 0x390A0, symBinAddr: 0x3B60C, symSize: 0x14 }
  - { offset: 0x1B47F6, size: 0x8, addend: 0x0, symName: _OUTLINED_FUNCTION_599, symObjAddr: 0x3D5B0, symBinAddr: 0x3FAF0, symSize: 0xC }
...
