---
triple:          'x86_64-apple-darwin'
binary-path:     './build/tvos-arm64_x86_64-simulator/powersync-sqlite-core.framework/powersync-sqlite-core'
relocations:
  - { offset: 0x1E, size: 0x8, addend: 0x0, symName: _rust_eh_personality, symObjAddr: 0x0, symBinAddr: 0x650, symSize: 0x6 }
  - { offset: 0x30, size: 0x8, addend: 0x0, symName: _rust_eh_personality, symObjAddr: 0x0, symBinAddr: 0x650, symSize: 0x6 }
  - { offset: 0x4E, size: 0x8, addend: 0x0, symName: __RNvCsk8UOdKf0bkt_7___rustc14___rust_realloc, symObjAddr: 0x6, symBinAddr: 0x656, symSize: 0x4D }
  - { offset: 0x1377FC, size: 0x8, addend: 0x0, symName: '__ZN104_$LT$alloc..collections..btree..set..Iter$LT$T$GT$$u20$as$u20$core..iter..traits..iterator..Iterator$GT$4next17h23f298a6f9f99f5fE', symObjAddr: 0x32229, symBinAddr: 0x31925, symSize: 0xA }
  - { offset: 0x137822, size: 0x8, addend: 0x0, symName: __ZN14powersync_core9crud_vtab6MODULE17hf81d3309f9fcaae6E, symObjAddr: 0x51660, symBinAddr: 0x5F010, symSize: 0x0 }
  - { offset: 0x137A56, size: 0x8, addend: 0x0, symName: __ZN14powersync_core9crud_vtab7connect17h876be833e04c8038E, symObjAddr: 0x33E10, symBinAddr: 0x334D4, symSize: 0xDE }
  - { offset: 0x1380AE, size: 0x8, addend: 0x0, symName: __ZN14powersync_core9crud_vtab6update17h70b6f273799cdeb7E, symObjAddr: 0x33EEE, symBinAddr: 0x335B2, symSize: 0x61D }
  - { offset: 0x138BDC, size: 0x8, addend: 0x0, symName: __ZN14powersync_core9crud_vtab5begin17h11e91f090da21a32E, symObjAddr: 0x3450B, symBinAddr: 0x33BCF, symSize: 0xCA }
  - { offset: 0x138D99, size: 0x8, addend: 0x0, symName: __ZN14powersync_core9crud_vtab6commit17hec4e32de2931121cE, symObjAddr: 0x345D5, symBinAddr: 0x33C99, symSize: 0xD }
  - { offset: 0x1397AA, size: 0x8, addend: 0x0, symName: __ZN14powersync_core5state8register4func17hbce14925d08287efE, symObjAddr: 0x33CE4, symBinAddr: 0x333A8, symSize: 0x51 }
  - { offset: 0x139ABC, size: 0x8, addend: 0x0, symName: '__ZN89_$LT$sqlite_nostd..nostd..ManagedStmt$u20$as$u20$powersync_core..ext..SafeManagedStmt$GT$4exec17hc81c1d81c46f409bE', symObjAddr: 0x32855, symBinAddr: 0x31F19, symSize: 0x43 }
  - { offset: 0x13A0A9, size: 0x8, addend: 0x0, symName: __ZN14powersync_core9json_util20powersync_json_merge17hb6057f2389113fa3E, symObjAddr: 0x33280, symBinAddr: 0x32944, symSize: 0x1B9 }
  - { offset: 0x13A689, size: 0x8, addend: 0x0, symName: __ZN14powersync_core9json_util23powersync_strip_subtype17hbab25b5472ac6db6E, symObjAddr: 0x33439, symBinAddr: 0x32AFD, symSize: 0x42 }
  - { offset: 0x13A8E8, size: 0x8, addend: 0x0, symName: __ZN14powersync_core10view_admin19powersync_drop_view17hc1aa08c4f8834364E, symObjAddr: 0x3347B, symBinAddr: 0x32B3F, symSize: 0x18A }
  - { offset: 0x13AE21, size: 0x8, addend: 0x0, symName: __ZN14powersync_core10view_admin14powersync_exec17h857d10d1b9a90e2eE, symObjAddr: 0x33605, symBinAddr: 0x32CC9, symSize: 0xCC }
  - { offset: 0x13B146, size: 0x8, addend: 0x0, symName: __ZN14powersync_core10view_admin14powersync_init17h5405f02399c1e7c7E, symObjAddr: 0x336D1, symBinAddr: 0x32D95, symSize: 0x115 }
  - { offset: 0x13B44A, size: 0x8, addend: 0x0, symName: __ZN14powersync_core10view_admin24powersync_test_migration17hcdcf216b46a1978cE, symObjAddr: 0x337E6, symBinAddr: 0x32EAA, symSize: 0x138 }
  - { offset: 0x13B75F, size: 0x8, addend: 0x0, symName: __ZN14powersync_core10view_admin15powersync_clear17h4c0bc460d3369463E, symObjAddr: 0x3391E, symBinAddr: 0x32FE2, symSize: 0x138 }
  - { offset: 0x13BA12, size: 0x8, addend: 0x0, symName: __ZN14powersync_core10view_admin29powersync_external_table_name17hd5da27f60c38faf1E, symObjAddr: 0x33A56, symBinAddr: 0x3311A, symSize: 0xEF }
  - { offset: 0x13BD64, size: 0x8, addend: 0x0, symName: __ZN14powersync_core10view_admin29powersync_internal_table_name17h9cc1395fd2262863E, symObjAddr: 0x33B45, symBinAddr: 0x33209, symSize: 0x19F }
  - { offset: 0x13C031, size: 0x8, addend: 0x0, symName: __ZN14powersync_core10view_admin20powersync_clear_impl17h172bc3d3f14b7b22E, symObjAddr: 0x351A6, symBinAddr: 0x3486A, symSize: 0x382 }
  - { offset: 0x13C87E, size: 0x8, addend: 0x0, symName: __ZN14powersync_core10view_admin29powersync_test_migration_impl17h595ddd8661dbc157E, symObjAddr: 0x35543, symBinAddr: 0x34C07, symSize: 0x59 }
  - { offset: 0x13C9F5, size: 0x8, addend: 0x0, symName: __ZN14powersync_core10view_admin19powersync_init_impl17h1f7c72df177dd615E, symObjAddr: 0x3559C, symBinAddr: 0x34C60, symSize: 0x9C }
  - { offset: 0x13CB46, size: 0x8, addend: 0x0, symName: _sqlite3_powersync_init, symObjAddr: 0x328B9, symBinAddr: 0x31F7D, symSize: 0x9AC }
  - { offset: 0x145BA7, size: 0x8, addend: 0x0, symName: '__ZN4core3ptr105drop_in_place$LT$core..result..Result$LT$alloc..ffi..c_str..CString$C$alloc..ffi..c_str..NulError$GT$$GT$17h74185be9efbd819aE.1763', symObjAddr: 0x33D35, symBinAddr: 0x333F9, symSize: 0x2C }
  - { offset: 0x145CBC, size: 0x8, addend: 0x0, symName: '__ZN4core3ptr58drop_in_place$LT$powersync_core..error..PowerSyncError$GT$17hbe010f0d6842a491E.1764', symObjAddr: 0x33D61, symBinAddr: 0x33425, symSize: 0xAF }
  - { offset: 0x145ED1, size: 0x8, addend: 0x0, symName: '__ZN4core3ptr97drop_in_place$LT$core..option..Option$LT$powersync_core..crud_vtab..ActiveCrudTransaction$GT$$GT$17h34037476c0b84679E', symObjAddr: 0x34603, symBinAddr: 0x33CC7, symSize: 0x42 }
  - { offset: 0x145F4A, size: 0x8, addend: 0x0, symName: '__ZN4core3ptr81drop_in_place$LT$core..option..Option$LT$sqlite_nostd..nostd..ManagedStmt$GT$$GT$17h2a2439cf402813eaE', symObjAddr: 0x34645, symBinAddr: 0x33D09, symSize: 0x14 }
  - { offset: 0x146018, size: 0x8, addend: 0x0, symName: '__ZN4core3ptr110drop_in_place$LT$core..result..Result$LT$alloc..string..String$C$powersync_core..error..PowerSyncError$GT$$GT$17h2d642e26790d0134E', symObjAddr: 0x35528, symBinAddr: 0x34BEC, symSize: 0x1B }
  - { offset: 0x1467BB, size: 0x8, addend: 0x0, symName: '__ZN4core3str6traits66_$LT$impl$u20$core..ops..index..Index$LT$I$GT$$u20$for$u20$str$GT$5index17h28dcd85bc078b28bE', symObjAddr: 0x35180, symBinAddr: 0x34844, symSize: 0x26 }
  - { offset: 0x1467FB, size: 0x8, addend: 0x0, symName: '__ZN4core3str6traits66_$LT$impl$u20$core..ops..index..Index$LT$I$GT$$u20$for$u20$str$GT$5index17h28dcd85bc078b28bE', symObjAddr: 0x35180, symBinAddr: 0x34844, symSize: 0x26 }
  - { offset: 0x14681B, size: 0x8, addend: 0x0, symName: '__ZN4core3str6traits66_$LT$impl$u20$core..ops..index..Index$LT$I$GT$$u20$for$u20$str$GT$5index17h28dcd85bc078b28bE', symObjAddr: 0x35180, symBinAddr: 0x34844, symSize: 0x26 }
  - { offset: 0x146859, size: 0x8, addend: 0x0, symName: '__ZN4core3str6traits66_$LT$impl$u20$core..ops..index..Index$LT$I$GT$$u20$for$u20$str$GT$5index17h28dcd85bc078b28bE', symObjAddr: 0x35180, symBinAddr: 0x34844, symSize: 0x26 }
  - { offset: 0x148ED6, size: 0x8, addend: 0x0, symName: '__ZN96_$LT$$BP$mut$u20$sqlite3_capi..bindings..sqlite3_value$u20$as$u20$sqlite_nostd..nostd..Value$GT$3int17h743ff1220b629872E', symObjAddr: 0x34EFF, symBinAddr: 0x345C3, symSize: 0x1E }
  - { offset: 0x148F04, size: 0x8, addend: 0x0, symName: '__ZN96_$LT$$BP$mut$u20$sqlite3_capi..bindings..sqlite3_value$u20$as$u20$sqlite_nostd..nostd..Value$GT$3int17h743ff1220b629872E', symObjAddr: 0x34EFF, symBinAddr: 0x345C3, symSize: 0x1E }
  - { offset: 0x149128, size: 0x8, addend: 0x0, symName: '__ZN95_$LT$$BP$mut$u20$sqlite3_capi..bindings..sqlite3$u20$as$u20$sqlite_nostd..nostd..Connection$GT$10prepare_v217h9b3ccd717d6996c2E.1777', symObjAddr: 0x34659, symBinAddr: 0x33D1D, symSize: 0x66 }
  - { offset: 0x1491C2, size: 0x8, addend: 0x0, symName: '__ZN95_$LT$$BP$mut$u20$sqlite3_capi..bindings..sqlite3$u20$as$u20$sqlite_nostd..nostd..Connection$GT$10prepare_v317h23c0e175c53efeffE', symObjAddr: 0x34E88, symBinAddr: 0x3454C, symSize: 0x77 }
  - { offset: 0x1492C5, size: 0x8, addend: 0x0, symName: '__ZN95_$LT$$BP$mut$u20$sqlite3_capi..bindings..sqlite3$u20$as$u20$sqlite_nostd..nostd..Connection$GT$9exec_safe17h9908d782887e4542E.1783', symObjAddr: 0x34F6A, symBinAddr: 0x3462E, symSize: 0x74 }
  - { offset: 0x14970D, size: 0x8, addend: 0x0, symName: '__ZN86_$LT$serde_json..ser..Compound$LT$W$C$F$GT$$u20$as$u20$serde..ser..SerializeStruct$GT$15serialize_field17hc535abee89d9f500E', symObjAddr: 0x34FDE, symBinAddr: 0x346A2, symSize: 0x97 }
  - { offset: 0x149A1A, size: 0x8, addend: 0x0, symName: '__ZN86_$LT$serde_json..ser..Compound$LT$W$C$F$GT$$u20$as$u20$serde..ser..SerializeStruct$GT$15serialize_field17h22056485f2413015E', symObjAddr: 0x35075, symBinAddr: 0x34739, symSize: 0xC2 }
  - { offset: 0x14A138, size: 0x8, addend: 0x0, symName: '__ZN77_$LT$alloc..raw_vec..RawVec$LT$T$C$A$GT$$u20$as$u20$core..ops..drop..Drop$GT$4drop17h231fc04f9ad974aaE', symObjAddr: 0x326FB, symBinAddr: 0x31DF7, symSize: 0x1E }
  - { offset: 0x14A171, size: 0x8, addend: 0x0, symName: '__ZN77_$LT$alloc..raw_vec..RawVec$LT$T$C$A$GT$$u20$as$u20$core..ops..drop..Drop$GT$4drop17h2f2c70e126d688acE', symObjAddr: 0x32719, symBinAddr: 0x31E15, symSize: 0x1E }
  - { offset: 0x14A1AA, size: 0x8, addend: 0x0, symName: '__ZN77_$LT$alloc..raw_vec..RawVec$LT$T$C$A$GT$$u20$as$u20$core..ops..drop..Drop$GT$4drop17h442e7b52c62db124E', symObjAddr: 0x32737, symBinAddr: 0x31E33, symSize: 0x17 }
  - { offset: 0x14A1E3, size: 0x8, addend: 0x0, symName: '__ZN77_$LT$alloc..raw_vec..RawVec$LT$T$C$A$GT$$u20$as$u20$core..ops..drop..Drop$GT$4drop17h634c0d43766246c5E', symObjAddr: 0x3274E, symBinAddr: 0x31E4A, symSize: 0x1E }
  - { offset: 0x14A21C, size: 0x8, addend: 0x0, symName: '__ZN77_$LT$alloc..raw_vec..RawVec$LT$T$C$A$GT$$u20$as$u20$core..ops..drop..Drop$GT$4drop17h670c4b1c02d155b9E', symObjAddr: 0x3276C, symBinAddr: 0x31E68, symSize: 0x1E }
  - { offset: 0x14A255, size: 0x8, addend: 0x0, symName: '__ZN77_$LT$alloc..raw_vec..RawVec$LT$T$C$A$GT$$u20$as$u20$core..ops..drop..Drop$GT$4drop17ha952695a2b30d76bE', symObjAddr: 0x3278A, symBinAddr: 0x31E86, symSize: 0x19 }
  - { offset: 0x14A28E, size: 0x8, addend: 0x0, symName: '__ZN77_$LT$alloc..raw_vec..RawVec$LT$T$C$A$GT$$u20$as$u20$core..ops..drop..Drop$GT$4drop17haa81e2fec6352e74E', symObjAddr: 0x327A3, symBinAddr: 0x31E9F, symSize: 0x1E }
  - { offset: 0x14A2C7, size: 0x8, addend: 0x0, symName: '__ZN77_$LT$alloc..raw_vec..RawVec$LT$T$C$A$GT$$u20$as$u20$core..ops..drop..Drop$GT$4drop17hbd860efef5c6950cE', symObjAddr: 0x327C1, symBinAddr: 0x31EBD, symSize: 0x1E }
  - { offset: 0x14A300, size: 0x8, addend: 0x0, symName: '__ZN77_$LT$alloc..raw_vec..RawVec$LT$T$C$A$GT$$u20$as$u20$core..ops..drop..Drop$GT$4drop17hdb1b6076f6fa8b71E', symObjAddr: 0x327DF, symBinAddr: 0x31EDB, symSize: 0x1E }
  - { offset: 0x14A339, size: 0x8, addend: 0x0, symName: '__ZN77_$LT$alloc..raw_vec..RawVec$LT$T$C$A$GT$$u20$as$u20$core..ops..drop..Drop$GT$4drop17hfe5b602c46394b10E', symObjAddr: 0x327FD, symBinAddr: 0x31EF9, symSize: 0x1E }
  - { offset: 0x14B60A, size: 0x8, addend: 0x0, symName: __ZN5alloc5alloc15exchange_malloc17h7bc2140b0f99c529E.1761, symObjAddr: 0x33265, symBinAddr: 0x32929, symSize: 0x1B }
  - { offset: 0x14BA34, size: 0x8, addend: 0x0, symName: '__ZN104_$LT$alloc..collections..btree..set..Iter$LT$T$GT$$u20$as$u20$core..iter..traits..iterator..Iterator$GT$4next17h23f298a6f9f99f5fE', symObjAddr: 0x32229, symBinAddr: 0x31925, symSize: 0xA }
  - { offset: 0x14C925, size: 0x8, addend: 0x0, symName: '__ZN5alloc5slice29_$LT$impl$u20$$u5b$T$u5d$$GT$4sort17h2527d8baba1908bbE', symObjAddr: 0x32233, symBinAddr: 0x3192F, symSize: 0x55 }
  - { offset: 0x14D18A, size: 0x8, addend: 0x0, symName: '__ZN84_$LT$serde..de..value..StrDeserializer$LT$E$GT$$u20$as$u20$serde..de..EnumAccess$GT$12variant_seed17h284e9b4c972df365E', symObjAddr: 0x3281B, symBinAddr: 0x4F763, symSize: 0x3A }
  - { offset: 0x14DF4D, size: 0x8, addend: 0x0, symName: '__ZN5alloc11collections5btree3set21BTreeSet$LT$T$C$A$GT$16from_sorted_iter17hdd92ae07de5d9c76E', symObjAddr: 0x32288, symBinAddr: 0x31984, symSize: 0x357 }
  - { offset: 0x14E9D0, size: 0x8, addend: 0x0, symName: '__ZN5alloc7raw_vec19RawVec$LT$T$C$A$GT$8grow_one17h09928932f9871ee2E', symObjAddr: 0x325DF, symBinAddr: 0x31CDB, symSize: 0x14 }
  - { offset: 0x14EA11, size: 0x8, addend: 0x0, symName: '__ZN5alloc7raw_vec20RawVecInner$LT$A$GT$8grow_one17hd023c7a497d16c11E', symObjAddr: 0x325F3, symBinAddr: 0x31CEF, symSize: 0x31 }
  - { offset: 0x14EA72, size: 0x8, addend: 0x0, symName: '__ZN5alloc7raw_vec19RawVec$LT$T$C$A$GT$8grow_one17h10100367787885c4E', symObjAddr: 0x32624, symBinAddr: 0x31D20, symSize: 0x14 }
  - { offset: 0x14EAB3, size: 0x8, addend: 0x0, symName: '__ZN5alloc7raw_vec19RawVec$LT$T$C$A$GT$8grow_one17h256a4cc787bf1a0dE', symObjAddr: 0x32638, symBinAddr: 0x31D34, symSize: 0x14 }
  - { offset: 0x14EAF4, size: 0x8, addend: 0x0, symName: '__ZN5alloc7raw_vec19RawVec$LT$T$C$A$GT$8grow_one17h5549789b281129bbE', symObjAddr: 0x3264C, symBinAddr: 0x31D48, symSize: 0x14 }
  - { offset: 0x14EB35, size: 0x8, addend: 0x0, symName: '__ZN5alloc7raw_vec19RawVec$LT$T$C$A$GT$8grow_one17h5cd3b95aa3a1c2b4E', symObjAddr: 0x32660, symBinAddr: 0x31D5C, symSize: 0x14 }
  - { offset: 0x14EB76, size: 0x8, addend: 0x0, symName: '__ZN5alloc7raw_vec19RawVec$LT$T$C$A$GT$8grow_one17h6a3160d109496956E', symObjAddr: 0x32674, symBinAddr: 0x31D70, symSize: 0x14 }
  - { offset: 0x14EBB7, size: 0x8, addend: 0x0, symName: '__ZN5alloc7raw_vec19RawVec$LT$T$C$A$GT$8grow_one17h70c2cede4ed45af0E', symObjAddr: 0x32688, symBinAddr: 0x31D84, symSize: 0x14 }
  - { offset: 0x14EBEB, size: 0x8, addend: 0x0, symName: '__ZN5alloc7raw_vec19RawVec$LT$T$C$A$GT$8grow_one17h9588253563ce64ceE', symObjAddr: 0x3269C, symBinAddr: 0x31D98, symSize: 0x14 }
  - { offset: 0x14EC2C, size: 0x8, addend: 0x0, symName: '__ZN5alloc7raw_vec19RawVec$LT$T$C$A$GT$8grow_one17ha8e3c42828e560e4E', symObjAddr: 0x326B0, symBinAddr: 0x31DAC, symSize: 0x14 }
  - { offset: 0x14ECE6, size: 0x8, addend: 0x0, symName: '__ZN5alloc7raw_vec19RawVec$LT$T$C$A$GT$8grow_one17hbb7e14d6835806f5E', symObjAddr: 0x326C4, symBinAddr: 0x31DC0, symSize: 0x14 }
  - { offset: 0x14ED27, size: 0x8, addend: 0x0, symName: '__ZN5alloc7raw_vec19RawVec$LT$T$C$A$GT$8grow_one17hbc73df2bf64258c1E', symObjAddr: 0x326D8, symBinAddr: 0x31DD4, symSize: 0x14 }
  - { offset: 0x14EDA0, size: 0x8, addend: 0x0, symName: '__ZN5alloc7raw_vec19RawVec$LT$T$C$A$GT$8grow_one17hd34e1817eb184134E', symObjAddr: 0x326EC, symBinAddr: 0x31DE8, symSize: 0xF }
  - { offset: 0x14EEFD, size: 0x8, addend: 0x0, symName: __ZN14powersync_core5state13DatabaseState11destroy_arc17h456304dcd5621a3eE, symObjAddr: 0x32898, symBinAddr: 0x31F5C, symSize: 0x21 }
  - { offset: 0x1513C9, size: 0x8, addend: 0x0, symName: __ZN14powersync_core9crud_vtab12VirtualTable15end_transaction17hf9b2cd757870ca9aE, symObjAddr: 0x345E2, symBinAddr: 0x33CA6, symSize: 0x21 }
  - { offset: 0x15144D, size: 0x8, addend: 0x0, symName: __ZN10num_traits4cast13FromPrimitive8from_i3217h97baeb0cbbcbb8c9E, symObjAddr: 0x346BF, symBinAddr: 0x33D83, symSize: 0x7C9 }
  - { offset: 0x1514B8, size: 0x8, addend: 0x0, symName: __ZN12sqlite_nostd5nostd11ManagedStmt10bind_int6417h85863f90a22e17d7E.1780, symObjAddr: 0x34F1D, symBinAddr: 0x345E1, symSize: 0x17 }
  - { offset: 0x1514F6, size: 0x8, addend: 0x0, symName: __ZN12sqlite_nostd5nostd11ManagedStmt9bind_text17hb5ee5ac8f6c4b350E.1781, symObjAddr: 0x34F34, symBinAddr: 0x345F8, symSize: 0x11 }
  - { offset: 0x151546, size: 0x8, addend: 0x0, symName: __ZN14powersync_core9crud_vtab12VirtualTable13value_to_json17h293672ab817cd292E, symObjAddr: 0x34F45, symBinAddr: 0x34609, symSize: 0x25 }
  - { offset: 0x151586, size: 0x8, addend: 0x0, symName: __ZN12sqlite_nostd5nostd11ManagedStmt11column_text17h88048b6552111f65E.1785, symObjAddr: 0x35137, symBinAddr: 0x347FB, symSize: 0x49 }
  - { offset: 0x151871, size: 0x8, addend: 0x0, symName: __ZN5alloc6string6String4push17h090f899c7aaacafeE.1788, symObjAddr: 0x35638, symBinAddr: 0x34CFC, symSize: 0x38 }
  - { offset: 0x10BB85, size: 0x8, addend: 0x0, symName: '__ZN115_$LT$core..iter..adapters..filter_map..FilterMap$LT$I$C$F$GT$$u20$as$u20$core..iter..traits..iterator..Iterator$GT$4next17h15b42882647b1867E', symObjAddr: 0x28647, symBinAddr: 0x27E93, symSize: 0x36 }
  - { offset: 0x10D3D6, size: 0x8, addend: 0x0, symName: '__ZN4core3ptr208drop_in_place$LT$powersync_core..sync..streaming_sync..StreamingSyncIteration..resolve_subscription_state..LocalAndServerSubscription$LT$powersync_core..sync..subscriptions..LocallyTrackedSubscription$GT$$GT$17h1d989e3849cdc6bfE', symObjAddr: 0x286FA, symBinAddr: 0x27F46, symSize: 0x29 }
  - { offset: 0x10D48E, size: 0x8, addend: 0x0, symName: '__ZN4core3ptr106drop_in_place$LT$core..option..Option$LT$alloc..boxed..Box$LT$powersync_core..util..JsonString$GT$$GT$$GT$17h77bae2f6f1a2ea0fE', symObjAddr: 0x28723, symBinAddr: 0x27F6F, symSize: 0x1F }
  - { offset: 0x10D6F6, size: 0x8, addend: 0x0, symName: '__ZN4core3ptr73drop_in_place$LT$powersync_core..schema..table_info..PendingStatement$GT$17h1797856ea4294148E.1417', symObjAddr: 0x30E51, symBinAddr: 0x305CD, symSize: 0x36 }
  - { offset: 0x10DBCC, size: 0x8, addend: 0x0, symName: '__ZN4core3ptr59drop_in_place$LT$serde..__private..de..content..Content$GT$17he6ce6597d35e5847E.1439', symObjAddr: 0x310FB, symBinAddr: 0x30877, symSize: 0xDD }
  - { offset: 0x10DC83, size: 0x8, addend: 0x0, symName: '__ZN4core3ptr84drop_in_place$LT$alloc..boxed..Box$LT$serde..__private..de..content..Content$GT$$GT$17h702c2a225b2babc0E.1442', symObjAddr: 0x31200, symBinAddr: 0x3097C, symSize: 0x1F }
  - { offset: 0x10DD6B, size: 0x8, addend: 0x0, symName: '__ZN4core3ptr108drop_in_place$LT$$LP$serde..__private..de..content..Content$C$serde..__private..de..content..Content$RP$$GT$17h13791d46e9d7fe6dE', symObjAddr: 0x3121F, symBinAddr: 0x3099B, symSize: 0x20 }
  - { offset: 0x10DE74, size: 0x8, addend: 0x0, symName: '__ZN4core3ptr136drop_in_place$LT$core..option..Option$LT$$LP$serde..__private..de..content..Content$C$serde..__private..de..content..Content$RP$$GT$$GT$17h9ead8587be21b72eE', symObjAddr: 0x31311, symBinAddr: 0x30A8D, symSize: 0x11 }
  - { offset: 0x111EF3, size: 0x8, addend: 0x0, symName: '__ZN115_$LT$core..iter..adapters..filter_map..FilterMap$LT$I$C$F$GT$$u20$as$u20$core..iter..traits..iterator..Iterator$GT$4next17h15b42882647b1867E', symObjAddr: 0x28647, symBinAddr: 0x27E93, symSize: 0x36 }
  - { offset: 0x1133A9, size: 0x8, addend: 0x0, symName: '__ZN5serde2de5impls82_$LT$impl$u20$serde..de..Deserialize$u20$for$u20$core..option..Option$LT$T$GT$$GT$11deserialize17h24ebe4043ea25059E', symObjAddr: 0x300F4, symBinAddr: 0x2F940, symSize: 0x264 }
  - { offset: 0x11374D, size: 0x8, addend: 0x0, symName: '__ZN5serde2de5impls82_$LT$impl$u20$serde..de..Deserialize$u20$for$u20$core..option..Option$LT$T$GT$$GT$11deserialize17h53a4fe0c51f68c6aE', symObjAddr: 0x30358, symBinAddr: 0x2FBA4, symSize: 0x87 }
  - { offset: 0x1138C7, size: 0x8, addend: 0x0, symName: '__ZN5serde2de5impls82_$LT$impl$u20$serde..de..Deserialize$u20$for$u20$core..option..Option$LT$T$GT$$GT$11deserialize17h5a89c3ab895dac31E', symObjAddr: 0x303DF, symBinAddr: 0x2FC2B, symSize: 0x7D }
  - { offset: 0x1139D2, size: 0x8, addend: 0x0, symName: '__ZN5serde2de5impls82_$LT$impl$u20$serde..de..Deserialize$u20$for$u20$core..option..Option$LT$T$GT$$GT$11deserialize17h707054e98d7f3dafE', symObjAddr: 0x3045C, symBinAddr: 0x2FCA8, symSize: 0x7B }
  - { offset: 0x113B0B, size: 0x8, addend: 0x0, symName: '__ZN5serde2de5impls82_$LT$impl$u20$serde..de..Deserialize$u20$for$u20$core..option..Option$LT$T$GT$$GT$11deserialize17ha6bb9ca964130956E', symObjAddr: 0x304D7, symBinAddr: 0x2FD23, symSize: 0x148 }
  - { offset: 0x113D9D, size: 0x8, addend: 0x0, symName: '__ZN5serde2de5impls82_$LT$impl$u20$serde..de..Deserialize$u20$for$u20$core..option..Option$LT$T$GT$$GT$11deserialize17haca2c434a92967e6E', symObjAddr: 0x3061F, symBinAddr: 0x2FE6B, symSize: 0xAE }
  - { offset: 0x113F0B, size: 0x8, addend: 0x0, symName: '__ZN5serde2de5impls82_$LT$impl$u20$serde..de..Deserialize$u20$for$u20$core..option..Option$LT$T$GT$$GT$11deserialize17he6636adb686ef61dE', symObjAddr: 0x306CD, symBinAddr: 0x2FF19, symSize: 0xA2 }
  - { offset: 0x114069, size: 0x8, addend: 0x0, symName: '__ZN5serde2de5impls82_$LT$impl$u20$serde..de..Deserialize$u20$for$u20$core..option..Option$LT$T$GT$$GT$11deserialize17hefbfe9933cd245abE', symObjAddr: 0x3076F, symBinAddr: 0x2FFBB, symSize: 0x35D }
  - { offset: 0x1144BC, size: 0x8, addend: 0x0, symName: '__ZN5serde2de5impls82_$LT$impl$u20$serde..de..Deserialize$u20$for$u20$core..option..Option$LT$T$GT$$GT$11deserialize17hfdaa32295f3a150dE', symObjAddr: 0x30ACC, symBinAddr: 0x30318, symSize: 0x124 }
  - { offset: 0x1146B8, size: 0x8, addend: 0x0, symName: '__ZN5serde2de5impls82_$LT$impl$u20$serde..de..Deserialize$u20$for$u20$core..option..Option$LT$T$GT$$GT$11deserialize17hfea709792ded4159E', symObjAddr: 0x30BF0, symBinAddr: 0x3043C, symSize: 0xA2 }
  - { offset: 0x114F40, size: 0x8, addend: 0x0, symName: '__ZN5serde2de5impls77_$LT$impl$u20$serde..de..Deserialize$u20$for$u20$alloc..vec..Vec$LT$T$GT$$GT$11deserialize17h3552ec6d1039575aE', symObjAddr: 0x28742, symBinAddr: 0x27F8E, symSize: 0xB91 }
  - { offset: 0x115B19, size: 0x8, addend: 0x0, symName: '__ZN5serde2de5impls77_$LT$impl$u20$serde..de..Deserialize$u20$for$u20$alloc..vec..Vec$LT$T$GT$$GT$11deserialize17h362ccd4ccad3e699E', symObjAddr: 0x292D3, symBinAddr: 0x28B1F, symSize: 0x890 }
  - { offset: 0x116556, size: 0x8, addend: 0x0, symName: '__ZN5serde2de5impls77_$LT$impl$u20$serde..de..Deserialize$u20$for$u20$alloc..vec..Vec$LT$T$GT$$GT$11deserialize17h42f7f8ebbb336922E', symObjAddr: 0x29B63, symBinAddr: 0x293AF, symSize: 0x11C9 }
  - { offset: 0x117F28, size: 0x8, addend: 0x0, symName: '__ZN5serde2de5impls77_$LT$impl$u20$serde..de..Deserialize$u20$for$u20$alloc..vec..Vec$LT$T$GT$$GT$11deserialize17h6549e2ce4a17550cE', symObjAddr: 0x2AD2C, symBinAddr: 0x2A578, symSize: 0x1BF }
  - { offset: 0x118121, size: 0x8, addend: 0x0, symName: '__ZN5serde2de5impls77_$LT$impl$u20$serde..de..Deserialize$u20$for$u20$alloc..vec..Vec$LT$T$GT$$GT$11deserialize17h669149dd6938dec6E', symObjAddr: 0x2AEEB, symBinAddr: 0x2A737, symSize: 0x285 }
  - { offset: 0x118481, size: 0x8, addend: 0x0, symName: '__ZN5serde2de5impls77_$LT$impl$u20$serde..de..Deserialize$u20$for$u20$alloc..vec..Vec$LT$T$GT$$GT$11deserialize17h6ee9bed923a5c67cE', symObjAddr: 0x2B170, symBinAddr: 0x2A9BC, symSize: 0x1D7 }
  - { offset: 0x11867C, size: 0x8, addend: 0x0, symName: '__ZN5serde2de5impls77_$LT$impl$u20$serde..de..Deserialize$u20$for$u20$alloc..vec..Vec$LT$T$GT$$GT$11deserialize17h8a9d5aeb3f13102cE', symObjAddr: 0x2B347, symBinAddr: 0x2AB93, symSize: 0xC6B }
  - { offset: 0x11938B, size: 0x8, addend: 0x0, symName: '__ZN5serde2de5impls77_$LT$impl$u20$serde..de..Deserialize$u20$for$u20$alloc..vec..Vec$LT$T$GT$$GT$11deserialize17ha25847c31affa8ffE', symObjAddr: 0x2BFB2, symBinAddr: 0x2B7FE, symSize: 0x4D0 }
  - { offset: 0x119A01, size: 0x8, addend: 0x0, symName: '__ZN5serde2de5impls77_$LT$impl$u20$serde..de..Deserialize$u20$for$u20$alloc..vec..Vec$LT$T$GT$$GT$11deserialize17ha3f2f185bb3864c6E', symObjAddr: 0x2C482, symBinAddr: 0x2BCCE, symSize: 0xE90 }
  - { offset: 0x11A9A9, size: 0x8, addend: 0x0, symName: '__ZN5serde2de5impls77_$LT$impl$u20$serde..de..Deserialize$u20$for$u20$alloc..vec..Vec$LT$T$GT$$GT$11deserialize17hae3e48c3f6c8938eE', symObjAddr: 0x2D312, symBinAddr: 0x2CB5E, symSize: 0x36E }
  - { offset: 0x11AE78, size: 0x8, addend: 0x0, symName: '__ZN5serde2de5impls77_$LT$impl$u20$serde..de..Deserialize$u20$for$u20$alloc..vec..Vec$LT$T$GT$$GT$11deserialize17hdda750deb2eb5612E', symObjAddr: 0x2D680, symBinAddr: 0x2CECC, symSize: 0xE28 }
  - { offset: 0x11C205, size: 0x8, addend: 0x0, symName: '__ZN5serde2de5impls77_$LT$impl$u20$serde..de..Deserialize$u20$for$u20$alloc..vec..Vec$LT$T$GT$$GT$11deserialize17hfa4d68d4c3c9417eE', symObjAddr: 0x2E4A8, symBinAddr: 0x2DCF4, symSize: 0x1088 }
  - { offset: 0x11D6FC, size: 0x8, addend: 0x0, symName: '__ZN5serde2de5impls77_$LT$impl$u20$serde..de..Deserialize$u20$for$u20$alloc..vec..Vec$LT$T$GT$$GT$11deserialize17hfec8c3332a5a39a4E', symObjAddr: 0x2F530, symBinAddr: 0x2ED7C, symSize: 0x8E4 }
  - { offset: 0x11E34E, size: 0x8, addend: 0x0, symName: '__ZN5serde2de5impls77_$LT$impl$u20$serde..de..Deserialize$u20$for$u20$alloc..vec..Vec$LT$T$GT$$GT$11deserialize17hff50891b0a46ecdcE', symObjAddr: 0x2FE14, symBinAddr: 0x2F660, symSize: 0x2E0 }
  - { offset: 0x11FDC2, size: 0x8, addend: 0x0, symName: __ZN5serde9__private2de13missing_field17hca80bbfe1b54700cE, symObjAddr: 0x30C92, symBinAddr: 0x4F60A, symSize: 0x2C }
  - { offset: 0x11FECF, size: 0x8, addend: 0x0, symName: __ZN5serde9__private2de13missing_field17he426af33e4e9f82eE, symObjAddr: 0x30CBE, symBinAddr: 0x4F636, symSize: 0x29 }
  - { offset: 0x11FF87, size: 0x8, addend: 0x0, symName: __ZN5serde9__private2de13missing_field17he44032afa093adeeE, symObjAddr: 0x30CE7, symBinAddr: 0x4F65F, symSize: 0x29 }
  - { offset: 0x12003F, size: 0x8, addend: 0x0, symName: __ZN5serde9__private2de13missing_field17he903372326448c60E, symObjAddr: 0x30D10, symBinAddr: 0x4F688, symSize: 0x2C }
  - { offset: 0x12014C, size: 0x8, addend: 0x0, symName: __ZN5serde9__private2de13missing_field17hf31b204ce74b5b03E, symObjAddr: 0x30D3C, symBinAddr: 0x4F6B4, symSize: 0x29 }
  - { offset: 0x1205E0, size: 0x8, addend: 0x0, symName: '__ZN70_$LT$alloc..vec..Vec$LT$T$C$A$GT$$u20$as$u20$core..ops..drop..Drop$GT$4drop17h06e9322ea8628459E', symObjAddr: 0x30D65, symBinAddr: 0x304E1, symSize: 0x36 }
  - { offset: 0x1206A1, size: 0x8, addend: 0x0, symName: '__ZN70_$LT$alloc..vec..Vec$LT$T$C$A$GT$$u20$as$u20$core..ops..drop..Drop$GT$4drop17h160fdbbeae301d2eE', symObjAddr: 0x30D9B, symBinAddr: 0x30517, symSize: 0x43 }
  - { offset: 0x12085B, size: 0x8, addend: 0x0, symName: '__ZN70_$LT$alloc..vec..Vec$LT$T$C$A$GT$$u20$as$u20$core..ops..drop..Drop$GT$4drop17h19644e7aaddd52eaE', symObjAddr: 0x30DDE, symBinAddr: 0x3055A, symSize: 0x33 }
  - { offset: 0x1208C7, size: 0x8, addend: 0x0, symName: '__ZN70_$LT$alloc..vec..Vec$LT$T$C$A$GT$$u20$as$u20$core..ops..drop..Drop$GT$4drop17h1ea7ca5dd0a7fa4cE', symObjAddr: 0x30E11, symBinAddr: 0x3058D, symSize: 0x40 }
  - { offset: 0x12098A, size: 0x8, addend: 0x0, symName: '__ZN70_$LT$alloc..vec..Vec$LT$T$C$A$GT$$u20$as$u20$core..ops..drop..Drop$GT$4drop17h29329ff005d03baaE', symObjAddr: 0x30E87, symBinAddr: 0x30603, symSize: 0xA2 }
  - { offset: 0x120B3E, size: 0x8, addend: 0x0, symName: '__ZN70_$LT$alloc..vec..Vec$LT$T$C$A$GT$$u20$as$u20$core..ops..drop..Drop$GT$4drop17h9a91a649c26d013bE', symObjAddr: 0x30F29, symBinAddr: 0x306A5, symSize: 0x48 }
  - { offset: 0x120C3D, size: 0x8, addend: 0x0, symName: '__ZN70_$LT$alloc..vec..Vec$LT$T$C$A$GT$$u20$as$u20$core..ops..drop..Drop$GT$4drop17hb8b95c7126f3a8bcE', symObjAddr: 0x30F71, symBinAddr: 0x306ED, symSize: 0x2E }
  - { offset: 0x120CDF, size: 0x8, addend: 0x0, symName: '__ZN70_$LT$alloc..vec..Vec$LT$T$C$A$GT$$u20$as$u20$core..ops..drop..Drop$GT$4drop17hdc7252fc42e7f895E', symObjAddr: 0x30F9F, symBinAddr: 0x3071B, symSize: 0x3B }
  - { offset: 0x120DEA, size: 0x8, addend: 0x0, symName: '__ZN70_$LT$alloc..vec..Vec$LT$T$C$A$GT$$u20$as$u20$core..ops..drop..Drop$GT$4drop17h4a95505e0ce2e267E', symObjAddr: 0x30FDA, symBinAddr: 0x30756, symSize: 0x44 }
  - { offset: 0x120EE6, size: 0x8, addend: 0x0, symName: '__ZN70_$LT$alloc..vec..Vec$LT$T$C$A$GT$$u20$as$u20$core..ops..drop..Drop$GT$4drop17h4ac59b725063ab1aE', symObjAddr: 0x3101E, symBinAddr: 0x3079A, symSize: 0x48 }
  - { offset: 0x120F9B, size: 0x8, addend: 0x0, symName: '__ZN70_$LT$alloc..vec..Vec$LT$T$C$A$GT$$u20$as$u20$core..ops..drop..Drop$GT$4drop17ha693eadb16dafb02E', symObjAddr: 0x31066, symBinAddr: 0x307E2, symSize: 0x6D }
  - { offset: 0x121051, size: 0x8, addend: 0x0, symName: '__ZN70_$LT$alloc..vec..Vec$LT$T$C$A$GT$$u20$as$u20$core..ops..drop..Drop$GT$4drop17h5e782c0729672cfbE', symObjAddr: 0x310D3, symBinAddr: 0x3084F, symSize: 0x28 }
  - { offset: 0x121117, size: 0x8, addend: 0x0, symName: '__ZN70_$LT$alloc..vec..Vec$LT$T$C$A$GT$$u20$as$u20$core..ops..drop..Drop$GT$4drop17hbbbf6035606c3e9cE', symObjAddr: 0x311D8, symBinAddr: 0x30954, symSize: 0x28 }
  - { offset: 0x1211DD, size: 0x8, addend: 0x0, symName: '__ZN70_$LT$alloc..vec..Vec$LT$T$C$A$GT$$u20$as$u20$core..ops..drop..Drop$GT$4drop17h728d8ae0d6fa9136E', symObjAddr: 0x3123F, symBinAddr: 0x309BB, symSize: 0x2E }
  - { offset: 0x121235, size: 0x8, addend: 0x0, symName: '__ZN70_$LT$alloc..vec..Vec$LT$T$C$A$GT$$u20$as$u20$core..ops..drop..Drop$GT$4drop17h73a0b2be201c9949E', symObjAddr: 0x3126D, symBinAddr: 0x309E9, symSize: 0x2E }
  - { offset: 0x1212ED, size: 0x8, addend: 0x0, symName: '__ZN70_$LT$alloc..vec..Vec$LT$T$C$A$GT$$u20$as$u20$core..ops..drop..Drop$GT$4drop17h93792cedce112461E', symObjAddr: 0x3129B, symBinAddr: 0x30A17, symSize: 0x3B }
  - { offset: 0x1213F8, size: 0x8, addend: 0x0, symName: '__ZN70_$LT$alloc..vec..Vec$LT$T$C$A$GT$$u20$as$u20$core..ops..drop..Drop$GT$4drop17h942db0f16f7260f3E', symObjAddr: 0x312D6, symBinAddr: 0x30A52, symSize: 0x3B }
  - { offset: 0x1214B9, size: 0x8, addend: 0x0, symName: '__ZN70_$LT$alloc..vec..Vec$LT$T$C$A$GT$$u20$as$u20$core..ops..drop..Drop$GT$4drop17haa6accea8afedc28E', symObjAddr: 0x31322, symBinAddr: 0x30A9E, symSize: 0x2E }
  - { offset: 0x12157A, size: 0x8, addend: 0x0, symName: '__ZN70_$LT$alloc..vec..Vec$LT$T$C$A$GT$$u20$as$u20$core..ops..drop..Drop$GT$4drop17hf15774a20b446e66E', symObjAddr: 0x31350, symBinAddr: 0x30ACC, symSize: 0xBD }
  - { offset: 0x1218CA, size: 0x8, addend: 0x0, symName: '__ZN70_$LT$alloc..vec..Vec$LT$T$C$A$GT$$u20$as$u20$core..ops..drop..Drop$GT$4drop17hf54f90e1098026a6E', symObjAddr: 0x3140D, symBinAddr: 0x30B89, symSize: 0x37 }
  - { offset: 0x1254D8, size: 0x8, addend: 0x0, symName: '__ZN5alloc7raw_vec20RawVecInner$LT$A$GT$16with_capacity_in17h27770aa47bcd454aE.1243', symObjAddr: 0x2867D, symBinAddr: 0x27EC9, symSize: 0x3E }
  - { offset: 0x12559A, size: 0x8, addend: 0x0, symName: '__ZN5alloc7raw_vec20RawVecInner$LT$A$GT$7reserve17hafe42644b12c172eE', symObjAddr: 0x286BB, symBinAddr: 0x27F07, symSize: 0x24 }
  - { offset: 0x1256A2, size: 0x8, addend: 0x0, symName: '__ZN5alloc3vec16Vec$LT$T$C$A$GT$7reserve17hee018e7dcd042966E', symObjAddr: 0x286DF, symBinAddr: 0x27F2B, symSize: 0x1B }
  - { offset: 0x1D6DB4, size: 0x8, addend: 0x0, symName: __ZN4itoa6Buffer6format17h66ea038454ddb1ecE, symObjAddr: 0x4E2B4, symBinAddr: 0x4C6D0, symSize: 0xD5 }
  - { offset: 0x1D726C, size: 0x8, addend: 0x0, symName: __ZN4itoa6Buffer6format17h66ea038454ddb1ecE, symObjAddr: 0x4E2B4, symBinAddr: 0x4C6D0, symSize: 0xD5 }
  - { offset: 0x1D73A1, size: 0x8, addend: 0x0, symName: __ZN4itoa6Buffer6format17h9315e532007d2613E, symObjAddr: 0x4E389, symBinAddr: 0x4C7A5, symSize: 0xBA }
  - { offset: 0x13B7D, size: 0x8, addend: 0x0, symName: '__ZN4core3f6421_$LT$impl$u20$f64$GT$8classify17h18eb1045537964f3E', symObjAddr: 0x3676, symBinAddr: 0x3BFE, symSize: 0x40 }
  - { offset: 0x13BB1, size: 0x8, addend: 0x0, symName: __ZN4core3num7flt2dec8strategy5grisu12CACHED_POW1017he2d1219f813363f7E, symObjAddr: 0x52718, symBinAddr: 0x50E40, symSize: 0x0 }
  - { offset: 0x14084, size: 0x8, addend: 0x0, symName: __ZN4core3num7flt2dec8strategy5grisu12cached_power17hfecf855484790213E, symObjAddr: 0x36B6, symBinAddr: 0x3C3E, symSize: 0x4E }
  - { offset: 0x1414D, size: 0x8, addend: 0x0, symName: __ZN4core3num7flt2dec8strategy5grisu22max_pow10_no_more_than17hc6a5f4390757d757E, symObjAddr: 0x37F3, symBinAddr: 0x3D7B, symSize: 0x87 }
  - { offset: 0x1417D, size: 0x8, addend: 0x0, symName: __ZN4core3num7flt2dec8strategy5grisu19format_shortest_opt14round_and_weed17hb2dbb617799461eeE, symObjAddr: 0x3892, symBinAddr: 0x3E1A, symSize: 0xE9 }
  - { offset: 0x142BF, size: 0x8, addend: 0x0, symName: __ZN4core3num7flt2dec8strategy5grisu16format_exact_opt14possibly_round17hb611de303eb81642E, symObjAddr: 0x397B, symBinAddr: 0x3F03, symSize: 0xE8 }
  - { offset: 0x1497E, size: 0x8, addend: 0x0, symName: '__ZN108_$LT$core..ops..range..RangeTo$LT$usize$GT$$u20$as$u20$core..slice..index..SliceIndex$LT$$u5b$T$u5d$$GT$$GT$9index_mut17h7fda14cf4b32d990E.237', symObjAddr: 0x387A, symBinAddr: 0x3E02, symSize: 0x18 }
  - { offset: 0x14B2A, size: 0x8, addend: 0x0, symName: '__ZN4core3f6421_$LT$impl$u20$f64$GT$8classify17h18eb1045537964f3E', symObjAddr: 0x3676, symBinAddr: 0x3BFE, symSize: 0x40 }
  - { offset: 0x14D07, size: 0x8, addend: 0x0, symName: __ZN4core3num9diy_float2Fp9normalize17h8d5d6ea7cc15e335E, symObjAddr: 0x3704, symBinAddr: 0x3C8C, symSize: 0x9B }
  - { offset: 0x14D63, size: 0x8, addend: 0x0, symName: __ZN4core3num9diy_float2Fp3mul17h269d1b8f6a49db36E, symObjAddr: 0x379F, symBinAddr: 0x3D27, symSize: 0x54 }
  - { offset: 0x1B4F9, size: 0x8, addend: 0x0, symName: __ZN4core5slice6memchr14memchr_aligned17h3e8fd8c9304b706eE, symObjAddr: 0x4441, symBinAddr: 0x49AD, symSize: 0xB9 }
  - { offset: 0x1B5F5, size: 0x8, addend: 0x0, symName: __ZN4core7unicode9printable5check17h5dc6acb3502f8a4fE, symObjAddr: 0x468A, symBinAddr: 0x4BEE, symSize: 0xCB }
  - { offset: 0x1BF75, size: 0x8, addend: 0x0, symName: __ZN4core5slice6memchr14memchr_aligned17h3e8fd8c9304b706eE, symObjAddr: 0x4441, symBinAddr: 0x49AD, symSize: 0xB9 }
  - { offset: 0x1C1C4, size: 0x8, addend: 0x0, symName: __ZN4core5slice6memchr12memchr_naive17ha9b164e4f90db3f1E, symObjAddr: 0x44FA, symBinAddr: 0x4A66, symSize: 0x29 }
  - { offset: 0x1C585, size: 0x8, addend: 0x0, symName: __ZN4core3str16slice_error_fail17hae54ef23b39d3d98E, symObjAddr: 0x4523, symBinAddr: 0x4E8DB, symSize: 0x9 }
  - { offset: 0x1C62F, size: 0x8, addend: 0x0, symName: '__ZN4core3str21_$LT$impl$u20$str$GT$19floor_char_boundary17he2d85c3fb7735e46E', symObjAddr: 0x462B, symBinAddr: 0x4B8F, symSize: 0x49 }
  - { offset: 0x1C820, size: 0x8, addend: 0x0, symName: '__ZN4core3str21_$LT$impl$u20$str$GT$9ends_with17h9f2c48f09968ac54E', symObjAddr: 0x4674, symBinAddr: 0x4BD8, symSize: 0x16 }
  - { offset: 0x1CC06, size: 0x8, addend: 0x0, symName: __ZN4core3str19slice_error_fail_rt17h33cd416a44d23742E, symObjAddr: 0x452C, symBinAddr: 0x4A90, symSize: 0xFF }
  - { offset: 0x1F33, size: 0x8, addend: 0x0, symName: '__ZN42_$LT$$RF$T$u20$as$u20$core..fmt..Debug$GT$3fmt17h98cbc4b58a6c9486E', symObjAddr: 0x191, symBinAddr: 0x7E1, symSize: 0x1B6 }
  - { offset: 0x1F57, size: 0x8, addend: 0x0, symName: '__ZN42_$LT$$RF$T$u20$as$u20$core..fmt..Debug$GT$3fmt17h98cbc4b58a6c9486E', symObjAddr: 0x191, symBinAddr: 0x7E1, symSize: 0x1B6 }
  - { offset: 0x2F86, size: 0x8, addend: 0x0, symName: '__ZN132_$LT$alloc..vec..Vec$LT$T$C$A$GT$$u20$as$u20$alloc..vec..spec_extend..SpecExtend$LT$$RF$T$C$core..slice..iter..Iter$LT$T$GT$$GT$$GT$11spec_extend17ha9507da3d26b5b90E', symObjAddr: 0x439, symBinAddr: 0xA89, symSize: 0x45 }
  - { offset: 0x3525, size: 0x8, addend: 0x0, symName: __ZN5alloc3fmt6format12format_inner17hf4487e8279baf95dE, symObjAddr: 0x347, symBinAddr: 0x997, symSize: 0xA6 }
  - { offset: 0x37D9, size: 0x8, addend: 0x0, symName: '__ZN5alloc5slice29_$LT$impl$u20$$u5b$T$u5d$$GT$9to_vec_in17h1baa5f340e2bef18E', symObjAddr: 0x4A9, symBinAddr: 0xAF9, symSize: 0x5D }
  - { offset: 0x3C4F, size: 0x8, addend: 0x0, symName: '__ZN5alloc3vec16Vec$LT$T$C$A$GT$16with_capacity_in17hccef57ad321197daE', symObjAddr: 0x3ED, symBinAddr: 0xA3D, symSize: 0x4C }
  - { offset: 0x3EF7, size: 0x8, addend: 0x0, symName: '__ZN5alloc3vec16Vec$LT$T$C$A$GT$7reserve17h156edb1bb35a5b1dE', symObjAddr: 0x47E, symBinAddr: 0xACE, symSize: 0x2B }
  - { offset: 0x41AB, size: 0x8, addend: 0x0, symName: '__ZN5alloc3vec16Vec$LT$T$C$A$GT$16into_boxed_slice17h60eaf191a184ef10E', symObjAddr: 0x506, symBinAddr: 0xB56, symSize: 0x5A }
  - { offset: 0x14FD1, size: 0x8, addend: 0x0, symName: '__ZN62_$LT$core..char..EscapeDebug$u20$as$u20$core..fmt..Display$GT$3fmt17haa11793550bdb381E', symObjAddr: 0x3A63, symBinAddr: 0x3FEB, symSize: 0x3E }
  - { offset: 0x15091, size: 0x8, addend: 0x0, symName: '__ZN62_$LT$core..char..EscapeDebug$u20$as$u20$core..fmt..Display$GT$3fmt17haa11793550bdb381E', symObjAddr: 0x3A63, symBinAddr: 0x3FEB, symSize: 0x3E }
  - { offset: 0x1572A, size: 0x8, addend: 0x0, symName: __ZN4core5slice4sort6stable5drift11sqrt_approx17hc9b181bc66908296E, symObjAddr: 0x3AA1, symBinAddr: 0x4029, symSize: 0x2B }
  - { offset: 0x77D36, size: 0x8, addend: 0x0, symName: __ZN14powersync_core4bson2de12Deserializer15prepare_to_read17h4e7d12933d13dfc4E, symObjAddr: 0xCFFB, symBinAddr: 0xD52F, symSize: 0x18D }
  - { offset: 0x77EDA, size: 0x8, addend: 0x0, symName: '__ZN5serde2de5impls80_$LT$impl$u20$serde..de..Deserialize$u20$for$u20$alloc..borrow..Cow$LT$T$GT$$GT$11deserialize17hae56ee1a5e6d72a0E', symObjAddr: 0xDE2E, symBinAddr: 0xE362, symSize: 0x58 }
  - { offset: 0x7A6B4, size: 0x8, addend: 0x0, symName: __ZN5serde2de7Visitor20visit_borrowed_bytes17h617aa04fe15fe49fE, symObjAddr: 0xD59C, symBinAddr: 0xDAD0, symSize: 0x5A }
  - { offset: 0x7A720, size: 0x8, addend: 0x0, symName: __ZN5serde2de7Visitor20visit_borrowed_bytes17he44c96ac36c3580cE, symObjAddr: 0xD76F, symBinAddr: 0xDCA3, symSize: 0x1E5 }
  - { offset: 0x7A78C, size: 0x8, addend: 0x0, symName: __ZN5serde2de7Visitor20visit_borrowed_bytes17h2610349aac332b99E, symObjAddr: 0xD954, symBinAddr: 0xDE88, symSize: 0x90 }
  - { offset: 0x7A7F8, size: 0x8, addend: 0x0, symName: __ZN5serde2de7Visitor20visit_borrowed_bytes17h2b48753a6037e7b8E, symObjAddr: 0xD9E4, symBinAddr: 0xDF18, symSize: 0x1A8 }
  - { offset: 0x7A864, size: 0x8, addend: 0x0, symName: __ZN5serde2de7Visitor20visit_borrowed_bytes17h7336483ec3fa7633E, symObjAddr: 0xDC21, symBinAddr: 0xE155, symSize: 0x20D }
  - { offset: 0x7A8D0, size: 0x8, addend: 0x0, symName: __ZN5serde2de7Visitor20visit_borrowed_bytes17h0610a3fc4cc929b6E, symObjAddr: 0xDF31, symBinAddr: 0xE465, symSize: 0x9F }
  - { offset: 0x7A9B4, size: 0x8, addend: 0x0, symName: __ZN5serde2de7Visitor20visit_borrowed_bytes17h0f93093b44a8bc58E, symObjAddr: 0xE212, symBinAddr: 0xE746, symSize: 0x16E }
  - { offset: 0x7AA20, size: 0x8, addend: 0x0, symName: __ZN5serde2de7Visitor20visit_borrowed_bytes17heda5c81c8ae88d3bE, symObjAddr: 0xE380, symBinAddr: 0xE8B4, symSize: 0x44 }
  - { offset: 0x7C463, size: 0x8, addend: 0x0, symName: '__ZN94_$LT$$RF$mut$u20$powersync_core..bson..de..Deserializer$u20$as$u20$serde..de..Deserializer$GT$15deserialize_any17h1812b5239437ac8cE', symObjAddr: 0xD31B, symBinAddr: 0xD84F, symSize: 0x281 }
  - { offset: 0x7C8B0, size: 0x8, addend: 0x0, symName: '__ZN94_$LT$$RF$mut$u20$powersync_core..bson..de..Deserializer$u20$as$u20$serde..de..Deserializer$GT$15deserialize_any17h874a9b910656900dE', symObjAddr: 0xDFD0, symBinAddr: 0xE504, symSize: 0x20C }
  - { offset: 0x8132B, size: 0x8, addend: 0x0, symName: '__ZN79_$LT$powersync_core..bson..de..Deserializer$u20$as$u20$serde..de..SeqAccess$GT$17next_element_seed17hbb87d2926cffd495E', symObjAddr: 0xD611, symBinAddr: 0xDB45, symSize: 0x9A }
  - { offset: 0x8143A, size: 0x8, addend: 0x0, symName: '__ZN79_$LT$powersync_core..bson..de..Deserializer$u20$as$u20$serde..de..SeqAccess$GT$17next_element_seed17h851b46448c07a3cbE', symObjAddr: 0xD6AB, symBinAddr: 0xDBDF, symSize: 0x95 }
  - { offset: 0x81519, size: 0x8, addend: 0x0, symName: '__ZN79_$LT$powersync_core..bson..de..Deserializer$u20$as$u20$serde..de..SeqAccess$GT$17next_element_seed17h4f16d1e578a0c444E', symObjAddr: 0xDB8C, symBinAddr: 0xE0C0, symSize: 0x95 }
  - { offset: 0x815F8, size: 0x8, addend: 0x0, symName: '__ZN79_$LT$powersync_core..bson..de..Deserializer$u20$as$u20$serde..de..SeqAccess$GT$17next_element_seed17hb3edfb592db03044E', symObjAddr: 0xDE9C, symBinAddr: 0xE3D0, symSize: 0x95 }
  - { offset: 0x82429, size: 0x8, addend: 0x0, symName: '__ZN92_$LT$$RF$mut$u20$powersync_core..bson..de..Deserializer$u20$as$u20$serde..de..EnumAccess$GT$12variant_seed17hcfba11c6b8d83a40E', symObjAddr: 0xE3DF, symBinAddr: 0xE913, symSize: 0x271 }
  - { offset: 0x827F1, size: 0x8, addend: 0x0, symName: '__ZN95_$LT$$RF$mut$u20$powersync_core..bson..de..Deserializer$u20$as$u20$serde..de..VariantAccess$GT$12unit_variant17h079e3d42993ad2e9E', symObjAddr: 0xE650, symBinAddr: 0x4E918, symSize: 0x24 }
  - { offset: 0x8281C, size: 0x8, addend: 0x0, symName: '__ZN95_$LT$$RF$mut$u20$powersync_core..bson..de..Deserializer$u20$as$u20$serde..de..VariantAccess$GT$20newtype_variant_seed17h685fa27a56531e2fE', symObjAddr: 0xE674, symBinAddr: 0xEB84, symSize: 0x224 }
  - { offset: 0x8B42A, size: 0x8, addend: 0x0, symName: '__ZN4core3ptr106drop_in_place$LT$core..option..Option$LT$core..option..Option$LT$alloc..borrow..Cow$LT$str$GT$$GT$$GT$$GT$17h1dd7c3125e37bae7E.397', symObjAddr: 0xD5F6, symBinAddr: 0xDB2A, symSize: 0x1B }
  - { offset: 0x8B456, size: 0x8, addend: 0x0, symName: '__ZN4core3ptr78drop_in_place$LT$core..option..Option$LT$alloc..borrow..Cow$LT$str$GT$$GT$$GT$17h5ea7503acfab1ae4E.399', symObjAddr: 0xD740, symBinAddr: 0xDC74, symSize: 0x1B }
  - { offset: 0x8B4DF, size: 0x8, addend: 0x0, symName: '__ZN4core3ptr50drop_in_place$LT$alloc..borrow..Cow$LT$str$GT$$GT$17h6326ca9e9f7011d3E.400', symObjAddr: 0xD75B, symBinAddr: 0xDC8F, symSize: 0x14 }
  - { offset: 0x8B56B, size: 0x8, addend: 0x0, symName: '__ZN4core3ptr145drop_in_place$LT$core..option..Option$LT$alloc..rc..Rc$LT$alloc..vec..Vec$LT$powersync_core..sync..line..BucketSubscriptionReason$GT$$GT$$GT$$GT$17he4efc6df52cb7001E.404', symObjAddr: 0xDE86, symBinAddr: 0xE3BA, symSize: 0x16 }
  - { offset: 0x8B665, size: 0x8, addend: 0x0, symName: '__ZN4core3ptr117drop_in_place$LT$core..option..Option$LT$alloc..vec..Vec$LT$powersync_core..sync..line..StreamDescription$GT$$GT$$GT$17h2f937bcc23eb5d94E.406', symObjAddr: 0xE1DC, symBinAddr: 0xE710, symSize: 0x36 }
  - { offset: 0x8D182, size: 0x8, addend: 0x0, symName: '__ZN4core3cmp5impls69_$LT$impl$u20$core..cmp..PartialEq$LT$$RF$B$GT$$u20$for$u20$$RF$A$GT$2eq17h37037e4f70d8f3e6E', symObjAddr: 0xE3C4, symBinAddr: 0xE8F8, symSize: 0x1B }
  - { offset: 0x8D741, size: 0x8, addend: 0x0, symName: __ZN14powersync_core4bson2de12Deserializer15prepare_to_read17h4e7d12933d13dfc4E, symObjAddr: 0xCFFB, symBinAddr: 0xD52F, symSize: 0x18D }
  - { offset: 0x8D958, size: 0x8, addend: 0x0, symName: __ZN14powersync_core4bson2de12Deserializer21prepare_to_read_value17hbead0496db85ef20E, symObjAddr: 0xD188, symBinAddr: 0xD6BC, symSize: 0x4E }
  - { offset: 0x8DA19, size: 0x8, addend: 0x0, symName: __ZN14powersync_core4bson2de12Deserializer13object_reader17ha7e33a7a7881a947E, symObjAddr: 0xD1D6, symBinAddr: 0xD70A, symSize: 0x87 }
  - { offset: 0x8DAD0, size: 0x8, addend: 0x0, symName: __ZN14powersync_core4bson2de12Deserializer20advance_to_next_name17h59d45e9b502cb257E, symObjAddr: 0xD25D, symBinAddr: 0xD791, symSize: 0xBE }
  - { offset: 0x1D33F9, size: 0x8, addend: 0x0, symName: __ZN5serde3ser10Serializer11collect_seq17ha662342c1db768e1E, symObjAddr: 0x4DE04, symBinAddr: 0x4C23C, symSize: 0xBE }
  - { offset: 0x1D349A, size: 0x8, addend: 0x0, symName: __ZN10serde_json3ser9Formatter9end_array17h6093faa9cc63a795E, symObjAddr: 0x4DEC2, symBinAddr: 0x4C2FA, symSize: 0x26 }
  - { offset: 0x1D3644, size: 0x8, addend: 0x0, symName: __ZN10serde_json3ser9Formatter10end_object17h8581368962c1384fE.2965, symObjAddr: 0x4E0A8, symBinAddr: 0x4C4E0, symSize: 0x26 }
  - { offset: 0x1D38E7, size: 0x8, addend: 0x0, symName: __ZN10serde_json3ser6ESCAPE17h6dee1ede21c58c55E, symObjAddr: 0x5E6C6, symBinAddr: 0x5CDEE, symSize: 0x0 }
  - { offset: 0x1D4071, size: 0x8, addend: 0x0, symName: __ZN10serde_json3ser18format_escaped_str17h93cee6dafc8bbc2fE, symObjAddr: 0x4E156, symBinAddr: 0x4C58E, symSize: 0x142 }
  - { offset: 0x1D4647, size: 0x8, addend: 0x0, symName: __ZN10serde_json3ser17invalid_raw_value17h24ae567f2472010fE, symObjAddr: 0x4E298, symBinAddr: 0x50A5C, symSize: 0x1C }
  - { offset: 0x1D47BD, size: 0x8, addend: 0x0, symName: '__ZN10serde_json5value3ser76_$LT$impl$u20$serde..ser..Serialize$u20$for$u20$serde_json..value..Value$GT$9serialize17h37f5949c996e4d72E', symObjAddr: 0x4DEE8, symBinAddr: 0x4C320, symSize: 0x1C0 }
  - { offset: 0x1D63D3, size: 0x8, addend: 0x0, symName: __ZN5serde3ser10Serializer11collect_seq17ha662342c1db768e1E, symObjAddr: 0x4DE04, symBinAddr: 0x4C23C, symSize: 0xBE }
  - { offset: 0x1D67B2, size: 0x8, addend: 0x0, symName: __ZN5serde3ser12SerializeMap15serialize_entry17had4f78317b698e3cE, symObjAddr: 0x4E0CE, symBinAddr: 0x4C506, symSize: 0x88 }
  - { offset: 0x1ED23D, size: 0x8, addend: 0x0, symName: '__ZN42_$LT$$RF$T$u20$as$u20$core..fmt..Debug$GT$3fmt17hc5b1a1875f26a04bE', symObjAddr: 0x4F53E, symBinAddr: 0x4D94E, symSize: 0x9BE }
  - { offset: 0x1EE22E, size: 0x8, addend: 0x0, symName: '__ZN42_$LT$$RF$T$u20$as$u20$core..fmt..Debug$GT$3fmt17hc5b1a1875f26a04bE', symObjAddr: 0x4F53E, symBinAddr: 0x4D94E, symSize: 0x9BE }
  - { offset: 0x1EE577, size: 0x8, addend: 0x0, symName: '__ZN95_$LT$$BP$mut$u20$sqlite3_capi..bindings..sqlite3$u20$as$u20$sqlite_nostd..nostd..Connection$GT$11commit_hook17ha07975437593d43fE', symObjAddr: 0x4FF51, symBinAddr: 0x4E361, symSize: 0x1E }
  - { offset: 0x1EE5C5, size: 0x8, addend: 0x0, symName: '__ZN95_$LT$$BP$mut$u20$sqlite3_capi..bindings..sqlite3$u20$as$u20$sqlite_nostd..nostd..Connection$GT$11commit_hook17ha07975437593d43fE', symObjAddr: 0x4FF51, symBinAddr: 0x4E361, symSize: 0x1E }
  - { offset: 0x1EE604, size: 0x8, addend: 0x0, symName: '__ZN95_$LT$$BP$mut$u20$sqlite3_capi..bindings..sqlite3$u20$as$u20$sqlite_nostd..nostd..Connection$GT$18create_function_v217h08d95104bbd6aa70E', symObjAddr: 0x4FF6F, symBinAddr: 0x4E37F, symSize: 0xBB }
  - { offset: 0x1EE769, size: 0x8, addend: 0x0, symName: '__ZN95_$LT$$BP$mut$u20$sqlite3_capi..bindings..sqlite3$u20$as$u20$sqlite_nostd..nostd..Connection$GT$13rollback_hook17hcb64548213b82e4bE', symObjAddr: 0x50047, symBinAddr: 0x4E457, symSize: 0x1E }
  - { offset: 0x1EE7B7, size: 0x8, addend: 0x0, symName: '__ZN95_$LT$$BP$mut$u20$sqlite3_capi..bindings..sqlite3$u20$as$u20$sqlite_nostd..nostd..Connection$GT$13rollback_hook17hcb64548213b82e4bE', symObjAddr: 0x50047, symBinAddr: 0x4E457, symSize: 0x1E }
  - { offset: 0x1EE7F6, size: 0x8, addend: 0x0, symName: '__ZN95_$LT$$BP$mut$u20$sqlite3_capi..bindings..sqlite3$u20$as$u20$sqlite_nostd..nostd..Connection$GT$11update_hook17hab634645f2094d3bE', symObjAddr: 0x50065, symBinAddr: 0x4E475, symSize: 0x1E }
  - { offset: 0x1EE844, size: 0x8, addend: 0x0, symName: '__ZN95_$LT$$BP$mut$u20$sqlite3_capi..bindings..sqlite3$u20$as$u20$sqlite_nostd..nostd..Connection$GT$11update_hook17hab634645f2094d3bE', symObjAddr: 0x50065, symBinAddr: 0x4E475, symSize: 0x1E }
  - { offset: 0x1EE882, size: 0x8, addend: 0x0, symName: '__ZN95_$LT$$BP$mut$u20$sqlite3_capi..bindings..sqlite3$u20$as$u20$sqlite_nostd..nostd..Connection$GT$6errmsg17h608aa34e07889874E', symObjAddr: 0x50083, symBinAddr: 0x4E493, symSize: 0xF4 }
  - { offset: 0x1EEB4B, size: 0x8, addend: 0x0, symName: '__ZN95_$LT$$BP$mut$u20$sqlite3_capi..bindings..sqlite3$u20$as$u20$sqlite_nostd..nostd..Connection$GT$14get_autocommit17h7145c4f14f1f88e5E', symObjAddr: 0x50177, symBinAddr: 0x4E587, symSize: 0x25 }
  - { offset: 0x1EEBD6, size: 0x8, addend: 0x0, symName: '__ZN70_$LT$sqlite_nostd..nostd..ResultCode$u20$as$u20$core..fmt..Display$GT$3fmt17h9478722741da8c9eE', symObjAddr: 0x4FEFC, symBinAddr: 0x4E30C, symSize: 0x55 }
  - { offset: 0x1EECA9, size: 0x8, addend: 0x0, symName: __ZN12sqlite_nostd5nostd10convert_rc17h2258b76b7640ddd6E, symObjAddr: 0x5002A, symBinAddr: 0x4E43A, symSize: 0x1D }
  - { offset: 0x1EEDAC, size: 0x8, addend: 0x0, symName: '__ZN74_$LT$sqlite_nostd..nostd..ManagedStmt$u20$as$u20$core..ops..drop..Drop$GT$4drop17hdff96d4b82938d00E', symObjAddr: 0x50206, symBinAddr: 0x4E616, symSize: 0x1E }
  - { offset: 0x1EEDD6, size: 0x8, addend: 0x0, symName: '__ZN74_$LT$sqlite_nostd..nostd..ManagedStmt$u20$as$u20$core..ops..drop..Drop$GT$4drop17hdff96d4b82938d00E', symObjAddr: 0x50206, symBinAddr: 0x4E616, symSize: 0x1E }
  - { offset: 0x1EEE0D, size: 0x8, addend: 0x0, symName: '__ZN94_$LT$$BP$mut$u20$sqlite3_capi..bindings..sqlite3_vtab$u20$as$u20$sqlite_nostd..nostd..VTab$GT$7set_err17h6764bf0668cbace3E', symObjAddr: 0x50224, symBinAddr: 0x4E634, symSize: 0x45 }
  - { offset: 0x1EEEA5, size: 0x8, addend: 0x0, symName: __ZN12sqlite_nostd5nostd12declare_vtab17h29f656aa2fadae7cE, symObjAddr: 0x50269, symBinAddr: 0x4E679, symSize: 0x90 }
  - { offset: 0x1EF042, size: 0x8, addend: 0x0, symName: __ZN12sqlite_nostd5nostd11vtab_config17he2a4c017b1fdf814E, symObjAddr: 0x502F9, symBinAddr: 0x4E709, symSize: 0x22 }
  - { offset: 0x1EF083, size: 0x8, addend: 0x0, symName: __ZN12sqlite_nostd5nostd11vtab_config17he2a4c017b1fdf814E, symObjAddr: 0x502F9, symBinAddr: 0x4E709, symSize: 0x22 }
  - { offset: 0x1EFAFF, size: 0x8, addend: 0x0, symName: __ZN12sqlite_nostd5nostd11ManagedStmt5reset17hd315ad79f0bfd066E, symObjAddr: 0x5019C, symBinAddr: 0x4E5AC, symSize: 0x26 }
  - { offset: 0x1EFBBB, size: 0x8, addend: 0x0, symName: __ZN12sqlite_nostd5nostd11ManagedStmt4step17h0b98117e6c840bcaE, symObjAddr: 0x501C2, symBinAddr: 0x4E5D2, symSize: 0x44 }
  - { offset: 0xDC67D, size: 0x8, addend: 0x0, symName: '__ZN5serde9__private2de7content28ContentDeserializer$LT$E$GT$12invalid_type17h01fbc7a322cdd2e6E', symObjAddr: 0x1DAD3, symBinAddr: 0x4F437, symSize: 0x155 }
  - { offset: 0xDC759, size: 0x8, addend: 0x0, symName: __ZN5serde2de7Visitor11visit_bytes17heb23abf0baf996f2E, symObjAddr: 0x1DDD7, symBinAddr: 0x4F58F, symSize: 0x3C }
  - { offset: 0xDC7AA, size: 0x8, addend: 0x0, symName: __ZN5serde2de7Visitor9visit_str17h28fa32f426b467fbE, symObjAddr: 0x1DE13, symBinAddr: 0x4F5CB, symSize: 0x3C }
  - { offset: 0xDCA41, size: 0x8, addend: 0x0, symName: '__ZN41_$LT$T$u20$as$u20$serde..de..Expected$GT$3fmt17h518c338e6ec03cc3E', symObjAddr: 0x1DD2B, symBinAddr: 0x1D5EF, symSize: 0x23 }
  - { offset: 0xDCAB9, size: 0x8, addend: 0x0, symName: '__ZN41_$LT$T$u20$as$u20$serde..de..Expected$GT$3fmt17haef9cc3be79f231eE', symObjAddr: 0x1DD4E, symBinAddr: 0x1D612, symSize: 0x23 }
  - { offset: 0xDCF39, size: 0x8, addend: 0x0, symName: '__ZN84_$LT$serde..__private..de..content..ContentVisitor$u20$as$u20$serde..de..Visitor$GT$9visit_str17h9dd5e3783ac55765E', symObjAddr: 0x1DE8D, symBinAddr: 0x1D6D9, symSize: 0x5D }
  - { offset: 0xDD582, size: 0x8, addend: 0x0, symName: '__ZN164_$LT$$LT$powersync_core..sync..bucket_priority..BucketPriority$u20$as$u20$serde..de..Deserialize$GT$..deserialize..PriorityVisitor$u20$as$u20$serde..de..Visitor$GT$9visit_i3217h0af2d381455b25e0E', symObjAddr: 0x21A9C, symBinAddr: 0x212E8, symSize: 0x68 }
  - { offset: 0xDD64C, size: 0x8, addend: 0x0, symName: '__ZN164_$LT$$LT$powersync_core..sync..bucket_priority..BucketPriority$u20$as$u20$serde..de..Deserialize$GT$..deserialize..PriorityVisitor$u20$as$u20$serde..de..Visitor$GT$9visit_i3217hdef43f019f1ac51eE', symObjAddr: 0x21B04, symBinAddr: 0x21350, symSize: 0x66 }
  - { offset: 0xDD73E, size: 0x8, addend: 0x0, symName: '__ZN96_$LT$powersync_core..sync..bucket_priority..BucketPriority$u20$as$u20$serde..de..Deserialize$GT$11deserialize17h70d256e8d19d21e5E', symObjAddr: 0x2175A, symBinAddr: 0x20FA6, symSize: 0xFD }
  - { offset: 0xDD87D, size: 0x8, addend: 0x0, symName: '__ZN96_$LT$powersync_core..sync..bucket_priority..BucketPriority$u20$as$u20$serde..de..Deserialize$GT$11deserialize17hdfa36caff5f69a45E', symObjAddr: 0x21857, symBinAddr: 0x210A3, symSize: 0x245 }
  - { offset: 0xDDC8D, size: 0x8, addend: 0x0, symName: '__ZN107_$LT$powersync_core..sync..bucket_priority..BucketPriority$u20$as$u20$core..convert..TryFrom$LT$i32$GT$$GT$8try_from17h5db99feef2fd08d5E', symObjAddr: 0x21723, symBinAddr: 0x20F6F, symSize: 0x37 }
  - { offset: 0xDDCC0, size: 0x8, addend: 0x0, symName: '__ZN95_$LT$powersync_core..sync..bucket_priority..BucketPriority$u20$as$u20$serde..ser..Serialize$GT$9serialize17hd665a9ae1ee6cc36E', symObjAddr: 0x21B6A, symBinAddr: 0x213B6, symSize: 0xCA }
  - { offset: 0xDE400, size: 0x8, addend: 0x0, symName: __ZN14powersync_core4sync10operations24insert_bucket_operations17h5ef773e009477dfbE, symObjAddr: 0x1F536, symBinAddr: 0x1ED82, symSize: 0x927 }
  - { offset: 0xDF702, size: 0x8, addend: 0x0, symName: __ZN14powersync_core10operations13delete_bucket17hf0b70d6721cf3917E, symObjAddr: 0x1FEEC, symBinAddr: 0x1F738, symSize: 0x17D }
  - { offset: 0xDFC6A, size: 0x8, addend: 0x0, symName: __ZN14powersync_core6schema10management24powersync_replace_schema17h3683c5e19ef7b541E, symObjAddr: 0x20069, symBinAddr: 0x1F8B5, symSize: 0x138 }
  - { offset: 0xE05B2, size: 0x8, addend: 0x0, symName: __ZN14powersync_core6schema10management29powersync_replace_schema_impl17h87c9d26d94412ef0E, symObjAddr: 0x201A1, symBinAddr: 0x1F9ED, symSize: 0x153D }
  - { offset: 0xE26FF, size: 0x8, addend: 0x0, symName: __ZN14powersync_core2kv9client_id17h210904aebf7b477aE, symObjAddr: 0x1DEEA, symBinAddr: 0x1D736, symSize: 0xE1 }
  - { offset: 0xE2962, size: 0x8, addend: 0x0, symName: __ZN14powersync_core2kv19powersync_client_id17h7b886d182a6f1fbeE, symObjAddr: 0x1E7F0, symBinAddr: 0x1E03C, symSize: 0x75 }
  - { offset: 0xE2B71, size: 0x8, addend: 0x0, symName: __ZN14powersync_core2kv24powersync_last_synced_at17h216f326d7c78dee6E, symObjAddr: 0x1E865, symBinAddr: 0x1E0B1, symSize: 0x136 }
  - { offset: 0xE2EA2, size: 0x8, addend: 0x0, symName: __ZN14powersync_core10migrations17powersync_migrate17ha1c80248ba8a1af1E, symObjAddr: 0x1E9AC, symBinAddr: 0x1E1F8, symSize: 0xAA9 }
  - { offset: 0xE3FF2, size: 0x8, addend: 0x0, symName: __ZN14powersync_core7version20powersync_rs_version17h2ed56d382d56cf3fE, symObjAddr: 0x21C34, symBinAddr: 0x21480, symSize: 0xD1 }
  - { offset: 0xE42E7, size: 0x8, addend: 0x0, symName: '__ZN95_$LT$$BP$mut$u20$sqlite3_capi..bindings..sqlite3$u20$as$u20$sqlite_nostd..nostd..Connection$GT$10prepare_v217h9b3ccd717d6996c2E', symObjAddr: 0x1DFCB, symBinAddr: 0x1D817, symSize: 0x7D9 }
  - { offset: 0xE43B0, size: 0x8, addend: 0x0, symName: '__ZN95_$LT$$BP$mut$u20$sqlite3_capi..bindings..sqlite3$u20$as$u20$sqlite_nostd..nostd..Connection$GT$9exec_safe17h9908d782887e4542E', symObjAddr: 0x1F455, symBinAddr: 0x1ECA1, symSize: 0x79 }
  - { offset: 0xE4DE0, size: 0x8, addend: 0x0, symName: '__ZN4core3ptr59drop_in_place$LT$serde..__private..de..content..Content$GT$17he6ce6597d35e5847E.1060', symObjAddr: 0x1DC28, symBinAddr: 0x1D4EC, symSize: 0xA4 }
  - { offset: 0xE4E2F, size: 0x8, addend: 0x0, symName: '__ZN4core3ptr131drop_in_place$LT$alloc..vec..Vec$LT$$LP$serde..__private..de..content..Content$C$serde..__private..de..content..Content$RP$$GT$$GT$17h444fe40103aa7d68E', symObjAddr: 0x1DCCC, symBinAddr: 0x1D590, symSize: 0x20 }
  - { offset: 0xE4E7E, size: 0x8, addend: 0x0, symName: '__ZN4core3ptr84drop_in_place$LT$alloc..boxed..Box$LT$serde..__private..de..content..Content$GT$$GT$17h702c2a225b2babc0E.1061', symObjAddr: 0x1DCEC, symBinAddr: 0x1D5B0, symSize: 0x1F }
  - { offset: 0xE4F85, size: 0x8, addend: 0x0, symName: '__ZN4core3ptr82drop_in_place$LT$alloc..vec..Vec$LT$serde..__private..de..content..Content$GT$$GT$17h5aea036cbc023a00E', symObjAddr: 0x1DD0B, symBinAddr: 0x1D5CF, symSize: 0x20 }
  - { offset: 0xE5176, size: 0x8, addend: 0x0, symName: '__ZN4core3ptr47drop_in_place$LT$alloc..ffi..c_str..CString$GT$17h29c258e283f52ba3E', symObjAddr: 0x1F4CE, symBinAddr: 0x1ED1A, symSize: 0x14 }
  - { offset: 0xE52AE, size: 0x8, addend: 0x0, symName: '__ZN4core3ptr74drop_in_place$LT$powersync_core..sync..storage_adapter..StorageAdapter$GT$17hcd26b2448b221e9aE', symObjAddr: 0x1FE5D, symBinAddr: 0x1F6A9, symSize: 0x33 }
  - { offset: 0xE5398, size: 0x8, addend: 0x0, symName: '__ZN4core3ptr78drop_in_place$LT$powersync_core..operations..insert_operation..BucketBatch$GT$17haae3700195c505bcE', symObjAddr: 0x1FE90, symBinAddr: 0x1F6DC, symSize: 0x29 }
  - { offset: 0xE54A1, size: 0x8, addend: 0x0, symName: '__ZN4core3ptr51drop_in_place$LT$powersync_core..schema..Schema$GT$17h22001c5e4eb8f522E.1129', symObjAddr: 0x216DE, symBinAddr: 0x20F2A, symSize: 0x45 }
  - { offset: 0xEF1A3, size: 0x8, addend: 0x0, symName: '__ZN5serde9__private2de7content28ContentDeserializer$LT$E$GT$12invalid_type17h01fbc7a322cdd2e6E', symObjAddr: 0x1DAD3, symBinAddr: 0x4F437, symSize: 0x155 }
  - { offset: 0xEF4D5, size: 0x8, addend: 0x0, symName: '__ZN5alloc11collections5btree8navigate142_$LT$impl$u20$alloc..collections..btree..node..NodeRef$LT$BorrowType$C$K$C$V$C$alloc..collections..btree..node..marker..LeafOrInternal$GT$$GT$15first_leaf_edge17h40b8e641bf02d502E', symObjAddr: 0x1DD71, symBinAddr: 0x1D635, symSize: 0x22 }
  - { offset: 0xEF696, size: 0x8, addend: 0x0, symName: '__ZN5alloc11collections5btree8navigate142_$LT$impl$u20$alloc..collections..btree..node..NodeRef$LT$BorrowType$C$K$C$V$C$alloc..collections..btree..node..marker..LeafOrInternal$GT$$GT$15first_leaf_edge17hff3fbda970b83438E', symObjAddr: 0x1DD93, symBinAddr: 0x1D657, symSize: 0x22 }
  - { offset: 0xEF857, size: 0x8, addend: 0x0, symName: '__ZN5alloc11collections5btree8navigate142_$LT$impl$u20$alloc..collections..btree..node..NodeRef$LT$BorrowType$C$K$C$V$C$alloc..collections..btree..node..marker..LeafOrInternal$GT$$GT$15first_leaf_edge17h58af681049a3bbb6E', symObjAddr: 0x1DDB5, symBinAddr: 0x1D679, symSize: 0x22 }
  - { offset: 0xEF9EA, size: 0x8, addend: 0x0, symName: '__ZN5alloc7raw_vec20RawVecInner$LT$A$GT$16with_capacity_in17h27770aa47bcd454aE', symObjAddr: 0x1DE4F, symBinAddr: 0x1D69B, symSize: 0x3E }
  - { offset: 0xEFAEA, size: 0x8, addend: 0x0, symName: __ZN12sqlite_nostd5nostd11ManagedStmt11column_text17h88048b6552111f65E, symObjAddr: 0x1E7A4, symBinAddr: 0x1DFF0, symSize: 0x4C }
  - { offset: 0xEFBFE, size: 0x8, addend: 0x0, symName: __ZN12sqlite_nostd5nostd11ManagedStmt8bind_int17hf7d01db2f10aec8aE, symObjAddr: 0x1E99B, symBinAddr: 0x1E1E7, symSize: 0x11 }
  - { offset: 0xF0053, size: 0x8, addend: 0x0, symName: '__ZN5alloc3vec16Vec$LT$T$C$A$GT$4push17h30c1edd19f0cd5d4E', symObjAddr: 0x1F4E2, symBinAddr: 0x1ED2E, symSize: 0x54 }
  - { offset: 0xF0318, size: 0x8, addend: 0x0, symName: __ZN12sqlite_nostd5nostd11ManagedStmt10bind_int6417h85863f90a22e17d7E, symObjAddr: 0x1FEB9, symBinAddr: 0x1F705, symSize: 0x11 }
  - { offset: 0xF0358, size: 0x8, addend: 0x0, symName: __ZN12sqlite_nostd5nostd11ManagedStmt9bind_text17hb5ee5ac8f6c4b350E, symObjAddr: 0x1FECA, symBinAddr: 0x1F716, symSize: 0x11 }
  - { offset: 0xF03A8, size: 0x8, addend: 0x0, symName: __ZN12sqlite_nostd5nostd11ManagedStmt9bind_null17hd9c73c008a2d53cbE, symObjAddr: 0x1FEDB, symBinAddr: 0x1F727, symSize: 0x11 }
  - { offset: 0x16576B, size: 0x8, addend: 0x0, symName: '__ZN4core3ptr115drop_in_place$LT$powersync_core..sync..streaming_sync..StreamingSyncIteration..run..$u7b$$u7b$closure$u7d$$u7d$$GT$17h9bd56fbb896e3144E', symObjAddr: 0x37C2E, symBinAddr: 0x36BAE, symSize: 0x46 }
  - { offset: 0x16590E, size: 0x8, addend: 0x0, symName: '__ZN14powersync_core4sync14streaming_sync22StreamingSyncIteration3run28_$u7b$$u7b$closure$u7d$$u7d$17h7175ff57c1daab53E', symObjAddr: 0x37C74, symBinAddr: 0x36BF4, symSize: 0x4B70 }
  - { offset: 0x16E129, size: 0x8, addend: 0x0, symName: '__ZN105_$LT$powersync_core..sync..streaming_sync..RequestedStreamSubscriptions$u20$as$u20$core..clone..Clone$GT$5clone17h9342478707d87c22E', symObjAddr: 0x3CBB9, symBinAddr: 0x3BB39, symSize: 0x18 }
  - { offset: 0x16E26E, size: 0x8, addend: 0x0, symName: '__ZN92_$LT$powersync_core..sync..streaming_sync..OwnedCheckpoint$u20$as$u20$core..clone..Clone$GT$5clone17h82c9f8e724e4dd0aE', symObjAddr: 0x3E790, symBinAddr: 0x3D710, symSize: 0x5E }
  - { offset: 0x171F3E, size: 0x8, addend: 0x0, symName: '__ZN67_$LT$alloc..rc..Rc$LT$T$C$A$GT$$u20$as$u20$core..cmp..PartialEq$GT$2ne17habf257b67b8132cdE', symObjAddr: 0x3C9E0, symBinAddr: 0x3B960, symSize: 0xC6 }
  - { offset: 0x1732F6, size: 0x8, addend: 0x0, symName: '__ZN4core3ptr115drop_in_place$LT$powersync_core..sync..streaming_sync..StreamingSyncIteration..run..$u7b$$u7b$closure$u7d$$u7d$$GT$17h9bd56fbb896e3144E', symObjAddr: 0x37C2E, symBinAddr: 0x36BAE, symSize: 0x46 }
  - { offset: 0x173447, size: 0x8, addend: 0x0, symName: '__ZN4core3ptr87drop_in_place$LT$powersync_core..sync..streaming_sync..RequestedStreamSubscriptions$GT$17h88753a33b401daeaE', symObjAddr: 0x3C7E4, symBinAddr: 0x3B764, symSize: 0x2D }
  - { offset: 0x1736C9, size: 0x8, addend: 0x0, symName: '__ZN4core3ptr69drop_in_place$LT$powersync_core..sync..streaming_sync..SyncTarget$GT$17hc9a9ed90b085b7d1E', symObjAddr: 0x3C854, symBinAddr: 0x3B7D4, symSize: 0x38 }
  - { offset: 0x17382F, size: 0x8, addend: 0x0, symName: '__ZN4core3ptr57drop_in_place$LT$powersync_core..sync..line..SyncLine$GT$17h6b0e0417b42daffeE.2314', symObjAddr: 0x3C88C, symBinAddr: 0x3B80C, symSize: 0x9E }
  - { offset: 0x173A8D, size: 0x8, addend: 0x0, symName: '__ZN4core3ptr86drop_in_place$LT$core..option..Option$LT$powersync_core..error..PowerSyncError$GT$$GT$17hc6768d66b0de10dbE', symObjAddr: 0x3C92A, symBinAddr: 0x3B8AA, symSize: 0xB6 }
  - { offset: 0x173CBA, size: 0x8, addend: 0x0, symName: '__ZN4core3ptr81drop_in_place$LT$powersync_core..sync..streaming_sync..StreamingSyncIteration$GT$17h340cb74ad78de873E', symObjAddr: 0x3CAA6, symBinAddr: 0x3BA26, symSize: 0x70 }
  - { offset: 0x173F96, size: 0x8, addend: 0x0, symName: '__ZN4core3ptr69drop_in_place$LT$powersync_core..sync..interface..StartSyncStream$GT$17h76ed82a468c6faf3E.2317', symObjAddr: 0x3CB16, symBinAddr: 0x3BA96, symSize: 0x5E }
  - { offset: 0x1740BA, size: 0x8, addend: 0x0, symName: '__ZN4core3ptr102drop_in_place$LT$core..option..Option$LT$powersync_core..sync..streaming_sync..OwnedCheckpoint$GT$$GT$17hd556be736654de7bE', symObjAddr: 0x3CB74, symBinAddr: 0x3BAF4, symSize: 0x15 }
  - { offset: 0x174164, size: 0x8, addend: 0x0, symName: '__ZN4core3ptr102drop_in_place$LT$core..option..Option$LT$powersync_core..sync..checkpoint..OwnedBucketChecksum$GT$$GT$17hf89657642afe0454E', symObjAddr: 0x3CB89, symBinAddr: 0x3BB09, symSize: 0x30 }
  - { offset: 0x1743FC, size: 0x8, addend: 0x0, symName: '__ZN4core3ptr76drop_in_place$LT$powersync_core..sync..streaming_sync..TrackedCheckpoint$GT$17h512cca698c1a3fd6E', symObjAddr: 0x3E7EE, symBinAddr: 0x3D76E, symSize: 0x6D }
  - { offset: 0x1745D1, size: 0x8, addend: 0x0, symName: '__ZN4core3ptr76drop_in_place$LT$powersync_core..sync..storage_adapter..CheckpointResult$GT$17h966d07a6a2391e84E', symObjAddr: 0x3FC1C, symBinAddr: 0x3EB9C, symSize: 0x29 }
  - { offset: 0x17463F, size: 0x8, addend: 0x0, symName: '__ZN4core3ptr75drop_in_place$LT$powersync_core..sync..storage_adapter..SyncLocalResult$GT$17ha0e9012a5081a487E', symObjAddr: 0x3FCF6, symBinAddr: 0x3EC76, symSize: 0x1B }
  - { offset: 0x17468D, size: 0x8, addend: 0x0, symName: '__ZN4core3ptr70drop_in_place$LT$powersync_core..sync..streaming_sync..ActiveEvent$GT$17hf1924e4bdf1d2e33E', symObjAddr: 0x3FF4C, symBinAddr: 0x3EECC, symSize: 0x30 }
  - { offset: 0x1746BD, size: 0x8, addend: 0x0, symName: '__ZN4core3ptr63drop_in_place$LT$powersync_core..sync..interface..SyncEvent$GT$17h48abfcfdc9e9bbbeE', symObjAddr: 0x3FF7C, symBinAddr: 0x3EEFC, symSize: 0x15 }
  - { offset: 0x174727, size: 0x8, addend: 0x0, symName: '__ZN4core3ptr78drop_in_place$LT$powersync_core..sync..streaming_sync..SyncIterationHandle$GT$17h86f3d54e2d95ed24E', symObjAddr: 0x3FF91, symBinAddr: 0x3EF11, symSize: 0x32 }
  - { offset: 0x174808, size: 0x8, addend: 0x0, symName: '__ZN4core3ptr70drop_in_place$LT$powersync_core..sync..streaming_sync..ClientState$GT$17h224db1d74e9df7f0E', symObjAddr: 0x3FFC3, symBinAddr: 0x3EF43, symSize: 0x11 }
  - { offset: 0x1783E2, size: 0x8, addend: 0x0, symName: __ZN4core3ops8function6FnOnce9call_once17h73f803be1bfdb214E, symObjAddr: 0x3FFD4, symBinAddr: 0x3EF54, symSize: 0xF }
  - { offset: 0x178420, size: 0x8, addend: 0x0, symName: __ZN4core3ops8function6FnOnce9call_once17h0d775596c535bf0eE, symObjAddr: 0x3FFE3, symBinAddr: 0x3EF63, symSize: 0x6 }
  - { offset: 0x179866, size: 0x8, addend: 0x0, symName: '__ZN44_$LT$$RF$T$u20$as$u20$core..fmt..Display$GT$3fmt17h7b7b50b91d4225fbE', symObjAddr: 0x3FD34, symBinAddr: 0x3ECB4, symSize: 0x9D }
  - { offset: 0x17B808, size: 0x8, addend: 0x0, symName: '__ZN5alloc3vec16Vec$LT$T$C$A$GT$4push17h4740c015c112a5ddE', symObjAddr: 0x3C811, symBinAddr: 0x3B791, symSize: 0x43 }
  - { offset: 0x17BBE5, size: 0x8, addend: 0x0, symName: __ZN14powersync_core4sync14streaming_sync22StreamingSyncIteration13load_progress17h2801c53d36c9b536E, symObjAddr: 0x3CBD1, symBinAddr: 0x3BB51, symSize: 0xD0F }
  - { offset: 0x17EADE, size: 0x8, addend: 0x0, symName: __ZN14powersync_core4sync14streaming_sync22StreamingSyncIteration26resolve_subscription_state17hfc3c1687fae12c2bE, symObjAddr: 0x3D8E0, symBinAddr: 0x3C860, symSize: 0xEB0 }
  - { offset: 0x18123B, size: 0x8, addend: 0x0, symName: __ZN14powersync_core4sync14streaming_sync22StreamingSyncIteration10sync_local17hb852479a81c302c3E, symObjAddr: 0x3E85B, symBinAddr: 0x3D7DB, symSize: 0x13C1 }
  - { offset: 0x182FEC, size: 0x8, addend: 0x0, symName: __ZN14powersync_core4sync14streaming_sync22StreamingSyncIteration25handle_checkpoint_applied17h475a719ea9464931E, symObjAddr: 0x3FC45, symBinAddr: 0x3EBC5, symSize: 0xB1 }
  - { offset: 0x183241, size: 0x8, addend: 0x0, symName: '__ZN41_$LT$T$u20$as$u20$serde..de..Expected$GT$3fmt17ha6597ad76b7203d8E', symObjAddr: 0x3FD11, symBinAddr: 0x3EC91, symSize: 0x23 }
  - { offset: 0x1832CA, size: 0x8, addend: 0x0, symName: __ZN14powersync_core4sync14streaming_sync11ClientState9tear_down17h19d196492c67ce32E, symObjAddr: 0x3FDD1, symBinAddr: 0x3ED51, symSize: 0xD6 }
  - { offset: 0x183436, size: 0x8, addend: 0x0, symName: __ZN14powersync_core4sync14streaming_sync19SyncIterationHandle3run17hb6f408622581d6abE, symObjAddr: 0x3FEA7, symBinAddr: 0x3EE27, symSize: 0xA5 }
  - { offset: 0x1A5C1, size: 0x8, addend: 0x0, symName: __ZN4core3num7flt2dec7decoder6decode17h229116b0802c827bE, symObjAddr: 0x42FE, symBinAddr: 0x487A, symSize: 0xE6 }
  - { offset: 0x1A81F, size: 0x8, addend: 0x0, symName: '__ZN4core5slice29_$LT$impl$u20$$u5b$T$u5d$$GT$15copy_from_slice17len_mismatch_fail17h317199d15faedf5eE', symObjAddr: 0x4438, symBinAddr: 0x4E8D0, symSize: 0x9 }
  - { offset: 0x1A93F, size: 0x8, addend: 0x0, symName: '__ZN73_$LT$$u5b$A$u5d$$u20$as$u20$core..slice..cmp..SlicePartialEq$LT$B$GT$$GT$5equal17h3f850553a4c4cc23E', symObjAddr: 0x4417, symBinAddr: 0x498B, symSize: 0x21 }
  - { offset: 0x1AC74, size: 0x8, addend: 0x0, symName: __ZN4core3num7flt2dec7decoder6decode17h229116b0802c827bE, symObjAddr: 0x42FE, symBinAddr: 0x487A, symSize: 0xE6 }
  - { offset: 0x1AE21, size: 0x8, addend: 0x0, symName: __ZN4core3num14overflow_panic3add17hef9ca696e07bf84eE, symObjAddr: 0x43E4, symBinAddr: 0x4E8C4, symSize: 0x9 }
  - { offset: 0x1B06B, size: 0x8, addend: 0x0, symName: __ZN4core4iter6traits8iterator8Iterator3sum17hf15333c4b5228bb1E, symObjAddr: 0x43ED, symBinAddr: 0x4961, symSize: 0x2A }
  - { offset: 0x1CDB23, size: 0x8, addend: 0x0, symName: __ZN10serde_json3ser9Formatter10end_object17h8581368962c1384fE, symObjAddr: 0x4D422, symBinAddr: 0x4B9CA, symSize: 0x26 }
  - { offset: 0x1CE5A0, size: 0x8, addend: 0x0, symName: __ZN10serde_json3ser9Formatter10end_object17h8581368962c1384fE, symObjAddr: 0x4D422, symBinAddr: 0x4B9CA, symSize: 0x26 }
  - { offset: 0x7DC2, size: 0x8, addend: 0x0, symName: '__ZN5alloc6borrow12Cow$LT$B$GT$10into_owned17ha83ccfbf5cc1bed5E', symObjAddr: 0xA18, symBinAddr: 0xFCC, symSize: 0x34 }
  - { offset: 0x838C, size: 0x8, addend: 0x0, symName: '__ZN5alloc6borrow12Cow$LT$B$GT$10into_owned17ha83ccfbf5cc1bed5E', symObjAddr: 0xA18, symBinAddr: 0xFCC, symSize: 0x34 }
  - { offset: 0x1D8F98, size: 0x8, addend: 0x0, symName: __ZN3ryu6buffer6Buffer13format_finite17he2953ebff2595d77E, symObjAddr: 0x4E4A8, symBinAddr: 0x4C8C4, symSize: 0x1B }
  - { offset: 0x1D94A0, size: 0x8, addend: 0x0, symName: '__ZN68_$LT$serde_json..number..Number$u20$as$u20$serde..ser..Serialize$GT$9serialize17hfc14aa6195038aecE', symObjAddr: 0x4E4C3, symBinAddr: 0x4C8DF, symSize: 0x8F }
  - { offset: 0x1D9D09, size: 0x8, addend: 0x0, symName: __ZN3ryu6buffer6Buffer13format_finite17he2953ebff2595d77E, symObjAddr: 0x4E4A8, symBinAddr: 0x4C8C4, symSize: 0x1B }
  - { offset: 0xF216, size: 0x8, addend: 0x0, symName: __ZN4core3str8converts9from_utf817h4fe98a3e9b21300aE, symObjAddr: 0x1AEF, symBinAddr: 0x20A3, symSize: 0x1E6 }
  - { offset: 0xF461, size: 0x8, addend: 0x0, symName: __ZN4core3str8converts9from_utf817h4fe98a3e9b21300aE, symObjAddr: 0x1AEF, symBinAddr: 0x20A3, symSize: 0x1E6 }
  - { offset: 0xF8B6, size: 0x8, addend: 0x0, symName: '__ZN4core3fmt3num3imp51_$LT$impl$u20$core..fmt..Display$u20$for$u20$u8$GT$3fmt17h762764ff42482960E', symObjAddr: 0x1CD5, symBinAddr: 0x2289, symSize: 0x15 }
  - { offset: 0xF8F8, size: 0x8, addend: 0x0, symName: '__ZN4core3fmt3num3imp20_$LT$impl$u20$u8$GT$4_fmt17h4824801ad0da3d65E', symObjAddr: 0x1CEA, symBinAddr: 0x229E, symSize: 0x80 }
  - { offset: 0xFB51, size: 0x8, addend: 0x0, symName: '__ZN4core3fmt3num3imp52_$LT$impl$u20$core..fmt..Display$u20$for$u20$u32$GT$3fmt17hbf57381af3f36aa0E', symObjAddr: 0x1D6A, symBinAddr: 0x231E, symSize: 0x14 }
  - { offset: 0xFB93, size: 0x8, addend: 0x0, symName: '__ZN4core3fmt3num3imp21_$LT$impl$u20$u32$GT$4_fmt17h76bbba1d541ceff3E', symObjAddr: 0x1D7E, symBinAddr: 0x2332, symSize: 0xDD }
  - { offset: 0xFE96, size: 0x8, addend: 0x0, symName: '__ZN4core3fmt3num3imp52_$LT$impl$u20$core..fmt..Display$u20$for$u20$i32$GT$3fmt17h37c2530428693957E', symObjAddr: 0x1E5B, symBinAddr: 0x240F, symSize: 0x1B }
  - { offset: 0xFF11, size: 0x8, addend: 0x0, symName: '__ZN4core3fmt3num3imp52_$LT$impl$u20$core..fmt..Display$u20$for$u20$u64$GT$3fmt17h35348079f6ad35d6E', symObjAddr: 0x1E76, symBinAddr: 0x242A, symSize: 0x15 }
  - { offset: 0xFF53, size: 0x8, addend: 0x0, symName: '__ZN4core3fmt3num3imp21_$LT$impl$u20$u64$GT$4_fmt17h428a83b1b90fbef0E', symObjAddr: 0x1E8B, symBinAddr: 0x243F, symSize: 0xFA }
  - { offset: 0x10226, size: 0x8, addend: 0x0, symName: '__ZN4core3fmt3num3imp52_$LT$impl$u20$core..fmt..Display$u20$for$u20$i64$GT$3fmt17h541ee08285bc007bE', symObjAddr: 0x1F85, symBinAddr: 0x2539, symSize: 0x23 }
  - { offset: 0x1037C, size: 0x8, addend: 0x0, symName: '__ZN4core3fmt3num3imp54_$LT$impl$u20$core..fmt..Display$u20$for$u20$usize$GT$3fmt17hc37be7e5bb52a4b2E', symObjAddr: 0x1FA8, symBinAddr: 0x255C, symSize: 0xEB }
  - { offset: 0x6916, size: 0x8, addend: 0x0, symName: __ZN5alloc3ffi5c_str7CString19_from_vec_unchecked17h1d067dc0bad1c952E, symObjAddr: 0x815, symBinAddr: 0xDC9, symSize: 0xE8 }
  - { offset: 0x6D74, size: 0x8, addend: 0x0, symName: '__ZN72_$LT$$RF$str$u20$as$u20$alloc..ffi..c_str..CString..new..SpecNewImpl$GT$13spec_new_impl17h9e2c5b3ca3c36de3E', symObjAddr: 0x8FD, symBinAddr: 0xEB1, symSize: 0x11B }
  - { offset: 0x7754, size: 0x8, addend: 0x0, symName: __ZN5alloc3ffi5c_str7CString19_from_vec_unchecked17h1d067dc0bad1c952E, symObjAddr: 0x815, symBinAddr: 0xDC9, symSize: 0xE8 }
  - { offset: 0x54627, size: 0x8, addend: 0x0, symName: '__ZN4core3ptr65drop_in_place$LT$alloc..vec..Vec$LT$alloc..string..String$GT$$GT$17ha3684b58b0ea9d56E', symObjAddr: 0x84B1, symBinAddr: 0x8A0D, symSize: 0x29 }
  - { offset: 0x58E25, size: 0x8, addend: 0x0, symName: __ZN5serde2de12Deserializer21__deserialize_content17h5fab18c0e13b5e44E, symObjAddr: 0x8C1F, symBinAddr: 0x917B, symSize: 0x849 }
  - { offset: 0x59A39, size: 0x8, addend: 0x0, symName: '__ZN81_$LT$core..marker..PhantomData$LT$T$GT$$u20$as$u20$serde..de..DeserializeSeed$GT$11deserialize17h5308b071c5d46a67E', symObjAddr: 0x97A3, symBinAddr: 0x9CFF, symSize: 0x58 }
  - { offset: 0x5D15E, size: 0x8, addend: 0x0, symName: '__ZN93_$LT$$RF$mut$u20$serde_json..de..Deserializer$LT$R$GT$$u20$as$u20$serde..de..Deserializer$GT$15deserialize_str17h2b40a45f87d5c69bE', symObjAddr: 0x9CE5, symBinAddr: 0xA241, symSize: 0x120 }
  - { offset: 0x5D3A2, size: 0x8, addend: 0x0, symName: '__ZN93_$LT$$RF$mut$u20$serde_json..de..Deserializer$LT$R$GT$$u20$as$u20$serde..de..Deserializer$GT$15deserialize_str17h3fa6671c18a5fcf3E', symObjAddr: 0x9E65, symBinAddr: 0xA3C1, symSize: 0x120 }
  - { offset: 0x5D5E8, size: 0x8, addend: 0x0, symName: '__ZN93_$LT$$RF$mut$u20$serde_json..de..Deserializer$LT$R$GT$$u20$as$u20$serde..de..Deserializer$GT$15deserialize_str17he4b0415b6faacd94E', symObjAddr: 0x9F85, symBinAddr: 0xA4E1, symSize: 0x156 }
  - { offset: 0x5DDCD, size: 0x8, addend: 0x0, symName: '__ZN93_$LT$$RF$mut$u20$serde_json..de..Deserializer$LT$R$GT$$u20$as$u20$serde..de..Deserializer$GT$15deserialize_map17ha8109e778a6e75f4E', symObjAddr: 0xA2A3, symBinAddr: 0xA7D7, symSize: 0x2959 }
  - { offset: 0x610F2, size: 0x8, addend: 0x0, symName: '__ZN93_$LT$$RF$mut$u20$serde_json..de..Deserializer$LT$R$GT$$u20$as$u20$serde..de..Deserializer$GT$15deserialize_str17haedb04bbb0afc713E', symObjAddr: 0xCC94, symBinAddr: 0xD1C8, symSize: 0xE1 }
  - { offset: 0x63870, size: 0x8, addend: 0x0, symName: '__ZN75_$LT$serde_json..de..MapAccess$LT$R$GT$$u20$as$u20$serde..de..MapAccess$GT$15next_value_seed17h1fee31954c1336a1E', symObjAddr: 0x9563, symBinAddr: 0x9ABF, symSize: 0x28 }
  - { offset: 0x63915, size: 0x8, addend: 0x0, symName: '__ZN75_$LT$serde_json..de..MapAccess$LT$R$GT$$u20$as$u20$serde..de..MapAccess$GT$15next_value_seed17h45f2e6179294a37aE', symObjAddr: 0x958B, symBinAddr: 0x9AE7, symSize: 0x38 }
  - { offset: 0x6399A, size: 0x8, addend: 0x0, symName: '__ZN75_$LT$serde_json..de..MapAccess$LT$R$GT$$u20$as$u20$serde..de..MapAccess$GT$15next_value_seed17h478147f3cb3c65cfE', symObjAddr: 0x95C3, symBinAddr: 0x9B1F, symSize: 0x3F }
  - { offset: 0x63A21, size: 0x8, addend: 0x0, symName: '__ZN75_$LT$serde_json..de..MapAccess$LT$R$GT$$u20$as$u20$serde..de..MapAccess$GT$15next_value_seed17h4f6146d7d0fa5165E', symObjAddr: 0x9602, symBinAddr: 0x9B5E, symSize: 0x35 }
  - { offset: 0x63AC9, size: 0x8, addend: 0x0, symName: '__ZN75_$LT$serde_json..de..MapAccess$LT$R$GT$$u20$as$u20$serde..de..MapAccess$GT$15next_value_seed17h542e432dc3495825E', symObjAddr: 0x9637, symBinAddr: 0x9B93, symSize: 0x3F }
  - { offset: 0x63B50, size: 0x8, addend: 0x0, symName: '__ZN75_$LT$serde_json..de..MapAccess$LT$R$GT$$u20$as$u20$serde..de..MapAccess$GT$15next_value_seed17h672a4e165007e227E', symObjAddr: 0x9676, symBinAddr: 0x9BD2, symSize: 0x3F }
  - { offset: 0x63BD7, size: 0x8, addend: 0x0, symName: '__ZN75_$LT$serde_json..de..MapAccess$LT$R$GT$$u20$as$u20$serde..de..MapAccess$GT$15next_value_seed17h85efe8fabe79d5beE', symObjAddr: 0x96B5, symBinAddr: 0x9C11, symSize: 0x38 }
  - { offset: 0x63C5C, size: 0x8, addend: 0x0, symName: '__ZN75_$LT$serde_json..de..MapAccess$LT$R$GT$$u20$as$u20$serde..de..MapAccess$GT$15next_value_seed17h93267018a67d4ea9E', symObjAddr: 0x96ED, symBinAddr: 0x9C49, symSize: 0x3F }
  - { offset: 0x63CE3, size: 0x8, addend: 0x0, symName: '__ZN75_$LT$serde_json..de..MapAccess$LT$R$GT$$u20$as$u20$serde..de..MapAccess$GT$15next_value_seed17hc6767eea72d23f82E', symObjAddr: 0x972C, symBinAddr: 0x9C88, symSize: 0x38 }
  - { offset: 0x63D68, size: 0x8, addend: 0x0, symName: '__ZN75_$LT$serde_json..de..MapAccess$LT$R$GT$$u20$as$u20$serde..de..MapAccess$GT$15next_value_seed17hcb91e3c7113f72aaE', symObjAddr: 0x9764, symBinAddr: 0x9CC0, symSize: 0x3F }
  - { offset: 0x63DD0, size: 0x8, addend: 0x0, symName: '__ZN75_$LT$serde_json..de..MapAccess$LT$R$GT$$u20$as$u20$serde..de..MapAccess$GT$15next_value_seed17hed5d80df9f45e604E', symObjAddr: 0x97FB, symBinAddr: 0x9D57, symSize: 0x35 }
  - { offset: 0x66282, size: 0x8, addend: 0x0, symName: '__ZN75_$LT$serde_json..de..SeqAccess$LT$R$GT$$u20$as$u20$serde..de..SeqAccess$GT$17next_element_seed17h02230fee6263cd50E', symObjAddr: 0x9830, symBinAddr: 0x9D8C, symSize: 0x75 }
  - { offset: 0x662EC, size: 0x8, addend: 0x0, symName: '__ZN75_$LT$serde_json..de..SeqAccess$LT$R$GT$$u20$as$u20$serde..de..SeqAccess$GT$17next_element_seed17h0a2a5dc0d9358d7dE', symObjAddr: 0x98A5, symBinAddr: 0x9E01, symSize: 0x81 }
  - { offset: 0x66339, size: 0x8, addend: 0x0, symName: '__ZN75_$LT$serde_json..de..SeqAccess$LT$R$GT$$u20$as$u20$serde..de..SeqAccess$GT$17next_element_seed17h27cf3d7c334a66baE', symObjAddr: 0x9926, symBinAddr: 0x9E82, symSize: 0x68 }
  - { offset: 0x663A3, size: 0x8, addend: 0x0, symName: '__ZN75_$LT$serde_json..de..SeqAccess$LT$R$GT$$u20$as$u20$serde..de..SeqAccess$GT$17next_element_seed17h350d6bf67c8ffdafE', symObjAddr: 0x998E, symBinAddr: 0x9EEA, symSize: 0x81 }
  - { offset: 0x6640D, size: 0x8, addend: 0x0, symName: '__ZN75_$LT$serde_json..de..SeqAccess$LT$R$GT$$u20$as$u20$serde..de..SeqAccess$GT$17next_element_seed17h4591eb9b3688056dE', symObjAddr: 0x9A0F, symBinAddr: 0x9F6B, symSize: 0x81 }
  - { offset: 0x66477, size: 0x8, addend: 0x0, symName: '__ZN75_$LT$serde_json..de..SeqAccess$LT$R$GT$$u20$as$u20$serde..de..SeqAccess$GT$17next_element_seed17h7ea7be8c659a3982E', symObjAddr: 0x9A90, symBinAddr: 0x9FEC, symSize: 0x74 }
  - { offset: 0x664E1, size: 0x8, addend: 0x0, symName: '__ZN75_$LT$serde_json..de..SeqAccess$LT$R$GT$$u20$as$u20$serde..de..SeqAccess$GT$17next_element_seed17h8431ad18005c2eb5E', symObjAddr: 0x9B04, symBinAddr: 0xA060, symSize: 0x74 }
  - { offset: 0x6654B, size: 0x8, addend: 0x0, symName: '__ZN75_$LT$serde_json..de..SeqAccess$LT$R$GT$$u20$as$u20$serde..de..SeqAccess$GT$17next_element_seed17ha4c4fe15dbd7ec58E', symObjAddr: 0x9B78, symBinAddr: 0xA0D4, symSize: 0x81 }
  - { offset: 0x665B5, size: 0x8, addend: 0x0, symName: '__ZN75_$LT$serde_json..de..SeqAccess$LT$R$GT$$u20$as$u20$serde..de..SeqAccess$GT$17next_element_seed17haa49aec47609f66eE', symObjAddr: 0x9BF9, symBinAddr: 0xA155, symSize: 0x76 }
  - { offset: 0x6661F, size: 0x8, addend: 0x0, symName: '__ZN75_$LT$serde_json..de..SeqAccess$LT$R$GT$$u20$as$u20$serde..de..SeqAccess$GT$17next_element_seed17hb3aff343e079e6e3E', symObjAddr: 0x9C6F, symBinAddr: 0xA1CB, symSize: 0x76 }
  - { offset: 0x67811, size: 0x8, addend: 0x0, symName: '__ZN80_$LT$serde_json..de..VariantAccess$LT$R$GT$$u20$as$u20$serde..de..EnumAccess$GT$12variant_seed17h11e096cab1766203E', symObjAddr: 0x9E05, symBinAddr: 0xA361, symSize: 0x60 }
  - { offset: 0x67A35, size: 0x8, addend: 0x0, symName: '__ZN83_$LT$serde_json..de..VariantAccess$LT$R$GT$$u20$as$u20$serde..de..VariantAccess$GT$12unit_variant17ha7d3ba819e8f9848E', symObjAddr: 0xA0DB, symBinAddr: 0xA637, symSize: 0x8F }
  - { offset: 0x67B50, size: 0x8, addend: 0x0, symName: '__ZN83_$LT$serde_json..de..VariantAccess$LT$R$GT$$u20$as$u20$serde..de..VariantAccess$GT$20newtype_variant_seed17h849da646026819f3E', symObjAddr: 0xA16A, symBinAddr: 0xA6C6, symSize: 0xCA }
  - { offset: 0x67F26, size: 0x8, addend: 0x0, symName: '__ZN84_$LT$serde_json..de..UnitVariantAccess$LT$R$GT$$u20$as$u20$serde..de..EnumAccess$GT$12variant_seed17h5e055f86e4fbd57bE', symObjAddr: 0xA234, symBinAddr: 0xA790, symSize: 0x47 }
  - { offset: 0x680F1, size: 0x8, addend: 0x0, symName: '__ZN87_$LT$serde_json..de..UnitVariantAccess$LT$R$GT$$u20$as$u20$serde..de..VariantAccess$GT$20newtype_variant_seed17h32d827a21d6e4388E', symObjAddr: 0xA27B, symBinAddr: 0x4E8EF, symSize: 0x28 }
  - { offset: 0x691CE, size: 0x8, addend: 0x0, symName: '__ZN4core3ptr65drop_in_place$LT$alloc..vec..Vec$LT$alloc..string..String$GT$$GT$17ha3684b58b0ea9d56E', symObjAddr: 0x84B1, symBinAddr: 0x8A0D, symSize: 0x29 }
  - { offset: 0x6921D, size: 0x8, addend: 0x0, symName: '__ZN4core3ptr69drop_in_place$LT$powersync_core..sync..interface..StartSyncStream$GT$17h76ed82a468c6faf3E', symObjAddr: 0x84DA, symBinAddr: 0x8A36, symSize: 0x26 }
  - { offset: 0x6928B, size: 0x8, addend: 0x0, symName: '__ZN4core3ptr125drop_in_place$LT$core..option..Option$LT$serde_json..map..Map$LT$alloc..string..String$C$serde_json..value..Value$GT$$GT$$GT$17h0cce663f307f4c45E', symObjAddr: 0x8500, symBinAddr: 0x8A5C, symSize: 0x15 }
  - { offset: 0x692F5, size: 0x8, addend: 0x0, symName: '__ZN4core3ptr51drop_in_place$LT$powersync_core..schema..Schema$GT$17h22001c5e4eb8f522E', symObjAddr: 0x8515, symBinAddr: 0x8A71, symSize: 0x20 }
  - { offset: 0x69325, size: 0x8, addend: 0x0, symName: '__ZN4core3ptr111drop_in_place$LT$alloc..rc..Rc$LT$alloc..vec..Vec$LT$powersync_core..sync..subscriptions..StreamKey$GT$$GT$$GT$17hbb7bb8c31df26fb4E', symObjAddr: 0x8535, symBinAddr: 0x8A91, symSize: 0x11 }
  - { offset: 0x693F2, size: 0x8, addend: 0x0, symName: '__ZN4core3ptr85drop_in_place$LT$alloc..vec..Vec$LT$powersync_core..schema..table_info..Table$GT$$GT$17h45b5b94c4080df0cE', symObjAddr: 0x8546, symBinAddr: 0x8AA2, symSize: 0x29 }
  - { offset: 0x69460, size: 0x8, addend: 0x0, symName: '__ZN4core3ptr88drop_in_place$LT$alloc..vec..Vec$LT$powersync_core..schema..table_info..RawTable$GT$$GT$17ha50b377d3bc75b25E', symObjAddr: 0x856F, symBinAddr: 0x8ACB, symSize: 0x29 }
  - { offset: 0x6950C, size: 0x8, addend: 0x0, symName: '__ZN4core3ptr67drop_in_place$LT$powersync_core..sync..subscriptions..StreamKey$GT$17h5a14695cc2a6c222E', symObjAddr: 0x8598, symBinAddr: 0x8AF4, symSize: 0x28 }
  - { offset: 0x69586, size: 0x8, addend: 0x0, symName: '__ZN4core3ptr59drop_in_place$LT$powersync_core..sync..line..Checkpoint$GT$17h9b6427e725904a46E', symObjAddr: 0x85C0, symBinAddr: 0x8B1C, symSize: 0x24 }
  - { offset: 0x695D5, size: 0x8, addend: 0x0, symName: '__ZN4core3ptr86drop_in_place$LT$alloc..vec..Vec$LT$powersync_core..sync..line..BucketChecksum$GT$$GT$17h75913382ad1b6f11E', symObjAddr: 0x85E4, symBinAddr: 0x8B40, symSize: 0x29 }
  - { offset: 0x69643, size: 0x8, addend: 0x0, symName: '__ZN4core3ptr89drop_in_place$LT$alloc..vec..Vec$LT$powersync_core..sync..line..StreamDescription$GT$$GT$17hbbaa5dc78a7b2448E', symObjAddr: 0x860D, symBinAddr: 0x8B69, symSize: 0x29 }
  - { offset: 0x69692, size: 0x8, addend: 0x0, symName: '__ZN4core3ptr63drop_in_place$LT$powersync_core..sync..line..CheckpointDiff$GT$17h37a6f634b70f2f24E', symObjAddr: 0x8636, symBinAddr: 0x8B92, symSize: 0x24 }
  - { offset: 0x696C2, size: 0x8, addend: 0x0, symName: '__ZN4core3ptr57drop_in_place$LT$powersync_core..sync..line..DataLine$GT$17hca5d3c565de77d1cE', symObjAddr: 0x865A, symBinAddr: 0x8BB6, symSize: 0x24 }
  - { offset: 0x696F2, size: 0x8, addend: 0x0, symName: '__ZN4core3ptr50drop_in_place$LT$alloc..borrow..Cow$LT$str$GT$$GT$17h6326ca9e9f7011d3E', symObjAddr: 0x867E, symBinAddr: 0x8BDA, symSize: 0x14 }
  - { offset: 0x6977E, size: 0x8, addend: 0x0, symName: '__ZN4core3ptr82drop_in_place$LT$alloc..vec..Vec$LT$powersync_core..sync..line..OplogEntry$GT$$GT$17hfe2c0dee9134a615E', symObjAddr: 0x8692, symBinAddr: 0x8BEE, symSize: 0x29 }
  - { offset: 0x697EC, size: 0x8, addend: 0x0, symName: '__ZN4core3ptr73drop_in_place$LT$alloc..vec..Vec$LT$alloc..borrow..Cow$LT$str$GT$$GT$$GT$17h6fd20782ad719e9aE', symObjAddr: 0x86BB, symBinAddr: 0x8C17, symSize: 0x29 }
  - { offset: 0x6983B, size: 0x8, addend: 0x0, symName: '__ZN4core3ptr62drop_in_place$LT$powersync_core..schema..table_info..Table$GT$17h6751633e14113769E', symObjAddr: 0x86E4, symBinAddr: 0x8C40, symSize: 0x46 }
  - { offset: 0x698D4, size: 0x8, addend: 0x0, symName: '__ZN4core3ptr86drop_in_place$LT$alloc..vec..Vec$LT$powersync_core..schema..table_info..Column$GT$$GT$17h90e4f98e40f7539eE', symObjAddr: 0x872A, symBinAddr: 0x8C86, symSize: 0x29 }
  - { offset: 0x69942, size: 0x8, addend: 0x0, symName: '__ZN4core3ptr85drop_in_place$LT$alloc..vec..Vec$LT$powersync_core..schema..table_info..Index$GT$$GT$17he8d59b4f57d5bacbE', symObjAddr: 0x8753, symBinAddr: 0x8CAF, symSize: 0x29 }
  - { offset: 0x699B0, size: 0x8, addend: 0x0, symName: '__ZN4core3ptr99drop_in_place$LT$core..option..Option$LT$powersync_core..schema..table_info..DiffIncludeOld$GT$$GT$17h5fa10c6285f32945E', symObjAddr: 0x877C, symBinAddr: 0x8CD8, symSize: 0x1B }
  - { offset: 0x69A70, size: 0x8, addend: 0x0, symName: '__ZN4core3ptr59drop_in_place$LT$serde..__private..de..content..Content$GT$17he6ce6597d35e5847E', symObjAddr: 0x9468, symBinAddr: 0x99C4, symSize: 0xDC }
  - { offset: 0x69B08, size: 0x8, addend: 0x0, symName: '__ZN4core3ptr84drop_in_place$LT$alloc..boxed..Box$LT$serde..__private..de..content..Content$GT$$GT$17h702c2a225b2babc0E', symObjAddr: 0x9544, symBinAddr: 0x9AA0, symSize: 0x1F }
  - { offset: 0x69CBB, size: 0x8, addend: 0x0, symName: '__ZN4core3ptr159drop_in_place$LT$alloc..vec..Vec$LT$core..option..Option$LT$$LP$serde..__private..de..content..Content$C$serde..__private..de..content..Content$RP$$GT$$GT$$GT$17h4bc30153b647ee35E', symObjAddr: 0xCBFC, symBinAddr: 0xD130, symSize: 0x46 }
  - { offset: 0x69D73, size: 0x8, addend: 0x0, symName: '__ZN4core3ptr93drop_in_place$LT$alloc..vec..Vec$LT$powersync_core..schema..table_info..IndexedColumn$GT$$GT$17h871dc5e951de65e1E', symObjAddr: 0xCC42, symBinAddr: 0xD176, symSize: 0x29 }
  - { offset: 0x69DE1, size: 0x8, addend: 0x0, symName: '__ZN4core3ptr101drop_in_place$LT$alloc..vec..Vec$LT$powersync_core..schema..table_info..PendingStatementValue$GT$$GT$17h6e17e4c64d4ab678E', symObjAddr: 0xCC6B, symBinAddr: 0xD19F, symSize: 0x29 }
  - { offset: 0x69E30, size: 0x8, addend: 0x0, symName: '__ZN4core3ptr78drop_in_place$LT$core..option..Option$LT$alloc..borrow..Cow$LT$str$GT$$GT$$GT$17h5ea7503acfab1ae4E', symObjAddr: 0xCD75, symBinAddr: 0xD2A9, symSize: 0x1B }
  - { offset: 0x69E5C, size: 0x8, addend: 0x0, symName: '__ZN4core3ptr59drop_in_place$LT$powersync_core..sync..line..OplogEntry$GT$17h472f738a6145cdb0E', symObjAddr: 0xCD90, symBinAddr: 0xD2C4, symSize: 0x42 }
  - { offset: 0x69E8C, size: 0x8, addend: 0x0, symName: '__ZN4core3ptr106drop_in_place$LT$core..option..Option$LT$core..option..Option$LT$alloc..borrow..Cow$LT$str$GT$$GT$$GT$$GT$17h1dd7c3125e37bae7E', symObjAddr: 0xCDD2, symBinAddr: 0xD306, symSize: 0x1B }
  - { offset: 0x69EB8, size: 0x8, addend: 0x0, symName: '__ZN4core3ptr114drop_in_place$LT$core..option..Option$LT$alloc..vec..Vec$LT$powersync_core..sync..line..BucketChecksum$GT$$GT$$GT$17hf78921d1f67c6e39E', symObjAddr: 0xCDED, symBinAddr: 0xD321, symSize: 0x13 }
  - { offset: 0x69EE7, size: 0x8, addend: 0x0, symName: '__ZN4core3ptr62drop_in_place$LT$powersync_core..schema..table_info..Index$GT$17h31fc54f8f2caadc5E', symObjAddr: 0xCE00, symBinAddr: 0xD334, symSize: 0x27 }
  - { offset: 0x69F61, size: 0x8, addend: 0x0, symName: '__ZN4core3ptr117drop_in_place$LT$core..option..Option$LT$alloc..vec..Vec$LT$powersync_core..sync..line..StreamDescription$GT$$GT$$GT$17h2f937bcc23eb5d94E', symObjAddr: 0xCE27, symBinAddr: 0xD35B, symSize: 0x13 }
  - { offset: 0x69F90, size: 0x8, addend: 0x0, symName: '__ZN4core3ptr127drop_in_place$LT$core..option..Option$LT$core..option..Option$LT$alloc..boxed..Box$LT$serde_json..raw..RawValue$GT$$GT$$GT$$GT$17hea24f5af9d3c6e31E', symObjAddr: 0xCE3A, symBinAddr: 0xD36E, symSize: 0x1C }
  - { offset: 0x69FC0, size: 0x8, addend: 0x0, symName: '__ZN4core3ptr116drop_in_place$LT$core..option..Option$LT$alloc..vec..Vec$LT$powersync_core..schema..table_info..RawTable$GT$$GT$$GT$17h0be4ce88c2dd5f24E', symObjAddr: 0xCE56, symBinAddr: 0xD38A, symSize: 0x13 }
  - { offset: 0x69FEF, size: 0x8, addend: 0x0, symName: '__ZN4core3ptr73drop_in_place$LT$powersync_core..schema..table_info..PendingStatement$GT$17h1797856ea4294148E', symObjAddr: 0xCE69, symBinAddr: 0xD39D, symSize: 0x27 }
  - { offset: 0x6A069, size: 0x8, addend: 0x0, symName: '__ZN4core3ptr65drop_in_place$LT$powersync_core..schema..table_info..RawTable$GT$17h414f3c36eaf16232E', symObjAddr: 0xCE90, symBinAddr: 0xD3C4, symSize: 0x30 }
  - { offset: 0x6A0E3, size: 0x8, addend: 0x0, symName: '__ZN4core3ptr101drop_in_place$LT$core..option..Option$LT$powersync_core..schema..table_info..PendingStatement$GT$$GT$17h9cea2752e76ce8cfE', symObjAddr: 0xCEC0, symBinAddr: 0xD3F4, symSize: 0x13 }
  - { offset: 0x6A112, size: 0x8, addend: 0x0, symName: '__ZN4core3ptr66drop_in_place$LT$powersync_core..sync..line..StreamDescription$GT$17h0057b9b402881c52E', symObjAddr: 0xCED3, symBinAddr: 0xD407, symSize: 0x24 }
  - { offset: 0x6A142, size: 0x8, addend: 0x0, symName: '__ZN4core3ptr116drop_in_place$LT$alloc..rc..Rc$LT$alloc..vec..Vec$LT$powersync_core..sync..line..StreamSubscriptionError$GT$$GT$$GT$17h16469112116e4ac1E', symObjAddr: 0xCEF7, symBinAddr: 0xD42B, symSize: 0x11 }
  - { offset: 0x6A1F0, size: 0x8, addend: 0x0, symName: '__ZN4core3ptr70drop_in_place$LT$powersync_core..schema..table_info..IndexedColumn$GT$17h9df0a21b72f21104E', symObjAddr: 0xCF08, symBinAddr: 0xD43C, symSize: 0x28 }
  - { offset: 0x6A2B4, size: 0x8, addend: 0x0, symName: '__ZN4core3ptr153drop_in_place$LT$core..option..Option$LT$core..option..Option$LT$serde_json..map..Map$LT$alloc..string..String$C$serde_json..value..Value$GT$$GT$$GT$$GT$17h2a4c758e6a775463E', symObjAddr: 0xCF57, symBinAddr: 0xD48B, symSize: 0x11 }
  - { offset: 0x6A2E3, size: 0x8, addend: 0x0, symName: '__ZN4core3ptr79drop_in_place$LT$core..option..Option$LT$powersync_core..schema..Schema$GT$$GT$17hbf903fd3400002f0E', symObjAddr: 0xCF68, symBinAddr: 0xD49C, symSize: 0x13 }
  - { offset: 0x6A312, size: 0x8, addend: 0x0, symName: '__ZN4core3ptr139drop_in_place$LT$core..option..Option$LT$alloc..rc..Rc$LT$alloc..vec..Vec$LT$powersync_core..sync..subscriptions..StreamKey$GT$$GT$$GT$$GT$17hd75220313a78b9d9E', symObjAddr: 0xCF7B, symBinAddr: 0xD4AF, symSize: 0x11 }
  - { offset: 0x6A33E, size: 0x8, addend: 0x0, symName: '__ZN4core3ptr63drop_in_place$LT$powersync_core..schema..table_info..Column$GT$17hcb099e53b2b2062aE', symObjAddr: 0xCF8C, symBinAddr: 0xD4C0, symSize: 0x28 }
  - { offset: 0x6A402, size: 0x8, addend: 0x0, symName: '__ZN4core3ptr63drop_in_place$LT$powersync_core..sync..line..BucketChecksum$GT$17hc979a366b0480f62E', symObjAddr: 0xCFB4, symBinAddr: 0xD4E8, symSize: 0x25 }
  - { offset: 0x6A432, size: 0x8, addend: 0x0, symName: '__ZN4core3ptr145drop_in_place$LT$core..option..Option$LT$alloc..rc..Rc$LT$alloc..vec..Vec$LT$powersync_core..sync..line..BucketSubscriptionReason$GT$$GT$$GT$$GT$17he4efc6df52cb7001E', symObjAddr: 0xCFD9, symBinAddr: 0xD50D, symSize: 0x11 }
  - { offset: 0x6A45E, size: 0x8, addend: 0x0, symName: '__ZN4core3ptr117drop_in_place$LT$alloc..rc..Rc$LT$alloc..vec..Vec$LT$powersync_core..sync..line..BucketSubscriptionReason$GT$$GT$$GT$17hec21ae505cbac379E', symObjAddr: 0xCFEA, symBinAddr: 0xD51E, symSize: 0x11 }
  - { offset: 0x75B14, size: 0x8, addend: 0x0, symName: '__ZN65_$LT$alloc..rc..Rc$LT$T$GT$$u20$as$u20$core..default..Default$GT$7default17h263243f72df0b1c1E', symObjAddr: 0xCF30, symBinAddr: 0xD464, symSize: 0x27 }
  - { offset: 0x7605D, size: 0x8, addend: 0x0, symName: __ZN10serde_json2de12ParserNumber5visit17h0090685dc094eb02E, symObjAddr: 0x8797, symBinAddr: 0x8CF3, symSize: 0x73 }
  - { offset: 0x7610A, size: 0x8, addend: 0x0, symName: __ZN10serde_json2de12ParserNumber5visit17h091b5f1510edb5d4E, symObjAddr: 0x880A, symBinAddr: 0x8D66, symSize: 0x94 }
  - { offset: 0x761F8, size: 0x8, addend: 0x0, symName: __ZN10serde_json2de12ParserNumber5visit17h295d4a7553648a42E, symObjAddr: 0x889E, symBinAddr: 0x8DFA, symSize: 0x74 }
  - { offset: 0x762F1, size: 0x8, addend: 0x0, symName: __ZN10serde_json2de12ParserNumber5visit17h296fe0805c3cbb63E, symObjAddr: 0x8912, symBinAddr: 0x8E6E, symSize: 0x84 }
  - { offset: 0x764A6, size: 0x8, addend: 0x0, symName: __ZN10serde_json2de12ParserNumber5visit17h3feec12028eea7bcE, symObjAddr: 0x8996, symBinAddr: 0x8EF2, symSize: 0x74 }
  - { offset: 0x76552, size: 0x8, addend: 0x0, symName: __ZN10serde_json2de12ParserNumber5visit17h43690627c45741ebE, symObjAddr: 0x8A0A, symBinAddr: 0x8F66, symSize: 0x132 }
  - { offset: 0x76702, size: 0x8, addend: 0x0, symName: __ZN10serde_json2de12ParserNumber5visit17h6079200d959eb65eE, symObjAddr: 0x8B3C, symBinAddr: 0x9098, symSize: 0x6F }
  - { offset: 0x767F3, size: 0x8, addend: 0x0, symName: __ZN10serde_json2de12ParserNumber5visit17hbe0c609a9f3013e0E, symObjAddr: 0x8BAB, symBinAddr: 0x9107, symSize: 0x74 }
  - { offset: 0xAA6D1, size: 0x8, addend: 0x0, symName: '__ZN4core4hash5impls50_$LT$impl$u20$core..hash..Hash$u20$for$u20$str$GT$4hash17h2fb6efebcba66a6cE', symObjAddr: 0x17204, symBinAddr: 0x16C34, symSize: 0x18B }
  - { offset: 0xAA827, size: 0x8, addend: 0x0, symName: '__ZN60_$LT$alloc..string..String$u20$as$u20$core..fmt..Display$GT$3fmt17h703c9633767a4104E', symObjAddr: 0x1AD59, symBinAddr: 0x1A789, symSize: 0x18 }
  - { offset: 0xAC4A2, size: 0x8, addend: 0x0, symName: __ZN5alloc3fmt6format17h2bdfc25ea9c8d416E, symObjAddr: 0x1A697, symBinAddr: 0x1A0C7, symSize: 0x45 }
  - { offset: 0xAC5F1, size: 0x8, addend: 0x0, symName: '__ZN5alloc3str21_$LT$impl$u20$str$GT$7replace17he971ab4133e91c68E', symObjAddr: 0x1AAB0, symBinAddr: 0x1A4E0, symSize: 0x2A9 }
  - { offset: 0xAD34C, size: 0x8, addend: 0x0, symName: '__ZN4core3ptr104drop_in_place$LT$core..option..Option$LT$powersync_core..sync..sync_status..SyncDownloadProgress$GT$$GT$17h061168b8b026e0a2E', symObjAddr: 0x18F31, symBinAddr: 0x18961, symSize: 0x15 }
  - { offset: 0xAD480, size: 0x8, addend: 0x0, symName: '__ZN4core3ptr103drop_in_place$LT$alloc..vec..Vec$LT$powersync_core..sync..sync_status..ActiveStreamSubscription$GT$$GT$17h5f07f5926b833bfeE', symObjAddr: 0x1A66E, symBinAddr: 0x1A09E, symSize: 0x29 }
  - { offset: 0xADE83, size: 0x8, addend: 0x0, symName: '__ZN4core4hash5impls50_$LT$impl$u20$core..hash..Hash$u20$for$u20$str$GT$4hash17h2fb6efebcba66a6cE', symObjAddr: 0x17204, symBinAddr: 0x16C34, symSize: 0x18B }
  - { offset: 0xAF1E7, size: 0x8, addend: 0x0, symName: '__ZN110_$LT$core..ops..range..RangeFrom$LT$usize$GT$$u20$as$u20$core..slice..index..SliceIndex$LT$$u5b$T$u5d$$GT$$GT$5index17hdd7ae7246c14b9fbE', symObjAddr: 0x1738F, symBinAddr: 0x16DBF, symSize: 0x1E }
  - { offset: 0xAF345, size: 0x8, addend: 0x0, symName: '__ZN110_$LT$core..ops..range..RangeFrom$LT$usize$GT$$u20$as$u20$core..slice..index..SliceIndex$LT$$u5b$T$u5d$$GT$$GT$9index_mut17hced40fb4f51e219eE.958', symObjAddr: 0x1814D, symBinAddr: 0x17B7D, symSize: 0x1C }
  - { offset: 0xAF7A3, size: 0x8, addend: 0x0, symName: '__ZN4core5slice4sort6stable9quicksort9quicksort28_$u7b$$u7b$closure$u7d$$u7d$17hc394d4f897cb6f67E', symObjAddr: 0x173AD, symBinAddr: 0x16DDD, symSize: 0x1F }
  - { offset: 0xAFB1C, size: 0x8, addend: 0x0, symName: __ZN4core5slice4sort6stable9quicksort9quicksort17h5a3cfbd3d6a62b45E, symObjAddr: 0x173CC, symBinAddr: 0x16DFC, symSize: 0x69D }
  - { offset: 0xB1037, size: 0x8, addend: 0x0, symName: __ZN4core5slice4sort6stable9quicksort9quicksort17ha36a721d61bb789dE, symObjAddr: 0x17A69, symBinAddr: 0x17499, symSize: 0x6E4 }
  - { offset: 0xB247D, size: 0x8, addend: 0x0, symName: __ZN4core5slice4sort6stable9quicksort9quicksort17hb99ab314beda90b5E, symObjAddr: 0x18169, symBinAddr: 0x17B99, symSize: 0x6E4 }
  - { offset: 0xB38C3, size: 0x8, addend: 0x0, symName: __ZN4core5slice4sort6stable9quicksort9quicksort17hf9a5961e637ff644E, symObjAddr: 0x1884D, symBinAddr: 0x1827D, symSize: 0x6E4 }
  - { offset: 0xB7C3F, size: 0x8, addend: 0x0, symName: '__ZN86_$LT$serde_json..ser..Compound$LT$W$C$F$GT$$u20$as$u20$serde..ser..SerializeStruct$GT$15serialize_field17hcd65f65e4b2d5c2fE', symObjAddr: 0x1A207, symBinAddr: 0x19C37, symSize: 0x3D }
  - { offset: 0xB7D55, size: 0x8, addend: 0x0, symName: '__ZN86_$LT$serde_json..ser..Compound$LT$W$C$F$GT$$u20$as$u20$serde..ser..SerializeStruct$GT$3end17h94ffc5796222aa5aE', symObjAddr: 0x1A244, symBinAddr: 0x19C74, symSize: 0x11 }
  - { offset: 0xB7D96, size: 0x8, addend: 0x0, symName: '__ZN86_$LT$serde_json..ser..Compound$LT$W$C$F$GT$$u20$as$u20$serde..ser..SerializeStruct$GT$15serialize_field17ha0647f28d9fb3552E', symObjAddr: 0x1AFD3, symBinAddr: 0x1AA03, symSize: 0x9A }
  - { offset: 0xB8085, size: 0x8, addend: 0x0, symName: '__ZN86_$LT$serde_json..ser..Compound$LT$W$C$F$GT$$u20$as$u20$serde..ser..SerializeStruct$GT$15serialize_field17h8a5e90fa12502147E', symObjAddr: 0x1B06D, symBinAddr: 0x1AA9D, symSize: 0x1F }
  - { offset: 0xB812F, size: 0x8, addend: 0x0, symName: __ZN10serde_json3ser9Formatter10end_object17h77ced2e09a3de39eE, symObjAddr: 0x1A279, symBinAddr: 0x19CA9, symSize: 0x18 }
  - { offset: 0xB82C8, size: 0x8, addend: 0x0, symName: '__ZN95_$LT$$RF$mut$u20$serde_json..ser..Serializer$LT$W$C$F$GT$$u20$as$u20$serde..ser..Serializer$GT$16serialize_struct17h3ea214edbaca2b8cE', symObjAddr: 0x1A1A9, symBinAddr: 0x19BD9, symSize: 0x5E }
  - { offset: 0xB838F, size: 0x8, addend: 0x0, symName: '__ZN95_$LT$$RF$mut$u20$serde_json..ser..Serializer$LT$W$C$F$GT$$u20$as$u20$serde..ser..Serializer$GT$13serialize_map17h632ac069f74c5f45E', symObjAddr: 0x1A291, symBinAddr: 0x19CC1, symSize: 0x53 }
  - { offset: 0xB850F, size: 0x8, addend: 0x0, symName: '__ZN83_$LT$serde_json..ser..Compound$LT$W$C$F$GT$$u20$as$u20$serde..ser..SerializeMap$GT$3end17hd43eada4c28b410eE', symObjAddr: 0x1A255, symBinAddr: 0x19C85, symSize: 0x24 }
  - { offset: 0xB96F1, size: 0x8, addend: 0x0, symName: '__ZN95_$LT$powersync_core..sync..sync_status..DownloadSyncStatus$u20$as$u20$serde..ser..Serialize$GT$9serialize17ha9ab7029cccb252dE', symObjAddr: 0x18F46, symBinAddr: 0x18976, symSize: 0x1263 }
  - { offset: 0xBD1E8, size: 0x8, addend: 0x0, symName: __ZN14powersync_core4util12quote_string17h0fc377b5902ca811E, symObjAddr: 0x1A78C, symBinAddr: 0x1A1BC, symSize: 0x76 }
  - { offset: 0xBD2B9, size: 0x8, addend: 0x0, symName: '__ZN73_$LT$powersync_core..util..QuotedString$u20$as$u20$core..fmt..Display$GT$3fmt17hfa4539bb95edb1e9E', symObjAddr: 0x1A802, symBinAddr: 0x1A232, symSize: 0x1C8 }
  - { offset: 0xBD5C9, size: 0x8, addend: 0x0, symName: __ZN14powersync_core4util15quote_json_path17hd21233a782b6823cE, symObjAddr: 0x1A9CA, symBinAddr: 0x1A3FA, symSize: 0x7A }
  - { offset: 0xBD6F3, size: 0x8, addend: 0x0, symName: __ZN14powersync_core4util16quote_identifier17h5b27e2a48bf08b25E, symObjAddr: 0x1AA44, symBinAddr: 0x1A474, symSize: 0x6C }
  - { offset: 0xBD73F, size: 0x8, addend: 0x0, symName: __ZN14powersync_core4util19quote_internal_name17hb5f27d2ff63b181aE, symObjAddr: 0x1AF02, symBinAddr: 0x1A932, symSize: 0x3E }
  - { offset: 0xBD77B, size: 0x8, addend: 0x0, symName: __ZN14powersync_core4util25quote_identifier_prefixed17ha68c01d204a8f241E, symObjAddr: 0x1AF40, symBinAddr: 0x1A970, symSize: 0x93 }
  - { offset: 0xBEE26, size: 0x8, addend: 0x0, symName: __ZN14powersync_core4sync11sync_status19SyncStatusContainer12emit_changes17h867a4ba25c9f2d4aE, symObjAddr: 0x1A2E4, symBinAddr: 0x19D14, symSize: 0x36F }
  - { offset: 0xC1279, size: 0x8, addend: 0x0, symName: '__ZN4core4cell16RefCell$LT$T$GT$10borrow_mut17h0c91eb0cee31e70fE', symObjAddr: 0x1A653, symBinAddr: 0x1A083, symSize: 0x1B }
  - { offset: 0xC12A0, size: 0x8, addend: 0x0, symName: '__ZN4core4cell16RefCell$LT$T$GT$10borrow_mut17h0c91eb0cee31e70fE', symObjAddr: 0x1A653, symBinAddr: 0x1A083, symSize: 0x1B }
  - { offset: 0xC12BC, size: 0x8, addend: 0x0, symName: '__ZN4core4cell16RefCell$LT$T$GT$10borrow_mut17h0c91eb0cee31e70fE', symObjAddr: 0x1A653, symBinAddr: 0x1A083, symSize: 0x1B }
  - { offset: 0xC145B, size: 0x8, addend: 0x0, symName: __ZN14powersync_core4sync11sync_status24ActiveStreamSubscription10from_local17h333cd2b635ec2d3dE, symObjAddr: 0x1A6DC, symBinAddr: 0x1A10C, symSize: 0xB0 }
  - { offset: 0xC192A, size: 0x8, addend: 0x0, symName: __ZN4core3str7pattern14TwoWaySearcher4next17hcf8f019c55a0b8ccE, symObjAddr: 0x1AD71, symBinAddr: 0x1A7A1, symSize: 0x191 }
  - { offset: 0x1E0457, size: 0x8, addend: 0x0, symName: '__ZN44_$LT$$RF$T$u20$as$u20$core..fmt..Display$GT$3fmt17hccf074c708e9d2a5E', symObjAddr: 0x4F146, symBinAddr: 0x4D562, symSize: 0x15 }
  - { offset: 0x1E06F6, size: 0x8, addend: 0x0, symName: '__ZN4core3ptr45drop_in_place$LT$serde_json..value..Value$GT$17hae5f0c5040fae2bcE.3087', symObjAddr: 0x4F15B, symBinAddr: 0x4D577, symSize: 0x60 }
  - { offset: 0x1E119D, size: 0x8, addend: 0x0, symName: '__ZN44_$LT$$RF$T$u20$as$u20$core..fmt..Display$GT$3fmt17hccf074c708e9d2a5E', symObjAddr: 0x4F146, symBinAddr: 0x4D562, symSize: 0x15 }
  - { offset: 0x1E12B1, size: 0x8, addend: 0x0, symName: '__ZN4core5slice29_$LT$impl$u20$$u5b$T$u5d$$GT$11starts_with17h1f0300ac6d99cd5aE', symObjAddr: 0x4F201, symBinAddr: 0x4D61D, symSize: 0x1F }
  - { offset: 0x1E19BD, size: 0x8, addend: 0x0, symName: '__ZN65_$LT$serde_json..io..imp..Error$u20$as$u20$core..fmt..Display$GT$3fmt17h4f26d39daf99fd71E', symObjAddr: 0x4F262, symBinAddr: 0x50A7A, symSize: 0xC }
  - { offset: 0x1E1C13, size: 0x8, addend: 0x0, symName: '__ZN77_$LT$alloc..raw_vec..RawVec$LT$T$C$A$GT$$u20$as$u20$core..ops..drop..Drop$GT$4drop17h1f101aca38c772a9E', symObjAddr: 0x4F1E3, symBinAddr: 0x4D5FF, symSize: 0x1E }
  - { offset: 0x1E1C74, size: 0x8, addend: 0x0, symName: '__ZN63_$LT$alloc..alloc..Global$u20$as$u20$core..alloc..Allocator$GT$8allocate17hec4ddfe6586ef59cE.3112', symObjAddr: 0x4F220, symBinAddr: 0x4D63C, symSize: 0x10 }
  - { offset: 0x1E1FDE, size: 0x8, addend: 0x0, symName: '__ZN70_$LT$alloc..vec..Vec$LT$T$C$A$GT$$u20$as$u20$core..ops..drop..Drop$GT$4drop17hc538b09edc2682bdE', symObjAddr: 0x4F1BB, symBinAddr: 0x4D5D7, symSize: 0x28 }
  - { offset: 0x1E2B40, size: 0x8, addend: 0x0, symName: '__ZN5alloc7raw_vec19RawVec$LT$T$C$A$GT$8grow_one17h7101830c0652c6a5E', symObjAddr: 0x4F230, symBinAddr: 0x4D64C, symSize: 0x32 }
  - { offset: 0x1F22B, size: 0x8, addend: 0x0, symName: __ZN6memchr4arch6x86_646memchr11memrchr_raw6detect17h3670e023ed90b383E, symObjAddr: 0x494B, symBinAddr: 0x4EA7, symSize: 0x18 }
  - { offset: 0x1F25F, size: 0x8, addend: 0x0, symName: __ZN6memchr4arch6x86_646memchr11memrchr_raw2FN17hd533cd581d2b484aE, symObjAddr: 0x5EE30, symBinAddr: 0x60078, symSize: 0x0 }
  - { offset: 0x1F26C, size: 0x8, addend: 0x0, symName: __ZN6memchr4arch6x86_646memchr11memrchr_raw6detect17h3670e023ed90b383E, symObjAddr: 0x494B, symBinAddr: 0x4EA7, symSize: 0x18 }
  - { offset: 0x1F318, size: 0x8, addend: 0x0, symName: __ZN6memchr4arch6x86_646memchr11memrchr_raw9find_sse217ha9607aae65d8edd1E, symObjAddr: 0x4963, symBinAddr: 0x4EBF, symSize: 0x174 }
  - { offset: 0x1FB57, size: 0x8, addend: 0x0, symName: __ZN6memchr4arch6x86_646memchr9count_raw2FN17h1d3a2d3da9b2e334E, symObjAddr: 0x5EE38, symBinAddr: 0x60080, symSize: 0x0 }
  - { offset: 0x1FB65, size: 0x8, addend: 0x0, symName: __ZN6memchr4arch6x86_646memchr9count_raw6detect17hb50d0a7dc1a6cab5E, symObjAddr: 0x4AD7, symBinAddr: 0x5033, symSize: 0x18 }
  - { offset: 0x1FC11, size: 0x8, addend: 0x0, symName: __ZN6memchr4arch6x86_646memchr9count_raw9find_sse217h8e10c8592e39ae44E, symObjAddr: 0x4AEF, symBinAddr: 0x504B, symSize: 0x239 }
  - { offset: 0x8BD5, size: 0x8, addend: 0x0, symName: __ZN4core3fmt5write17hc9f5bccf50722580E, symObjAddr: 0xACA, symBinAddr: 0x107E, symSize: 0x1B2 }
  - { offset: 0x912E, size: 0x8, addend: 0x0, symName: __ZN4core3fmt5write17hc9f5bccf50722580E, symObjAddr: 0xACA, symBinAddr: 0x107E, symSize: 0x1B2 }
  - { offset: 0x957C, size: 0x8, addend: 0x0, symName: __ZN4core3fmt8getcount17h7f5c5994bd260306E, symObjAddr: 0xC7C, symBinAddr: 0x1230, symSize: 0x29 }
  - { offset: 0x96C4, size: 0x8, addend: 0x0, symName: __ZN4core3fmt9Formatter12pad_integral12write_prefix17h93cac9831daadc83E, symObjAddr: 0x1081, symBinAddr: 0x1635, symSize: 0x59 }
  - { offset: 0x97B4, size: 0x8, addend: 0x0, symName: '__ZN43_$LT$bool$u20$as$u20$core..fmt..Display$GT$3fmt17h30a6ddcbd87406a7E', symObjAddr: 0x1627, symBinAddr: 0x1BDB, symSize: 0x2F }
  - { offset: 0x9821, size: 0x8, addend: 0x0, symName: '__ZN43_$LT$char$u20$as$u20$core..fmt..Display$GT$3fmt17h209bc11dcb59b8c5E', symObjAddr: 0x1898, symBinAddr: 0x1E4C, symSize: 0xBE }
  - { offset: 0x992F, size: 0x8, addend: 0x0, symName: '__ZN44_$LT$$RF$T$u20$as$u20$core..fmt..Display$GT$3fmt17h6916428833b15f35E', symObjAddr: 0x1956, symBinAddr: 0x1F0A, symSize: 0x17 }
  - { offset: 0xA09B, size: 0x8, addend: 0x0, symName: '__ZN81_$LT$core..str..iter..Chars$u20$as$u20$core..iter..traits..iterator..Iterator$GT$5count17hf2c590516e5b28e7E', symObjAddr: 0xEF6, symBinAddr: 0x14AA, symSize: 0x18B }
  - { offset: 0xA9F6, size: 0x8, addend: 0x0, symName: '__ZN81_$LT$core..str..iter..Chars$u20$as$u20$core..iter..traits..iterator..Iterator$GT$4next17h344d733498b60834E.151', symObjAddr: 0x12D6, symBinAddr: 0x188A, symSize: 0x83 }
  - { offset: 0xAA39, size: 0x8, addend: 0x0, symName: '__ZN81_$LT$core..str..iter..Chars$u20$as$u20$core..iter..traits..iterator..Iterator$GT$4next17h344d733498b60834E.151', symObjAddr: 0x12D6, symBinAddr: 0x188A, symSize: 0x83 }
  - { offset: 0xADED, size: 0x8, addend: 0x0, symName: '__ZN4core3str6traits66_$LT$impl$u20$core..ops..index..Index$LT$I$GT$$u20$for$u20$str$GT$5index17hbb155d91eb01e835E', symObjAddr: 0x1656, symBinAddr: 0x1C0A, symSize: 0x41 }
  - { offset: 0xAE2D, size: 0x8, addend: 0x0, symName: '__ZN4core3str6traits66_$LT$impl$u20$core..ops..index..Index$LT$I$GT$$u20$for$u20$str$GT$5index17hbb155d91eb01e835E', symObjAddr: 0x1656, symBinAddr: 0x1C0A, symSize: 0x41 }
  - { offset: 0xAE4F, size: 0x8, addend: 0x0, symName: '__ZN4core3str6traits66_$LT$impl$u20$core..ops..index..Index$LT$I$GT$$u20$for$u20$str$GT$5index17hbb155d91eb01e835E', symObjAddr: 0x1656, symBinAddr: 0x1C0A, symSize: 0x41 }
  - { offset: 0xBA97, size: 0x8, addend: 0x0, symName: '__ZN4core4char7methods22_$LT$impl$u20$char$GT$16escape_debug_ext17h42ab3af25c68a8eaE', symObjAddr: 0x1697, symBinAddr: 0x1C4B, symSize: 0x201 }
  - { offset: 0xCEDC, size: 0x8, addend: 0x0, symName: __ZN4core3fmt11PostPadding5write17h38ddc1cd4f1c77f3E, symObjAddr: 0xCA5, symBinAddr: 0x1259, symSize: 0x5D }
  - { offset: 0xCFF4, size: 0x8, addend: 0x0, symName: __ZN4core3fmt9Formatter12pad_integral17h7d72ad2bc5f884b1E, symObjAddr: 0xD02, symBinAddr: 0x12B6, symSize: 0x1F4 }
  - { offset: 0xD2B8, size: 0x8, addend: 0x0, symName: __ZN4core3fmt9Formatter7padding17h14f3e8a1c713f3d5E, symObjAddr: 0x10DA, symBinAddr: 0x168E, symSize: 0x9E }
  - { offset: 0xD42D, size: 0x8, addend: 0x0, symName: __ZN4core3fmt9Formatter3pad17h346099bc3cc8b46eE, symObjAddr: 0x1178, symBinAddr: 0x172C, symSize: 0x15E }
  - { offset: 0xD85F, size: 0x8, addend: 0x0, symName: __ZN4core3fmt9Formatter19pad_formatted_parts17h3833e3685a61d3faE, symObjAddr: 0x1359, symBinAddr: 0x190D, symSize: 0x1A0 }
  - { offset: 0xDBDD, size: 0x8, addend: 0x0, symName: __ZN4core3fmt9Formatter21write_formatted_parts17hf46d6cda9186ab91E, symObjAddr: 0x14F9, symBinAddr: 0x1AAD, symSize: 0x12E }
  - { offset: 0xB7E, size: 0x8, addend: 0x0, symName: __ZN4core3fmt5Write9write_fmt17h9089c9d999989da8E, symObjAddr: 0x53, symBinAddr: 0x6A3, symSize: 0x19 }
  - { offset: 0xC51, size: 0x8, addend: 0x0, symName: '__ZN58_$LT$alloc..string..String$u20$as$u20$core..fmt..Write$GT$9write_str17h58c402131d817280E', symObjAddr: 0x80, symBinAddr: 0x6D0, symSize: 0x10 }
  - { offset: 0xD67, size: 0x8, addend: 0x0, symName: '__ZN58_$LT$alloc..string..String$u20$as$u20$core..fmt..Write$GT$10write_char17hd24bd3e8889f0b7fE', symObjAddr: 0x90, symBinAddr: 0x6E0, symSize: 0x101 }
  - { offset: 0x13E3, size: 0x8, addend: 0x0, symName: '__ZN4core3ptr42drop_in_place$LT$alloc..string..String$GT$17h03e43917bc10d0e1E', symObjAddr: 0x6C, symBinAddr: 0x6BC, symSize: 0x14 }
  - { offset: 0x16D0, size: 0x8, addend: 0x0, symName: __ZN4core3fmt5Write9write_fmt17h9089c9d999989da8E, symObjAddr: 0x53, symBinAddr: 0x6A3, symSize: 0x19 }
  - { offset: 0x11DEE, size: 0x8, addend: 0x0, symName: __ZN4core6result13unwrap_failed17h8672c49d85b90c8dE, symObjAddr: 0x2449, symBinAddr: 0x4E885, symSize: 0x9 }
  - { offset: 0x1205E, size: 0x8, addend: 0x0, symName: __ZN4core3fmt5float29float_to_decimal_common_exact17h560f94469da79ffdE, symObjAddr: 0x2485, symBinAddr: 0x2A0D, symSize: 0x99B }
  - { offset: 0x129B4, size: 0x8, addend: 0x0, symName: __ZN4core3fmt5float32float_to_decimal_common_shortest17hed9910eb60e1a462E, symObjAddr: 0x2E20, symBinAddr: 0x33A8, symSize: 0x81C }
  - { offset: 0x130D9, size: 0x8, addend: 0x0, symName: '__ZN4core3fmt5float52_$LT$impl$u20$core..fmt..Display$u20$for$u20$f64$GT$3fmt17h5e9c5e5093bbfb9fE', symObjAddr: 0x363C, symBinAddr: 0x3BC4, symSize: 0x3A }
  - { offset: 0x131AA, size: 0x8, addend: 0x0, symName: __ZN4core9panicking18panic_nounwind_fmt17h0625cc655e44212fE, symObjAddr: 0x2461, symBinAddr: 0x4E891, symSize: 0x6 }
  - { offset: 0x13228, size: 0x8, addend: 0x0, symName: __ZN4core9panicking5panic17hce2d337cf73c3673E, symObjAddr: 0x2467, symBinAddr: 0x4E897, symSize: 0x9 }
  - { offset: 0x13252, size: 0x8, addend: 0x0, symName: __ZN4core9panicking19assert_failed_inner17h1422114281ce923eE, symObjAddr: 0x2470, symBinAddr: 0x4E8A0, symSize: 0x9 }
  - { offset: 0x132BC, size: 0x8, addend: 0x0, symName: __ZN4core9panicking13assert_failed17h0aec7f9547e0281aE, symObjAddr: 0x2479, symBinAddr: 0x4E8A9, symSize: 0xC }
  - { offset: 0x133D6, size: 0x8, addend: 0x0, symName: __ZN4core6result13unwrap_failed17h8672c49d85b90c8dE, symObjAddr: 0x2449, symBinAddr: 0x4E885, symSize: 0x9 }
  - { offset: 0x1395B, size: 0x8, addend: 0x0, symName: __ZN4core3fmt9Formatter9write_fmt17h5e2c21b082e55561E.217, symObjAddr: 0x2452, symBinAddr: 0x29FE, symSize: 0xF }
  - { offset: 0x11BAC, size: 0x8, addend: 0x0, symName: '__ZN4core6escape24EscapeIterInner$LT$_$GT$7unicode17h4f5212119322b9f0E', symObjAddr: 0x2397, symBinAddr: 0x294B, symSize: 0xB2 }
  - { offset: 0x11D05, size: 0x8, addend: 0x0, symName: '__ZN4core6escape24EscapeIterInner$LT$_$GT$7unicode17h4f5212119322b9f0E', symObjAddr: 0x2397, symBinAddr: 0x294B, symSize: 0xB2 }
  - { offset: 0x18DCE, size: 0x8, addend: 0x0, symName: __ZN4core3num7flt2dec8strategy6dragon9mul_pow1017h176b1e745162ee64E, symObjAddr: 0x412E, symBinAddr: 0x46AA, symSize: 0xDA }
  - { offset: 0x18E02, size: 0x8, addend: 0x0, symName: __ZN4core3num7flt2dec8strategy6dragon5POW1017h46bceb50f137016aE, symObjAddr: 0x52FCC, symBinAddr: 0x516F4, symSize: 0x0 }
  - { offset: 0x18E1D, size: 0x8, addend: 0x0, symName: __ZN4core3num7flt2dec8strategy6dragon8POW5TO1617h88addd10dce2bb6eE, symObjAddr: 0x52FF4, symBinAddr: 0x5171C, symSize: 0x0 }
  - { offset: 0x18E38, size: 0x8, addend: 0x0, symName: __ZN4core3num7flt2dec8strategy6dragon8POW5TO3217h5982d036082dbf5fE, symObjAddr: 0x52FFC, symBinAddr: 0x51724, symSize: 0x0 }
  - { offset: 0x18E53, size: 0x8, addend: 0x0, symName: __ZN4core3num7flt2dec8strategy6dragon8POW5TO6417hc32cc20505814ec5E, symObjAddr: 0x53008, symBinAddr: 0x51730, symSize: 0x0 }
  - { offset: 0x18E6E, size: 0x8, addend: 0x0, symName: __ZN4core3num7flt2dec8strategy6dragon9POW5TO12817h4c7eb084451f5262E, symObjAddr: 0x5301C, symBinAddr: 0x51744, symSize: 0x0 }
  - { offset: 0x18E89, size: 0x8, addend: 0x0, symName: __ZN4core3num7flt2dec8strategy6dragon9POW5TO25617h926cac8e107e0216E, symObjAddr: 0x53044, symBinAddr: 0x5176C, symSize: 0x0 }
  - { offset: 0x19117, size: 0x8, addend: 0x0, symName: __ZN4core3num7flt2dec8strategy6dragon9mul_pow1017h176b1e745162ee64E, symObjAddr: 0x412E, symBinAddr: 0x46AA, symSize: 0xDA }
  - { offset: 0x19314, size: 0x8, addend: 0x0, symName: __ZN4core7unicode12unicode_data15grapheme_extend17SHORT_OFFSET_RUNS17hc595c79e9a0acb1bE, symObjAddr: 0x53090, symBinAddr: 0x517B8, symSize: 0x0 }
  - { offset: 0x19330, size: 0x8, addend: 0x0, symName: __ZN4core7unicode12unicode_data15grapheme_extend7OFFSETS17hc80454d0988ea3eaE, symObjAddr: 0x52CDD, symBinAddr: 0x51405, symSize: 0x0 }
  - { offset: 0x1933E, size: 0x8, addend: 0x0, symName: __ZN4core7unicode12unicode_data15grapheme_extend11lookup_slow17h33594b8df9dfbdf9E, symObjAddr: 0x4254, symBinAddr: 0x47D0, symSize: 0xAA }
  - { offset: 0x19863, size: 0x8, addend: 0x0, symName: __ZN4core3cmp10PartialOrd2ge17h55aa39f77879963eE, symObjAddr: 0x4208, symBinAddr: 0x4784, symSize: 0x10 }
  - { offset: 0x19AE0, size: 0x8, addend: 0x0, symName: '__ZN106_$LT$core..ops..range..Range$LT$usize$GT$$u20$as$u20$core..slice..index..SliceIndex$LT$$u5b$T$u5d$$GT$$GT$9index_mut17h423f0ccddffdcc40E', symObjAddr: 0x422D, symBinAddr: 0x47A9, symSize: 0x27 }
  - { offset: 0x19BFA, size: 0x8, addend: 0x0, symName: '__ZN108_$LT$core..ops..range..RangeTo$LT$usize$GT$$u20$as$u20$core..slice..index..SliceIndex$LT$$u5b$T$u5d$$GT$$GT$9index_mut17h7fda14cf4b32d990E.286', symObjAddr: 0x4218, symBinAddr: 0x4794, symSize: 0x15 }
  - { offset: 0x1C94D6, size: 0x8, addend: 0x0, symName: __ZN5alloc5alloc15exchange_malloc17h7bc2140b0f99c529E.2900, symObjAddr: 0x4C82C, symBinAddr: 0x4AF6C, symSize: 0x1E }
  - { offset: 0x1C966A, size: 0x8, addend: 0x0, symName: '__ZN74_$LT$alloc..string..String$u20$as$u20$core..ops..index..Index$LT$I$GT$$GT$5index17hb21b1226a447db2dE', symObjAddr: 0x4D0C5, symBinAddr: 0x4B795, symSize: 0x2B }
  - { offset: 0x1C96A9, size: 0x8, addend: 0x0, symName: '__ZN74_$LT$alloc..string..String$u20$as$u20$core..ops..index..Index$LT$I$GT$$GT$5index17hb21b1226a447db2dE', symObjAddr: 0x4D0C5, symBinAddr: 0x4B795, symSize: 0x2B }
  - { offset: 0x1C96CA, size: 0x8, addend: 0x0, symName: '__ZN74_$LT$alloc..string..String$u20$as$u20$core..ops..index..Index$LT$I$GT$$GT$5index17hb21b1226a447db2dE', symObjAddr: 0x4D0C5, symBinAddr: 0x4B795, symSize: 0x2B }
  - { offset: 0x1C970A, size: 0x8, addend: 0x0, symName: '__ZN74_$LT$alloc..string..String$u20$as$u20$core..ops..index..Index$LT$I$GT$$GT$5index17hb21b1226a447db2dE', symObjAddr: 0x4D0C5, symBinAddr: 0x4B795, symSize: 0x2B }
  - { offset: 0x1C9803, size: 0x8, addend: 0x0, symName: '__ZN74_$LT$alloc..string..String$u20$as$u20$core..ops..index..Index$LT$I$GT$$GT$5index17h046f8e90d86dff71E', symObjAddr: 0x4D0F0, symBinAddr: 0x4B7C0, symSize: 0x41 }
  - { offset: 0x1C9842, size: 0x8, addend: 0x0, symName: '__ZN74_$LT$alloc..string..String$u20$as$u20$core..ops..index..Index$LT$I$GT$$GT$5index17h046f8e90d86dff71E', symObjAddr: 0x4D0F0, symBinAddr: 0x4B7C0, symSize: 0x41 }
  - { offset: 0x1C9865, size: 0x8, addend: 0x0, symName: '__ZN74_$LT$alloc..string..String$u20$as$u20$core..ops..index..Index$LT$I$GT$$GT$5index17h046f8e90d86dff71E', symObjAddr: 0x4D0F0, symBinAddr: 0x4B7C0, symSize: 0x41 }
  - { offset: 0x1C9AF8, size: 0x8, addend: 0x0, symName: __ZN5alloc5alloc15exchange_malloc17h7bc2140b0f99c529E.2900, symObjAddr: 0x4C82C, symBinAddr: 0x4AF6C, symSize: 0x1E }
  - { offset: 0x1CA4DA, size: 0x8, addend: 0x0, symName: '__ZN4core3num62_$LT$impl$u20$core..str..traits..FromStr$u20$for$u20$usize$GT$8from_str17hf4a173af096d3d16E', symObjAddr: 0x4D131, symBinAddr: 0x4B801, symSize: 0xB9 }
  - { offset: 0x1CBDB5, size: 0x8, addend: 0x0, symName: '__ZN61_$LT$serde_json..error..Error$u20$as$u20$serde..de..Error$GT$6custom17hdc7306c80ef3ed3aE', symObjAddr: 0x4CBA8, symBinAddr: 0x50778, symSize: 0x3C }
  - { offset: 0x1CBED6, size: 0x8, addend: 0x0, symName: '__ZN61_$LT$serde_json..error..Error$u20$as$u20$serde..de..Error$GT$6custom17hfcf4ca7bbed53426E', symObjAddr: 0x4D1EA, symBinAddr: 0x507B6, symSize: 0x2A }
  - { offset: 0x1CBFB5, size: 0x8, addend: 0x0, symName: '__ZN61_$LT$serde_json..error..Error$u20$as$u20$serde..de..Error$GT$12invalid_type17ha1b86a593fe258e8E', symObjAddr: 0x4D214, symBinAddr: 0x507E0, symSize: 0x81 }
  - { offset: 0x1CC013, size: 0x8, addend: 0x0, symName: '__ZN61_$LT$serde_json..error..Error$u20$as$u20$serde..de..Error$GT$13invalid_value17h2e7ae5a535980de3E', symObjAddr: 0x4D3A1, symBinAddr: 0x50861, symSize: 0x81 }
  - { offset: 0x1CC077, size: 0x8, addend: 0x0, symName: '__ZN67_$LT$serde_json..error..ErrorCode$u20$as$u20$core..fmt..Display$GT$3fmt17h018a6fe88b2fdedbE', symObjAddr: 0x4C87E, symBinAddr: 0x4AF8A, symSize: 0x2B2 }
  - { offset: 0x1CC3F6, size: 0x8, addend: 0x0, symName: '__ZN67_$LT$serde_json..error..ErrorImpl$u20$as$u20$core..fmt..Display$GT$3fmt17h0952d07e94d66ad9E', symObjAddr: 0x4CB30, symBinAddr: 0x4B23C, symSize: 0x78 }
  - { offset: 0x1CC540, size: 0x8, addend: 0x0, symName: __ZN10serde_json5error10make_error17ha7f0aada664877c9E, symObjAddr: 0x4CBE4, symBinAddr: 0x4B2B4, symSize: 0x311 }
  - { offset: 0x1CCBA9, size: 0x8, addend: 0x0, symName: '__ZN72_$LT$serde_json..error..JsonUnexpected$u20$as$u20$core..fmt..Display$GT$3fmt17h52fc2bbe11668a30E', symObjAddr: 0x4D295, symBinAddr: 0x4B8BD, symSize: 0x10C }
  - { offset: 0x1CD089, size: 0x8, addend: 0x0, symName: __ZN10serde_json5error5Error12fix_position17hf0ef62fc9f867f7cE, symObjAddr: 0x4C84A, symBinAddr: 0x50742, symSize: 0x34 }
  - { offset: 0x1CD530, size: 0x8, addend: 0x0, symName: __ZN4core3str7pattern14TwoWaySearcher9next_back17h10a7d0ba16132c01E, symObjAddr: 0x4CEF5, symBinAddr: 0x4B5C5, symSize: 0x1D0 }
  - { offset: 0x151D4D, size: 0x8, addend: 0x0, symName: '__ZN10serde_with2de41_$LT$impl$u20$serde_with..As$LT$T$GT$$GT$11deserialize17h3593cbf6917fcf71E', symObjAddr: 0x35670, symBinAddr: 0x34D34, symSize: 0x59 }
  - { offset: 0x152C07, size: 0x8, addend: 0x0, symName: '__ZN5serde2de5impls74_$LT$impl$u20$serde..de..Deserialize$u20$for$u20$alloc..string..String$GT$11deserialize17ha6a7e07762142eb0E', symObjAddr: 0x3669F, symBinAddr: 0x35D63, symSize: 0x101 }
  - { offset: 0x152DBD, size: 0x8, addend: 0x0, symName: '__ZN5serde2de5impls74_$LT$impl$u20$serde..de..Deserialize$u20$for$u20$alloc..string..String$GT$11deserialize17hf35962d4a5f9d05eE', symObjAddr: 0x367A0, symBinAddr: 0x35E64, symSize: 0x290 }
  - { offset: 0x1531CC, size: 0x8, addend: 0x0, symName: '__ZN5serde2de5impls60_$LT$impl$u20$serde..de..Deserialize$u20$for$u20$$RF$str$GT$11deserialize17hb224750a84936b1cE', symObjAddr: 0x365B1, symBinAddr: 0x35C75, symSize: 0xEE }
  - { offset: 0x153414, size: 0x8, addend: 0x0, symName: '__ZN67_$LT$serde..de..impls..StrVisitor$u20$as$u20$serde..de..Visitor$GT$20visit_borrowed_bytes17h77eaf16b0b514b9eE', symObjAddr: 0x37174, symBinAddr: 0x360F4, symSize: 0x6A }
  - { offset: 0x15350F, size: 0x8, addend: 0x0, symName: '__ZN5serde2de5impls57_$LT$impl$u20$serde..de..Deserialize$u20$for$u20$bool$GT$11deserialize17h6268e024bca3b0fbE', symObjAddr: 0x362A1, symBinAddr: 0x35965, symSize: 0x247 }
  - { offset: 0x1537DF, size: 0x8, addend: 0x0, symName: '__ZN5serde2de5impls57_$LT$impl$u20$serde..de..Deserialize$u20$for$u20$bool$GT$11deserialize17hb652f4d4219efa7fE', symObjAddr: 0x364E8, symBinAddr: 0x35BAC, symSize: 0xC9 }
  - { offset: 0x153984, size: 0x8, addend: 0x0, symName: '__ZN70_$LT$serde..de..impls..StringVisitor$u20$as$u20$serde..de..Visitor$GT$11visit_bytes17hf5fac390d7f35795E', symObjAddr: 0x371DE, symBinAddr: 0x3615E, symSize: 0x84 }
  - { offset: 0x154AB5, size: 0x8, addend: 0x0, symName: __ZN5serde2de7Visitor11visit_bytes17h01f474b6df5f22dcE, symObjAddr: 0x36A30, symBinAddr: 0x4F7A0, symSize: 0x43 }
  - { offset: 0x154B05, size: 0x8, addend: 0x0, symName: __ZN5serde2de7Visitor11visit_bytes17h04dc0fb908f33f32E, symObjAddr: 0x36A73, symBinAddr: 0x4F7E3, symSize: 0x36 }
  - { offset: 0x154B56, size: 0x8, addend: 0x0, symName: __ZN5serde2de7Visitor11visit_bytes17h3eb259d4fa591f5fE, symObjAddr: 0x36AA9, symBinAddr: 0x4F819, symSize: 0x43 }
  - { offset: 0x154BA6, size: 0x8, addend: 0x0, symName: __ZN5serde2de7Visitor11visit_bytes17h6c7ada1fe0de0474E, symObjAddr: 0x36AEC, symBinAddr: 0x4F85C, symSize: 0x43 }
  - { offset: 0x154BF6, size: 0x8, addend: 0x0, symName: __ZN5serde2de7Visitor11visit_bytes17h6f5e86e94e3f360eE, symObjAddr: 0x36B2F, symBinAddr: 0x4F89F, symSize: 0x36 }
  - { offset: 0x154C47, size: 0x8, addend: 0x0, symName: __ZN5serde2de7Visitor11visit_bytes17ha891f3cd3fce9a54E, symObjAddr: 0x36B65, symBinAddr: 0x4F8D5, symSize: 0x43 }
  - { offset: 0x154C97, size: 0x8, addend: 0x0, symName: __ZN5serde2de7Visitor11visit_bytes17ha89914cad98a2227E, symObjAddr: 0x36BA8, symBinAddr: 0x4F918, symSize: 0x3C }
  - { offset: 0x154CE8, size: 0x8, addend: 0x0, symName: __ZN5serde2de7Visitor11visit_bytes17ha8ef3d01f9847514E, symObjAddr: 0x36BE4, symBinAddr: 0x4F954, symSize: 0x43 }
  - { offset: 0x154D38, size: 0x8, addend: 0x0, symName: __ZN5serde2de7Visitor11visit_bytes17hf20b4bece4646b1bE, symObjAddr: 0x36C27, symBinAddr: 0x4F997, symSize: 0x43 }
  - { offset: 0x154D88, size: 0x8, addend: 0x0, symName: __ZN5serde2de7Visitor11visit_bytes17hf65149d42363aaf9E, symObjAddr: 0x36C6A, symBinAddr: 0x4F9DA, symSize: 0x39 }
  - { offset: 0x154DD9, size: 0x8, addend: 0x0, symName: __ZN5serde2de7Visitor9visit_i6417h0e7f8f5d804df225E, symObjAddr: 0x36CA3, symBinAddr: 0x4FA13, symSize: 0x3F }
  - { offset: 0x154E2A, size: 0x8, addend: 0x0, symName: __ZN5serde2de7Visitor9visit_i6417h937866a0abbe6639E, symObjAddr: 0x36CE2, symBinAddr: 0x4FA52, symSize: 0x3F }
  - { offset: 0x154E7A, size: 0x8, addend: 0x0, symName: __ZN5serde2de7Visitor9visit_i6417hbf70ad217c45e95fE, symObjAddr: 0x36D21, symBinAddr: 0x4FA91, symSize: 0x3F }
  - { offset: 0x154ECA, size: 0x8, addend: 0x0, symName: __ZN5serde2de7Visitor9visit_i6417h53a7365ee1b5320fE, symObjAddr: 0x36D60, symBinAddr: 0x4FAD0, symSize: 0x3F }
  - { offset: 0x154F1A, size: 0x8, addend: 0x0, symName: __ZN5serde2de7Visitor9visit_i6417h50baa215fad13f48E, symObjAddr: 0x36D9F, symBinAddr: 0x4FB0F, symSize: 0x35 }
  - { offset: 0x154F6B, size: 0x8, addend: 0x0, symName: __ZN5serde2de7Visitor9visit_i6417h36fadd344ffd6b78E, symObjAddr: 0x36DD4, symBinAddr: 0x4FB44, symSize: 0x36 }
  - { offset: 0x154FBC, size: 0x8, addend: 0x0, symName: __ZN5serde2de7Visitor9visit_i6417hc6c0c447e7cc3b1bE, symObjAddr: 0x36E0A, symBinAddr: 0x4FB7A, symSize: 0x3F }
  - { offset: 0x15500C, size: 0x8, addend: 0x0, symName: __ZN5serde2de7Visitor9visit_i6417h5083540a07451f3cE, symObjAddr: 0x36E49, symBinAddr: 0x4FBB9, symSize: 0x3F }
  - { offset: 0x15505C, size: 0x8, addend: 0x0, symName: __ZN5serde2de7Visitor9visit_i6417hc053f95180cf8aaaE, symObjAddr: 0x36E88, symBinAddr: 0x4FBF8, symSize: 0x3F }
  - { offset: 0x1550AC, size: 0x8, addend: 0x0, symName: __ZN5serde2de7Visitor9visit_str17h03434bba831e6acbE, symObjAddr: 0x36EC7, symBinAddr: 0x4FC37, symSize: 0x3C }
  - { offset: 0x1550FD, size: 0x8, addend: 0x0, symName: __ZN5serde2de7Visitor9visit_str17h2426b5b468f6499bE, symObjAddr: 0x36F03, symBinAddr: 0x4FC73, symSize: 0x43 }
  - { offset: 0x15514D, size: 0x8, addend: 0x0, symName: __ZN5serde2de7Visitor9visit_str17h4980f2d5b1dbcefaE, symObjAddr: 0x36F46, symBinAddr: 0x4FCB6, symSize: 0x43 }
  - { offset: 0x15519D, size: 0x8, addend: 0x0, symName: __ZN5serde2de7Visitor9visit_str17h6bd9d109c2c23f75E, symObjAddr: 0x36F89, symBinAddr: 0x4FCF9, symSize: 0x43 }
  - { offset: 0x1551ED, size: 0x8, addend: 0x0, symName: __ZN5serde2de7Visitor9visit_str17h8a9e85d764b3005dE, symObjAddr: 0x36FCC, symBinAddr: 0x4FD3C, symSize: 0x39 }
  - { offset: 0x15523E, size: 0x8, addend: 0x0, symName: __ZN5serde2de7Visitor9visit_str17h9c7b7e007882767fE, symObjAddr: 0x37005, symBinAddr: 0x4FD75, symSize: 0x43 }
  - { offset: 0x15528E, size: 0x8, addend: 0x0, symName: __ZN5serde2de7Visitor9visit_str17ha02a298f144c4ec9E, symObjAddr: 0x37048, symBinAddr: 0x4FDB8, symSize: 0x43 }
  - { offset: 0x1552DE, size: 0x8, addend: 0x0, symName: __ZN5serde2de7Visitor9visit_str17hc195192a195e0a77E, symObjAddr: 0x3708B, symBinAddr: 0x4FDFB, symSize: 0x3A }
  - { offset: 0x15532F, size: 0x8, addend: 0x0, symName: __ZN5serde2de7Visitor9visit_str17hcc08665711cf879bE, symObjAddr: 0x370C5, symBinAddr: 0x4FE35, symSize: 0x36 }
  - { offset: 0x155380, size: 0x8, addend: 0x0, symName: __ZN5serde2de7Visitor9visit_str17hea039e9c54fd26feE, symObjAddr: 0x370FB, symBinAddr: 0x4FE6B, symSize: 0x43 }
  - { offset: 0x1553D0, size: 0x8, addend: 0x0, symName: __ZN5serde2de7Visitor9visit_str17hf407bb6a4dfd53efE, symObjAddr: 0x3713E, symBinAddr: 0x4FEAE, symSize: 0x36 }
  - { offset: 0x155DE4, size: 0x8, addend: 0x0, symName: '__ZN41_$LT$T$u20$as$u20$serde..de..Expected$GT$3fmt17h0b697f6b70935222E', symObjAddr: 0x35B8E, symBinAddr: 0x35252, symSize: 0x23 }
  - { offset: 0x155E5C, size: 0x8, addend: 0x0, symName: '__ZN41_$LT$T$u20$as$u20$serde..de..Expected$GT$3fmt17h0f34b2a786078254E', symObjAddr: 0x35BB1, symBinAddr: 0x35275, symSize: 0x23 }
  - { offset: 0x155ED5, size: 0x8, addend: 0x0, symName: '__ZN41_$LT$T$u20$as$u20$serde..de..Expected$GT$3fmt17h1b8edb7363242e1eE', symObjAddr: 0x35BD4, symBinAddr: 0x35298, symSize: 0x23 }
  - { offset: 0x155F4D, size: 0x8, addend: 0x0, symName: '__ZN41_$LT$T$u20$as$u20$serde..de..Expected$GT$3fmt17h46164e49d001ed09E', symObjAddr: 0x35BF7, symBinAddr: 0x352BB, symSize: 0x23 }
  - { offset: 0x155FC5, size: 0x8, addend: 0x0, symName: '__ZN41_$LT$T$u20$as$u20$serde..de..Expected$GT$3fmt17h46fb9e0a267c2ac2E', symObjAddr: 0x35C1A, symBinAddr: 0x352DE, symSize: 0x23 }
  - { offset: 0x15603E, size: 0x8, addend: 0x0, symName: '__ZN41_$LT$T$u20$as$u20$serde..de..Expected$GT$3fmt17h61e9959fcd42f977E', symObjAddr: 0x35C3D, symBinAddr: 0x35301, symSize: 0x23 }
  - { offset: 0x1560B7, size: 0x8, addend: 0x0, symName: '__ZN41_$LT$T$u20$as$u20$serde..de..Expected$GT$3fmt17h63e5aefdde63fa2cE', symObjAddr: 0x35C60, symBinAddr: 0x35324, symSize: 0x23 }
  - { offset: 0x15612F, size: 0x8, addend: 0x0, symName: '__ZN41_$LT$T$u20$as$u20$serde..de..Expected$GT$3fmt17h69e52d56149e1deeE', symObjAddr: 0x35C83, symBinAddr: 0x35347, symSize: 0x23 }
  - { offset: 0x1561A7, size: 0x8, addend: 0x0, symName: '__ZN41_$LT$T$u20$as$u20$serde..de..Expected$GT$3fmt17h6cb1e275197e0bd3E', symObjAddr: 0x35CA6, symBinAddr: 0x3536A, symSize: 0x23 }
  - { offset: 0x15621F, size: 0x8, addend: 0x0, symName: '__ZN41_$LT$T$u20$as$u20$serde..de..Expected$GT$3fmt17h814c3db1571c7090E', symObjAddr: 0x35CC9, symBinAddr: 0x3538D, symSize: 0x5D }
  - { offset: 0x1562D5, size: 0x8, addend: 0x0, symName: '__ZN41_$LT$T$u20$as$u20$serde..de..Expected$GT$3fmt17h8da499c435f2678eE', symObjAddr: 0x35D63, symBinAddr: 0x35427, symSize: 0x23 }
  - { offset: 0x15634D, size: 0x8, addend: 0x0, symName: '__ZN41_$LT$T$u20$as$u20$serde..de..Expected$GT$3fmt17hb7a9255bd660dd76E', symObjAddr: 0x35D86, symBinAddr: 0x3544A, symSize: 0x23 }
  - { offset: 0x1563C5, size: 0x8, addend: 0x0, symName: '__ZN41_$LT$T$u20$as$u20$serde..de..Expected$GT$3fmt17hb8049029b1cc42aaE', symObjAddr: 0x35DA9, symBinAddr: 0x3546D, symSize: 0x23 }
  - { offset: 0x15643D, size: 0x8, addend: 0x0, symName: '__ZN41_$LT$T$u20$as$u20$serde..de..Expected$GT$3fmt17hd1334d0c103736c9E', symObjAddr: 0x35DCC, symBinAddr: 0x35490, symSize: 0x23 }
  - { offset: 0x1564B5, size: 0x8, addend: 0x0, symName: '__ZN41_$LT$T$u20$as$u20$serde..de..Expected$GT$3fmt17hdfe41855fcececf5E', symObjAddr: 0x35DEF, symBinAddr: 0x354B3, symSize: 0x23 }
  - { offset: 0x157525, size: 0x8, addend: 0x0, symName: '__ZN14powersync_core6schema10table_info1_105_$LT$impl$u20$serde..de..Deserialize$u20$for$u20$powersync_core..schema..table_info..PendingStatement$GT$11deserialize17h39ac3575f2f75583E', symObjAddr: 0x374DB, symBinAddr: 0x3645B, symSize: 0x73F }
  - { offset: 0x159211, size: 0x8, addend: 0x0, symName: '__ZN81_$LT$alloc..vec..Vec$LT$T$C$A$GT$$u20$as$u20$core..ops..index..Index$LT$I$GT$$GT$5index17h064a2313296f42b8E', symObjAddr: 0x35E33, symBinAddr: 0x354F7, symSize: 0x16 }
  - { offset: 0x15A391, size: 0x8, addend: 0x0, symName: '__ZN5alloc5slice29_$LT$impl$u20$$u5b$T$u5d$$GT$4join17h29db811728bca65aE', symObjAddr: 0x36133, symBinAddr: 0x357F7, symSize: 0x16E }
  - { offset: 0x15AE00, size: 0x8, addend: 0x0, symName: __ZN5alloc3fmt6format17h2bdfc25ea9c8d416E.2269, symObjAddr: 0x37316, symBinAddr: 0x36296, symSize: 0x35 }
  - { offset: 0x15B8C1, size: 0x8, addend: 0x0, symName: '__ZN4core3ptr91drop_in_place$LT$core..option..Option$LT$powersync_core..sync..line..BucketChecksum$GT$$GT$17hd92f3328ecdd672eE', symObjAddr: 0x35964, symBinAddr: 0x35028, symSize: 0x2B }
  - { offset: 0x15B92F, size: 0x8, addend: 0x0, symName: '__ZN4core3ptr95drop_in_place$LT$alloc..vec..Vec$LT$powersync_core..sync..line..StreamSubscriptionError$GT$$GT$17h6a6452b4b5198669E', symObjAddr: 0x3598F, symBinAddr: 0x35053, symSize: 0x29 }
  - { offset: 0x15B9CC, size: 0x8, addend: 0x0, symName: '__ZN4core3ptr100drop_in_place$LT$core..option..Option$LT$powersync_core..sync..line..StreamSubscriptionError$GT$$GT$17h947645039107724dE', symObjAddr: 0x359FB, symBinAddr: 0x350BF, symSize: 0x1C }
  - { offset: 0x15BAF1, size: 0x8, addend: 0x0, symName: '__ZN4core3ptr87drop_in_place$LT$core..option..Option$LT$powersync_core..sync..line..OplogEntry$GT$$GT$17h573d285adb13e6e5E', symObjAddr: 0x35A5A, symBinAddr: 0x3511E, symSize: 0x5E }
  - { offset: 0x15BBDB, size: 0x8, addend: 0x0, symName: '__ZN4core3ptr94drop_in_place$LT$core..option..Option$LT$powersync_core..sync..line..StreamDescription$GT$$GT$17he5e6f7424360646dE', symObjAddr: 0x35AFB, symBinAddr: 0x351BF, symSize: 0x3F }
  - { offset: 0x15BD6F, size: 0x8, addend: 0x0, symName: '__ZN4core3ptr101drop_in_place$LT$core..option..Option$LT$powersync_core..sync_local..PreparedPendingStatement$GT$$GT$17he6444c092b792063E', symObjAddr: 0x35E1F, symBinAddr: 0x354E3, symSize: 0x14 }
  - { offset: 0x15BE80, size: 0x8, addend: 0x0, symName: '__ZN4core3ptr59drop_in_place$LT$serde..__private..de..content..Content$GT$17he6ce6597d35e5847E.2277', symObjAddr: 0x373E2, symBinAddr: 0x36362, symSize: 0xDA }
  - { offset: 0x15BF18, size: 0x8, addend: 0x0, symName: '__ZN4core3ptr84drop_in_place$LT$alloc..boxed..Box$LT$serde..__private..de..content..Content$GT$$GT$17h702c2a225b2babc0E.2278', symObjAddr: 0x374BC, symBinAddr: 0x3643C, symSize: 0x1F }
  - { offset: 0x15C000, size: 0x8, addend: 0x0, symName: '__ZN4core3ptr78drop_in_place$LT$powersync_core..schema..table_info..PendingStatementValue$GT$17h5b9529df2dd7f6bfE', symObjAddr: 0x37C1A, symBinAddr: 0x36B9A, symSize: 0x14 }
  - { offset: 0x16063D, size: 0x8, addend: 0x0, symName: '__ZN4core5slice29_$LT$impl$u20$$u5b$T$u5d$$GT$20binary_search_by_key28_$u7b$$u7b$closure$u7d$$u7d$17h374515371cba0061E', symObjAddr: 0x35E49, symBinAddr: 0x3550D, symSize: 0x1C }
  - { offset: 0x160823, size: 0x8, addend: 0x0, symName: __ZN4core5slice4sort6stable14driftsort_main17h10f7bcff30273ddaE, symObjAddr: 0x35E65, symBinAddr: 0x35529, symSize: 0xB3 }
  - { offset: 0x160A85, size: 0x8, addend: 0x0, symName: __ZN4core5slice4sort6stable14driftsort_main17h97cc94367d394472E, symObjAddr: 0x35F18, symBinAddr: 0x355DC, symSize: 0xB3 }
  - { offset: 0x160CE7, size: 0x8, addend: 0x0, symName: __ZN4core5slice4sort6stable14driftsort_main17hced2d54d377c0c56E, symObjAddr: 0x35FCB, symBinAddr: 0x3568F, symSize: 0xB5 }
  - { offset: 0x160F25, size: 0x8, addend: 0x0, symName: __ZN4core5slice4sort6stable14driftsort_main17hdef27a73b087fa8dE, symObjAddr: 0x36080, symBinAddr: 0x35744, symSize: 0xB3 }
  - { offset: 0x1616DE, size: 0x8, addend: 0x0, symName: '__ZN44_$LT$$RF$T$u20$as$u20$core..fmt..Display$GT$3fmt17h4ea9c85d6d2db538E', symObjAddr: 0x35E12, symBinAddr: 0x354D6, symSize: 0xD }
  - { offset: 0x16178E, size: 0x8, addend: 0x0, symName: __ZN4core4iter6traits8iterator8Iterator7collect17hd0e7e4d74150ec47E, symObjAddr: 0x3734B, symBinAddr: 0x362CB, symSize: 0x97 }
  - { offset: 0x163E01, size: 0x8, addend: 0x0, symName: '__ZN10serde_with2de41_$LT$impl$u20$serde_with..As$LT$T$GT$$GT$11deserialize17h3593cbf6917fcf71E', symObjAddr: 0x35670, symBinAddr: 0x34D34, symSize: 0x59 }
  - { offset: 0x163F4D, size: 0x8, addend: 0x0, symName: '__ZN10serde_with2de41_$LT$impl$u20$serde_with..As$LT$T$GT$$GT$11deserialize17h45b0ec693adbf89cE', symObjAddr: 0x356C9, symBinAddr: 0x34D8D, symSize: 0x7C }
  - { offset: 0x164092, size: 0x8, addend: 0x0, symName: '__ZN10serde_with2de41_$LT$impl$u20$serde_with..As$LT$T$GT$$GT$11deserialize17h7eebe67bdaaebc95E', symObjAddr: 0x35745, symBinAddr: 0x34E09, symSize: 0x153 }
  - { offset: 0x1642CC, size: 0x8, addend: 0x0, symName: '__ZN5alloc7raw_vec20RawVecInner$LT$A$GT$16with_capacity_in17h27770aa47bcd454aE.1807', symObjAddr: 0x35898, symBinAddr: 0x34F5C, symSize: 0x3D }
  - { offset: 0x1643FA, size: 0x8, addend: 0x0, symName: '__ZN5alloc3vec16Vec$LT$T$C$A$GT$4push17hf5fa7ec0d78eb0ddE', symObjAddr: 0x358D5, symBinAddr: 0x34F99, symSize: 0x49 }
  - { offset: 0x16455E, size: 0x8, addend: 0x0, symName: '__ZN5alloc3vec16Vec$LT$T$C$A$GT$4push17h30123b9e21d04bccE', symObjAddr: 0x3591E, symBinAddr: 0x34FE2, symSize: 0x46 }
  - { offset: 0x16464B, size: 0x8, addend: 0x0, symName: '__ZN5alloc3vec16Vec$LT$T$C$A$GT$4push17h319eaffa40d4f22dE', symObjAddr: 0x359B8, symBinAddr: 0x3507C, symSize: 0x43 }
  - { offset: 0x16472B, size: 0x8, addend: 0x0, symName: '__ZN5alloc3vec16Vec$LT$T$C$A$GT$4push17h27a061f5f26e2a6fE', symObjAddr: 0x35A17, symBinAddr: 0x350DB, symSize: 0x43 }
  - { offset: 0x164825, size: 0x8, addend: 0x0, symName: '__ZN5alloc3vec16Vec$LT$T$C$A$GT$4push17h96e8dc1985f0b83aE', symObjAddr: 0x35AB8, symBinAddr: 0x3517C, symSize: 0x43 }
  - { offset: 0x164A92, size: 0x8, addend: 0x0, symName: '__ZN5alloc3vec16Vec$LT$T$C$A$GT$4push17h838e48f56cf41facE', symObjAddr: 0x35B3A, symBinAddr: 0x351FE, symSize: 0x54 }
  - { offset: 0x164C99, size: 0x8, addend: 0x0, symName: __ZN4core3fmt9Arguments6as_str17h1345fe01e624eca8E.1897, symObjAddr: 0x35D26, symBinAddr: 0x353EA, symSize: 0x3D }
  - { offset: 0x164DFC, size: 0x8, addend: 0x0, symName: __ZN14powersync_core6schema10table_info5Table9from_json17h2f39af992def56fcE, symObjAddr: 0x37262, symBinAddr: 0x361E2, symSize: 0xB4 }
  - { offset: 0x1D74C, size: 0x8, addend: 0x0, symName: __ZN4core3num9diy_float2Fp12normalize_to17h12ea8d2a27e9c045E, symObjAddr: 0x4755, symBinAddr: 0x4CB9, symSize: 0x46 }
  - { offset: 0x1D79A, size: 0x8, addend: 0x0, symName: '__ZN87_$LT$core..str..lossy..Utf8Chunks$u20$as$u20$core..iter..traits..iterator..Iterator$GT$4next17h013b21fe1ee0b064E', symObjAddr: 0x479B, symBinAddr: 0x4CFF, symSize: 0x19A }
  - { offset: 0x1EC2F, size: 0x8, addend: 0x0, symName: __ZN4core4cell22panic_already_borrowed17h765b7db254cc9c3fE, symObjAddr: 0x4935, symBinAddr: 0x4E8E5, symSize: 0x9 }
  - { offset: 0x1EFFD, size: 0x8, addend: 0x0, symName: __ZN4core3num9diy_float2Fp12normalize_to17h12ea8d2a27e9c045E, symObjAddr: 0x4755, symBinAddr: 0x4CB9, symSize: 0x46 }
  - { offset: 0x1F13F, size: 0x8, addend: 0x0, symName: __ZN4core3ffi5c_str4CStr6to_str17ha34b0026ce5665eaE, symObjAddr: 0x493E, symBinAddr: 0x4E9A, symSize: 0xD }
  - { offset: 0x1BAE46, size: 0x8, addend: 0x0, symName: '__ZN5alloc11collections5btree4node21LeafNode$LT$K$C$V$GT$3new17hce3c88006cdf85a9E', symObjAddr: 0x4A3E0, symBinAddr: 0x48EC8, symSize: 0x2A }
  - { offset: 0x1BC974, size: 0x8, addend: 0x0, symName: '__ZN4core5array88_$LT$impl$u20$core..ops..index..IndexMut$LT$I$GT$$u20$for$u20$$u5b$T$u3b$$u20$N$u5d$$GT$9index_mut17h78fc0c7c1b49f4c0E', symObjAddr: 0x4A5F2, symBinAddr: 0x490DA, symSize: 0x1F }
  - { offset: 0x1BD8F9, size: 0x8, addend: 0x0, symName: __ZN5alloc11collections5btree4node12slice_insert17h1816cd9b44ca2a70E, symObjAddr: 0x4A4A6, symBinAddr: 0x48F8E, symSize: 0x73 }
  - { offset: 0x1BDA50, size: 0x8, addend: 0x0, symName: __ZN5alloc11collections5btree4node12slice_insert17h4a02cc2a9ab0e166E, symObjAddr: 0x4A519, symBinAddr: 0x49001, symSize: 0x67 }
  - { offset: 0x1BDBA5, size: 0x8, addend: 0x0, symName: __ZN5alloc11collections5btree4node13move_to_slice17h5c74b9907280e498E, symObjAddr: 0x4A580, symBinAddr: 0x49068, symSize: 0x26 }
  - { offset: 0x1BDC18, size: 0x8, addend: 0x0, symName: __ZN5alloc11collections5btree4node13move_to_slice17h6d222763ca0f2a28E, symObjAddr: 0x4A5A6, symBinAddr: 0x4908E, symSize: 0x26 }
  - { offset: 0x1BDC8B, size: 0x8, addend: 0x0, symName: __ZN5alloc11collections5btree4node13move_to_slice17hf27ce6e2a1815f48E, symObjAddr: 0x4A5CC, symBinAddr: 0x490B4, symSize: 0x26 }
  - { offset: 0x1BFFC9, size: 0x8, addend: 0x0, symName: '__ZN5alloc11collections5btree4node21LeafNode$LT$K$C$V$GT$3new17hce3c88006cdf85a9E', symObjAddr: 0x4A3E0, symBinAddr: 0x48EC8, symSize: 0x2A }
  - { offset: 0x1C0263, size: 0x8, addend: 0x0, symName: '__ZN5alloc11collections5btree4node119NodeRef$LT$alloc..collections..btree..node..marker..Mut$C$K$C$V$C$alloc..collections..btree..node..marker..Internal$GT$30correct_childrens_parent_links17he8f13334b47166daE', symObjAddr: 0x4A40A, symBinAddr: 0x48EF2, symSize: 0x26 }
  - { offset: 0x1C04E7, size: 0x8, addend: 0x0, symName: '__ZN5alloc11collections5btree4node25InternalNode$LT$K$C$V$GT$3new17h999dcc7d97e2df0fE', symObjAddr: 0x4A430, symBinAddr: 0x48F18, symSize: 0x2A }
  - { offset: 0x1C0774, size: 0x8, addend: 0x0, symName: '__ZN5alloc11collections5btree4node121NodeRef$LT$alloc..collections..btree..node..marker..Owned$C$K$C$V$C$alloc..collections..btree..node..marker..Internal$GT$17from_new_internal17h1ce69df9f1f58089E', symObjAddr: 0x4A45A, symBinAddr: 0x48F42, symSize: 0x4C }
  - { offset: 0x1C0B4F, size: 0x8, addend: 0x0, symName: '__ZN5alloc11collections5btree4node210Handle$LT$alloc..collections..btree..node..NodeRef$LT$alloc..collections..btree..node..marker..Mut$C$K$C$V$C$alloc..collections..btree..node..marker..Leaf$GT$$C$alloc..collections..btree..node..marker..Edge$GT$10insert_fit17h0588573c4778b4cbE', symObjAddr: 0x4A611, symBinAddr: 0x490F9, symSize: 0x7A }
  - { offset: 0x1C0C87, size: 0x8, addend: 0x0, symName: '__ZN5alloc11collections5btree4node214Handle$LT$alloc..collections..btree..node..NodeRef$LT$alloc..collections..btree..node..marker..Mut$C$K$C$V$C$alloc..collections..btree..node..marker..Internal$GT$$C$alloc..collections..btree..node..marker..Edge$GT$10insert_fit17hf43dd9e24e78da80E', symObjAddr: 0x4A68B, symBinAddr: 0x49173, symSize: 0xB8 }
  - { offset: 0x109E3, size: 0x8, addend: 0x0, symName: __ZN4core3str7pattern11StrSearcher3new17h5d1745260ce31c02E, symObjAddr: 0x2093, symBinAddr: 0x2647, symSize: 0x180 }
  - { offset: 0x11570, size: 0x8, addend: 0x0, symName: __ZN4core3str7pattern11StrSearcher3new17h5d1745260ce31c02E, symObjAddr: 0x2093, symBinAddr: 0x2647, symSize: 0x180 }
  - { offset: 0x118D3, size: 0x8, addend: 0x0, symName: __ZN4core3str7pattern14TwoWaySearcher14maximal_suffix17ha6c6af415d5d7cc3E, symObjAddr: 0x2213, symBinAddr: 0x27C7, symSize: 0x9D }
  - { offset: 0x119E5, size: 0x8, addend: 0x0, symName: __ZN4core3str7pattern14TwoWaySearcher22reverse_maximal_suffix17hda4cbd3ae1fefa3cE, symObjAddr: 0x22B0, symBinAddr: 0x2864, symSize: 0xE7 }
  - { offset: 0x1B685F, size: 0x8, addend: 0x0, symName: __ZN3ryu6pretty8format6417h304dfceb8520ab33E, symObjAddr: 0x4946A, symBinAddr: 0x47F52, symSize: 0x606 }
  - { offset: 0x1B6884, size: 0x8, addend: 0x0, symName: __ZN3ryu14d2s_full_table21DOUBLE_POW5_INV_SPLIT17h1d9e8e63299dff2eE, symObjAddr: 0x5AC28, symBinAddr: 0x59350, symSize: 0x0 }
  - { offset: 0x1B68A0, size: 0x8, addend: 0x0, symName: __ZN3ryu14d2s_full_table17DOUBLE_POW5_SPLIT17h9200823fdfa308efE, symObjAddr: 0x5C188, symBinAddr: 0x5A8B0, symSize: 0x0 }
  - { offset: 0x1B6CBE, size: 0x8, addend: 0x0, symName: __ZN3ryu14d2s_intrinsics16mul_shift_all_6417h8c7797849483d7a2E, symObjAddr: 0x49A70, symBinAddr: 0x48558, symSize: 0xD0 }
  - { offset: 0x1B6E5F, size: 0x8, addend: 0x0, symName: __ZN3ryu14d2s_intrinsics22multiple_of_power_of_517h9913e637c42ebfc0E, symObjAddr: 0x49B40, symBinAddr: 0x48628, symSize: 0x2F }
  - { offset: 0x1B6EFE, size: 0x8, addend: 0x0, symName: __ZN3ryu6pretty8format6417h304dfceb8520ab33E, symObjAddr: 0x4946A, symBinAddr: 0x47F52, symSize: 0x606 }
  - { offset: 0x1B7C18, size: 0x8, addend: 0x0, symName: __ZN3ryu6pretty8mantissa19write_mantissa_long17h3b203b5947b914d1E, symObjAddr: 0x49B6F, symBinAddr: 0x48657, symSize: 0x124 }
  - { offset: 0x1B7EB0, size: 0x8, addend: 0x0, symName: __ZN3ryu6pretty8exponent15write_exponent317h0341f716f87a78f1E, symObjAddr: 0x49C93, symBinAddr: 0x4877B, symSize: 0x74 }
  - { offset: 0x191A13, size: 0x8, addend: 0x0, symName: '__ZN44_$LT$$RF$T$u20$as$u20$core..fmt..Display$GT$3fmt17h5811276b189c11b1E', symObjAddr: 0x41D36, symBinAddr: 0x40CB6, symSize: 0x15A }
  - { offset: 0x191B32, size: 0x8, addend: 0x0, symName: '__ZN45_$LT$T$u20$as$u20$alloc..string..ToString$GT$9to_string17hefa9753cf80d5847E', symObjAddr: 0x446FC, symBinAddr: 0x432AC, symSize: 0x8A }
  - { offset: 0x191C40, size: 0x8, addend: 0x0, symName: '__ZN45_$LT$T$u20$as$u20$alloc..string..ToString$GT$9to_string17h4427028c433f9c80E.2537', symObjAddr: 0x44898, symBinAddr: 0x43448, symSize: 0x5F }
  - { offset: 0x191D9E, size: 0x8, addend: 0x0, symName: '__ZN58_$LT$alloc..string..String$u20$as$u20$core..fmt..Write$GT$10write_char17hd24bd3e8889f0b7fE.2532', symObjAddr: 0x44797, symBinAddr: 0x43347, symSize: 0x101 }
  - { offset: 0x192685, size: 0x8, addend: 0x0, symName: '__ZN63_$LT$alloc..alloc..Global$u20$as$u20$core..alloc..Allocator$GT$8allocate17hec4ddfe6586ef59cE.2466', symObjAddr: 0x41FFB, symBinAddr: 0x40F7B, symSize: 0x21 }
  - { offset: 0x192782, size: 0x8, addend: 0x0, symName: __ZN5alloc5alloc15exchange_malloc17h7bc2140b0f99c529E.2469, symObjAddr: 0x4201C, symBinAddr: 0x40F9C, symSize: 0x15 }
  - { offset: 0x194E44, size: 0x8, addend: 0x0, symName: '__ZN4core3ptr58drop_in_place$LT$powersync_core..error..PowerSyncError$GT$17hbe010f0d6842a491E.2538', symObjAddr: 0x448F7, symBinAddr: 0x434A7, symSize: 0xA1 }
  - { offset: 0x194F8F, size: 0x8, addend: 0x0, symName: '__ZN4core3ptr50drop_in_place$LT$alloc..borrow..Cow$LT$str$GT$$GT$17h6326ca9e9f7011d3E.2540', symObjAddr: 0x44998, symBinAddr: 0x43548, symSize: 0x13 }
  - { offset: 0x1950D5, size: 0x8, addend: 0x0, symName: '__ZN4core3ptr63drop_in_place$LT$powersync_core..error..PowerSyncErrorCause$GT$17hbaa984f15ab353d4E.2541', symObjAddr: 0x449AB, symBinAddr: 0x4355B, symSize: 0x5A }
  - { offset: 0x195531, size: 0x8, addend: 0x0, symName: '__ZN4core3ptr62drop_in_place$LT$powersync_core..schema..table_info..Table$GT$17h6751633e14113769E.2599', symObjAddr: 0x46C94, symBinAddr: 0x4581C, symSize: 0x75 }
  - { offset: 0x195C4C, size: 0x8, addend: 0x0, symName: '__ZN44_$LT$$RF$T$u20$as$u20$core..fmt..Display$GT$3fmt17h5811276b189c11b1E', symObjAddr: 0x41D36, symBinAddr: 0x40CB6, symSize: 0x15A }
  - { offset: 0x195D9E, size: 0x8, addend: 0x0, symName: '__ZN44_$LT$$RF$T$u20$as$u20$core..fmt..Display$GT$3fmt17he62e2ad3af27e92aE', symObjAddr: 0x41EC3, symBinAddr: 0x40E43, symSize: 0x138 }
  - { offset: 0x195F3E, size: 0x8, addend: 0x0, symName: '__ZN115_$LT$core..iter..adapters..filter_map..FilterMap$LT$I$C$F$GT$$u20$as$u20$core..iter..traits..iterator..Iterator$GT$4next17h2a14fedc70f09bb5E', symObjAddr: 0x46D77, symBinAddr: 0x458FF, symSize: 0xEA }
  - { offset: 0x19662D, size: 0x8, addend: 0x0, symName: '__ZN91_$LT$core..slice..iter..Iter$LT$T$GT$$u20$as$u20$core..iter..traits..iterator..Iterator$GT$4next17hbd6e882f41bc238cE', symObjAddr: 0x46D5D, symBinAddr: 0x458E5, symSize: 0x1A }
  - { offset: 0x198F76, size: 0x8, addend: 0x0, symName: __ZN14powersync_core5views18powersync_view_sql17he5b726ff0fc5bf78E, symObjAddr: 0x45045, symBinAddr: 0x43BCD, symSize: 0x437 }
  - { offset: 0x1998DE, size: 0x8, addend: 0x0, symName: __ZN14powersync_core5views28powersync_trigger_delete_sql17h477120e10bfbe498E, symObjAddr: 0x4547C, symBinAddr: 0x44004, symSize: 0x698 }
  - { offset: 0x19A51B, size: 0x8, addend: 0x0, symName: __ZN14powersync_core5views28powersync_trigger_insert_sql17hff975ae9a739e041E, symObjAddr: 0x45B14, symBinAddr: 0x4469C, symSize: 0x44A }
  - { offset: 0x19AC65, size: 0x8, addend: 0x0, symName: __ZN14powersync_core5views28powersync_trigger_update_sql17h471e81a43d76fea7E, symObjAddr: 0x45F5E, symBinAddr: 0x44AE6, symSize: 0x9F2 }
  - { offset: 0x19BBEA, size: 0x8, addend: 0x0, symName: __ZN14powersync_core5views20json_object_fragment17h9c1bb23501200ffdE, symObjAddr: 0x4698C, symBinAddr: 0x45514, symSize: 0x308 }
  - { offset: 0x19C691, size: 0x8, addend: 0x0, symName: '__ZN75_$LT$powersync_core..bson..error..BsonError$u20$as$u20$serde..de..Error$GT$6custom17h36eed49a1a00234eE', symObjAddr: 0x4227D, symBinAddr: 0x4119D, symSize: 0x29 }
  - { offset: 0x19C704, size: 0x8, addend: 0x0, symName: '__ZN75_$LT$powersync_core..bson..error..BsonError$u20$as$u20$serde..de..Error$GT$6custom17h2e793594720bc53fE', symObjAddr: 0x44BFC, symBinAddr: 0x43784, symSize: 0x30 }
  - { offset: 0x19C85F, size: 0x8, addend: 0x0, symName: '__ZN77_$LT$powersync_core..bson..error..ErrorKind$u20$as$u20$core..fmt..Display$GT$3fmt17hea7c0cb5576d2a45E', symObjAddr: 0x44A2F, symBinAddr: 0x435B7, symSize: 0x1CD }
  - { offset: 0x19D88B, size: 0x8, addend: 0x0, symName: '__ZN76_$LT$powersync_core..error..PowerSyncError$u20$as$u20$core..fmt..Display$GT$3fmt17h7ad47a41399ec576E', symObjAddr: 0x44FFC, symBinAddr: 0x43B84, symSize: 0x17 }
  - { offset: 0x19D8B7, size: 0x8, addend: 0x0, symName: '__ZN125_$LT$powersync_core..error..PowerSyncError$u20$as$u20$core..convert..From$LT$powersync_core..error..RawPowerSyncError$GT$$GT$4from17ha8c712b44fdc469aE', symObjAddr: 0x44D01, symBinAddr: 0x43889, symSize: 0x26 }
  - { offset: 0x19D908, size: 0x8, addend: 0x0, symName: '__ZN116_$LT$powersync_core..error..PowerSyncError$u20$as$u20$core..convert..From$LT$sqlite_nostd..nostd..ResultCode$GT$$GT$4from17hed11315f50c64ae8E', symObjAddr: 0x45013, symBinAddr: 0x43B9B, symSize: 0x32 }
  - { offset: 0x19DE32, size: 0x8, addend: 0x0, symName: '__ZN62_$LT$serde_json..error..Error$u20$as$u20$serde..ser..Error$GT$6custom17ha20cf0df669a9903E', symObjAddr: 0x44A05, symBinAddr: 0x502B9, symSize: 0x2A }
  - { offset: 0x19E40C, size: 0x8, addend: 0x0, symName: '__ZN5serde2de5impls75_$LT$impl$u20$serde..de..Deserialize$u20$for$u20$alloc..rc..Rc$LT$T$GT$$GT$11deserialize17h28316a3f29627738E', symObjAddr: 0x4265D, symBinAddr: 0x4120D, symSize: 0x813 }
  - { offset: 0x19F020, size: 0x8, addend: 0x0, symName: '__ZN5serde2de5impls75_$LT$impl$u20$serde..de..Deserialize$u20$for$u20$alloc..rc..Rc$LT$T$GT$$GT$11deserialize17h8c8cfe5be77a1294E', symObjAddr: 0x42E90, symBinAddr: 0x41A40, symSize: 0x242 }
  - { offset: 0x19F7A5, size: 0x8, addend: 0x0, symName: '__ZN5serde2de5impls75_$LT$impl$u20$serde..de..Deserialize$u20$for$u20$alloc..rc..Rc$LT$T$GT$$GT$11deserialize17hadc8a2b928b8a581E', symObjAddr: 0x430D2, symBinAddr: 0x41C82, symSize: 0x3E7 }
  - { offset: 0x19FEE1, size: 0x8, addend: 0x0, symName: '__ZN5serde2de5impls75_$LT$impl$u20$serde..de..Deserialize$u20$for$u20$alloc..rc..Rc$LT$T$GT$$GT$11deserialize17hd5a66049a156e781E', symObjAddr: 0x434B9, symBinAddr: 0x42069, symSize: 0x619 }
  - { offset: 0x1A080E, size: 0x8, addend: 0x0, symName: '__ZN5serde2de5impls75_$LT$impl$u20$serde..de..Deserialize$u20$for$u20$alloc..rc..Rc$LT$T$GT$$GT$11deserialize17hd5bad1e40379df2eE', symObjAddr: 0x43AD2, symBinAddr: 0x42682, symSize: 0xC2A }
  - { offset: 0x1A19E0, size: 0x8, addend: 0x0, symName: __ZN5serde2de5Error12invalid_type17h9621fc940e8e3c8bE, symObjAddr: 0x4221C, symBinAddr: 0x4FEE4, symSize: 0x61 }
  - { offset: 0x1A1A43, size: 0x8, addend: 0x0, symName: __ZN5serde2de5Error13invalid_value17hdd37a2a233495e21E, symObjAddr: 0x422EA, symBinAddr: 0x4FF46, symSize: 0x61 }
  - { offset: 0x1A1AA6, size: 0x8, addend: 0x0, symName: __ZN5serde2de5Error13missing_field17h329bf55a9a8823a7E, symObjAddr: 0x4234B, symBinAddr: 0x4FFA7, symSize: 0x57 }
  - { offset: 0x1A1AFD, size: 0x8, addend: 0x0, symName: __ZN5serde2de5Error13missing_field17hac2e2657b4674e97E, symObjAddr: 0x423A2, symBinAddr: 0x4FFFE, symSize: 0x57 }
  - { offset: 0x1A1B54, size: 0x8, addend: 0x0, symName: __ZN5serde2de5Error14invalid_length17h7af06c22f88cf94fE, symObjAddr: 0x423F9, symBinAddr: 0x50055, symSize: 0x6F }
  - { offset: 0x1A1BB7, size: 0x8, addend: 0x0, symName: __ZN5serde2de5Error14invalid_length17h8f624348241ae56cE, symObjAddr: 0x42468, symBinAddr: 0x500C4, symSize: 0x6F }
  - { offset: 0x1A1C1A, size: 0x8, addend: 0x0, symName: __ZN5serde2de5Error15duplicate_field17h6d204654969c420dE, symObjAddr: 0x424D7, symBinAddr: 0x50133, symSize: 0x57 }
  - { offset: 0x1A1C71, size: 0x8, addend: 0x0, symName: __ZN5serde2de5Error15duplicate_field17hb5ecf140e7c11435E, symObjAddr: 0x4252E, symBinAddr: 0x5018A, symSize: 0x57 }
  - { offset: 0x1A1CC8, size: 0x8, addend: 0x0, symName: __ZN5serde2de5Error15unknown_variant17h7f60d994222f8d9bE, symObjAddr: 0x42585, symBinAddr: 0x501E1, symSize: 0x6C }
  - { offset: 0x1A1D2B, size: 0x8, addend: 0x0, symName: __ZN5serde2de5Error15unknown_variant17h9ea9a5b2131bf416E, symObjAddr: 0x425F1, symBinAddr: 0x5024D, symSize: 0x6C }
  - { offset: 0x1A278D, size: 0x8, addend: 0x0, symName: __ZN4core3fmt9Formatter9write_fmt17h5e2c21b082e55561E.2462, symObjAddr: 0x41E90, symBinAddr: 0x40E10, symSize: 0x33 }
  - { offset: 0x1A2ACF, size: 0x8, addend: 0x0, symName: '__ZN5alloc2rc15Rc$LT$T$C$A$GT$11from_box_in17h3587ccbf3a062938E', symObjAddr: 0x42031, symBinAddr: 0x40FB1, symSize: 0x50 }
  - { offset: 0x1A2F91, size: 0x8, addend: 0x0, symName: '__ZN5alloc2rc15Rc$LT$T$C$A$GT$9drop_slow17h0f828d6764fac59fE', symObjAddr: 0x42081, symBinAddr: 0x41001, symSize: 0x44 }
  - { offset: 0x1A321F, size: 0x8, addend: 0x0, symName: '__ZN5alloc2rc15Rc$LT$T$C$A$GT$9drop_slow17h15398ae8cc7de429E', symObjAddr: 0x420C5, symBinAddr: 0x41045, symSize: 0x37 }
  - { offset: 0x1A34F6, size: 0x8, addend: 0x0, symName: '__ZN5alloc2rc15Rc$LT$T$C$A$GT$9drop_slow17h40198caebdc2493eE', symObjAddr: 0x420FC, symBinAddr: 0x4107C, symSize: 0x61 }
  - { offset: 0x1A385B, size: 0x8, addend: 0x0, symName: '__ZN5alloc2rc15Rc$LT$T$C$A$GT$9drop_slow17h95539014e3c0d9a0E', symObjAddr: 0x4215D, symBinAddr: 0x410DD, symSize: 0x37 }
  - { offset: 0x1A3ABD, size: 0x8, addend: 0x0, symName: '__ZN5alloc2rc15Rc$LT$T$C$A$GT$9drop_slow17hdfabda78984d5360E', symObjAddr: 0x42194, symBinAddr: 0x41114, symSize: 0x44 }
  - { offset: 0x1A3D60, size: 0x8, addend: 0x0, symName: '__ZN5alloc2rc15Rc$LT$T$C$A$GT$9drop_slow17hff47c2dd079473f2E', symObjAddr: 0x421D8, symBinAddr: 0x41158, symSize: 0x44 }
  - { offset: 0x1A3F40, size: 0x8, addend: 0x0, symName: __ZN14powersync_core4bson5error9BsonError3new17h9a727d2c51247f64E, symObjAddr: 0x422A6, symBinAddr: 0x411C6, symSize: 0x44 }
  - { offset: 0x1A4054, size: 0x8, addend: 0x0, symName: '__ZN4core6result19Result$LT$T$C$E$GT$3map17h87c770d718617715E', symObjAddr: 0x42E70, symBinAddr: 0x41A20, symSize: 0x20 }
  - { offset: 0x1A4499, size: 0x8, addend: 0x0, symName: '__ZN4core6result19Result$LT$T$C$E$GT$6expect17hb751f9f4b32fdcb9E.2528', symObjAddr: 0x44786, symBinAddr: 0x43336, symSize: 0x11 }
  - { offset: 0x1A487C, size: 0x8, addend: 0x0, symName: __ZN14powersync_core5error14PowerSyncError6errstr17h6b39b106be190d44E, symObjAddr: 0x44C2C, symBinAddr: 0x437B4, symSize: 0xD5 }
  - { offset: 0x1A4C35, size: 0x8, addend: 0x0, symName: __ZN14powersync_core5error14PowerSyncError14argument_error17hbc6a139f5058db06E, symObjAddr: 0x44D27, symBinAddr: 0x438AF, symSize: 0x3E }
  - { offset: 0x1A4C7E, size: 0x8, addend: 0x0, symName: __ZN14powersync_core5error14PowerSyncError17as_argument_error17h6aaf1d78b6241a95E, symObjAddr: 0x44D65, symBinAddr: 0x438ED, symSize: 0x44 }
  - { offset: 0x1A4CC7, size: 0x8, addend: 0x0, symName: __ZN14powersync_core5error14PowerSyncError11state_error17h61d9bd7fb9eb3380E, symObjAddr: 0x44DA9, symBinAddr: 0x43931, symSize: 0x2F }
  - { offset: 0x1A4D07, size: 0x8, addend: 0x0, symName: __ZN14powersync_core5error14PowerSyncError19sync_protocol_error17hbdfe9f323c475660E, symObjAddr: 0x44DD8, symBinAddr: 0x43960, symSize: 0x37 }
  - { offset: 0x1A4D7A, size: 0x8, addend: 0x0, symName: __ZN14powersync_core5error14PowerSyncError16unknown_internal17h2c74e36711a755aeE, symObjAddr: 0x44E0F, symBinAddr: 0x43997, symSize: 0x2C }
  - { offset: 0x1A4DC9, size: 0x8, addend: 0x0, symName: __ZN14powersync_core5error14PowerSyncError8internal17h6d52e5bb077addb6E, symObjAddr: 0x44E3B, symBinAddr: 0x439C3, symSize: 0x30 }
  - { offset: 0x1A4E2C, size: 0x8, addend: 0x0, symName: __ZN14powersync_core5error14PowerSyncError12apply_to_ctx17hf57a278bb912d53dE, symObjAddr: 0x44E6B, symBinAddr: 0x439F3, symSize: 0x92 }
  - { offset: 0x1A4F9D, size: 0x8, addend: 0x0, symName: __ZN5alloc6string6String10insert_str17hbe292cf990b012f0E, symObjAddr: 0x44EFD, symBinAddr: 0x43A85, symSize: 0x82 }
  - { offset: 0x1A5177, size: 0x8, addend: 0x0, symName: __ZN14powersync_core5error14PowerSyncError17sqlite_error_code17hedff73aa49649ab6E, symObjAddr: 0x44F7F, symBinAddr: 0x43B07, symSize: 0x7D }
  - { offset: 0x1A58BF, size: 0x8, addend: 0x0, symName: '__ZN4core6result19Result$LT$T$C$E$GT$7map_err17h8961134d9dede969E', symObjAddr: 0x46950, symBinAddr: 0x454D8, symSize: 0x3C }
  - { offset: 0x1A5A4C, size: 0x8, addend: 0x0, symName: '__ZN5alloc3vec16Vec$LT$T$C$A$GT$4push17h30c1edd19f0cd5d4E.2602', symObjAddr: 0x46D09, symBinAddr: 0x45891, symSize: 0x54 }
  - { offset: 0x1E2F97, size: 0x8, addend: 0x0, symName: __ZN12sqlite3_capi4capi8bind_int17h5fcee39d058e8c48E, symObjAddr: 0x4F2AA, symBinAddr: 0x4D6BA, symSize: 0x1B }
  - { offset: 0x1E8CE2, size: 0x8, addend: 0x0, symName: __ZN12sqlite3_capi4capi11SQLITE3_API17h0230607da401e8c5E.0, symObjAddr: 0x656178, symBinAddr: 0x60090, symSize: 0x0 }
  - { offset: 0x1E8E72, size: 0x8, addend: 0x0, symName: __ZN12sqlite3_capi4capi8bind_int17h5fcee39d058e8c48E, symObjAddr: 0x4F2AA, symBinAddr: 0x4D6BA, symSize: 0x1B }
  - { offset: 0x1E8ED4, size: 0x8, addend: 0x0, symName: __ZN12sqlite3_capi4capi10bind_int6417hc3f0da9b6b49c054E, symObjAddr: 0x4F2C5, symBinAddr: 0x4D6D5, symSize: 0x1B }
  - { offset: 0x1E8F36, size: 0x8, addend: 0x0, symName: __ZN12sqlite3_capi4capi9bind_null17ha05e215385675b02E, symObjAddr: 0x4F2E0, symBinAddr: 0x4D6F0, symSize: 0x1B }
  - { offset: 0x1E8F89, size: 0x8, addend: 0x0, symName: __ZN12sqlite3_capi4capi9bind_text17h7fa706b1456e9923E, symObjAddr: 0x4F2FB, symBinAddr: 0x4D70B, symSize: 0x1E }
  - { offset: 0x1E900A, size: 0x8, addend: 0x0, symName: __ZN12sqlite3_capi4capi20bind_parameter_count17h740d77f34e1e8688E, symObjAddr: 0x4F319, symBinAddr: 0x4D729, symSize: 0x1B }
  - { offset: 0x1E904E, size: 0x8, addend: 0x0, symName: __ZN12sqlite3_capi4capi12column_bytes17hdad4f802ef307124E, symObjAddr: 0x4F334, symBinAddr: 0x4D744, symSize: 0x1E }
  - { offset: 0x1E90A4, size: 0x8, addend: 0x0, symName: __ZN12sqlite3_capi4capi15column_text_ptr17hca0226c7e145e922E, symObjAddr: 0x4F352, symBinAddr: 0x4D762, symSize: 0x1E }
  - { offset: 0x1E90FA, size: 0x8, addend: 0x0, symName: __ZN12sqlite3_capi4capi10column_int17hd8e6b07ce786cc8fE, symObjAddr: 0x4F370, symBinAddr: 0x4D780, symSize: 0x1E }
  - { offset: 0x1E9150, size: 0x8, addend: 0x0, symName: __ZN12sqlite3_capi4capi12column_int6417hf487f14f6c4b6ec6E, symObjAddr: 0x4F38E, symBinAddr: 0x4D79E, symSize: 0x1E }
  - { offset: 0x1E91A5, size: 0x8, addend: 0x0, symName: __ZN12sqlite3_capi4capi17context_db_handle17h981a81d9f736cb19E, symObjAddr: 0x4F3AC, symBinAddr: 0x4D7BC, symSize: 0x1E }
  - { offset: 0x1E91EB, size: 0x8, addend: 0x0, symName: __ZN12sqlite3_capi4capi16create_module_v217h4cc42b9e99fb1a92E, symObjAddr: 0x4F3CA, symBinAddr: 0x4D7DA, symSize: 0x25 }
  - { offset: 0x1E926E, size: 0x8, addend: 0x0, symName: __ZN12sqlite3_capi4capi4exec17h030ac21e00307c73E, symObjAddr: 0x4F3EF, symBinAddr: 0x4D7FF, symSize: 0x25 }
  - { offset: 0x1E92C4, size: 0x8, addend: 0x0, symName: __ZN12sqlite3_capi4capi10prepare_v217he33c3943c9bbca71E, symObjAddr: 0x4F414, symBinAddr: 0x4D824, symSize: 0x1E }
  - { offset: 0x1E934A, size: 0x8, addend: 0x0, symName: __ZN12sqlite3_capi4capi11result_null17h9a74af1a42622a86E, symObjAddr: 0x4F432, symBinAddr: 0x4D842, symSize: 0x1E }
  - { offset: 0x1E938C, size: 0x8, addend: 0x0, symName: __ZN12sqlite3_capi4capi12result_error17h51abee247ed4e948E, symObjAddr: 0x4F450, symBinAddr: 0x4D860, symSize: 0x1E }
  - { offset: 0x1E93EE, size: 0x8, addend: 0x0, symName: __ZN12sqlite3_capi4capi17result_error_code17hf47207cb656a4c9bE, symObjAddr: 0x4F46E, symBinAddr: 0x4D87E, symSize: 0x1E }
  - { offset: 0x1E9440, size: 0x8, addend: 0x0, symName: __ZN12sqlite3_capi4capi11result_text17hb59b733e3514615aE, symObjAddr: 0x4F48C, symBinAddr: 0x4D89C, symSize: 0x21 }
  - { offset: 0x1E94B3, size: 0x8, addend: 0x0, symName: __ZN12sqlite3_capi4capi14result_subtype17hb31832d628da07beE, symObjAddr: 0x4F4AD, symBinAddr: 0x4D8BD, symSize: 0x1E }
  - { offset: 0x1E9504, size: 0x8, addend: 0x0, symName: __ZN12sqlite3_capi4capi10value_text17hef2c1468f75f3c46E, symObjAddr: 0x4F4CB, symBinAddr: 0x4D8DB, symSize: 0x37 }
  - { offset: 0x1E957E, size: 0x8, addend: 0x0, symName: __ZN12sqlite3_capi4capi11value_bytes17hffb708094179a2ebE, symObjAddr: 0x4F502, symBinAddr: 0x4D912, symSize: 0x1E }
  - { offset: 0x1E95C4, size: 0x8, addend: 0x0, symName: __ZN12sqlite3_capi4capi10value_type17h608589b7b303b08dE, symObjAddr: 0x4F520, symBinAddr: 0x4D930, symSize: 0x1E }
  - { offset: 0xF0DF8, size: 0x8, addend: 0x0, symName: '__ZN41_$LT$T$u20$as$u20$serde..de..Expected$GT$3fmt17h2d1c5d785849cfc7E', symObjAddr: 0x21D05, symBinAddr: 0x21551, symSize: 0x23 }
  - { offset: 0xF0EDF, size: 0x8, addend: 0x0, symName: '__ZN45_$LT$T$u20$as$u20$alloc..string..ToString$GT$9to_string17h4427028c433f9c80E', symObjAddr: 0x23EE2, symBinAddr: 0x2372E, symSize: 0x71 }
  - { offset: 0xF0FC9, size: 0x8, addend: 0x0, symName: '__ZN58_$LT$alloc..string..String$u20$as$u20$core..fmt..Write$GT$10write_char17hd24bd3e8889f0b7fE.1231', symObjAddr: 0x240D5, symBinAddr: 0x23921, symSize: 0x101 }
  - { offset: 0xF1ADF, size: 0x8, addend: 0x0, symName: '__ZN63_$LT$alloc..alloc..Global$u20$as$u20$core..alloc..Allocator$GT$8allocate17hec4ddfe6586ef59cE.1189', symObjAddr: 0x22270, symBinAddr: 0x21ABC, symSize: 0x10 }
  - { offset: 0xF1BDC, size: 0x8, addend: 0x0, symName: __ZN5alloc5alloc15exchange_malloc17h7bc2140b0f99c529E.1212, symObjAddr: 0x22298, symBinAddr: 0x21AE4, symSize: 0x15 }
  - { offset: 0xF293F, size: 0x8, addend: 0x0, symName: '__ZN5alloc5boxed16Box$LT$T$C$A$GT$13new_uninit_in17h59a81b1ebad4a9edE', symObjAddr: 0x22280, symBinAddr: 0x21ACC, symSize: 0x18 }
  - { offset: 0xF2AA3, size: 0x8, addend: 0x0, symName: '__ZN69_$LT$alloc..boxed..Box$LT$T$C$A$GT$$u20$as$u20$core..fmt..Display$GT$3fmt17h7d02cd5307384f84E', symObjAddr: 0x222FA, symBinAddr: 0x21B46, symSize: 0x2FE }
  - { offset: 0xF584E, size: 0x8, addend: 0x0, symName: '__ZN4core3ptr65drop_in_place$LT$powersync_core..checkpoint..CheckpointResult$GT$17hf03aeb10a813e8d5E', symObjAddr: 0x22D6B, symBinAddr: 0x225B7, symSize: 0x29 }
  - { offset: 0xF58DB, size: 0x8, addend: 0x0, symName: '__ZN4core3ptr97drop_in_place$LT$alloc..vec..Vec$LT$powersync_core..sync..checkpoint..OwnedBucketChecksum$GT$$GT$17h79912cb347244057E', symObjAddr: 0x22D94, symBinAddr: 0x225E0, symSize: 0x57 }
  - { offset: 0xF5A57, size: 0x8, addend: 0x0, symName: '__ZN4core3ptr59drop_in_place$LT$powersync_core..sync..line..Checkpoint$GT$17h9b6427e725904a46E.1218', symObjAddr: 0x22DEB, symBinAddr: 0x22637, symSize: 0x46 }
  - { offset: 0xF5BDC, size: 0x8, addend: 0x0, symName: '__ZN4core3ptr58drop_in_place$LT$powersync_core..error..PowerSyncError$GT$17hbe010f0d6842a491E', symObjAddr: 0x23F53, symBinAddr: 0x2379F, symSize: 0xB1 }
  - { offset: 0xF5EAB, size: 0x8, addend: 0x0, symName: '__ZN4core3ptr63drop_in_place$LT$powersync_core..error..PowerSyncErrorCause$GT$17hbaa984f15ab353d4E', symObjAddr: 0x24078, symBinAddr: 0x238C4, symSize: 0x5D }
  - { offset: 0xF626B, size: 0x8, addend: 0x0, symName: '__ZN4core3ptr74drop_in_place$LT$powersync_core..sync..sync_status..DownloadSyncStatus$GT$17hbc123b7b090b5183E', symObjAddr: 0x2762C, symBinAddr: 0x26E78, symSize: 0x46 }
  - { offset: 0xF636E, size: 0x8, addend: 0x0, symName: '__ZN4core3ptr81drop_in_place$LT$alloc..sync..Arc$LT$powersync_core..state..DatabaseState$GT$$GT$17hf4664f0507fd83b7E', symObjAddr: 0x27672, symBinAddr: 0x26EBE, symSize: 0x18 }
  - { offset: 0xF6468, size: 0x8, addend: 0x0, symName: '__ZN4core3ptr88drop_in_place$LT$alloc..vec..Vec$LT$powersync_core..sync..interface..Instruction$GT$$GT$17h710bb3bd3d6c9bb1E', symObjAddr: 0x276A8, symBinAddr: 0x26EF4, symSize: 0x29 }
  - { offset: 0xF6B18, size: 0x8, addend: 0x0, symName: '__ZN44_$LT$$RF$T$u20$as$u20$core..fmt..Display$GT$3fmt17hab603524cc728d76E', symObjAddr: 0x21D4B, symBinAddr: 0x21597, symSize: 0x1F }
  - { offset: 0xFAF89, size: 0x8, addend: 0x0, symName: __ZN4core3ops8function6FnOnce9call_once17h5b4d11155cd7d9f6E, symObjAddr: 0x222CC, symBinAddr: 0x21B18, symSize: 0x2E }
  - { offset: 0xFB5F7, size: 0x8, addend: 0x0, symName: __ZN14powersync_core15operations_vtab6MODULE17h2114099f4fa9b9baE, symObjAddr: 0x51558, symBinAddr: 0x5EF08, symSize: 0x0 }
  - { offset: 0xFB649, size: 0x8, addend: 0x0, symName: __ZN14powersync_core15operations_vtab7connect17h2eaa0b089c4df29dE, symObjAddr: 0x22F5F, symBinAddr: 0x227AB, symSize: 0x72 }
  - { offset: 0xFB773, size: 0x8, addend: 0x0, symName: __ZN14powersync_core15operations_vtab10disconnect17h36e1ff83914d0b5dE, symObjAddr: 0x22FD1, symBinAddr: 0x2281D, symSize: 0xD }
  - { offset: 0xFB882, size: 0x8, addend: 0x0, symName: __ZN14powersync_core15operations_vtab6update17h886e9007f5077474E, symObjAddr: 0x2300A, symBinAddr: 0x22856, symSize: 0xEBF }
  - { offset: 0xFD654, size: 0x8, addend: 0x0, symName: __ZN14powersync_core4sync9interface8register7control17h83c53941aec36441E, symObjAddr: 0x241D6, symBinAddr: 0x23A22, symSize: 0x325E }
  - { offset: 0x10151D, size: 0x8, addend: 0x0, symName: __ZN14powersync_core4sync9interface8register7destroy17haf8c5bb0a8f257f7E, symObjAddr: 0x27434, symBinAddr: 0x26C80, symSize: 0x4D }
  - { offset: 0x101BAA, size: 0x8, addend: 0x0, symName: __ZN14powersync_core4sync9interface29powersync_offline_sync_status17h3b205262df703a2bE, symObjAddr: 0x27481, symBinAddr: 0x26CCD, symSize: 0x1AB }
  - { offset: 0x102810, size: 0x8, addend: 0x0, symName: '__ZN14powersync_core6schema1_83_$LT$impl$u20$serde..de..Deserialize$u20$for$u20$powersync_core..schema..Schema$GT$11deserialize17heaef481f15a984a6E', symObjAddr: 0x27D6E, symBinAddr: 0x275BA, symSize: 0x7C4 }
  - { offset: 0x103359, size: 0x8, addend: 0x0, symName: __ZN14powersync_core10checkpoint29powersync_validate_checkpoint17h9e5d788088faf93bE, symObjAddr: 0x225F8, symBinAddr: 0x21E44, symSize: 0x6C1 }
  - { offset: 0x1047C3, size: 0x8, addend: 0x0, symName: __ZN14powersync_core9vtab_util12vtab_no_open17hdaee2f6b3703b2c3E, symObjAddr: 0x22FDE, symBinAddr: 0x2282A, symSize: 0xB }
  - { offset: 0x1047F7, size: 0x8, addend: 0x0, symName: __ZN14powersync_core9vtab_util14vtab_no_filter17he90503bccf29bb87E, symObjAddr: 0x22FE9, symBinAddr: 0x22835, symSize: 0xB }
  - { offset: 0x10484C, size: 0x8, addend: 0x0, symName: __ZN14powersync_core9vtab_util11vtab_no_eof17h8412e08f50f08040E, symObjAddr: 0x22FF4, symBinAddr: 0x22840, symSize: 0xB }
  - { offset: 0x104875, size: 0x8, addend: 0x0, symName: __ZN14powersync_core9vtab_util14vtab_no_column17hf3d31a51abded51cE, symObjAddr: 0x22FFF, symBinAddr: 0x2284B, symSize: 0xB }
  - { offset: 0x10495E, size: 0x8, addend: 0x0, symName: __ZN14powersync_core9vtab_util11vtab_result17h2cf68a215d941e73E, symObjAddr: 0x24004, symBinAddr: 0x23850, symSize: 0x74 }
  - { offset: 0x104B0F, size: 0x8, addend: 0x0, symName: __ZN14powersync_core12update_hooks22powersync_update_hooks17h61a36309ace470a2E, symObjAddr: 0x276D1, symBinAddr: 0x26F1D, symSize: 0x304 }
  - { offset: 0x1055CE, size: 0x8, addend: 0x0, symName: __ZN14powersync_core12update_hooks16destroy_function17h8f79cca0d18389ceE, symObjAddr: 0x279D5, symBinAddr: 0x27221, symSize: 0x7A }
  - { offset: 0x105748, size: 0x8, addend: 0x0, symName: __ZN14powersync_core12update_hooks14check_previous17h199a19b4c694ce04E, symObjAddr: 0x27A4F, symBinAddr: 0x2729B, symSize: 0x2B }
  - { offset: 0x10579F, size: 0x8, addend: 0x0, symName: __ZN14powersync_core12update_hooks14check_previous17h199a19b4c694ce04E, symObjAddr: 0x27A4F, symBinAddr: 0x2729B, symSize: 0x2B }
  - { offset: 0x1057B6, size: 0x8, addend: 0x0, symName: __ZN14powersync_core12update_hooks14check_previous17h199a19b4c694ce04E, symObjAddr: 0x27A4F, symBinAddr: 0x2729B, symSize: 0x2B }
  - { offset: 0x1057CE, size: 0x8, addend: 0x0, symName: __ZN14powersync_core12update_hooks14check_previous17h199a19b4c694ce04E, symObjAddr: 0x27A4F, symBinAddr: 0x2729B, symSize: 0x2B }
  - { offset: 0x1058C9, size: 0x8, addend: 0x0, symName: __ZN14powersync_core12update_hooks16update_hook_impl17h9c6ad62acbc80cddE, symObjAddr: 0x27A7A, symBinAddr: 0x272C6, symSize: 0x11D }
  - { offset: 0x105D96, size: 0x8, addend: 0x0, symName: __ZN14powersync_core12update_hooks16commit_hook_impl17ha55fd1fab6569f6aE, symObjAddr: 0x27B97, symBinAddr: 0x273E3, symSize: 0x194 }
  - { offset: 0x1063AB, size: 0x8, addend: 0x0, symName: __ZN14powersync_core12update_hooks18rollback_hook_impl17h67933dde7beb6a5eE, symObjAddr: 0x27D2B, symBinAddr: 0x27577, symSize: 0x43 }
  - { offset: 0x106C98, size: 0x8, addend: 0x0, symName: '__ZN96_$LT$$BP$mut$u20$sqlite3_capi..bindings..sqlite3_value$u20$as$u20$sqlite_nostd..nostd..Value$GT$10value_type17h4ca3ff6e8bc06ed0E', symObjAddr: 0x23EC9, symBinAddr: 0x23715, symSize: 0x19 }
  - { offset: 0x106DAC, size: 0x8, addend: 0x0, symName: '__ZN100_$LT$$BP$mut$u20$sqlite3_capi..bindings..sqlite3_context$u20$as$u20$sqlite_nostd..nostd..Context$GT$9user_data17h023fdfa2eec9d018E', symObjAddr: 0x2768A, symBinAddr: 0x26ED6, symSize: 0x1E }
  - { offset: 0x106DDA, size: 0x8, addend: 0x0, symName: '__ZN100_$LT$$BP$mut$u20$sqlite3_capi..bindings..sqlite3_context$u20$as$u20$sqlite_nostd..nostd..Context$GT$9user_data17h023fdfa2eec9d018E', symObjAddr: 0x2768A, symBinAddr: 0x26ED6, symSize: 0x1E }
  - { offset: 0x1070FC, size: 0x8, addend: 0x0, symName: '__ZN86_$LT$serde_json..ser..Compound$LT$W$C$F$GT$$u20$as$u20$serde..ser..SerializeStruct$GT$15serialize_field17hcd65f65e4b2d5c2fE.1221', symObjAddr: 0x22E8F, symBinAddr: 0x226DB, symSize: 0x3D }
  - { offset: 0x107212, size: 0x8, addend: 0x0, symName: '__ZN86_$LT$serde_json..ser..Compound$LT$W$C$F$GT$$u20$as$u20$serde..ser..SerializeStruct$GT$3end17h94ffc5796222aa5aE.1222', symObjAddr: 0x22ECC, symBinAddr: 0x22718, symSize: 0x1E }
  - { offset: 0x107648, size: 0x8, addend: 0x0, symName: '__ZN86_$LT$serde_json..ser..Compound$LT$W$C$F$GT$$u20$as$u20$serde..ser..SerializeStruct$GT$15serialize_field17h33e239ee27e74fd2E', symObjAddr: 0x285D2, symBinAddr: 0x27E1E, symSize: 0x75 }
  - { offset: 0x107894, size: 0x8, addend: 0x0, symName: '__ZN95_$LT$$RF$mut$u20$serde_json..ser..Serializer$LT$W$C$F$GT$$u20$as$u20$serde..ser..Serializer$GT$16serialize_struct17h3ea214edbaca2b8cE.1220', symObjAddr: 0x22E31, symBinAddr: 0x2267D, symSize: 0x5E }
  - { offset: 0x10795B, size: 0x8, addend: 0x0, symName: '__ZN95_$LT$$RF$mut$u20$serde_json..ser..Serializer$LT$W$C$F$GT$$u20$as$u20$serde..ser..Serializer$GT$13serialize_map17h632ac069f74c5f45E.1225', symObjAddr: 0x22F09, symBinAddr: 0x22755, symSize: 0x45 }
  - { offset: 0x107B81, size: 0x8, addend: 0x0, symName: '__ZN95_$LT$$RF$mut$u20$serde_json..ser..Serializer$LT$W$C$F$GT$$u20$as$u20$serde..ser..Serializer$GT$24serialize_struct_variant17h8e2d9480193a5e77E', symObjAddr: 0x28532, symBinAddr: 0x27D7E, symSize: 0x5C }
  - { offset: 0x107C9A, size: 0x8, addend: 0x0, symName: __ZN10serde_json3ser9Formatter10end_object17h77ced2e09a3de39eE.1223, symObjAddr: 0x22EEA, symBinAddr: 0x22736, symSize: 0x11 }
  - { offset: 0x107CE5, size: 0x8, addend: 0x0, symName: __ZN10serde_json3ser9Formatter12begin_object17h1308b762e2c5a034E, symObjAddr: 0x22F4E, symBinAddr: 0x2279A, symSize: 0x11 }
  - { offset: 0x107D30, size: 0x8, addend: 0x0, symName: __ZN10serde_json3ser9Formatter18begin_object_value17ha7eaf98db832a312E, symObjAddr: 0x2858E, symBinAddr: 0x27DDA, symSize: 0x11 }
  - { offset: 0x108018, size: 0x8, addend: 0x0, symName: '__ZN93_$LT$serde_json..ser..Compound$LT$W$C$F$GT$$u20$as$u20$serde..ser..SerializeStructVariant$GT$3end17hd3af21a4e5315d8bE', symObjAddr: 0x2859F, symBinAddr: 0x27DEB, symSize: 0x33 }
  - { offset: 0x108756, size: 0x8, addend: 0x0, symName: '__ZN60_$LT$$RF$mut$u20$W$u20$as$u20$serde_json..io..imp..Write$GT$9write_all17h1d079d92631fcf55E.1224', symObjAddr: 0x22EFB, symBinAddr: 0x22747, symSize: 0xE }
  - { offset: 0x109290, size: 0x8, addend: 0x0, symName: '__ZN41_$LT$T$u20$as$u20$serde..de..Expected$GT$3fmt17h2d1c5d785849cfc7E', symObjAddr: 0x21D05, symBinAddr: 0x21551, symSize: 0x23 }
  - { offset: 0x109308, size: 0x8, addend: 0x0, symName: '__ZN41_$LT$T$u20$as$u20$serde..de..Expected$GT$3fmt17h8aa3c6b0c5fcd169E', symObjAddr: 0x21D28, symBinAddr: 0x21574, symSize: 0x23 }
  - { offset: 0x10974C, size: 0x8, addend: 0x0, symName: '__ZN5alloc11collections5btree3map5entry28VacantEntry$LT$K$C$V$C$A$GT$12insert_entry17hee54018337316583E', symObjAddr: 0x21D6A, symBinAddr: 0x215B6, symSize: 0x506 }
  - { offset: 0x10A219, size: 0x8, addend: 0x0, symName: '__ZN4core6result19Result$LT$T$C$E$GT$3map17h351a06919079729cE', symObjAddr: 0x222AD, symBinAddr: 0x21AF9, symSize: 0x1F }
  - { offset: 0x10A774, size: 0x8, addend: 0x0, symName: '__ZN5alloc7raw_vec20RawVecInner$LT$A$GT$16with_capacity_in17h27770aa47bcd454aE.1216', symObjAddr: 0x22CB9, symBinAddr: 0x22505, symSize: 0x3E }
  - { offset: 0x10A83C, size: 0x8, addend: 0x0, symName: '__ZN5alloc3vec12Vec$LT$T$GT$13with_capacity17h6493dd326805f531E', symObjAddr: 0x22CF7, symBinAddr: 0x22543, symSize: 0x2C }
  - { offset: 0x10A8A2, size: 0x8, addend: 0x0, symName: '__ZN4core6result19Result$LT$T$C$E$GT$7map_err17h1a7f23282cf3c921E', symObjAddr: 0x22D23, symBinAddr: 0x2256F, symSize: 0x48 }
  - { offset: 0xE054, size: 0x8, addend: 0x0, symName: __ZN4core3num7flt2dec8round_up17h6599028e23d9bf27E, symObjAddr: 0x196D, symBinAddr: 0x1F21, symSize: 0x6E }
  - { offset: 0xE0C3, size: 0x8, addend: 0x0, symName: __ZN4core3num7flt2dec8round_up17h6599028e23d9bf27E, symObjAddr: 0x196D, symBinAddr: 0x1F21, symSize: 0x6E }
  - { offset: 0xE34A, size: 0x8, addend: 0x0, symName: __ZN4core3num7flt2dec17digits_to_dec_str17hc37959ecf99ce17dE, symObjAddr: 0x19DB, symBinAddr: 0x1F8F, symSize: 0x114 }
  - { offset: 0xC2734, size: 0x8, addend: 0x0, symName: '__ZN108_$LT$alloc..collections..btree..map..Iter$LT$K$C$V$GT$$u20$as$u20$core..iter..traits..iterator..Iterator$GT$4next17h14e0fec19e380246E', symObjAddr: 0x1B08C, symBinAddr: 0x1AABC, symSize: 0xE7 }
  - { offset: 0xC2850, size: 0x8, addend: 0x0, symName: '__ZN99_$LT$core..array..iter..IntoIter$LT$T$C$_$GT$$u20$as$u20$core..iter..traits..iterator..Iterator$GT$4next17hd86821d5941e2b59E', symObjAddr: 0x1BBE0, symBinAddr: 0x1B610, symSize: 0x29 }
  - { offset: 0xC2CFE, size: 0x8, addend: 0x0, symName: __ZN4core3cmp9PartialEq2ne17hcc32861f1b3fe03dE, symObjAddr: 0x1B4D1, symBinAddr: 0x1AF01, symSize: 0xD }
  - { offset: 0xC7134, size: 0x8, addend: 0x0, symName: '__ZN110_$LT$core..ops..range..RangeFrom$LT$usize$GT$$u20$as$u20$core..slice..index..SliceIndex$LT$$u5b$T$u5d$$GT$$GT$5index17hdd7ae7246c14b9fbE.1025', symObjAddr: 0x1CD07, symBinAddr: 0x1C737, symSize: 0x1E }
  - { offset: 0xC799B, size: 0x8, addend: 0x0, symName: __ZN4core5slice4sort6shared9smallsort11insert_tail17h1e0e5e76f78d88bcE, symObjAddr: 0x1B6E0, symBinAddr: 0x1B110, symSize: 0x72 }
  - { offset: 0xC7AE3, size: 0x8, addend: 0x0, symName: __ZN4core5slice4sort6shared9smallsort11insert_tail17he3d3d80956e70b97E, symObjAddr: 0x1B76D, symBinAddr: 0x1B19D, symSize: 0x9F }
  - { offset: 0xC7C48, size: 0x8, addend: 0x0, symName: __ZN4core5slice4sort6shared9smallsort12sort4_stable17h0f68f445fc05b859E, symObjAddr: 0x1B80C, symBinAddr: 0x1B23C, symSize: 0x16F }
  - { offset: 0xC8100, size: 0x8, addend: 0x0, symName: __ZN4core5slice4sort6shared9smallsort12sort4_stable17h3eaa39c9952f7036E, symObjAddr: 0x1B97B, symBinAddr: 0x1B3AB, symSize: 0x108 }
  - { offset: 0xC83E5, size: 0x8, addend: 0x0, symName: __ZN4core5slice4sort6shared9smallsort12sort8_stable17h7863e2d66be07eafE, symObjAddr: 0x1BA83, symBinAddr: 0x1B4B3, symSize: 0x43 }
  - { offset: 0xC8578, size: 0x8, addend: 0x0, symName: __ZN4core5slice4sort6shared9smallsort19bidirectional_merge17h65d0a6795883ff65E, symObjAddr: 0x1BAC6, symBinAddr: 0x1B4F6, symSize: 0x11A }
  - { offset: 0xCA2C1, size: 0x8, addend: 0x0, symName: '__ZN4core4hash5impls52_$LT$impl$u20$core..hash..Hash$u20$for$u20$$RF$T$GT$4hash17h280473b942176a4cE', symObjAddr: 0x1CB7C, symBinAddr: 0x1C5AC, symSize: 0x18B }
  - { offset: 0xCB373, size: 0x8, addend: 0x0, symName: '__ZN92_$LT$powersync_core..sync..checkpoint..OwnedBucketChecksum$u20$as$u20$core..clone..Clone$GT$5clone17hd90aca19b18e34c4E', symObjAddr: 0x1CF05, symBinAddr: 0x1C935, symSize: 0x6E }
  - { offset: 0xCC99A, size: 0x8, addend: 0x0, symName: '__ZN110_$LT$alloc..collections..btree..map..Values$LT$K$C$V$GT$$u20$as$u20$core..iter..traits..iterator..Iterator$GT$4next17h1d1171a201746dd5E', symObjAddr: 0x1B338, symBinAddr: 0x1AD68, symSize: 0x12 }
  - { offset: 0xCD283, size: 0x8, addend: 0x0, symName: '__ZN108_$LT$alloc..collections..btree..map..Iter$LT$K$C$V$GT$$u20$as$u20$core..iter..traits..iterator..Iterator$GT$4next17h14e0fec19e380246E', symObjAddr: 0x1B08C, symBinAddr: 0x1AABC, symSize: 0xE7 }
  - { offset: 0xCD8B7, size: 0x8, addend: 0x0, symName: '__ZN108_$LT$alloc..collections..btree..map..Iter$LT$K$C$V$GT$$u20$as$u20$core..iter..traits..iterator..Iterator$GT$4next17h1f0247130228d61cE', symObjAddr: 0x1B173, symBinAddr: 0x1ABA3, symSize: 0xE0 }
  - { offset: 0xCDE64, size: 0x8, addend: 0x0, symName: '__ZN108_$LT$alloc..collections..btree..map..Iter$LT$K$C$V$GT$$u20$as$u20$core..iter..traits..iterator..Iterator$GT$4next17h538c8c88f54acffdE', symObjAddr: 0x1B253, symBinAddr: 0x1AC83, symSize: 0xE5 }
  - { offset: 0xCE88D, size: 0x8, addend: 0x0, symName: '__ZN99_$LT$alloc..collections..btree..map..BTreeMap$LT$K$C$V$C$A$GT$$u20$as$u20$core..ops..drop..Drop$GT$4drop17h1917ddc165031f4dE', symObjAddr: 0x1BC55, symBinAddr: 0x1B685, symSize: 0x55 }
  - { offset: 0xCE9A7, size: 0x8, addend: 0x0, symName: '__ZN99_$LT$alloc..collections..btree..map..BTreeMap$LT$K$C$V$C$A$GT$$u20$as$u20$core..ops..drop..Drop$GT$4drop17habdf22fbca1687b9E', symObjAddr: 0x1CF73, symBinAddr: 0x1C9A3, symSize: 0x1A1 }
  - { offset: 0xCF0BC, size: 0x8, addend: 0x0, symName: '__ZN99_$LT$alloc..collections..btree..map..BTreeMap$LT$K$C$V$C$A$GT$$u20$as$u20$core..ops..drop..Drop$GT$4drop17hd2b52473db258be0E', symObjAddr: 0x1D114, symBinAddr: 0x1CB44, symSize: 0x184 }
  - { offset: 0xCF68B, size: 0x8, addend: 0x0, symName: '__ZN99_$LT$alloc..collections..btree..map..BTreeMap$LT$K$C$V$C$A$GT$$u20$as$u20$core..ops..drop..Drop$GT$4drop17hf2c8160fdaadd162E', symObjAddr: 0x1D298, symBinAddr: 0x1CCC8, symSize: 0x1D3 }
  - { offset: 0xCFE7F, size: 0x8, addend: 0x0, symName: '__ZN99_$LT$alloc..collections..btree..map..BTreeMap$LT$K$C$V$C$A$GT$$u20$as$u20$core..ops..drop..Drop$GT$4drop17hf7b3111b3cdcb1abE', symObjAddr: 0x1D46B, symBinAddr: 0x1CE9B, symSize: 0x1DE }
  - { offset: 0xD0660, size: 0x8, addend: 0x0, symName: '__ZN99_$LT$alloc..collections..btree..map..IntoIter$LT$K$C$V$C$A$GT$$u20$as$u20$core..ops..drop..Drop$GT$4drop17hcca4bc105e86b60dE', symObjAddr: 0x1BCAA, symBinAddr: 0x1B6DA, symSize: 0x45 }
  - { offset: 0xD0DF1, size: 0x8, addend: 0x0, symName: '__ZN96_$LT$alloc..collections..btree..map..BTreeMap$LT$K$C$V$C$A$GT$$u20$as$u20$core..clone..Clone$GT$5clone13clone_subtree17had5cabc59e6159d1E', symObjAddr: 0x1CD25, symBinAddr: 0x1C755, symSize: 0x1E0 }
  - { offset: 0xD436A, size: 0x8, addend: 0x0, symName: '__ZN5alloc5slice29_$LT$impl$u20$$u5b$T$u5d$$GT$11sort_by_key28_$u7b$$u7b$closure$u7d$$u7d$17h36405ba234264c5cE.989', symObjAddr: 0x1B752, symBinAddr: 0x1B182, symSize: 0x1B }
  - { offset: 0xD4971, size: 0x8, addend: 0x0, symName: '__ZN65_$LT$serde_json..value..Value$u20$as$u20$core..cmp..PartialEq$GT$2eq17h3ea7419289c038f3E', symObjAddr: 0x1B4DE, symBinAddr: 0x1AF0E, symSize: 0x202 }
  - { offset: 0xD657F, size: 0x8, addend: 0x0, symName: '__ZN5alloc11collections5btree3map25IntoIter$LT$K$C$V$C$A$GT$10dying_next17hd29e195c5d1656eeE', symObjAddr: 0x1B34A, symBinAddr: 0x1AD7A, symSize: 0x187 }
  - { offset: 0xD6F29, size: 0x8, addend: 0x0, symName: '__ZN5alloc11collections5btree3map25BTreeMap$LT$K$C$V$C$A$GT$16extract_if_inner17hbf8caeee8ed094b2E', symObjAddr: 0x1BC09, symBinAddr: 0x1B639, symSize: 0x4C }
  - { offset: 0xD6F4C, size: 0x8, addend: 0x0, symName: '__ZN5alloc11collections5btree3map25BTreeMap$LT$K$C$V$C$A$GT$16extract_if_inner17hbf8caeee8ed094b2E', symObjAddr: 0x1BC09, symBinAddr: 0x1B639, symSize: 0x4C }
  - { offset: 0xD6F6A, size: 0x8, addend: 0x0, symName: '__ZN5alloc11collections5btree3map25BTreeMap$LT$K$C$V$C$A$GT$16extract_if_inner17hbf8caeee8ed094b2E', symObjAddr: 0x1BC09, symBinAddr: 0x1B639, symSize: 0x4C }
  - { offset: 0xD741B, size: 0x8, addend: 0x0, symName: '__ZN5alloc11collections5btree3map25BTreeMap$LT$K$C$V$C$A$GT$6insert17hde3bad91c24514a4E', symObjAddr: 0x1BCEF, symBinAddr: 0x1B71F, symSize: 0x71A }
  - { offset: 0xD8B7E, size: 0x8, addend: 0x0, symName: '__ZN5alloc11collections5btree3map25BTreeMap$LT$K$C$V$C$A$GT$6insert17he2ae6e941c77622dE', symObjAddr: 0x1C409, symBinAddr: 0x1BE39, symSize: 0x6C2 }
  - { offset: 0xD9CE5, size: 0x8, addend: 0x0, symName: '__ZN5alloc11collections5btree3map25BTreeMap$LT$K$C$V$C$A$GT$7get_mut17hb5e8fcc69558a40dE', symObjAddr: 0x1CACB, symBinAddr: 0x1C4FB, symSize: 0xB1 }
  - { offset: 0xD9D18, size: 0x8, addend: 0x0, symName: '__ZN5alloc11collections5btree3map25BTreeMap$LT$K$C$V$C$A$GT$7get_mut17hb5e8fcc69558a40dE', symObjAddr: 0x1CACB, symBinAddr: 0x1C4FB, symSize: 0xB1 }
  - { offset: 0xDAA74, size: 0x8, addend: 0x0, symName: __ZN14powersync_core4bson6parser6Parser5error17hb5df0b9c079e7ed7E, symObjAddr: 0x1D649, symBinAddr: 0x4F41D, symSize: 0x1A }
  - { offset: 0xDABEA, size: 0x8, addend: 0x0, symName: __ZN14powersync_core4bson6parser6Parser10read_int3217h3e02be47414c2444E, symObjAddr: 0x1D663, symBinAddr: 0x1D07B, symSize: 0x52 }
  - { offset: 0xDADB7, size: 0x8, addend: 0x0, symName: __ZN14powersync_core4bson6parser6Parser15advance_checked17hbba4162159ae2146E, symObjAddr: 0x1D6B5, symBinAddr: 0x1D0CD, symSize: 0x59 }
  - { offset: 0xDAF0C, size: 0x8, addend: 0x0, symName: __ZN14powersync_core4bson6parser6Parser10read_int6417h1e4d80cc01c712ceE, symObjAddr: 0x1D70E, symBinAddr: 0x1D126, symSize: 0x19 }
  - { offset: 0xDAFD1, size: 0x8, addend: 0x0, symName: __ZN14powersync_core4bson6parser6Parser13advance_bytes17hb0636e431bada461E, symObjAddr: 0x1D727, symBinAddr: 0x1D13F, symSize: 0x46 }
  - { offset: 0xDB0DE, size: 0x8, addend: 0x0, symName: __ZN14powersync_core4bson6parser6Parser11read_double17hdf8b54c8d8bee4ccE, symObjAddr: 0x1D76D, symBinAddr: 0x1D185, symSize: 0x33 }
  - { offset: 0xDB196, size: 0x8, addend: 0x0, symName: __ZN14powersync_core4bson6parser6Parser9read_bool17h70bbd3876c111972E, symObjAddr: 0x1D7A0, symBinAddr: 0x1D1B8, symSize: 0x41 }
  - { offset: 0xDB2B2, size: 0x8, addend: 0x0, symName: __ZN14powersync_core4bson6parser6Parser12advance_byte17h8b97b320bb02aed1E, symObjAddr: 0x1D7E1, symBinAddr: 0x1D1F9, symSize: 0x5B }
  - { offset: 0xDB3D8, size: 0x8, addend: 0x0, symName: __ZN14powersync_core4bson6parser6Parser14read_object_id17h439f110075abf348E, symObjAddr: 0x1D83C, symBinAddr: 0x1D254, symSize: 0x14 }
  - { offset: 0xDB45A, size: 0x8, addend: 0x0, symName: __ZN14powersync_core4bson6parser6Parser11read_string17h7ad3272d7a999142E, symObjAddr: 0x1D850, symBinAddr: 0x1D268, symSize: 0xCA }
  - { offset: 0xDB696, size: 0x8, addend: 0x0, symName: __ZN14powersync_core4bson6parser6Parser11read_length17hf4895f3095dba893E, symObjAddr: 0x1D91A, symBinAddr: 0x1D332, symSize: 0x5F }
  - { offset: 0xDB729, size: 0x8, addend: 0x0, symName: __ZN14powersync_core4bson6parser6Parser11read_binary17he6566d46a53f06c1E, symObjAddr: 0x1D979, symBinAddr: 0x1D391, symSize: 0x8C }
  - { offset: 0xDB850, size: 0x8, addend: 0x0, symName: __ZN14powersync_core4bson6parser6Parser9subreader17hafa8a6f8fb449fcaE, symObjAddr: 0x1DA05, symBinAddr: 0x1D41D, symSize: 0x42 }
  - { offset: 0xDB93A, size: 0x8, addend: 0x0, symName: __ZN14powersync_core4bson6parser6Parser13skip_document17h7e8a569e5e8357b4E, symObjAddr: 0x1DA47, symBinAddr: 0x1D45F, symSize: 0x8C }
  - { offset: 0x1A5D09, size: 0x8, addend: 0x0, symName: '__ZN104_$LT$core..iter..adapters..cloned..Cloned$LT$I$GT$$u20$as$u20$core..iter..traits..iterator..Iterator$GT$4next17h6f961411ab43f02eE', symObjAddr: 0x46E61, symBinAddr: 0x459E9, symSize: 0x40 }
  - { offset: 0x1A5FD9, size: 0x8, addend: 0x0, symName: '__ZN145_$LT$$LT$powersync_core..sync..checksum..Checksum$u20$as$u20$serde..de..Deserialize$GT$..deserialize..MyVisitor$u20$as$u20$serde..de..Visitor$GT$9visit_i6417h63150c67d6a4e84aE', symObjAddr: 0x47999, symBinAddr: 0x46481, symSize: 0x52 }
  - { offset: 0x1A612A, size: 0x8, addend: 0x0, symName: '__ZN145_$LT$$LT$powersync_core..sync..checksum..Checksum$u20$as$u20$serde..de..Deserialize$GT$..deserialize..MyVisitor$u20$as$u20$serde..de..Visitor$GT$9visit_i6417hf1005371be2a4795E', symObjAddr: 0x479EB, symBinAddr: 0x464D3, symSize: 0x52 }
  - { offset: 0x1A62C9, size: 0x8, addend: 0x0, symName: '__ZN83_$LT$powersync_core..sync..checksum..Checksum$u20$as$u20$serde..de..Deserialize$GT$11deserialize17h2b322642f00086d8E', symObjAddr: 0x47547, symBinAddr: 0x4602F, symSize: 0x355 }
  - { offset: 0x1A66B5, size: 0x8, addend: 0x0, symName: '__ZN83_$LT$powersync_core..sync..checksum..Checksum$u20$as$u20$serde..de..Deserialize$GT$11deserialize17hea252a0d82f5be49E', symObjAddr: 0x4789C, symBinAddr: 0x46384, symSize: 0xFD }
  - { offset: 0x1A6839, size: 0x8, addend: 0x0, symName: '__ZN79_$LT$powersync_core..sync..checksum..Checksum$u20$as$u20$core..fmt..Display$GT$3fmt17hecbe761c7f26d853E', symObjAddr: 0x474E7, symBinAddr: 0x45FCF, symSize: 0x60 }
  - { offset: 0x1A6C6A, size: 0x8, addend: 0x0, symName: '__ZN14powersync_core4sync13subscriptions1_99_$LT$impl$u20$serde..de..Deserialize$u20$for$u20$powersync_core..sync..subscriptions..StreamKey$GT$11deserialize17h923d6d5e83f53beaE', symObjAddr: 0x48E96, symBinAddr: 0x4797E, symSize: 0x5D4 }
  - { offset: 0x1A815C, size: 0x8, addend: 0x0, symName: __ZN14powersync_core8fix_data39powersync_remove_duplicate_key_encoding17he747aca11adf3bbfE, symObjAddr: 0x47161, symBinAddr: 0x45C49, symSize: 0x2C7 }
  - { offset: 0x1A90CC, size: 0x8, addend: 0x0, symName: '__ZN95_$LT$$BP$mut$u20$sqlite3_capi..bindings..sqlite3$u20$as$u20$sqlite_nostd..nostd..Connection$GT$9exec_safe17h9908d782887e4542E.2741', symObjAddr: 0x48BE7, symBinAddr: 0x476CF, symSize: 0x79 }
  - { offset: 0x1A9B5A, size: 0x8, addend: 0x0, symName: '__ZN4core3ptr67drop_in_place$LT$powersync_core..sync..subscriptions..StreamKey$GT$17h5a14695cc2a6c222E.2736', symObjAddr: 0x47A5F, symBinAddr: 0x46547, symSize: 0x37 }
  - { offset: 0x1A9D4A, size: 0x8, addend: 0x0, symName: '__ZN4core3ptr94drop_in_place$LT$core..option..Option$LT$powersync_core..sync_local..ParsedSchemaTable$GT$$GT$17h1ea1acf833b8c897E', symObjAddr: 0x48BAA, symBinAddr: 0x47692, symSize: 0x3D }
  - { offset: 0x1A9E2A, size: 0x8, addend: 0x0, symName: '__ZN4core3ptr114drop_in_place$LT$core..option..Option$LT$powersync_core..sync_local..SyncOperation..apply..CachedStatement$GT$$GT$17h08a43e323ab233e1E', symObjAddr: 0x48C60, symBinAddr: 0x47748, symSize: 0x33 }
  - { offset: 0x1A9EE0, size: 0x8, addend: 0x0, symName: '__ZN4core3ptr83drop_in_place$LT$powersync_core..sync..subscriptions..SubscriptionChangeRequest$GT$17hb48121fa838b55d6E', symObjAddr: 0x48E7E, symBinAddr: 0x47966, symSize: 0x18 }
  - { offset: 0x1AC223, size: 0x8, addend: 0x0, symName: '__ZN4core3str6traits66_$LT$impl$u20$core..ops..index..Index$LT$I$GT$$u20$for$u20$str$GT$5index17h27c208ee02a29c71E', symObjAddr: 0x47074, symBinAddr: 0x45B84, symSize: 0x41 }
  - { offset: 0x1AC263, size: 0x8, addend: 0x0, symName: '__ZN4core3str6traits66_$LT$impl$u20$core..ops..index..Index$LT$I$GT$$u20$for$u20$str$GT$5index17h27c208ee02a29c71E', symObjAddr: 0x47074, symBinAddr: 0x45B84, symSize: 0x41 }
  - { offset: 0x1AC285, size: 0x8, addend: 0x0, symName: '__ZN4core3str6traits66_$LT$impl$u20$core..ops..index..Index$LT$I$GT$$u20$for$u20$str$GT$5index17h27c208ee02a29c71E', symObjAddr: 0x47074, symBinAddr: 0x45B84, symSize: 0x41 }
  - { offset: 0x1AC3A0, size: 0x8, addend: 0x0, symName: '__ZN4core3str6traits66_$LT$impl$u20$core..ops..index..Index$LT$I$GT$$u20$for$u20$str$GT$5index17hcc72e4b3eee6b167E', symObjAddr: 0x470DD, symBinAddr: 0x45BC5, symSize: 0x27 }
  - { offset: 0x1AC5BB, size: 0x8, addend: 0x0, symName: '__ZN4core3str6traits112_$LT$impl$u20$core..slice..index..SliceIndex$LT$str$GT$$u20$for$u20$core..ops..range..RangeFrom$LT$usize$GT$$GT$3get17h33a7f727cbd7ac1cE', symObjAddr: 0x474C2, symBinAddr: 0x45FAA, symSize: 0x25 }
  - { offset: 0x1AC877, size: 0x8, addend: 0x0, symName: '__ZN102_$LT$core..str..iter..CharIndices$u20$as$u20$core..iter..traits..double_ended..DoubleEndedIterator$GT$9next_back17h1de02bbc5e520615E', symObjAddr: 0x47428, symBinAddr: 0x45F10, symSize: 0x9A }
  - { offset: 0x1AC8CF, size: 0x8, addend: 0x0, symName: '__ZN102_$LT$core..str..iter..CharIndices$u20$as$u20$core..iter..traits..double_ended..DoubleEndedIterator$GT$9next_back17h1de02bbc5e520615E', symObjAddr: 0x47428, symBinAddr: 0x45F10, symSize: 0x9A }
  - { offset: 0x1AEA80, size: 0x8, addend: 0x0, symName: '__ZN44_$LT$$RF$T$u20$as$u20$core..fmt..Display$GT$3fmt17hb46607f07dbf9234E', symObjAddr: 0x46F4C, symBinAddr: 0x45AD4, symSize: 0x2B }
  - { offset: 0x1AEB20, size: 0x8, addend: 0x0, symName: '__ZN44_$LT$$RF$T$u20$as$u20$core..fmt..Display$GT$3fmt17hef4778a45d8e9305E', symObjAddr: 0x46F77, symBinAddr: 0x45AFF, symSize: 0xD }
  - { offset: 0x1AF3DC, size: 0x8, addend: 0x0, symName: '__ZN4core5slice29_$LT$impl$u20$$u5b$T$u5d$$GT$15copy_from_slice17h6973fe1440de097cE', symObjAddr: 0x46F84, symBinAddr: 0x45B0C, symSize: 0x22 }
  - { offset: 0x1AF5CD, size: 0x8, addend: 0x0, symName: '__ZN104_$LT$core..iter..adapters..cloned..Cloned$LT$I$GT$$u20$as$u20$core..iter..traits..iterator..Iterator$GT$4next17h6f961411ab43f02eE', symObjAddr: 0x46E61, symBinAddr: 0x459E9, symSize: 0x40 }
  - { offset: 0x1B20D7, size: 0x8, addend: 0x0, symName: '__ZN41_$LT$T$u20$as$u20$serde..de..Expected$GT$3fmt17h0ea6f80d8b7ebb54E', symObjAddr: 0x46EA1, symBinAddr: 0x45A29, symSize: 0x23 }
  - { offset: 0x1B214F, size: 0x8, addend: 0x0, symName: '__ZN41_$LT$T$u20$as$u20$serde..de..Expected$GT$3fmt17h6bc662de2cb56a7dE', symObjAddr: 0x46EC4, symBinAddr: 0x45A4C, symSize: 0x23 }
  - { offset: 0x1B21C7, size: 0x8, addend: 0x0, symName: '__ZN41_$LT$T$u20$as$u20$serde..de..Expected$GT$3fmt17hacf9bbb1daecf1dfE', symObjAddr: 0x46EE7, symBinAddr: 0x45A6F, symSize: 0x23 }
  - { offset: 0x1B223F, size: 0x8, addend: 0x0, symName: '__ZN41_$LT$T$u20$as$u20$serde..de..Expected$GT$3fmt17he7dea37d10b01ba7E', symObjAddr: 0x46F0A, symBinAddr: 0x45A92, symSize: 0x42 }
  - { offset: 0x1B22BD, size: 0x8, addend: 0x0, symName: __ZN5serde2de7Visitor11visit_bytes17h03ad5ae075999e0dE, symObjAddr: 0x46FFC, symBinAddr: 0x502E4, symSize: 0x3C }
  - { offset: 0x1B230E, size: 0x8, addend: 0x0, symName: __ZN5serde2de7Visitor9visit_str17hf6a3b06002b8a30eE, symObjAddr: 0x47038, symBinAddr: 0x50320, symSize: 0x3C }
  - { offset: 0x1B2454, size: 0x8, addend: 0x0, symName: '__ZN89_$LT$serde..de..value..private..UnitOnly$LT$E$GT$$u20$as$u20$serde..de..VariantAccess$GT$20newtype_variant_seed17h1698e7bbbf12f527E', symObjAddr: 0x470B5, symBinAddr: 0x5035D, symSize: 0x28 }
  - { offset: 0x1B2E33, size: 0x8, addend: 0x0, symName: '__ZN5alloc4sync16Arc$LT$T$C$A$GT$9drop_slow17h8da6c75f0b27a34aE', symObjAddr: 0x46FA6, symBinAddr: 0x45B2E, symSize: 0x19 }
  - { offset: 0x1B305A, size: 0x8, addend: 0x0, symName: '__ZN5alloc4sync16Arc$LT$T$C$A$GT$9drop_slow17hada82d8d3235794fE', symObjAddr: 0x46FBF, symBinAddr: 0x45B47, symSize: 0x3D }
  - { offset: 0x1B3346, size: 0x8, addend: 0x0, symName: __ZN12sqlite_nostd5nostd11ManagedStmt11column_text17h88048b6552111f65E.2688, symObjAddr: 0x47104, symBinAddr: 0x45BEC, symSize: 0x4C }
  - { offset: 0x1B33FF, size: 0x8, addend: 0x0, symName: __ZN12sqlite_nostd5nostd11ManagedStmt9bind_text17hb5ee5ac8f6c4b350E.2692, symObjAddr: 0x47150, symBinAddr: 0x45C38, symSize: 0x11 }
  - { offset: 0x1B3920, size: 0x8, addend: 0x0, symName: __ZN12sqlite_nostd5nostd11ManagedStmt8bind_int17hf7d01db2f10aec8aE.2734, symObjAddr: 0x47A3D, symBinAddr: 0x46525, symSize: 0x11 }
  - { offset: 0x1B3960, size: 0x8, addend: 0x0, symName: __ZN12sqlite_nostd5nostd11ManagedStmt9bind_null17hd9c73c008a2d53cbE.2735, symObjAddr: 0x47A4E, symBinAddr: 0x46536, symSize: 0x11 }
  - { offset: 0x1B435B, size: 0x8, addend: 0x0, symName: __ZN14powersync_core10sync_local13SyncOperation5apply17h425d70de75561304E, symObjAddr: 0x47A96, symBinAddr: 0x4657E, symSize: 0x1114 }
  - { offset: 0x1B6275, size: 0x8, addend: 0x0, symName: __ZN14powersync_core10sync_local28RawTableWithCachedStatements14prepare_lazily17he91f043f90e4d6b1E, symObjAddr: 0x48C93, symBinAddr: 0x4777B, symSize: 0x162 }
  - { offset: 0x1B6607, size: 0x8, addend: 0x0, symName: __ZN14powersync_core10sync_local13SyncOperation10use_schema17h18b648ae725e09caE, symObjAddr: 0x48DF5, symBinAddr: 0x478DD, symSize: 0x89 }
  - { offset: 0x127D81, size: 0x8, addend: 0x0, symName: __ZN10serde_json3ser18format_escaped_str17hb6e1894763f27607E, symObjAddr: 0x31444, symBinAddr: 0x30BC0, symSize: 0x124 }
  - { offset: 0x127ECD, size: 0x8, addend: 0x0, symName: '__ZN67_$LT$serde_json..raw..RawValue$u20$as$u20$serde..ser..Serialize$GT$9serialize17hbfaa7c65a6d598f1E', symObjAddr: 0x31FE4, symBinAddr: 0x316F8, symSize: 0x1A }
  - { offset: 0x128BD2, size: 0x8, addend: 0x0, symName: '__ZN83_$LT$serde_json..ser..Compound$LT$W$C$F$GT$$u20$as$u20$serde..ser..SerializeMap$GT$13serialize_key17h56bdf3bfae05885cE', symObjAddr: 0x31D4C, symBinAddr: 0x31460, symSize: 0x54 }
  - { offset: 0x128CF3, size: 0x8, addend: 0x0, symName: '__ZN83_$LT$serde_json..ser..Compound$LT$W$C$F$GT$$u20$as$u20$serde..ser..SerializeMap$GT$13serialize_key17h1926f3b16d210755E', symObjAddr: 0x31E58, symBinAddr: 0x3156C, symSize: 0x54 }
  - { offset: 0x129726, size: 0x8, addend: 0x0, symName: '__ZN83_$LT$serde_json..ser..Compound$LT$W$C$F$GT$$u20$as$u20$serde..ser..SerializeSeq$GT$17serialize_element17he2fa07afa644988cE', symObjAddr: 0x319BE, symBinAddr: 0x310D2, symSize: 0x52 }
  - { offset: 0x129835, size: 0x8, addend: 0x0, symName: '__ZN83_$LT$serde_json..ser..Compound$LT$W$C$F$GT$$u20$as$u20$serde..ser..SerializeSeq$GT$3end17h13421af8803be542E', symObjAddr: 0x31A10, symBinAddr: 0x31124, symSize: 0x24 }
  - { offset: 0x129B4D, size: 0x8, addend: 0x0, symName: '__ZN95_$LT$$RF$mut$u20$serde_json..ser..Serializer$LT$W$C$F$GT$$u20$as$u20$serde..ser..Serializer$GT$13serialize_seq17ha26b7a89d1aa963dE', symObjAddr: 0x31956, symBinAddr: 0x3106A, symSize: 0x68 }
  - { offset: 0x129C44, size: 0x8, addend: 0x0, symName: '__ZN95_$LT$$RF$mut$u20$serde_json..ser..Serializer$LT$W$C$F$GT$$u20$as$u20$serde..ser..Serializer$GT$14serialize_unit17h0235e771da2f50f7E', symObjAddr: 0x31CC4, symBinAddr: 0x313D8, symSize: 0x18 }
  - { offset: 0x129CFE, size: 0x8, addend: 0x0, symName: '__ZN95_$LT$$RF$mut$u20$serde_json..ser..Serializer$LT$W$C$F$GT$$u20$as$u20$serde..ser..Serializer$GT$14serialize_bool17h5d69097b2061e4abE', symObjAddr: 0x31CDC, symBinAddr: 0x313F0, symSize: 0x2A }
  - { offset: 0x12A1F1, size: 0x8, addend: 0x0, symName: __ZN10serde_json3ser9Formatter9end_array17h25d0895ca1d6be51E, symObjAddr: 0x31A34, symBinAddr: 0x31148, symSize: 0x18 }
  - { offset: 0x12A338, size: 0x8, addend: 0x0, symName: __ZN10serde_json3ser9Formatter18begin_object_value17ha7eaf98db832a312E.1528, symObjAddr: 0x31DA0, symBinAddr: 0x314B4, symSize: 0x18 }
  - { offset: 0x12A3EC, size: 0x8, addend: 0x0, symName: __ZN10serde_json3ser9Formatter16begin_object_key17h1f06f8edda979c3cE, symObjAddr: 0x31DB8, symBinAddr: 0x314CC, symSize: 0x1E }
  - { offset: 0x12A541, size: 0x8, addend: 0x0, symName: '__ZN91_$LT$serde_json..ser..RawValueStrEmitter$LT$W$C$F$GT$$u20$as$u20$serde..ser..Serializer$GT$14serialize_bool17h334c8b961600f93bE', symObjAddr: 0x32112, symBinAddr: 0x4F746, symSize: 0x1B }
  - { offset: 0x12A7FA, size: 0x8, addend: 0x0, symName: __ZN10serde_json3ser18format_escaped_str17hb6e1894763f27607E, symObjAddr: 0x31444, symBinAddr: 0x30BC0, symSize: 0x124 }
  - { offset: 0x12B383, size: 0x8, addend: 0x0, symName: '__ZN10serde_json5value3ser76_$LT$impl$u20$serde..ser..Serialize$u20$for$u20$serde_json..value..Value$GT$9serialize17h47bcc575cc10503eE', symObjAddr: 0x31A4C, symBinAddr: 0x31160, symSize: 0x278 }
  - { offset: 0x12BD44, size: 0x8, addend: 0x0, symName: '__ZN189_$LT$serde_with..de..impls..$LT$impl$u20$serde_with..de..DeserializeAs$LT$T$GT$$u20$for$u20$serde_with..DisplayFromStr$GT$..deserialize_as..Helper$LT$S$GT$$u20$as$u20$serde..de..Visitor$GT$9visit_str17h0d2174cb380a0b76E', symObjAddr: 0x31568, symBinAddr: 0x30CE4, symSize: 0x4F }
  - { offset: 0x12E8FE, size: 0x8, addend: 0x0, symName: '__ZN4core3str21_$LT$impl$u20$str$GT$5parse17hfaa0fd005d9bafb9E', symObjAddr: 0x315B7, symBinAddr: 0x30D33, symSize: 0x12D }
  - { offset: 0x12F1B8, size: 0x8, addend: 0x0, symName: __ZN4core5slice4sort6shared5pivot11median3_rec17h1096b95bfc204b9dE, symObjAddr: 0x316E4, symBinAddr: 0x30E60, symSize: 0x106 }
  - { offset: 0x12F321, size: 0x8, addend: 0x0, symName: __ZN4core5slice4sort6shared5pivot11median3_rec17h4ba669fd256e47a3E, symObjAddr: 0x317EA, symBinAddr: 0x30F66, symSize: 0x104 }
  - { offset: 0x1325E9, size: 0x8, addend: 0x0, symName: '__ZN124_$LT$core..result..Result$LT$T$C$sqlite_nostd..nostd..ResultCode$GT$$u20$as$u20$powersync_core..error..PSResult$LT$T$GT$$GT$14into_db_result17h1ff730070698bf22E', symObjAddr: 0x3212D, symBinAddr: 0x31829, symSize: 0x52 }
  - { offset: 0x132699, size: 0x8, addend: 0x0, symName: '__ZN124_$LT$core..result..Result$LT$T$C$sqlite_nostd..nostd..ResultCode$GT$$u20$as$u20$powersync_core..error..PSResult$LT$T$GT$$GT$14into_db_result17h443840e368a07c4eE', symObjAddr: 0x3217F, symBinAddr: 0x3187B, symSize: 0x62 }
  - { offset: 0x132766, size: 0x8, addend: 0x0, symName: '__ZN124_$LT$core..result..Result$LT$T$C$sqlite_nostd..nostd..ResultCode$GT$$u20$as$u20$powersync_core..error..PSResult$LT$T$GT$$GT$14into_db_result17ha868e643f2b01094E', symObjAddr: 0x321E1, symBinAddr: 0x318DD, symSize: 0x48 }
  - { offset: 0x132AEB, size: 0x8, addend: 0x0, symName: __ZN5serde2de7Visitor11visit_bytes17hd3c4e762f359c3b7E, symObjAddr: 0x318EE, symBinAddr: 0x4F6DE, symSize: 0x36 }
  - { offset: 0x132B3B, size: 0x8, addend: 0x0, symName: __ZN5serde2de7Visitor9visit_i6417h7436bec71d90805cE, symObjAddr: 0x31924, symBinAddr: 0x4F714, symSize: 0x32 }
  - { offset: 0x1333BB, size: 0x8, addend: 0x0, symName: __ZN5serde3ser12SerializeMap15serialize_entry17h6bdf6ebdcf9dc602E, symObjAddr: 0x31D06, symBinAddr: 0x3141A, symSize: 0x46 }
  - { offset: 0x13345C, size: 0x8, addend: 0x0, symName: __ZN5serde3ser12SerializeMap15serialize_entry17h3d1b850c35d13b16E, symObjAddr: 0x31EAC, symBinAddr: 0x315C0, symSize: 0x3C }
  - { offset: 0x1334FA, size: 0x8, addend: 0x0, symName: __ZN5serde3ser12SerializeMap15serialize_entry17h4c0b274ea8f025a7E, symObjAddr: 0x31EE8, symBinAddr: 0x315FC, symSize: 0x3A }
  - { offset: 0x1335AD, size: 0x8, addend: 0x0, symName: __ZN5serde3ser12SerializeMap15serialize_entry17h8c02fa5850231fa8E, symObjAddr: 0x31F22, symBinAddr: 0x31636, symSize: 0x64 }
  - { offset: 0x1336D3, size: 0x8, addend: 0x0, symName: __ZN5serde3ser12SerializeMap15serialize_entry17hb290a6300b36938cE, symObjAddr: 0x31F86, symBinAddr: 0x3169A, symSize: 0x5E }
  - { offset: 0x1337B8, size: 0x8, addend: 0x0, symName: __ZN5serde3ser12SerializeMap15serialize_entry17hfa22717a8d255ce7E, symObjAddr: 0x31FFE, symBinAddr: 0x31712, symSize: 0x75 }
  - { offset: 0x133A12, size: 0x8, addend: 0x0, symName: __ZN5serde3ser12SerializeMap15serialize_entry17hfcbde46d281697d8E, symObjAddr: 0x32073, symBinAddr: 0x31787, symSize: 0x4A }
  - { offset: 0x13439B, size: 0x8, addend: 0x0, symName: __ZN5serde3ser10Serializer11collect_seq17hc9c4682d0a51b672E, symObjAddr: 0x31DD6, symBinAddr: 0x314EA, symSize: 0x82 }
  - { offset: 0x135380, size: 0x8, addend: 0x0, symName: '__ZN86_$LT$alloc..vec..into_iter..IntoIter$LT$T$C$A$GT$$u20$as$u20$core..ops..drop..Drop$GT$4drop17h45cd6d6d640b61f1E', symObjAddr: 0x320BD, symBinAddr: 0x317D1, symSize: 0x55 }
  - { offset: 0x8470, size: 0x8, addend: 0x0, symName: '__ZN4core3fmt3num53_$LT$impl$u20$core..fmt..LowerHex$u20$for$u20$u32$GT$3fmt17h132bcbc510ca98d5E', symObjAddr: 0xA4C, symBinAddr: 0x1000, symSize: 0x7E }
  - { offset: 0x85CF, size: 0x8, addend: 0x0, symName: '__ZN4core3fmt3num53_$LT$impl$u20$core..fmt..LowerHex$u20$for$u20$u32$GT$3fmt17h132bcbc510ca98d5E', symObjAddr: 0xA4C, symBinAddr: 0x1000, symSize: 0x7E }
  - { offset: 0x1B8684, size: 0x8, addend: 0x0, symName: '__ZN44_$LT$$RF$T$u20$as$u20$core..fmt..Display$GT$3fmt17h553ee1741b9e9089E', symObjAddr: 0x49D07, symBinAddr: 0x487EF, symSize: 0xD }
  - { offset: 0x1B86CB, size: 0x8, addend: 0x0, symName: '__ZN128_$LT$$LT$serde..de..WithDecimalPoint$u20$as$u20$core..fmt..Display$GT$..fmt..LookForDecimalPoint$u20$as$u20$core..fmt..Write$GT$9write_str17h48354d40031ee55cE', symObjAddr: 0x49D85, symBinAddr: 0x4886D, symSize: 0x6B }
  - { offset: 0x1B880F, size: 0x8, addend: 0x0, symName: '__ZN128_$LT$$LT$serde..de..WithDecimalPoint$u20$as$u20$core..fmt..Display$GT$..fmt..LookForDecimalPoint$u20$as$u20$core..fmt..Write$GT$10write_char17h5cfb95f87c1c543dE', symObjAddr: 0x49DF0, symBinAddr: 0x488D8, symSize: 0x1E }
  - { offset: 0x1B886C, size: 0x8, addend: 0x0, symName: '__ZN66_$LT$serde..de..WithDecimalPoint$u20$as$u20$core..fmt..Display$GT$3fmt17hd2ae661501b18407E', symObjAddr: 0x4A130, symBinAddr: 0x48C18, symSize: 0xE0 }
  - { offset: 0x1B8CF7, size: 0x8, addend: 0x0, symName: '__ZN60_$LT$serde..de..Unexpected$u20$as$u20$core..fmt..Display$GT$3fmt17ha5f5baf5b2e30b9aE', symObjAddr: 0x49E5C, symBinAddr: 0x48944, symSize: 0x2D4 }
  - { offset: 0x1B9049, size: 0x8, addend: 0x0, symName: '__ZN47_$LT$$RF$str$u20$as$u20$serde..de..Expected$GT$3fmt17h3ac7ca93a9235557E', symObjAddr: 0x4A210, symBinAddr: 0x48CF8, symSize: 0x1C }
  - { offset: 0x1B90AD, size: 0x8, addend: 0x0, symName: '__ZN55_$LT$serde..de..OneOf$u20$as$u20$core..fmt..Display$GT$3fmt17h7da41f414f72e96fE', symObjAddr: 0x4A22C, symBinAddr: 0x48D14, symSize: 0x1B4 }
  - { offset: 0x1B96ED, size: 0x8, addend: 0x0, symName: '__ZN44_$LT$$RF$T$u20$as$u20$core..fmt..Display$GT$3fmt17h553ee1741b9e9089E', symObjAddr: 0x49D07, symBinAddr: 0x487EF, symSize: 0xD }
  - { offset: 0x1B9783, size: 0x8, addend: 0x0, symName: __ZN4core3fmt5Write9write_fmt17h7c0ff801ea1caab2E, symObjAddr: 0x49D14, symBinAddr: 0x487FC, symSize: 0x3F }
  - { offset: 0x1BABF2, size: 0x8, addend: 0x0, symName: __ZN4core3fmt9Arguments23as_statically_known_str17hdf0089f2e7a494a2E.2778, symObjAddr: 0x49D53, symBinAddr: 0x4883B, symSize: 0x32 }
  - { offset: 0x1BAC69, size: 0x8, addend: 0x0, symName: __ZN4core3fmt9Formatter9write_fmt17h5e2c21b082e55561E.2781, symObjAddr: 0x49E0E, symBinAddr: 0x488F6, symSize: 0x4E }
  - { offset: 0x21056, size: 0x8, addend: 0x0, symName: '__ZN5alloc11collections5btree4node125NodeRef$LT$alloc..collections..btree..node..marker..Mut$C$K$C$V$C$alloc..collections..btree..node..marker..LeafOrInternal$GT$16choose_parent_kv17h8fc5c6d160ff02adE', symObjAddr: 0x4D28, symBinAddr: 0x5284, symSize: 0x8F }
  - { offset: 0x29457, size: 0x8, addend: 0x0, symName: '__ZN4core4iter5range110_$LT$impl$u20$core..iter..traits..iterator..Iterator$u20$for$u20$core..ops..range..RangeInclusive$LT$A$GT$$GT$4next17h5825712031d94002E', symObjAddr: 0x6596, symBinAddr: 0x6AF2, symSize: 0x32 }
  - { offset: 0x2970F, size: 0x8, addend: 0x0, symName: '__ZN4core5array88_$LT$impl$u20$core..ops..index..IndexMut$LT$I$GT$$u20$for$u20$$u5b$T$u3b$$u20$N$u5d$$GT$9index_mut17hb42e79030479debcE', symObjAddr: 0x6C24, symBinAddr: 0x7180, symSize: 0x16 }
  - { offset: 0x297CC, size: 0x8, addend: 0x0, symName: '__ZN4core5array88_$LT$impl$u20$core..ops..index..IndexMut$LT$I$GT$$u20$for$u20$$u5b$T$u3b$$u20$N$u5d$$GT$9index_mut17h1e85f22223e11547E', symObjAddr: 0x6C3A, symBinAddr: 0x7196, symSize: 0x1F }
  - { offset: 0x2988D, size: 0x8, addend: 0x0, symName: '__ZN4core5array88_$LT$impl$u20$core..ops..index..IndexMut$LT$I$GT$$u20$for$u20$$u5b$T$u3b$$u20$N$u5d$$GT$9index_mut17h629b06a7eeb654baE', symObjAddr: 0x6C59, symBinAddr: 0x71B5, symSize: 0x1F }
  - { offset: 0x2994E, size: 0x8, addend: 0x0, symName: '__ZN4core5array88_$LT$impl$u20$core..ops..index..IndexMut$LT$I$GT$$u20$for$u20$$u5b$T$u3b$$u20$N$u5d$$GT$9index_mut17hc1d1311413c8b146E', symObjAddr: 0x6C78, symBinAddr: 0x71D4, symSize: 0x1F }
  - { offset: 0x29A0F, size: 0x8, addend: 0x0, symName: '__ZN4core5array88_$LT$impl$u20$core..ops..index..IndexMut$LT$I$GT$$u20$for$u20$$u5b$T$u3b$$u20$N$u5d$$GT$9index_mut17h012103ff937e8e6fE', symObjAddr: 0x6C97, symBinAddr: 0x71F3, symSize: 0x1F }
  - { offset: 0x2BB01, size: 0x8, addend: 0x0, symName: __ZN5alloc11collections5btree4node13move_to_slice17h0a3b49ce5844f8ecE, symObjAddr: 0x551E, symBinAddr: 0x5A7A, symSize: 0x26 }
  - { offset: 0x2BB76, size: 0x8, addend: 0x0, symName: __ZN5alloc11collections5btree4node13move_to_slice17h89766b2b7ed540b1E, symObjAddr: 0x5544, symBinAddr: 0x5AA0, symSize: 0x26 }
  - { offset: 0x2DC6A, size: 0x8, addend: 0x0, symName: __ZN5alloc11collections5btree4node13move_to_slice17he365ebc82196808fE, symObjAddr: 0x6335, symBinAddr: 0x6891, symSize: 0x12 }
  - { offset: 0x3004A, size: 0x8, addend: 0x0, symName: __ZN5alloc11collections5btree4node12slice_insert17h52fc0ae0928e9396E, symObjAddr: 0x6A3B, symBinAddr: 0x6F97, symSize: 0x5C }
  - { offset: 0x3019C, size: 0x8, addend: 0x0, symName: __ZN5alloc11collections5btree4node12slice_insert17hb5e9cf3a3e6d3b7dE, symObjAddr: 0x6A97, symBinAddr: 0x6FF3, symSize: 0x5C }
  - { offset: 0x302F4, size: 0x8, addend: 0x0, symName: __ZN5alloc11collections5btree4node13move_to_slice17h1d2cfe95afd65f4aE, symObjAddr: 0x6AF3, symBinAddr: 0x704F, symSize: 0x26 }
  - { offset: 0x30367, size: 0x8, addend: 0x0, symName: __ZN5alloc11collections5btree4node13move_to_slice17h329c7094d1edadd2E, symObjAddr: 0x6B19, symBinAddr: 0x7075, symSize: 0x26 }
  - { offset: 0x303DA, size: 0x8, addend: 0x0, symName: __ZN5alloc11collections5btree4node13move_to_slice17h58886c39fe2772bbE, symObjAddr: 0x6B3F, symBinAddr: 0x709B, symSize: 0x26 }
  - { offset: 0x3044F, size: 0x8, addend: 0x0, symName: __ZN5alloc11collections5btree4node13move_to_slice17h5eeac53d09b47582E, symObjAddr: 0x6B65, symBinAddr: 0x70C1, symSize: 0x26 }
  - { offset: 0x3AA31, size: 0x8, addend: 0x0, symName: '__ZN5alloc11collections5btree4node125NodeRef$LT$alloc..collections..btree..node..marker..Mut$C$K$C$V$C$alloc..collections..btree..node..marker..LeafOrInternal$GT$16choose_parent_kv17h8fc5c6d160ff02adE', symObjAddr: 0x4D28, symBinAddr: 0x5284, symSize: 0x8F }
  - { offset: 0x3AA58, size: 0x8, addend: 0x0, symName: '__ZN5alloc11collections5btree4node125NodeRef$LT$alloc..collections..btree..node..marker..Mut$C$K$C$V$C$alloc..collections..btree..node..marker..LeafOrInternal$GT$16choose_parent_kv17h8fc5c6d160ff02adE', symObjAddr: 0x4D28, symBinAddr: 0x5284, symSize: 0x8F }
  - { offset: 0x3AA72, size: 0x8, addend: 0x0, symName: '__ZN5alloc11collections5btree4node125NodeRef$LT$alloc..collections..btree..node..marker..Mut$C$K$C$V$C$alloc..collections..btree..node..marker..LeafOrInternal$GT$16choose_parent_kv17h8fc5c6d160ff02adE', symObjAddr: 0x4D28, symBinAddr: 0x5284, symSize: 0x8F }
  - { offset: 0x3B315, size: 0x8, addend: 0x0, symName: '__ZN5alloc11collections5btree4node29BalancingContext$LT$K$C$V$GT$15bulk_steal_left17h3054baf5f4164d6dE', symObjAddr: 0x4DB7, symBinAddr: 0x5313, symSize: 0x2AF }
  - { offset: 0x3BE88, size: 0x8, addend: 0x0, symName: '__ZN5alloc11collections5btree4node29BalancingContext$LT$K$C$V$GT$8do_merge17h71b6789834f2f8f7E', symObjAddr: 0x5066, symBinAddr: 0x55C2, symSize: 0x21D }
  - { offset: 0x3C835, size: 0x8, addend: 0x0, symName: '__ZN5alloc11collections5btree4node29BalancingContext$LT$K$C$V$GT$16bulk_steal_right17h5731346d24b07090E', symObjAddr: 0x5283, symBinAddr: 0x57DF, symSize: 0x29B }
  - { offset: 0x3D328, size: 0x8, addend: 0x0, symName: '__ZN5alloc11collections5btree4node119NodeRef$LT$alloc..collections..btree..node..marker..Mut$C$K$C$V$C$alloc..collections..btree..node..marker..Internal$GT$30correct_childrens_parent_links17h41d28990882b87acE', symObjAddr: 0x556A, symBinAddr: 0x5AC6, symSize: 0x22 }
  - { offset: 0x3D838, size: 0x8, addend: 0x0, symName: '__ZN5alloc11collections5btree4node125NodeRef$LT$alloc..collections..btree..node..marker..Mut$C$K$C$V$C$alloc..collections..btree..node..marker..LeafOrInternal$GT$16choose_parent_kv17hf9c07650727870c1E', symObjAddr: 0x558C, symBinAddr: 0x5AE8, symSize: 0x9E }
  - { offset: 0x3D85F, size: 0x8, addend: 0x0, symName: '__ZN5alloc11collections5btree4node125NodeRef$LT$alloc..collections..btree..node..marker..Mut$C$K$C$V$C$alloc..collections..btree..node..marker..LeafOrInternal$GT$16choose_parent_kv17hf9c07650727870c1E', symObjAddr: 0x558C, symBinAddr: 0x5AE8, symSize: 0x9E }
  - { offset: 0x3D879, size: 0x8, addend: 0x0, symName: '__ZN5alloc11collections5btree4node125NodeRef$LT$alloc..collections..btree..node..marker..Mut$C$K$C$V$C$alloc..collections..btree..node..marker..LeafOrInternal$GT$16choose_parent_kv17hf9c07650727870c1E', symObjAddr: 0x558C, symBinAddr: 0x5AE8, symSize: 0x9E }
  - { offset: 0x3DDB2, size: 0x8, addend: 0x0, symName: '__ZN5alloc11collections5btree4node29BalancingContext$LT$K$C$V$GT$15bulk_steal_left17h4697c91f18fc796bE', symObjAddr: 0x562A, symBinAddr: 0x5B86, symSize: 0x289 }
  - { offset: 0x3E68F, size: 0x8, addend: 0x0, symName: '__ZN5alloc11collections5btree4node29BalancingContext$LT$K$C$V$GT$8do_merge17h8de90b35428829c0E', symObjAddr: 0x58B3, symBinAddr: 0x5E0F, symSize: 0x24C }
  - { offset: 0x3F043, size: 0x8, addend: 0x0, symName: '__ZN5alloc11collections5btree4node29BalancingContext$LT$K$C$V$GT$16bulk_steal_right17h37b5df8efa6ebb72E', symObjAddr: 0x5AFF, symBinAddr: 0x605B, symSize: 0x272 }
  - { offset: 0x3FAFA, size: 0x8, addend: 0x0, symName: '__ZN5alloc11collections5btree4node125NodeRef$LT$alloc..collections..btree..node..marker..Mut$C$K$C$V$C$alloc..collections..btree..node..marker..LeafOrInternal$GT$16choose_parent_kv17h0590be82e51244ddE', symObjAddr: 0x5D71, symBinAddr: 0x62CD, symSize: 0x8F }
  - { offset: 0x3FB21, size: 0x8, addend: 0x0, symName: '__ZN5alloc11collections5btree4node125NodeRef$LT$alloc..collections..btree..node..marker..Mut$C$K$C$V$C$alloc..collections..btree..node..marker..LeafOrInternal$GT$16choose_parent_kv17h0590be82e51244ddE', symObjAddr: 0x5D71, symBinAddr: 0x62CD, symSize: 0x8F }
  - { offset: 0x3FB3B, size: 0x8, addend: 0x0, symName: '__ZN5alloc11collections5btree4node125NodeRef$LT$alloc..collections..btree..node..marker..Mut$C$K$C$V$C$alloc..collections..btree..node..marker..LeafOrInternal$GT$16choose_parent_kv17h0590be82e51244ddE', symObjAddr: 0x5D71, symBinAddr: 0x62CD, symSize: 0x8F }
  - { offset: 0x40171, size: 0x8, addend: 0x0, symName: '__ZN5alloc11collections5btree4node29BalancingContext$LT$K$C$V$GT$15bulk_steal_left17hff70208e86a9f6caE', symObjAddr: 0x5E00, symBinAddr: 0x635C, symSize: 0x1C9 }
  - { offset: 0x40853, size: 0x8, addend: 0x0, symName: '__ZN5alloc11collections5btree4node29BalancingContext$LT$K$C$V$GT$8do_merge17h4b447bc21c859d86E', symObjAddr: 0x5FC9, symBinAddr: 0x6525, symSize: 0x1A3 }
  - { offset: 0x40F08, size: 0x8, addend: 0x0, symName: '__ZN5alloc11collections5btree4node29BalancingContext$LT$K$C$V$GT$16bulk_steal_right17h013dd031b4fc0df7E', symObjAddr: 0x616C, symBinAddr: 0x66C8, symSize: 0x1C9 }
  - { offset: 0x415F5, size: 0x8, addend: 0x0, symName: '__ZN5alloc11collections5btree4node119NodeRef$LT$alloc..collections..btree..node..marker..Mut$C$K$C$V$C$alloc..collections..btree..node..marker..Internal$GT$30correct_childrens_parent_links17hcb14d757354aeb60E', symObjAddr: 0x6347, symBinAddr: 0x68A3, symSize: 0x22 }
  - { offset: 0x41964, size: 0x8, addend: 0x0, symName: '__ZN5alloc11collections5btree3fix176_$LT$impl$u20$alloc..collections..btree..node..NodeRef$LT$alloc..collections..btree..node..marker..Mut$C$K$C$V$C$alloc..collections..btree..node..marker..LeafOrInternal$GT$$GT$31fix_node_and_affected_ancestors17h18df94365f50d229E', symObjAddr: 0x6369, symBinAddr: 0x68C5, symSize: 0xB7 }
  - { offset: 0x41B18, size: 0x8, addend: 0x0, symName: '__ZN5alloc11collections5btree4node115NodeRef$LT$alloc..collections..btree..node..marker..Mut$C$K$C$V$C$alloc..collections..btree..node..marker..Leaf$GT$16push_with_handle17h459cb12ac30d5febE', symObjAddr: 0x6420, symBinAddr: 0x697C, symSize: 0x6D }
  - { offset: 0x41DC5, size: 0x8, addend: 0x0, symName: '__ZN5alloc11collections5btree4node115NodeRef$LT$alloc..collections..btree..node..marker..Mut$C$K$C$V$C$alloc..collections..btree..node..marker..Leaf$GT$16push_with_handle17hb1758f6c89729157E', symObjAddr: 0x648D, symBinAddr: 0x69E9, symSize: 0x4F }
  - { offset: 0x41FBD, size: 0x8, addend: 0x0, symName: '__ZN5alloc11collections5btree4node21LeafNode$LT$K$C$V$GT$3new17h07c2ca67234792b5E', symObjAddr: 0x64DC, symBinAddr: 0x6A38, symSize: 0x2A }
  - { offset: 0x42188, size: 0x8, addend: 0x0, symName: '__ZN5alloc11collections5btree4node117NodeRef$LT$alloc..collections..btree..node..marker..Owned$C$K$C$V$C$alloc..collections..btree..node..marker..Leaf$GT$8new_leaf17h90dfc65b31966404E', symObjAddr: 0x6506, symBinAddr: 0x6A62, symSize: 0xD }
  - { offset: 0x42200, size: 0x8, addend: 0x0, symName: '__ZN5alloc11collections5btree4node21LeafNode$LT$K$C$V$GT$3new17h5fe0d2d5c7a6d0afE', symObjAddr: 0x6513, symBinAddr: 0x6A6F, symSize: 0x26 }
  - { offset: 0x423A7, size: 0x8, addend: 0x0, symName: '__ZN5alloc11collections5btree4node117NodeRef$LT$alloc..collections..btree..node..marker..Owned$C$K$C$V$C$alloc..collections..btree..node..marker..Leaf$GT$8new_leaf17h94f509323e3878c9E', symObjAddr: 0x6539, symBinAddr: 0x6A95, symSize: 0xD }
  - { offset: 0x4241F, size: 0x8, addend: 0x0, symName: '__ZN5alloc11collections5btree4node21LeafNode$LT$K$C$V$GT$3new17h102d74c8798e0717E', symObjAddr: 0x6546, symBinAddr: 0x6AA2, symSize: 0x26 }
  - { offset: 0x42645, size: 0x8, addend: 0x0, symName: '__ZN5alloc11collections5btree4node21LeafNode$LT$K$C$V$GT$3new17h1d3460ae7ae4ce03E', symObjAddr: 0x656C, symBinAddr: 0x6AC8, symSize: 0x2A }
  - { offset: 0x4290F, size: 0x8, addend: 0x0, symName: '__ZN5alloc11collections5btree4node119NodeRef$LT$alloc..collections..btree..node..marker..Mut$C$K$C$V$C$alloc..collections..btree..node..marker..Internal$GT$4push17h20e2281fcb449c4dE', symObjAddr: 0x65C8, symBinAddr: 0x6B24, symSize: 0x81 }
  - { offset: 0x42C82, size: 0x8, addend: 0x0, symName: '__ZN5alloc11collections5btree4node119NodeRef$LT$alloc..collections..btree..node..marker..Mut$C$K$C$V$C$alloc..collections..btree..node..marker..Internal$GT$4push17h9e0e19bfcb1110e0E', symObjAddr: 0x6649, symBinAddr: 0x6BA5, symSize: 0x64 }
  - { offset: 0x42FB2, size: 0x8, addend: 0x0, symName: '__ZN5alloc11collections5btree4node25InternalNode$LT$K$C$V$GT$3new17h55cd878634db700cE', symObjAddr: 0x66AD, symBinAddr: 0x6C09, symSize: 0x26 }
  - { offset: 0x43166, size: 0x8, addend: 0x0, symName: '__ZN5alloc11collections5btree4node25InternalNode$LT$K$C$V$GT$3new17hf9a655d570b015ecE', symObjAddr: 0x66D3, symBinAddr: 0x6C2F, symSize: 0x26 }
  - { offset: 0x433B7, size: 0x8, addend: 0x0, symName: '__ZN5alloc11collections5btree4node121NodeRef$LT$alloc..collections..btree..node..marker..Owned$C$K$C$V$C$alloc..collections..btree..node..marker..Internal$GT$17from_new_internal17hcc9b526688d2caccE', symObjAddr: 0x66F9, symBinAddr: 0x6C55, symSize: 0x5C }
  - { offset: 0x4362B, size: 0x8, addend: 0x0, symName: '__ZN5alloc11collections5btree4node25InternalNode$LT$K$C$V$GT$3new17hcc231bf3f5ff85b3E', symObjAddr: 0x6755, symBinAddr: 0x6CB1, symSize: 0x2A }
  - { offset: 0x439EF, size: 0x8, addend: 0x0, symName: '__ZN5alloc11collections5btree4node121NodeRef$LT$alloc..collections..btree..node..marker..Owned$C$K$C$V$C$alloc..collections..btree..node..marker..Internal$GT$17from_new_internal17hcb5e1745e9a07d9aE', symObjAddr: 0x677F, symBinAddr: 0x6CDB, symSize: 0x60 }
  - { offset: 0x43CEF, size: 0x8, addend: 0x0, symName: '__ZN5alloc11collections5btree4node121NodeRef$LT$alloc..collections..btree..node..marker..Owned$C$K$C$V$C$alloc..collections..btree..node..marker..Internal$GT$17from_new_internal17hc470ec04190b50cbE', symObjAddr: 0x67DF, symBinAddr: 0x6D3B, symSize: 0x5C }
  - { offset: 0x43F63, size: 0x8, addend: 0x0, symName: '__ZN5alloc11collections5btree4node25InternalNode$LT$K$C$V$GT$3new17h6e4c738b1487c9d5E', symObjAddr: 0x683B, symBinAddr: 0x6D97, symSize: 0x2A }
  - { offset: 0x44327, size: 0x8, addend: 0x0, symName: '__ZN5alloc11collections5btree4node121NodeRef$LT$alloc..collections..btree..node..marker..Owned$C$K$C$V$C$alloc..collections..btree..node..marker..Internal$GT$17from_new_internal17h0b0864a7fcee9585E', symObjAddr: 0x6865, symBinAddr: 0x6DC1, symSize: 0x60 }
  - { offset: 0x4468D, size: 0x8, addend: 0x0, symName: '__ZN5alloc11collections5btree4node127NodeRef$LT$alloc..collections..btree..node..marker..Dying$C$K$C$V$C$alloc..collections..btree..node..marker..LeafOrInternal$GT$21deallocate_and_ascend17h300cb94213f2a84cE', symObjAddr: 0x68C5, symBinAddr: 0x6E21, symSize: 0x2A }
  - { offset: 0x44960, size: 0x8, addend: 0x0, symName: '__ZN5alloc11collections5btree4node127NodeRef$LT$alloc..collections..btree..node..marker..Dying$C$K$C$V$C$alloc..collections..btree..node..marker..LeafOrInternal$GT$21deallocate_and_ascend17h5462339f96b5c765E', symObjAddr: 0x68EF, symBinAddr: 0x6E4B, symSize: 0x2E }
  - { offset: 0x44BE1, size: 0x8, addend: 0x0, symName: '__ZN5alloc11collections5btree4node127NodeRef$LT$alloc..collections..btree..node..marker..Dying$C$K$C$V$C$alloc..collections..btree..node..marker..LeafOrInternal$GT$21deallocate_and_ascend17h8609d19147d2004fE', symObjAddr: 0x691D, symBinAddr: 0x6E79, symSize: 0x2A }
  - { offset: 0x44EB4, size: 0x8, addend: 0x0, symName: '__ZN5alloc11collections5btree4node127NodeRef$LT$alloc..collections..btree..node..marker..Dying$C$K$C$V$C$alloc..collections..btree..node..marker..LeafOrInternal$GT$21deallocate_and_ascend17hd37b74b14f64665bE', symObjAddr: 0x6947, symBinAddr: 0x6EA3, symSize: 0x2E }
  - { offset: 0x45105, size: 0x8, addend: 0x0, symName: '__ZN5alloc11collections5btree4node127NodeRef$LT$alloc..collections..btree..node..marker..Owned$C$K$C$V$C$alloc..collections..btree..node..marker..LeafOrInternal$GT$18pop_internal_level17h77c52244fb04c9f6E', symObjAddr: 0x6975, symBinAddr: 0x6ED1, symSize: 0x39 }
  - { offset: 0x45344, size: 0x8, addend: 0x0, symName: '__ZN5alloc11collections5btree4node127NodeRef$LT$alloc..collections..btree..node..marker..Owned$C$K$C$V$C$alloc..collections..btree..node..marker..LeafOrInternal$GT$19push_internal_level17hc78bf069e2ee21bbE', symObjAddr: 0x69AE, symBinAddr: 0x6F0A, symSize: 0x40 }
  - { offset: 0x45558, size: 0x8, addend: 0x0, symName: '__ZN5alloc11collections5btree4node127NodeRef$LT$alloc..collections..btree..node..marker..Owned$C$K$C$V$C$alloc..collections..btree..node..marker..LeafOrInternal$GT$19push_internal_level17hf93c9f91aae7c8a9E', symObjAddr: 0x69EE, symBinAddr: 0x6F4A, symSize: 0x40 }
  - { offset: 0x456E1, size: 0x8, addend: 0x0, symName: '__ZN5alloc11collections5btree4node127NodeRef$LT$alloc..collections..btree..node..marker..Owned$C$K$C$V$C$alloc..collections..btree..node..marker..LeafOrInternal$GT$3new17hf8a27e588f6d83d9E', symObjAddr: 0x6A2E, symBinAddr: 0x6F8A, symSize: 0xD }
  - { offset: 0x457D3, size: 0x8, addend: 0x0, symName: '__ZN5alloc11collections5btree4node171Handle$LT$alloc..collections..btree..node..NodeRef$LT$alloc..collections..btree..node..marker..Mut$C$K$C$V$C$NodeType$GT$$C$alloc..collections..btree..node..marker..KV$GT$10replace_kv17h4cef44f639fd4ae1E', symObjAddr: 0x6B8B, symBinAddr: 0x70E7, symSize: 0x99 }
  - { offset: 0x45ADA, size: 0x8, addend: 0x0, symName: '__ZN5alloc11collections5btree4node208Handle$LT$alloc..collections..btree..node..NodeRef$LT$alloc..collections..btree..node..marker..Mut$C$K$C$V$C$alloc..collections..btree..node..marker..Leaf$GT$$C$alloc..collections..btree..node..marker..KV$GT$6remove17h372c61b97bfb085bE', symObjAddr: 0x6CB6, symBinAddr: 0x7212, symSize: 0xE3 }
  - { offset: 0x45E95, size: 0x8, addend: 0x0, symName: '__ZN5alloc11collections5btree4node210Handle$LT$alloc..collections..btree..node..NodeRef$LT$alloc..collections..btree..node..marker..Mut$C$K$C$V$C$alloc..collections..btree..node..marker..Leaf$GT$$C$alloc..collections..btree..node..marker..Edge$GT$10insert_fit17h2f71162821d7944cE', symObjAddr: 0x6D99, symBinAddr: 0x72F5, symSize: 0x97 }
  - { offset: 0x46187, size: 0x8, addend: 0x0, symName: '__ZN5alloc11collections5btree4node210Handle$LT$alloc..collections..btree..node..NodeRef$LT$alloc..collections..btree..node..marker..Mut$C$K$C$V$C$alloc..collections..btree..node..marker..Leaf$GT$$C$alloc..collections..btree..node..marker..Edge$GT$10insert_fit17h38bc110094cc929bE', symObjAddr: 0x6E30, symBinAddr: 0x738C, symSize: 0x78 }
  - { offset: 0x4635B, size: 0x8, addend: 0x0, symName: '__ZN5alloc11collections5btree4node210Handle$LT$alloc..collections..btree..node..NodeRef$LT$alloc..collections..btree..node..marker..Mut$C$K$C$V$C$alloc..collections..btree..node..marker..Leaf$GT$$C$alloc..collections..btree..node..marker..Edge$GT$10insert_fit17h60cd7f7eedd342b5E', symObjAddr: 0x6EA8, symBinAddr: 0x7404, symSize: 0x5E }
  - { offset: 0x46499, size: 0x8, addend: 0x0, symName: '__ZN5alloc11collections5btree4node214Handle$LT$alloc..collections..btree..node..NodeRef$LT$alloc..collections..btree..node..marker..Mut$C$K$C$V$C$alloc..collections..btree..node..marker..Internal$GT$$C$alloc..collections..btree..node..marker..Edge$GT$10insert_fit17hbb373729d97217e8E', symObjAddr: 0x6F06, symBinAddr: 0x7462, symSize: 0xA1 }
  - { offset: 0x46675, size: 0x8, addend: 0x0, symName: '__ZN5alloc11collections5btree4node214Handle$LT$alloc..collections..btree..node..NodeRef$LT$alloc..collections..btree..node..marker..Mut$C$K$C$V$C$alloc..collections..btree..node..marker..Internal$GT$$C$alloc..collections..btree..node..marker..Edge$GT$10insert_fit17hddb92985fe78deabE', symObjAddr: 0x6FA7, symBinAddr: 0x7503, symSize: 0xB9 }
  - { offset: 0x4694D, size: 0x8, addend: 0x0, symName: '__ZN5alloc11collections5btree4node214Handle$LT$alloc..collections..btree..node..NodeRef$LT$alloc..collections..btree..node..marker..Mut$C$K$C$V$C$alloc..collections..btree..node..marker..Internal$GT$$C$alloc..collections..btree..node..marker..Edge$GT$10insert_fit17h555bc511eb023e6fE', symObjAddr: 0x7060, symBinAddr: 0x75BC, symSize: 0xC6 }
  - { offset: 0x46D78, size: 0x8, addend: 0x0, symName: '__ZN5alloc11collections5btree4node214Handle$LT$alloc..collections..btree..node..NodeRef$LT$alloc..collections..btree..node..marker..Mut$C$K$C$V$C$alloc..collections..btree..node..marker..Internal$GT$$C$alloc..collections..btree..node..marker..Edge$GT$10insert_fit17h8546149129f6e259E', symObjAddr: 0x7126, symBinAddr: 0x7682, symSize: 0xF5 }
  - { offset: 0x47480, size: 0x8, addend: 0x0, symName: '__ZN5alloc11collections5btree4node214Handle$LT$alloc..collections..btree..node..NodeRef$LT$alloc..collections..btree..node..marker..Mut$C$K$C$V$C$alloc..collections..btree..node..marker..Internal$GT$$C$alloc..collections..btree..node..marker..Edge$GT$10insert_fit17h5d1deaa7ab5ed16eE', symObjAddr: 0x721B, symBinAddr: 0x7777, symSize: 0xC3 }
  - { offset: 0x47823, size: 0x8, addend: 0x0, symName: '__ZN5alloc11collections5btree4node29BalancingContext$LT$K$C$V$GT$10steal_left17h1c3f28c5901395fcE', symObjAddr: 0x72DE, symBinAddr: 0x783A, symSize: 0x3F }
  - { offset: 0x4788F, size: 0x8, addend: 0x0, symName: '__ZN5alloc11collections5btree4node29BalancingContext$LT$K$C$V$GT$11steal_right17h8793da93aa6b8e96E', symObjAddr: 0x731D, symBinAddr: 0x7879, symSize: 0x3C }
  - { offset: 0x478FB, size: 0x8, addend: 0x0, symName: '__ZN5alloc11collections5btree4node29BalancingContext$LT$K$C$V$GT$8do_merge17hc04e2b96e8aeba2aE', symObjAddr: 0x7359, symBinAddr: 0x78B5, symSize: 0x221 }
  - { offset: 0x482AE, size: 0x8, addend: 0x0, symName: '__ZN5alloc11collections5btree4node29BalancingContext$LT$K$C$V$GT$8do_merge17h39040dd685e188dbE', symObjAddr: 0x757A, symBinAddr: 0x7AD6, symSize: 0x1A9 }
  - { offset: 0x48964, size: 0x8, addend: 0x0, symName: '__ZN5alloc11collections5btree4node29BalancingContext$LT$K$C$V$GT$8do_merge17h5e6323578e6c8dc3E', symObjAddr: 0x7723, symBinAddr: 0x7C7F, symSize: 0x24B }
  - { offset: 0x49396, size: 0x8, addend: 0x0, symName: '__ZN5alloc11collections5btree4node29BalancingContext$LT$K$C$V$GT$25merge_tracking_child_edge17h20bf4277ce76e3bdE', symObjAddr: 0x796E, symBinAddr: 0x7ECA, symSize: 0x6D }
  - { offset: 0x49605, size: 0x8, addend: 0x0, symName: '__ZN5alloc11collections5btree4node29BalancingContext$LT$K$C$V$GT$25merge_tracking_child_edge17hb991df2c64a157a1E', symObjAddr: 0x79DB, symBinAddr: 0x7F37, symSize: 0x6D }
  - { offset: 0x49831, size: 0x8, addend: 0x0, symName: '__ZN5alloc11collections5btree4node29BalancingContext$LT$K$C$V$GT$25merge_tracking_child_edge17hc428a94536e0aceaE', symObjAddr: 0x7A48, symBinAddr: 0x7FA4, symSize: 0x6D }
  - { offset: 0x49AA0, size: 0x8, addend: 0x0, symName: '__ZN5alloc11collections5btree8navigate142_$LT$impl$u20$alloc..collections..btree..node..NodeRef$LT$BorrowType$C$K$C$V$C$alloc..collections..btree..node..marker..LeafOrInternal$GT$$GT$14last_leaf_edge17h662c62b50e1b331dE', symObjAddr: 0x7AB5, symBinAddr: 0x8011, symSize: 0x30 }
  - { offset: 0x49DC2, size: 0x8, addend: 0x0, symName: '__ZN5alloc11collections5btree6remove259_$LT$impl$u20$alloc..collections..btree..node..Handle$LT$alloc..collections..btree..node..NodeRef$LT$alloc..collections..btree..node..marker..Mut$C$K$C$V$C$alloc..collections..btree..node..marker..Leaf$GT$$C$alloc..collections..btree..node..marker..KV$GT$$GT$14remove_leaf_kv17h3cd06d099793e113E', symObjAddr: 0x7AE5, symBinAddr: 0x8041, symSize: 0x156 }
  - { offset: 0x4A2E1, size: 0x8, addend: 0x0, symName: '__ZN5alloc11collections5btree6remove259_$LT$impl$u20$alloc..collections..btree..node..Handle$LT$alloc..collections..btree..node..NodeRef$LT$alloc..collections..btree..node..marker..Mut$C$K$C$V$C$alloc..collections..btree..node..marker..Leaf$GT$$C$alloc..collections..btree..node..marker..KV$GT$$GT$14remove_leaf_kv17he308c725c7e10c36E', symObjAddr: 0x7C3B, symBinAddr: 0x8197, symSize: 0x2FF }
  - { offset: 0x4AAB5, size: 0x8, addend: 0x0, symName: '__ZN5alloc11collections5btree6remove259_$LT$impl$u20$alloc..collections..btree..node..Handle$LT$alloc..collections..btree..node..NodeRef$LT$alloc..collections..btree..node..marker..Mut$C$K$C$V$C$alloc..collections..btree..node..marker..Leaf$GT$$C$alloc..collections..btree..node..marker..KV$GT$$GT$14remove_leaf_kv17he8d60bebba2eda91E', symObjAddr: 0x7F3A, symBinAddr: 0x8496, symSize: 0x328 }
  - { offset: 0x4B141, size: 0x8, addend: 0x0, symName: '__ZN5alloc11collections5btree8navigate142_$LT$impl$u20$alloc..collections..btree..node..NodeRef$LT$BorrowType$C$K$C$V$C$alloc..collections..btree..node..marker..LeafOrInternal$GT$$GT$14last_leaf_edge17h17df71298a6f35e6E', symObjAddr: 0x8262, symBinAddr: 0x87BE, symSize: 0x30 }
  - { offset: 0x4B379, size: 0x8, addend: 0x0, symName: '__ZN5alloc11collections5btree8navigate227_$LT$impl$u20$alloc..collections..btree..node..Handle$LT$alloc..collections..btree..node..NodeRef$LT$BorrowType$C$K$C$V$C$alloc..collections..btree..node..marker..Leaf$GT$$C$alloc..collections..btree..node..marker..Edge$GT$$GT$7next_kv17hb6b65dcece523bedE', symObjAddr: 0x8292, symBinAddr: 0x87EE, symSize: 0x51 }
  - { offset: 0x4B5F1, size: 0x8, addend: 0x0, symName: '__ZN5alloc11collections5btree8navigate235_$LT$impl$u20$alloc..collections..btree..node..Handle$LT$alloc..collections..btree..node..NodeRef$LT$BorrowType$C$K$C$V$C$alloc..collections..btree..node..marker..LeafOrInternal$GT$$C$alloc..collections..btree..node..marker..KV$GT$$GT$14next_leaf_edge17h248038e33ece7928E', symObjAddr: 0x82E3, symBinAddr: 0x883F, symSize: 0x50 }
  - { offset: 0x4BAFC, size: 0x8, addend: 0x0, symName: '__ZN5alloc11collections5btree6search142_$LT$impl$u20$alloc..collections..btree..node..NodeRef$LT$BorrowType$C$K$C$V$C$alloc..collections..btree..node..marker..LeafOrInternal$GT$$GT$11search_tree17h2fa85928ad01acf2E', symObjAddr: 0x8333, symBinAddr: 0x888F, symSize: 0xBF }
  - { offset: 0x4BF97, size: 0x8, addend: 0x0, symName: '__ZN5alloc11collections5btree6search142_$LT$impl$u20$alloc..collections..btree..node..NodeRef$LT$BorrowType$C$K$C$V$C$alloc..collections..btree..node..marker..LeafOrInternal$GT$$GT$11search_tree17h8903dbf63dd7dda2E', symObjAddr: 0x83F2, symBinAddr: 0x894E, symSize: 0xBF }
  - { offset: 0x183774, size: 0x8, addend: 0x0, symName: '__ZN44_$LT$$RF$T$u20$as$u20$core..fmt..Display$GT$3fmt17h7503a8e800c1d345E', symObjAddr: 0x3FFE9, symBinAddr: 0x3EF69, symSize: 0xD }
  - { offset: 0x18496C, size: 0x8, addend: 0x0, symName: '__ZN66_$LT$alloc..borrow..Cow$LT$B$GT$$u20$as$u20$core..fmt..Display$GT$3fmt17he474a39139b93509E', symObjAddr: 0x40003, symBinAddr: 0x3EF83, symSize: 0x1B }
  - { offset: 0x1849F2, size: 0x8, addend: 0x0, symName: '__ZN66_$LT$alloc..borrow..Cow$LT$B$GT$$u20$as$u20$core..clone..Clone$GT$5clone17hf1ed1a91af03f1d0E', symObjAddr: 0x4001E, symBinAddr: 0x3EF9E, symSize: 0x33 }
  - { offset: 0x1862D5, size: 0x8, addend: 0x0, symName: '__ZN4core3ptr99drop_in_place$LT$powersync_core..sync..storage_adapter..StorageAdapter..sync_local..PartialArgs$GT$17h0fc4c06e178a4bb5E', symObjAddr: 0x4147E, symBinAddr: 0x403FE, symSize: 0x1E }
  - { offset: 0x1867DB, size: 0x8, addend: 0x0, symName: '__ZN44_$LT$$RF$T$u20$as$u20$core..fmt..Display$GT$3fmt17h7503a8e800c1d345E', symObjAddr: 0x3FFE9, symBinAddr: 0x3EF69, symSize: 0xD }
  - { offset: 0x186821, size: 0x8, addend: 0x0, symName: '__ZN44_$LT$$RF$T$u20$as$u20$core..fmt..Display$GT$3fmt17hcfcdc924948ccd4cE', symObjAddr: 0x3FFF6, symBinAddr: 0x3EF76, symSize: 0xD }
  - { offset: 0x18A850, size: 0x8, addend: 0x0, symName: '__ZN95_$LT$$BP$mut$u20$sqlite3_capi..bindings..sqlite3$u20$as$u20$sqlite_nostd..nostd..Connection$GT$10prepare_v217h9b3ccd717d6996c2E.2389', symObjAddr: 0x400D9, symBinAddr: 0x3F059, symSize: 0x7D7 }
  - { offset: 0x18A919, size: 0x8, addend: 0x0, symName: '__ZN95_$LT$$BP$mut$u20$sqlite3_capi..bindings..sqlite3$u20$as$u20$sqlite_nostd..nostd..Connection$GT$9exec_safe17h9908d782887e4542E.2418', symObjAddr: 0x413F4, symBinAddr: 0x40374, symSize: 0x79 }
  - { offset: 0x18B473, size: 0x8, addend: 0x0, symName: '__ZN94_$LT$powersync_core..sync..storage_adapter..CheckpointResult$u20$as$u20$core..fmt..Display$GT$3fmt17hee81f9ddaf5e3fb6E', symObjAddr: 0x418F8, symBinAddr: 0x40878, symSize: 0x1E1 }
  - { offset: 0x18BA14, size: 0x8, addend: 0x0, symName: '__ZN147_$LT$powersync_core..sync..checkpoint..OwnedBucketChecksum$u20$as$u20$core..convert..From$LT$$RF$powersync_core..sync..line..BucketChecksum$GT$$GT$4from17h4588c7c0aef28ad6E', symObjAddr: 0x408B0, symBinAddr: 0x3F830, symSize: 0x8D }
  - { offset: 0x18C351, size: 0x8, addend: 0x0, symName: __ZN14powersync_core4uuid7uuid_v417h3d60ae32f8d09509E, symObjAddr: 0x41AE8, symBinAddr: 0x40A68, symSize: 0x24E }
  - { offset: 0x18CB04, size: 0x8, addend: 0x0, symName: '__ZN101_$LT$$BP$mut$u20$sqlite3_capi..bindings..sqlite3$u20$as$u20$powersync_core..ext..ExtendedDatabase$GT$9exec_text17hb1f74fdf107785dcE', symObjAddr: 0x40051, symBinAddr: 0x3EFD1, symSize: 0x88 }
  - { offset: 0x18F093, size: 0x8, addend: 0x0, symName: '__ZN5alloc3vec16Vec$LT$T$C$A$GT$4push17hb5f41bf97bf398e2E', symObjAddr: 0x4093D, symBinAddr: 0x3F8BD, symSize: 0x43 }
  - { offset: 0x18F159, size: 0x8, addend: 0x0, symName: __ZN14powersync_core4sync15storage_adapter14StorageAdapter3new17hf687f6f149341bc3E, symObjAddr: 0x40980, symBinAddr: 0x3F900, symSize: 0x150 }
  - { offset: 0x18F32E, size: 0x8, addend: 0x0, symName: __ZN12sqlite_nostd5nostd11ManagedStmt11column_text17h88048b6552111f65E.2399, symObjAddr: 0x40AD0, symBinAddr: 0x3FA50, symSize: 0x4C }
  - { offset: 0x18F766, size: 0x8, addend: 0x0, symName: __ZN14powersync_core4sync15storage_adapter14StorageAdapter18offline_sync_state17hc3198c0fed78b11cE, symObjAddr: 0x40B1C, symBinAddr: 0x3FA9C, symSize: 0x358 }
  - { offset: 0x18FE0A, size: 0x8, addend: 0x0, symName: __ZN14powersync_core4sync15storage_adapter14StorageAdapter24read_stream_subscription17h4ff45a7acc4c554bE, symObjAddr: 0x40E74, symBinAddr: 0x3FDF4, symSize: 0x548 }
  - { offset: 0x190A06, size: 0x8, addend: 0x0, symName: __ZN12sqlite_nostd5nostd11ManagedStmt11column_type17h67cf6e50730c6fb1E, symObjAddr: 0x413BC, symBinAddr: 0x4033C, symSize: 0x38 }
  - { offset: 0x190AE2, size: 0x8, addend: 0x0, symName: __ZN12sqlite_nostd5nostd11ManagedStmt10bind_int6417h85863f90a22e17d7E.2425, symObjAddr: 0x4146D, symBinAddr: 0x403ED, symSize: 0x11 }
  - { offset: 0x190DFC, size: 0x8, addend: 0x0, symName: __ZN14powersync_core4sync15storage_adapter14StorageAdapter29collect_subscription_requests17hb635772edfd2fb8dE, symObjAddr: 0x4149C, symBinAddr: 0x4041C, symSize: 0x2F9 }
  - { offset: 0x1912FD, size: 0x8, addend: 0x0, symName: __ZN14powersync_core4sync15storage_adapter14StorageAdapter3now17h88f454c88336b21cE, symObjAddr: 0x41795, symBinAddr: 0x40715, symSize: 0x53 }
  - { offset: 0x1913E6, size: 0x8, addend: 0x0, symName: __ZN14powersync_core4sync15storage_adapter14StorageAdapter12increase_ttl17hd16f8ed818dfa0d8E, symObjAddr: 0x417E8, symBinAddr: 0x40768, symSize: 0xEE }
  - { offset: 0x19160B, size: 0x8, addend: 0x0, symName: __ZN12sqlite_nostd5nostd11ManagedStmt8bind_int17hf7d01db2f10aec8aE.2439, symObjAddr: 0x418D6, symBinAddr: 0x40856, symSize: 0x11 }
  - { offset: 0x19164B, size: 0x8, addend: 0x0, symName: __ZN12sqlite_nostd5nostd11ManagedStmt9bind_null17hd9c73c008a2d53cbE.2440, symObjAddr: 0x418E7, symBinAddr: 0x40867, symSize: 0x11 }
  - { offset: 0x191836, size: 0x8, addend: 0x0, symName: __ZN4core3fmt9Formatter9write_fmt17h5e2c21b082e55561E.2447, symObjAddr: 0x41AD9, symBinAddr: 0x40A59, symSize: 0xF }
  - { offset: 0x1CF92F, size: 0x8, addend: 0x0, symName: '__ZN70_$LT$serde_json..read..SliceRead$u20$as$u20$serde_json..read..Read$GT$8position17ha0579e7f38bb82f7E', symObjAddr: 0x4D448, symBinAddr: 0x4B9F0, symSize: 0x18 }
  - { offset: 0x1D0A06, size: 0x8, addend: 0x0, symName: __ZN10serde_json4read4HEX017h40f79816976d25f1E, symObjAddr: 0x5E2C6, symBinAddr: 0x5C9EE, symSize: 0x0 }
  - { offset: 0x1D0A22, size: 0x8, addend: 0x0, symName: __ZN10serde_json4read4HEX117h1e3333167e262e83E, symObjAddr: 0x5E4C6, symBinAddr: 0x5CBEE, symSize: 0x0 }
  - { offset: 0x1D0A6C, size: 0x8, addend: 0x0, symName: '__ZN70_$LT$serde_json..read..SliceRead$u20$as$u20$serde_json..read..Read$GT$8position17ha0579e7f38bb82f7E', symObjAddr: 0x4D448, symBinAddr: 0x4B9F0, symSize: 0x18 }
  - { offset: 0x1D0AC8, size: 0x8, addend: 0x0, symName: '__ZN70_$LT$serde_json..read..SliceRead$u20$as$u20$serde_json..read..Read$GT$17decode_hex_escape17hc22bf0b25e880d64E', symObjAddr: 0x4D705, symBinAddr: 0x4BC15, symSize: 0xB3 }
  - { offset: 0x1D0D93, size: 0x8, addend: 0x0, symName: '__ZN68_$LT$serde_json..read..StrRead$u20$as$u20$serde_json..read..Read$GT$9parse_str17h90765f4ab5fc9ca5E', symObjAddr: 0x4D992, symBinAddr: 0x4BDCA, symSize: 0x356 }
  - { offset: 0x1D12A3, size: 0x8, addend: 0x0, symName: '__ZN68_$LT$serde_json..read..StrRead$u20$as$u20$serde_json..read..Read$GT$10ignore_str17h19d00df42357a9acE', symObjAddr: 0x4DCE8, symBinAddr: 0x4C120, symSize: 0x11C }
  - { offset: 0x1D136A, size: 0x8, addend: 0x0, symName: __ZN10serde_json4read5error17he136ce200ea9b381E, symObjAddr: 0x4D5F2, symBinAddr: 0x508E2, symSize: 0x56 }
  - { offset: 0x1D1425, size: 0x8, addend: 0x0, symName: __ZN10serde_json4read11next_or_eof17h8a553adc73a835f1E, symObjAddr: 0x4D648, symBinAddr: 0x4BB9C, symSize: 0x3C }
  - { offset: 0x1D1457, size: 0x8, addend: 0x0, symName: __ZN10serde_json4read11next_or_eof17h8a553adc73a835f1E, symObjAddr: 0x4D648, symBinAddr: 0x4BB9C, symSize: 0x3C }
  - { offset: 0x1D14AC, size: 0x8, addend: 0x0, symName: __ZN10serde_json4read5error17h3d6cced2d3aed485E, symObjAddr: 0x4D684, symBinAddr: 0x50938, symSize: 0x46 }
  - { offset: 0x1D15F4, size: 0x8, addend: 0x0, symName: __ZN10serde_json4read11peek_or_eof17h05a3a2c5b5c198fcE, symObjAddr: 0x4D7B8, symBinAddr: 0x4BCC8, symSize: 0x35 }
  - { offset: 0x1D1626, size: 0x8, addend: 0x0, symName: __ZN10serde_json4read11peek_or_eof17h05a3a2c5b5c198fcE, symObjAddr: 0x4D7B8, symBinAddr: 0x4BCC8, symSize: 0x35 }
  - { offset: 0x1D1666, size: 0x8, addend: 0x0, symName: __ZN10serde_json4read19push_wtf8_codepoint17h20e8a965f6093b7dE, symObjAddr: 0x4D7ED, symBinAddr: 0x4BCFD, symSize: 0xCA }
  - { offset: 0x1D18CD, size: 0x8, addend: 0x0, symName: __ZN10serde_json4read5error17h67cde1decb473059E, symObjAddr: 0x4D8B7, symBinAddr: 0x5097F, symSize: 0x53 }
  - { offset: 0x1D1988, size: 0x8, addend: 0x0, symName: __ZN10serde_json4read5error17hcdc2c61bb6ac0fafE, symObjAddr: 0x4D90A, symBinAddr: 0x509D2, symSize: 0x55 }
  - { offset: 0x1D2444, size: 0x8, addend: 0x0, symName: __ZN10serde_json4read9SliceRead17position_of_index17h19a201a636733117E, symObjAddr: 0x4D460, symBinAddr: 0x4BA08, symSize: 0x74 }
  - { offset: 0x1D29F1, size: 0x8, addend: 0x0, symName: __ZN10serde_json4read9SliceRead14skip_to_escape17h77faf3ee11d232f4E, symObjAddr: 0x4D4D4, symBinAddr: 0x4BA7C, symSize: 0x11E }
  - { offset: 0x1D3058, size: 0x8, addend: 0x0, symName: '__ZN5alloc3vec16Vec$LT$T$C$A$GT$4push17h429d87471fea6642E', symObjAddr: 0x4D6CA, symBinAddr: 0x4BBDA, symSize: 0x3B }
  - { offset: 0x1D31EB, size: 0x8, addend: 0x0, symName: __ZN10serde_json4read9SliceRead19skip_to_escape_slow17h9bb7267cfe60dca8E, symObjAddr: 0x4D95F, symBinAddr: 0x50A27, symSize: 0x33 }
  - { offset: 0x1E2C19, size: 0x8, addend: 0x0, symName: '__ZN99_$LT$sqlite3_allocator..allocator..SQLite3Allocator$u20$as$u20$core..alloc..global..GlobalAlloc$GT$5alloc17h25972b12ccf7a66bE', symObjAddr: 0x4F26E, symBinAddr: 0x4D67E, symSize: 0x1E }
  - { offset: 0x1E2E6D, size: 0x8, addend: 0x0, symName: '__ZN99_$LT$sqlite3_allocator..allocator..SQLite3Allocator$u20$as$u20$core..alloc..global..GlobalAlloc$GT$5alloc17h25972b12ccf7a66bE', symObjAddr: 0x4F26E, symBinAddr: 0x4D67E, symSize: 0x1E }
  - { offset: 0x1E2EA9, size: 0x8, addend: 0x0, symName: '__ZN99_$LT$sqlite3_allocator..allocator..SQLite3Allocator$u20$as$u20$core..alloc..global..GlobalAlloc$GT$5alloc17h25972b12ccf7a66bE', symObjAddr: 0x4F26E, symBinAddr: 0x4D67E, symSize: 0x1E }
  - { offset: 0x1E2ED9, size: 0x8, addend: 0x0, symName: '__ZN99_$LT$sqlite3_allocator..allocator..SQLite3Allocator$u20$as$u20$core..alloc..global..GlobalAlloc$GT$7dealloc17hf1a4f8c95ecba338E', symObjAddr: 0x4F28C, symBinAddr: 0x4D69C, symSize: 0x1E }
  - { offset: 0x1E2F1C, size: 0x8, addend: 0x0, symName: '__ZN99_$LT$sqlite3_allocator..allocator..SQLite3Allocator$u20$as$u20$core..alloc..global..GlobalAlloc$GT$7dealloc17hf1a4f8c95ecba338E', symObjAddr: 0x4F28C, symBinAddr: 0x4D69C, symSize: 0x1E }
  - { offset: 0x15D59, size: 0x8, addend: 0x0, symName: __ZN4core3num7dec2flt5float8RawFloat14integer_decode17h7be26bdd9f1f0821E, symObjAddr: 0x3ACC, symBinAddr: 0x4054, symSize: 0x5B }
  - { offset: 0x15FCA, size: 0x8, addend: 0x0, symName: __ZN4core3num6bignum8Big32x4010mul_digits9mul_inner17hc5702f1d470c2affE, symObjAddr: 0x3F57, symBinAddr: 0x44D3, symSize: 0xD5 }
  - { offset: 0x16352, size: 0x8, addend: 0x0, symName: '__ZN62_$LT$core..num..bignum..Big32x40$u20$as$u20$core..cmp..Ord$GT$3cmp17h7f636e44ed4e1cd5E', symObjAddr: 0x4083, symBinAddr: 0x45FF, symSize: 0xAB }
  - { offset: 0x1671E, size: 0x8, addend: 0x0, symName: __ZN4core3num7dec2flt5float8RawFloat14integer_decode17h7be26bdd9f1f0821E, symObjAddr: 0x3ACC, symBinAddr: 0x4054, symSize: 0x5B }
  - { offset: 0x16F94, size: 0x8, addend: 0x0, symName: __ZN4core6option13unwrap_failed17h16aaa876cf427c11E, symObjAddr: 0x3B27, symBinAddr: 0x4E8B7, symSize: 0xC }
  - { offset: 0x175E5, size: 0x8, addend: 0x0, symName: '__ZN4core5array85_$LT$impl$u20$core..ops..index..Index$LT$I$GT$$u20$for$u20$$u5b$T$u3b$$u20$N$u5d$$GT$5index17h3008b6a8a541604aE', symObjAddr: 0x3BAB, symBinAddr: 0x4127, symSize: 0x1F }
  - { offset: 0x176AC, size: 0x8, addend: 0x0, symName: '__ZN4core5array88_$LT$impl$u20$core..ops..index..IndexMut$LT$I$GT$$u20$for$u20$$u5b$T$u3b$$u20$N$u5d$$GT$9index_mut17hcdf5a3f9946bd8b4E', symObjAddr: 0x3C6D, symBinAddr: 0x41E9, symSize: 0x1F }
  - { offset: 0x180E0, size: 0x8, addend: 0x0, symName: __ZN4core3num6bignum8Big32x408from_u6417hd0a10b1b1a0fead0E, symObjAddr: 0x3B33, symBinAddr: 0x40AF, symSize: 0x67 }
  - { offset: 0x18154, size: 0x8, addend: 0x0, symName: __ZN4core3num6bignum8Big32x406digits17hc13e68a7ce281c3aE, symObjAddr: 0x3B9A, symBinAddr: 0x4116, symSize: 0x11 }
  - { offset: 0x181CB, size: 0x8, addend: 0x0, symName: __ZN4core3num6bignum8Big32x403add17hb332d6a3dced4269E, symObjAddr: 0x3BCA, symBinAddr: 0x4146, symSize: 0xA3 }
  - { offset: 0x183FE, size: 0x8, addend: 0x0, symName: __ZN4core3num6bignum8Big32x403sub17hc9e9a7e9a1683657E, symObjAddr: 0x3C8C, symBinAddr: 0x4208, symSize: 0x91 }
  - { offset: 0x1863E, size: 0x8, addend: 0x0, symName: __ZN4core3num6bignum8Big32x409mul_small17hb667c965f223ba47E, symObjAddr: 0x3D1D, symBinAddr: 0x4299, symSize: 0x7A }
  - { offset: 0x187B3, size: 0x8, addend: 0x0, symName: __ZN4core3num6bignum8Big32x408mul_pow217h2fea8b41f4481f1dE, symObjAddr: 0x3D97, symBinAddr: 0x4313, symSize: 0x132 }
  - { offset: 0x18A39, size: 0x8, addend: 0x0, symName: __ZN4core3num6bignum8Big32x4010mul_digits17h641372b4844c5b6cE, symObjAddr: 0x3EC9, symBinAddr: 0x4445, symSize: 0x8E }
  - { offset: 0x18B6C, size: 0x8, addend: 0x0, symName: __ZN4core3num6bignum8Big32x4013div_rem_small17h177136aee8ccda97E, symObjAddr: 0x402C, symBinAddr: 0x45A8, symSize: 0x57 }
  - { offset: 0x1D7515, size: 0x8, addend: 0x0, symName: '__ZN4core3ptr73drop_in_place$LT$core..option..Option$LT$serde_json..value..Value$GT$$GT$17h3efe0525c8740783E', symObjAddr: 0x4E443, symBinAddr: 0x4C85F, symSize: 0x65 }
  - { offset: 0x1D7736, size: 0x8, addend: 0x0, symName: '__ZN4core3ptr73drop_in_place$LT$core..option..Option$LT$serde_json..value..Value$GT$$GT$17h3efe0525c8740783E', symObjAddr: 0x4E443, symBinAddr: 0x4C85F, symSize: 0x65 }
  - { offset: 0x44C3, size: 0x8, addend: 0x0, symName: '__ZN5alloc7raw_vec19RawVec$LT$T$C$A$GT$8grow_one17hf59d91998667b0c0E', symObjAddr: 0x560, symBinAddr: 0xBB0, symSize: 0x31 }
  - { offset: 0x535D, size: 0x8, addend: 0x0, symName: '__ZN5alloc7raw_vec20RawVecInner$LT$A$GT$7reserve21do_reserve_and_handle17h07a28f88fef19794E', symObjAddr: 0x7F0, symBinAddr: 0x4E860, symSize: 0x25 }
  - { offset: 0x54BC, size: 0x8, addend: 0x0, symName: __ZN5alloc7raw_vec12handle_error17hc856edd8423915ceE, symObjAddr: 0x66C, symBinAddr: 0x4E7E4, symSize: 0x13 }
  - { offset: 0x558B, size: 0x8, addend: 0x0, symName: __ZN5alloc7raw_vec11finish_grow17h261af35ce315723eE, symObjAddr: 0x67F, symBinAddr: 0x4E7F7, symSize: 0x67 }
  - { offset: 0x571B, size: 0x8, addend: 0x0, symName: '__ZN77_$LT$alloc..raw_vec..RawVec$LT$T$C$A$GT$$u20$as$u20$core..ops..drop..Drop$GT$4drop17hfec0419df909151cE', symObjAddr: 0x711, symBinAddr: 0xCE9, symSize: 0x17 }
  - { offset: 0x5C3D, size: 0x8, addend: 0x0, symName: '__ZN5alloc7raw_vec19RawVec$LT$T$C$A$GT$8grow_one17hf59d91998667b0c0E', symObjAddr: 0x560, symBinAddr: 0xBB0, symSize: 0x31 }
  - { offset: 0x5E7D, size: 0x8, addend: 0x0, symName: '__ZN5alloc7raw_vec20RawVecInner$LT$A$GT$14grow_amortized17h0657a7988f742020E', symObjAddr: 0x591, symBinAddr: 0xBE1, symSize: 0xDB }
  - { offset: 0x5ED4, size: 0x8, addend: 0x0, symName: '__ZN5alloc7raw_vec20RawVecInner$LT$A$GT$14grow_amortized17h0657a7988f742020E', symObjAddr: 0x591, symBinAddr: 0xBE1, symSize: 0xDB }
  - { offset: 0x636F, size: 0x8, addend: 0x0, symName: __ZN5alloc5alloc6Global10alloc_impl17h4efab93767e8c4e3E, symObjAddr: 0x6E6, symBinAddr: 0xCBE, symSize: 0x2B }
  - { offset: 0x640A, size: 0x8, addend: 0x0, symName: '__ZN5alloc7raw_vec20RawVecInner$LT$A$GT$10deallocate17hbe9d5591abdbbf26E', symObjAddr: 0x728, symBinAddr: 0xD00, symSize: 0x39 }
  - { offset: 0x652B, size: 0x8, addend: 0x0, symName: '__ZN5alloc7raw_vec20RawVecInner$LT$A$GT$15try_allocate_in17h0e3e35eb5b054055E', symObjAddr: 0x761, symBinAddr: 0xD39, symSize: 0x8F }
  - { offset: 0x1C233B, size: 0x8, addend: 0x0, symName: __ZN10serde_json2de12ParserNumber5visit17h3b4184339def5751E, symObjAddr: 0x4A743, symBinAddr: 0x4922B, symSize: 0x8F }
  - { offset: 0x1C2361, size: 0x8, addend: 0x0, symName: __ZN10serde_json2de5POW1017h13ebd3b6c88de782E, symObjAddr: 0x5D6B8, symBinAddr: 0x5BDE0, symSize: 0x0 }
  - { offset: 0x1C2941, size: 0x8, addend: 0x0, symName: '__ZN75_$LT$serde_json..de..SeqAccess$LT$R$GT$$u20$as$u20$serde..de..SeqAccess$GT$17next_element_seed16has_next_element17hc4d8c65075a3034dE', symObjAddr: 0x4B9F1, symBinAddr: 0x4A131, symSize: 0xEC }
  - { offset: 0x1C2DF3, size: 0x8, addend: 0x0, symName: '__ZN75_$LT$serde_json..de..MapAccess$LT$R$GT$$u20$as$u20$serde..de..MapAccess$GT$13next_key_seed17h81af06a042eafe06E', symObjAddr: 0x4C58E, symBinAddr: 0x4ACCE, symSize: 0xB0 }
  - { offset: 0x1C2FEB, size: 0x8, addend: 0x0, symName: '__ZN75_$LT$serde_json..de..MapAccess$LT$R$GT$$u20$as$u20$serde..de..MapAccess$GT$13next_key_seed12has_next_key17ha0eaf95e4675673eE', symObjAddr: 0x4C63E, symBinAddr: 0x4AD7E, symSize: 0x10E }
  - { offset: 0x1C3095, size: 0x8, addend: 0x0, symName: '__ZN75_$LT$serde_json..de..MapAccess$LT$R$GT$$u20$as$u20$serde..de..MapAccess$GT$15next_value_seed17h723f3b31c06b95faE', symObjAddr: 0x4C74C, symBinAddr: 0x4AE8C, symSize: 0x35 }
  - { offset: 0x1C321B, size: 0x8, addend: 0x0, symName: __ZN10serde_json2de8from_str17h6f2db961d8b7cfa2E, symObjAddr: 0x4C781, symBinAddr: 0x4AEC1, symSize: 0xAB }
  - { offset: 0x1C3992, size: 0x8, addend: 0x0, symName: '__ZN10serde_json5value2de77_$LT$impl$u20$serde..de..Deserialize$u20$for$u20$serde_json..value..Value$GT$11deserialize17hd182b02c0ab62cfeE', symObjAddr: 0x4BADD, symBinAddr: 0x4A21D, symSize: 0xAB1 }
  - { offset: 0x1C4D12, size: 0x8, addend: 0x0, symName: '__ZN4core3ptr45drop_in_place$LT$serde_json..value..Value$GT$17hae5f0c5040fae2bcE', symObjAddr: 0x4A7D2, symBinAddr: 0x492BA, symSize: 0x36 }
  - { offset: 0x1C4DD6, size: 0x8, addend: 0x0, symName: '__ZN4core3ptr68drop_in_place$LT$alloc..vec..Vec$LT$serde_json..value..Value$GT$$GT$17h2b212095bf451cacE', symObjAddr: 0x4A808, symBinAddr: 0x492F0, symSize: 0x20 }
  - { offset: 0x1C4EA1, size: 0x8, addend: 0x0, symName: '__ZN4core3ptr45drop_in_place$LT$serde_json..error..Error$GT$17h2275a9f754cfddf7E', symObjAddr: 0x4AE0B, symBinAddr: 0x49673, symSize: 0x2D }
  - { offset: 0x1C6881, size: 0x8, addend: 0x0, symName: __ZN10serde_json2de12ParserNumber5visit17h3b4184339def5751E, symObjAddr: 0x4A743, symBinAddr: 0x4922B, symSize: 0x8F }
  - { offset: 0x1C6A3E, size: 0x8, addend: 0x0, symName: __ZN10serde_json2de12ParserNumber12invalid_type17h99ed426451be9b69E, symObjAddr: 0x4A828, symBinAddr: 0x49310, symSize: 0x53 }
  - { offset: 0x1C6AC4, size: 0x8, addend: 0x0, symName: '__ZN10serde_json2de21Deserializer$LT$R$GT$3end17h6b7471aba873dcc5E', symObjAddr: 0x4A87B, symBinAddr: 0x49363, symSize: 0x4F }
  - { offset: 0x1C6B0B, size: 0x8, addend: 0x0, symName: '__ZN10serde_json2de21Deserializer$LT$R$GT$16parse_whitespace17h1f696050421f8f0eE', symObjAddr: 0x4A8CA, symBinAddr: 0x493B2, symSize: 0x4C }
  - { offset: 0x1C6C04, size: 0x8, addend: 0x0, symName: '__ZN10serde_json2de21Deserializer$LT$R$GT$10peek_error17hcf13fd896b7b8d61E', symObjAddr: 0x4A916, symBinAddr: 0x50386, symSize: 0x5F }
  - { offset: 0x1C6D2C, size: 0x8, addend: 0x0, symName: '__ZN10serde_json2de21Deserializer$LT$R$GT$9next_char17h32590ba6df36b8e0E', symObjAddr: 0x4A975, symBinAddr: 0x49401, symSize: 0x2F }
  - { offset: 0x1C6D50, size: 0x8, addend: 0x0, symName: '__ZN10serde_json2de21Deserializer$LT$R$GT$9next_char17h32590ba6df36b8e0E', symObjAddr: 0x4A975, symBinAddr: 0x49401, symSize: 0x2F }
  - { offset: 0x1C6D6D, size: 0x8, addend: 0x0, symName: '__ZN10serde_json2de21Deserializer$LT$R$GT$9next_char17h32590ba6df36b8e0E', symObjAddr: 0x4A975, symBinAddr: 0x49401, symSize: 0x2F }
  - { offset: 0x1C6DDF, size: 0x8, addend: 0x0, symName: '__ZN10serde_json2de21Deserializer$LT$R$GT$17next_char_or_null17h7c1ffb2ac936733dE', symObjAddr: 0x4A9A4, symBinAddr: 0x49430, symSize: 0x47 }
  - { offset: 0x1C6E43, size: 0x8, addend: 0x0, symName: '__ZN10serde_json2de21Deserializer$LT$R$GT$5error17h22b945748a202703E', symObjAddr: 0x4A9EB, symBinAddr: 0x503E7, symSize: 0x4A }
  - { offset: 0x1C6F9C, size: 0x8, addend: 0x0, symName: '__ZN10serde_json2de21Deserializer$LT$R$GT$17peek_invalid_type17h1356c4a5bce08f57E', symObjAddr: 0x4AA35, symBinAddr: 0x50431, symSize: 0x1DD }
  - { offset: 0x1C7364, size: 0x8, addend: 0x0, symName: '__ZN10serde_json2de21Deserializer$LT$R$GT$11parse_ident17hc9892b01efa04961E', symObjAddr: 0x4AC12, symBinAddr: 0x4947A, symSize: 0x83 }
  - { offset: 0x1C7444, size: 0x8, addend: 0x0, symName: '__ZN10serde_json2de21Deserializer$LT$R$GT$13parse_integer17hb9a6f443ebc20f2cE', symObjAddr: 0x4AC95, symBinAddr: 0x494FD, symSize: 0x176 }
  - { offset: 0x1C76F1, size: 0x8, addend: 0x0, symName: '__ZN10serde_json2de21Deserializer$LT$R$GT$12parse_number17h692ff0b53de2c26fE', symObjAddr: 0x4AE38, symBinAddr: 0x496A0, symSize: 0xC0 }
  - { offset: 0x1C77D3, size: 0x8, addend: 0x0, symName: '__ZN10serde_json2de21Deserializer$LT$R$GT$18parse_long_integer17hb19cc52f5bc2d809E', symObjAddr: 0x4AEF8, symBinAddr: 0x50610, symSize: 0x63 }
  - { offset: 0x1C7932, size: 0x8, addend: 0x0, symName: '__ZN10serde_json2de21Deserializer$LT$R$GT$14f64_from_parts17hcaf58a6792a62ab0E', symObjAddr: 0x4AF5B, symBinAddr: 0x49763, symSize: 0xCB }
  - { offset: 0x1C7A7D, size: 0x8, addend: 0x0, symName: '__ZN10serde_json2de21Deserializer$LT$R$GT$13parse_decimal17h03e2d1ed9024c1a8E', symObjAddr: 0x4B026, symBinAddr: 0x4982E, symSize: 0x11B }
  - { offset: 0x1C7CA8, size: 0x8, addend: 0x0, symName: '__ZN10serde_json2de21Deserializer$LT$R$GT$14parse_exponent17haca9aa30600ad8eeE', symObjAddr: 0x4B141, symBinAddr: 0x49949, symSize: 0x188 }
  - { offset: 0x1C802C, size: 0x8, addend: 0x0, symName: '__ZN10serde_json2de21Deserializer$LT$R$GT$23parse_exponent_overflow17hfb8df2f8f6517a71E', symObjAddr: 0x4B2C9, symBinAddr: 0x50675, symSize: 0x80 }
  - { offset: 0x1C8159, size: 0x8, addend: 0x0, symName: '__ZN10serde_json2de21Deserializer$LT$R$GT$22parse_decimal_overflow17h2b52c3ea636eb201E', symObjAddr: 0x4B349, symBinAddr: 0x506F5, symSize: 0x4B }
  - { offset: 0x1C8282, size: 0x8, addend: 0x0, symName: '__ZN10serde_json2de21Deserializer$LT$R$GT$18parse_object_colon17ha49b9500a5f2d2b6E', symObjAddr: 0x4B394, symBinAddr: 0x49AD4, symSize: 0x66 }
  - { offset: 0x1C8316, size: 0x8, addend: 0x0, symName: '__ZN10serde_json2de21Deserializer$LT$R$GT$7end_seq17haf6c06ccc53aa0dfE', symObjAddr: 0x4B3FA, symBinAddr: 0x49B3A, symSize: 0xD6 }
  - { offset: 0x1C8416, size: 0x8, addend: 0x0, symName: '__ZN10serde_json2de21Deserializer$LT$R$GT$7end_map17h47504cabae84678aE', symObjAddr: 0x4B4D0, symBinAddr: 0x49C10, symSize: 0x77 }
  - { offset: 0x1C849D, size: 0x8, addend: 0x0, symName: '__ZN10serde_json2de21Deserializer$LT$R$GT$12ignore_value17h5806fa5dcdd0397aE', symObjAddr: 0x4B547, symBinAddr: 0x49C87, symSize: 0x2A9 }
  - { offset: 0x1C8C24, size: 0x8, addend: 0x0, symName: '__ZN10serde_json2de21Deserializer$LT$R$GT$14ignore_integer17he6a19c377af51ce1E', symObjAddr: 0x4B7F0, symBinAddr: 0x49F30, symSize: 0x136 }
  - { offset: 0x1C8F7C, size: 0x8, addend: 0x0, symName: '__ZN5alloc3vec16Vec$LT$T$C$A$GT$3pop17h08dc5d7e454e9abfE', symObjAddr: 0x4B926, symBinAddr: 0x4A066, symSize: 0x27 }
  - { offset: 0x1C9039, size: 0x8, addend: 0x0, symName: '__ZN10serde_json2de21Deserializer$LT$R$GT$15ignore_exponent17h8634cc0499246ba1E', symObjAddr: 0x4B94D, symBinAddr: 0x4A08D, symSize: 0xA4 }
  - { offset: 0x1D9E59, size: 0x8, addend: 0x0, symName: '__ZN41_$LT$T$u20$as$u20$serde..de..Expected$GT$3fmt17h35707e68017edb6dE', symObjAddr: 0x4E552, symBinAddr: 0x4C96E, symSize: 0x23 }
  - { offset: 0x1DA023, size: 0x8, addend: 0x0, symName: '__ZN71_$LT$serde_json..raw..BoxedFromString$u20$as$u20$serde..de..Visitor$GT$9visit_str17h50f09a170b8eda68E', symObjAddr: 0x4F114, symBinAddr: 0x4D530, symSize: 0x32 }
  - { offset: 0x1DA0D2, size: 0x8, addend: 0x0, symName: '__ZN68_$LT$serde_json..raw..RawValue$u20$as$u20$alloc..borrow..ToOwned$GT$8to_owned17h4078a785ee22ba25E', symObjAddr: 0x4F06F, symBinAddr: 0x4D48B, symSize: 0x2A }
  - { offset: 0x1DA27F, size: 0x8, addend: 0x0, symName: '__ZN81_$LT$serde_json..raw..BorrowedRawDeserializer$u20$as$u20$serde..de..MapAccess$GT$13next_key_seed17hc9e201c1aef8dfa7E', symObjAddr: 0x4F0D1, symBinAddr: 0x4D4ED, symSize: 0x43 }
  - { offset: 0x1DB7CB, size: 0x8, addend: 0x0, symName: '__ZN4core3cmp5impls69_$LT$impl$u20$core..cmp..PartialEq$LT$$RF$B$GT$$u20$for$u20$$RF$A$GT$2eq17heeef82dd919990cfE', symObjAddr: 0x4F0C9, symBinAddr: 0x4D4E5, symSize: 0x8 }
  - { offset: 0x1DBAF6, size: 0x8, addend: 0x0, symName: '__ZN4core5slice3cmp56_$LT$impl$u20$core..cmp..Ord$u20$for$u20$$u5b$T$u5d$$GT$3cmp17h8f0eff8979b32c9fE', symObjAddr: 0x4E5DA, symBinAddr: 0x4C9F6, symSize: 0x35 }
  - { offset: 0x1DC3EB, size: 0x8, addend: 0x0, symName: '__ZN99_$LT$alloc..collections..btree..map..BTreeMap$LT$K$C$V$C$A$GT$$u20$as$u20$core..ops..drop..Drop$GT$4drop17h8d30023d366272efE', symObjAddr: 0x4EEB5, symBinAddr: 0x4D2D1, symSize: 0x1BA }
  - { offset: 0x1DDABA, size: 0x8, addend: 0x0, symName: '__ZN41_$LT$T$u20$as$u20$serde..de..Expected$GT$3fmt17h35707e68017edb6dE', symObjAddr: 0x4E552, symBinAddr: 0x4C96E, symSize: 0x23 }
  - { offset: 0x1DDB33, size: 0x8, addend: 0x0, symName: '__ZN41_$LT$T$u20$as$u20$serde..de..Expected$GT$3fmt17h6e33ae7f90b6c041E', symObjAddr: 0x4E575, symBinAddr: 0x4C991, symSize: 0x42 }
  - { offset: 0x1DDBAC, size: 0x8, addend: 0x0, symName: '__ZN41_$LT$T$u20$as$u20$serde..de..Expected$GT$3fmt17h989beb7ba4b4829aE', symObjAddr: 0x4E5B7, symBinAddr: 0x4C9D3, symSize: 0x23 }
  - { offset: 0x1DE031, size: 0x8, addend: 0x0, symName: '__ZN5alloc11collections5btree3map25BTreeMap$LT$K$C$V$C$A$GT$3get17h8d4afab479436a30E', symObjAddr: 0x4E60F, symBinAddr: 0x4CA2B, symSize: 0xB1 }
  - { offset: 0x1DE060, size: 0x8, addend: 0x0, symName: '__ZN5alloc11collections5btree3map25BTreeMap$LT$K$C$V$C$A$GT$3get17h8d4afab479436a30E', symObjAddr: 0x4E60F, symBinAddr: 0x4CA2B, symSize: 0xB1 }
  - { offset: 0x1DE67B, size: 0x8, addend: 0x0, symName: '__ZN5alloc11collections5btree3map25BTreeMap$LT$K$C$V$C$A$GT$6insert17h3110339e094aec31E', symObjAddr: 0x4E6C0, symBinAddr: 0x4CADC, symSize: 0x7D3 }
  - { offset: 0x1DFEA0, size: 0x8, addend: 0x0, symName: '__ZN5alloc11collections5btree8navigate142_$LT$impl$u20$alloc..collections..btree..node..NodeRef$LT$BorrowType$C$K$C$V$C$alloc..collections..btree..node..marker..LeafOrInternal$GT$$GT$15first_leaf_edge17h3d139015efa61a8eE', symObjAddr: 0x4EE93, symBinAddr: 0x4D2AF, symSize: 0x22 }
  - { offset: 0x1E034A, size: 0x8, addend: 0x0, symName: __ZN5alloc6string6String14into_boxed_str17h7c58f2b5cd8abf76E, symObjAddr: 0x4F099, symBinAddr: 0x4D4B5, symSize: 0x30 }
  - { offset: 0x8E47E, size: 0x8, addend: 0x0, symName: '__ZN41_$LT$T$u20$as$u20$serde..de..Expected$GT$3fmt17h250f26de0720c32cE', symObjAddr: 0xE898, symBinAddr: 0xEDA8, symSize: 0x23 }
  - { offset: 0x8E53B, size: 0x8, addend: 0x0, symName: '__ZN45_$LT$T$u20$as$u20$alloc..string..ToString$GT$9to_string17h8771d580f7c6dd16E', symObjAddr: 0x1179E, symBinAddr: 0x111CE, symSize: 0x1F2 }
  - { offset: 0x8F13E, size: 0x8, addend: 0x0, symName: '__ZN5alloc5slice29_$LT$impl$u20$$u5b$T$u5d$$GT$11sort_by_key28_$u7b$$u7b$closure$u7d$$u7d$17h36405ba234264c5cE', symObjAddr: 0xEB78, symBinAddr: 0xF088, symSize: 0xA }
  - { offset: 0x8FBEB, size: 0x8, addend: 0x0, symName: '__ZN4core3ptr45drop_in_place$LT$serde_json..value..Value$GT$17hb325770ff55d85fdE', symObjAddr: 0x1172C, symBinAddr: 0x1115C, symSize: 0x5F }
  - { offset: 0x8FC8D, size: 0x8, addend: 0x0, symName: '__ZN4core3ptr105drop_in_place$LT$core..option..Option$LT$$LP$alloc..string..String$C$serde_json..value..Value$RP$$GT$$GT$17h4ae873f81cba997cE', symObjAddr: 0x1178B, symBinAddr: 0x111BB, symSize: 0x13 }
  - { offset: 0x8FCBC, size: 0x8, addend: 0x0, symName: '__ZN4core3ptr77drop_in_place$LT$$LP$alloc..string..String$C$serde_json..value..Value$RP$$GT$17h689a2e97de22e0a1E', symObjAddr: 0x11990, symBinAddr: 0x113C0, symSize: 0x20 }
  - { offset: 0x8FE03, size: 0x8, addend: 0x0, symName: '__ZN4core3ptr57drop_in_place$LT$powersync_core..sync..line..SyncLine$GT$17h6b0e0417b42daffeE', symObjAddr: 0x119B0, symBinAddr: 0x113E0, symSize: 0x9A }
  - { offset: 0x90BA5, size: 0x8, addend: 0x0, symName: '__ZN4core3cmp5impls70_$LT$impl$u20$core..cmp..PartialOrd$LT$$RF$B$GT$$u20$for$u20$$RF$A$GT$2lt17hd8ed9f109ad94fbbE', symObjAddr: 0xEB44, symBinAddr: 0xF054, symSize: 0xE }
  - { offset: 0x94621, size: 0x8, addend: 0x0, symName: '__ZN4core5slice29_$LT$impl$u20$$u5b$T$u5d$$GT$7reverse17h7b21e4f94aea35c6E', symObjAddr: 0xEB02, symBinAddr: 0xF012, symSize: 0x42 }
  - { offset: 0x948F9, size: 0x8, addend: 0x0, symName: '__ZN108_$LT$core..ops..range..RangeTo$LT$usize$GT$$u20$as$u20$core..slice..index..SliceIndex$LT$$u5b$T$u5d$$GT$$GT$9index_mut17h1d81f18926cd94c1E', symObjAddr: 0xEB60, symBinAddr: 0xF070, symSize: 0x18 }
  - { offset: 0x94B1C, size: 0x8, addend: 0x0, symName: '__ZN110_$LT$core..ops..range..RangeFrom$LT$usize$GT$$u20$as$u20$core..slice..index..SliceIndex$LT$$u5b$T$u5d$$GT$$GT$9index_mut17hced40fb4f51e219eE', symObjAddr: 0xF0D7, symBinAddr: 0xF5E7, symSize: 0x1C }
  - { offset: 0x94C47, size: 0x8, addend: 0x0, symName: '__ZN110_$LT$core..ops..range..RangeFrom$LT$usize$GT$$u20$as$u20$core..slice..index..SliceIndex$LT$$u5b$T$u5d$$GT$$GT$9index_mut17h708ca42bd92ef12bE', symObjAddr: 0xF650, symBinAddr: 0xFB60, symSize: 0x22 }
  - { offset: 0x94DD7, size: 0x8, addend: 0x0, symName: __ZN4core5slice4sort6stable5drift16stable_quicksort17h71f298877c100e53E, symObjAddr: 0xEB82, symBinAddr: 0xF092, symSize: 0x23 }
  - { offset: 0x94ED8, size: 0x8, addend: 0x0, symName: __ZN4core5slice4sort6stable5drift16stable_quicksort17h7d02212c8887652aE, symObjAddr: 0xEBA5, symBinAddr: 0xF0B5, symSize: 0x23 }
  - { offset: 0x94FD9, size: 0x8, addend: 0x0, symName: __ZN4core5slice4sort6stable5drift16stable_quicksort17h975bfbd8e64c7924E, symObjAddr: 0xEBC8, symBinAddr: 0xF0D8, symSize: 0x23 }
  - { offset: 0x950DA, size: 0x8, addend: 0x0, symName: __ZN4core5slice4sort6stable5drift16stable_quicksort17ha42b532d28d512c6E, symObjAddr: 0xEBEB, symBinAddr: 0xF0FB, symSize: 0x23 }
  - { offset: 0x953C4, size: 0x8, addend: 0x0, symName: __ZN4core5slice4sort6stable5drift4sort17h418974d615f3fb82E, symObjAddr: 0xEC0E, symBinAddr: 0xF11E, symSize: 0x4C9 }
  - { offset: 0x95F2B, size: 0x8, addend: 0x0, symName: __ZN4core5slice4sort6stable5drift4sort17h490ed9587a9a1182E, symObjAddr: 0xF0F3, symBinAddr: 0xF603, symSize: 0x55D }
  - { offset: 0x96D81, size: 0x8, addend: 0x0, symName: __ZN4core5slice4sort6stable5drift4sort17h8975615b4c1f8f72E, symObjAddr: 0xF672, symBinAddr: 0xFB82, symSize: 0x4C9 }
  - { offset: 0x978E8, size: 0x8, addend: 0x0, symName: __ZN4core5slice4sort6stable5drift4sort17hc5b7360eb7b8dc0bE, symObjAddr: 0xFB3B, symBinAddr: 0x1004B, symSize: 0x4C9 }
  - { offset: 0x98583, size: 0x8, addend: 0x0, symName: __ZN4core3ops8function5FnMut8call_mut17hd00f3dbf8e37b419E, symObjAddr: 0xEB52, symBinAddr: 0xF062, symSize: 0xE }
  - { offset: 0x9932A, size: 0x8, addend: 0x0, symName: '__ZN99_$LT$powersync_core..sync..line..StreamSubscriptionErrorCause$u20$as$u20$serde..de..Deserialize$GT$11deserialize17hc18fc2d2cf09ee4fE', symObjAddr: 0x14C90, symBinAddr: 0x146C0, symSize: 0x228 }
  - { offset: 0x995C9, size: 0x8, addend: 0x0, symName: '__ZN99_$LT$powersync_core..sync..line..StreamSubscriptionErrorCause$u20$as$u20$serde..de..Deserialize$GT$11deserialize17heef07bb218f96672E', symObjAddr: 0x14EB8, symBinAddr: 0x148E8, symSize: 0x28C }
  - { offset: 0x99CBC, size: 0x8, addend: 0x0, symName: '__ZN189_$LT$powersync_core..sync..line.._..$LT$impl$u20$serde..de..Deserialize$u20$for$u20$powersync_core..sync..line..Checkpoint$GT$..deserialize..__FieldVisitor$u20$as$u20$serde..de..Visitor$GT$9visit_str17h129e9e77863c209cE', symObjAddr: 0x15A0A, symBinAddr: 0x1543A, symSize: 0xA1 }
  - { offset: 0x99E95, size: 0x8, addend: 0x0, symName: '__ZN196_$LT$powersync_core..sync..line.._..$LT$impl$u20$serde..de..Deserialize$u20$for$u20$powersync_core..sync..line..StreamDescription$GT$..deserialize..__FieldVisitor$u20$as$u20$serde..de..Visitor$GT$9visit_str17h4af107478956b799E', symObjAddr: 0x15AAB, symBinAddr: 0x154DB, symSize: 0x82 }
  - { offset: 0x9A00A, size: 0x8, addend: 0x0, symName: '__ZN202_$LT$powersync_core..sync..line.._..$LT$impl$u20$serde..de..Deserialize$u20$for$u20$powersync_core..sync..line..StreamSubscriptionError$GT$..deserialize..__FieldVisitor$u20$as$u20$serde..de..Visitor$GT$9visit_str17h6cd6fec170683383E', symObjAddr: 0x15B2D, symBinAddr: 0x1555D, symSize: 0x63 }
  - { offset: 0x9A11B, size: 0x8, addend: 0x0, symName: '__ZN193_$LT$powersync_core..sync..line.._..$LT$impl$u20$serde..de..Deserialize$u20$for$u20$powersync_core..sync..line..CheckpointDiff$GT$..deserialize..__FieldVisitor$u20$as$u20$serde..de..Visitor$GT$9visit_str17hbf1cfd5b805be972E', symObjAddr: 0x15B90, symBinAddr: 0x155C0, symSize: 0xA1 }
  - { offset: 0x9A2F4, size: 0x8, addend: 0x0, symName: '__ZN206_$LT$powersync_core..sync..line.._..$LT$impl$u20$serde..de..Deserialize$u20$for$u20$powersync_core..sync..line..CheckpointPartiallyComplete$GT$..deserialize..__FieldVisitor$u20$as$u20$serde..de..Visitor$GT$9visit_str17hab14343650931d86E', symObjAddr: 0x15C31, symBinAddr: 0x15661, symSize: 0x30 }
  - { offset: 0x9A3A1, size: 0x8, addend: 0x0, symName: '__ZN193_$LT$powersync_core..sync..line.._..$LT$impl$u20$serde..de..Deserialize$u20$for$u20$powersync_core..sync..line..BucketChecksum$GT$..deserialize..__FieldVisitor$u20$as$u20$serde..de..Visitor$GT$9visit_str17h60ba1d6aac8a2411E', symObjAddr: 0x15C61, symBinAddr: 0x15691, symSize: 0xC3 }
  - { offset: 0x9A616, size: 0x8, addend: 0x0, symName: '__ZN187_$LT$powersync_core..sync..line.._..$LT$impl$u20$serde..de..Deserialize$u20$for$u20$powersync_core..sync..line..DataLine$GT$..deserialize..__FieldVisitor$u20$as$u20$serde..de..Visitor$GT$9visit_str17h3227384f73366913E', symObjAddr: 0x1650A, symBinAddr: 0x15F3A, symSize: 0x63 }
  - { offset: 0x9A729, size: 0x8, addend: 0x0, symName: '__ZN189_$LT$powersync_core..sync..line.._..$LT$impl$u20$serde..de..Deserialize$u20$for$u20$powersync_core..sync..line..OplogEntry$GT$..deserialize..__FieldVisitor$u20$as$u20$serde..de..Visitor$GT$9visit_str17h423feb3ae27d2a5fE', symObjAddr: 0x1656D, symBinAddr: 0x15F9D, symSize: 0x107 }
  - { offset: 0x9AA75, size: 0x8, addend: 0x0, symName: '__ZN185_$LT$powersync_core..sync..line.._..$LT$impl$u20$serde..de..Deserialize$u20$for$u20$powersync_core..sync..line..OpType$GT$..deserialize..__FieldVisitor$u20$as$u20$serde..de..Visitor$GT$9visit_str17h6680a96887ebd638E', symObjAddr: 0x16F0C, symBinAddr: 0x1693C, symSize: 0xB9 }
  - { offset: 0x9AC56, size: 0x8, addend: 0x0, symName: '__ZN185_$LT$powersync_core..sync..line.._..$LT$impl$u20$serde..de..Deserialize$u20$for$u20$powersync_core..sync..line..OpType$GT$..deserialize..__FieldVisitor$u20$as$u20$serde..de..Visitor$GT$11visit_bytes17he1fa7a20391f96bbE', symObjAddr: 0x16FC5, symBinAddr: 0x169F5, symSize: 0x23F }
  - { offset: 0x9BFF1, size: 0x8, addend: 0x0, symName: '__ZN14powersync_core4sync4line1_91_$LT$impl$u20$serde..de..Deserialize$u20$for$u20$powersync_core..sync..line..Checkpoint$GT$11deserialize17h68431794bc365eb1E', symObjAddr: 0x15144, symBinAddr: 0x14B74, symSize: 0x8C6 }
  - { offset: 0x9CA3C, size: 0x8, addend: 0x0, symName: '__ZN14powersync_core4sync4line1_89_$LT$impl$u20$serde..de..Deserialize$u20$for$u20$powersync_core..sync..line..DataLine$GT$11deserialize17h7aee7edf366f371aE', symObjAddr: 0x15D24, symBinAddr: 0x15754, symSize: 0x7E6 }
  - { offset: 0x9D0D1, size: 0x8, addend: 0x0, symName: '__ZN14powersync_core4sync4line1_87_$LT$impl$u20$serde..de..Deserialize$u20$for$u20$powersync_core..sync..line..OpType$GT$11deserialize17h07af07717578b5f5E', symObjAddr: 0x16674, symBinAddr: 0x160A4, symSize: 0x698 }
  - { offset: 0x9D919, size: 0x8, addend: 0x0, symName: '__ZN14powersync_core4sync4line1_87_$LT$impl$u20$serde..de..Deserialize$u20$for$u20$powersync_core..sync..line..OpType$GT$11deserialize17hcf5e01437d667234E', symObjAddr: 0x16D0C, symBinAddr: 0x1673C, symSize: 0x200 }
  - { offset: 0x9DF64, size: 0x8, addend: 0x0, symName: '__ZN147_$LT$$LT$powersync_core..sync..line..SyncLine$u20$as$u20$serde..de..Deserialize$GT$..deserialize..SyncLineVisitor$u20$as$u20$serde..de..Visitor$GT$10visit_enum17h037c5b61fcd1aad8E', symObjAddr: 0x11A4A, symBinAddr: 0x1147A, symSize: 0x3246 }
  - { offset: 0xA3826, size: 0x8, addend: 0x0, symName: __ZN14powersync_core4diff14powersync_diff17hfd5d571db146797aE, symObjAddr: 0x10AE4, symBinAddr: 0x10514, symSize: 0xC03 }
  - { offset: 0xA52DB, size: 0x8, addend: 0x0, symName: __ZN5serde2de7Visitor10visit_bool17h7fe79a118071fe68E, symObjAddr: 0x10004, symBinAddr: 0x4E93C, symSize: 0x39 }
  - { offset: 0xA532B, size: 0x8, addend: 0x0, symName: __ZN5serde2de7Visitor11visit_bytes17h06f4479facf3574dE, symObjAddr: 0x1003D, symBinAddr: 0x4E975, symSize: 0x43 }
  - { offset: 0xA537B, size: 0x8, addend: 0x0, symName: __ZN5serde2de7Visitor11visit_bytes17h08ba472077af66c9E, symObjAddr: 0x10080, symBinAddr: 0x4E9B8, symSize: 0x3D }
  - { offset: 0xA53CB, size: 0x8, addend: 0x0, symName: __ZN5serde2de7Visitor11visit_bytes17h1258465743665b28E, symObjAddr: 0x100BD, symBinAddr: 0x4E9F5, symSize: 0x30 }
  - { offset: 0xA541B, size: 0x8, addend: 0x0, symName: __ZN5serde2de7Visitor11visit_bytes17h4790f976b9ac1b22E, symObjAddr: 0x100ED, symBinAddr: 0x4EA25, symSize: 0x3D }
  - { offset: 0xA546B, size: 0x8, addend: 0x0, symName: __ZN5serde2de7Visitor11visit_bytes17h6ff54f606de21da3E, symObjAddr: 0x1012A, symBinAddr: 0x4EA62, symSize: 0x3D }
  - { offset: 0xA54BB, size: 0x8, addend: 0x0, symName: __ZN5serde2de7Visitor11visit_bytes17h77647cd9aa3e886dE, symObjAddr: 0x10167, symBinAddr: 0x4EA9F, symSize: 0x3D }
  - { offset: 0xA550B, size: 0x8, addend: 0x0, symName: __ZN5serde2de7Visitor11visit_bytes17h79a6d039aa951c6eE, symObjAddr: 0x101A4, symBinAddr: 0x4EADC, symSize: 0x43 }
  - { offset: 0xA555B, size: 0x8, addend: 0x0, symName: __ZN5serde2de7Visitor11visit_bytes17h970942b3853e462cE, symObjAddr: 0x101E7, symBinAddr: 0x4EB1F, symSize: 0x3C }
  - { offset: 0xA55AB, size: 0x8, addend: 0x0, symName: __ZN5serde2de7Visitor11visit_bytes17hb08055d6967efbdaE, symObjAddr: 0x10223, symBinAddr: 0x4EB5B, symSize: 0x3C }
  - { offset: 0xA55FB, size: 0x8, addend: 0x0, symName: __ZN5serde2de7Visitor11visit_bytes17hbe692d280ec87ba4E, symObjAddr: 0x1025F, symBinAddr: 0x4EB97, symSize: 0x39 }
  - { offset: 0xA564B, size: 0x8, addend: 0x0, symName: __ZN5serde2de7Visitor11visit_bytes17he62c664d6aceb80fE, symObjAddr: 0x10298, symBinAddr: 0x4EBD0, symSize: 0x43 }
  - { offset: 0xA569B, size: 0x8, addend: 0x0, symName: __ZN5serde2de7Visitor11visit_bytes17heb18c1763e1a20feE, symObjAddr: 0x102DB, symBinAddr: 0x4EC13, symSize: 0x3D }
  - { offset: 0xA56EB, size: 0x8, addend: 0x0, symName: __ZN5serde2de7Visitor11visit_bytes17hf28a15f6294a4402E, symObjAddr: 0x10318, symBinAddr: 0x4EC50, symSize: 0x3D }
  - { offset: 0xA573B, size: 0x8, addend: 0x0, symName: __ZN5serde2de7Visitor9visit_i6417hd1276217c4c432d5E, symObjAddr: 0x10355, symBinAddr: 0x4EC8D, symSize: 0x35 }
  - { offset: 0xA578B, size: 0x8, addend: 0x0, symName: __ZN5serde2de7Visitor9visit_i6417h6c84c46c7c276e1eE, symObjAddr: 0x1038A, symBinAddr: 0x4ECC2, symSize: 0x35 }
  - { offset: 0xA57DB, size: 0x8, addend: 0x0, symName: __ZN5serde2de7Visitor9visit_i6417he52f37bbdc884375E, symObjAddr: 0x103BF, symBinAddr: 0x4ECF7, symSize: 0x35 }
  - { offset: 0xA582B, size: 0x8, addend: 0x0, symName: __ZN5serde2de7Visitor9visit_i6417h5d85ceb93645992aE, symObjAddr: 0x103F4, symBinAddr: 0x4ED2C, symSize: 0x35 }
  - { offset: 0xA587B, size: 0x8, addend: 0x0, symName: __ZN5serde2de7Visitor9visit_i6417hd1ab3305092012b4E, symObjAddr: 0x10429, symBinAddr: 0x4ED61, symSize: 0x3F }
  - { offset: 0xA58CB, size: 0x8, addend: 0x0, symName: __ZN5serde2de7Visitor9visit_i6417h2931d0d4e4657345E, symObjAddr: 0x10468, symBinAddr: 0x4EDA0, symSize: 0x35 }
  - { offset: 0xA591B, size: 0x8, addend: 0x0, symName: __ZN5serde2de7Visitor9visit_i6417h8140b05e57d7ceb4E, symObjAddr: 0x1049D, symBinAddr: 0x4EDD5, symSize: 0x35 }
  - { offset: 0xA596B, size: 0x8, addend: 0x0, symName: __ZN5serde2de7Visitor9visit_i6417ha72512444a426d81E, symObjAddr: 0x104D2, symBinAddr: 0x4EE0A, symSize: 0x39 }
  - { offset: 0xA59BB, size: 0x8, addend: 0x0, symName: __ZN5serde2de7Visitor9visit_i6417h31dc467cea74673eE, symObjAddr: 0x1050B, symBinAddr: 0x4EE43, symSize: 0x39 }
  - { offset: 0xA5A0B, size: 0x8, addend: 0x0, symName: __ZN5serde2de7Visitor9visit_i6417h0c1516c9572287d5E, symObjAddr: 0x10544, symBinAddr: 0x4EE7C, symSize: 0x2C }
  - { offset: 0xA5A5B, size: 0x8, addend: 0x0, symName: __ZN5serde2de7Visitor9visit_i6417h97784e8b683efc78E, symObjAddr: 0x10570, symBinAddr: 0x4EEA8, symSize: 0x2C }
  - { offset: 0xA5AAB, size: 0x8, addend: 0x0, symName: __ZN5serde2de7Visitor9visit_i6417h4573a5300bbe928fE, symObjAddr: 0x1059C, symBinAddr: 0x4EED4, symSize: 0x35 }
  - { offset: 0xA5AFB, size: 0x8, addend: 0x0, symName: __ZN5serde2de7Visitor9visit_i6417hca6a53d66ce54a91E, symObjAddr: 0x105D1, symBinAddr: 0x4EF09, symSize: 0x38 }
  - { offset: 0xA5B4B, size: 0x8, addend: 0x0, symName: __ZN5serde2de7Visitor9visit_i6417heb3a15b9091ce331E, symObjAddr: 0x10609, symBinAddr: 0x4EF41, symSize: 0x35 }
  - { offset: 0xA5B9C, size: 0x8, addend: 0x0, symName: __ZN5serde2de7Visitor9visit_i6417h025f2d9555ef2065E, symObjAddr: 0x1063E, symBinAddr: 0x4EF76, symSize: 0x35 }
  - { offset: 0xA5BEC, size: 0x8, addend: 0x0, symName: __ZN5serde2de7Visitor9visit_i6417hb3b5ca2b298442e2E, symObjAddr: 0x10673, symBinAddr: 0x4EFAB, symSize: 0x38 }
  - { offset: 0xA5C3C, size: 0x8, addend: 0x0, symName: __ZN5serde2de7Visitor9visit_i6417haaf24e2c11834671E, symObjAddr: 0x106AB, symBinAddr: 0x4EFE3, symSize: 0x3F }
  - { offset: 0xA5C8C, size: 0x8, addend: 0x0, symName: __ZN5serde2de7Visitor9visit_i6417h6e2135a17fb5a311E, symObjAddr: 0x106EA, symBinAddr: 0x4F022, symSize: 0x39 }
  - { offset: 0xA5CDC, size: 0x8, addend: 0x0, symName: __ZN5serde2de7Visitor9visit_i6417hf3b29dc7b80e92e5E, symObjAddr: 0x10723, symBinAddr: 0x4F05B, symSize: 0x35 }
  - { offset: 0xA5D2C, size: 0x8, addend: 0x0, symName: __ZN5serde2de7Visitor9visit_i6417hb63fa2b1e8e7cfeeE, symObjAddr: 0x10758, symBinAddr: 0x4F090, symSize: 0x39 }
  - { offset: 0xA5D7C, size: 0x8, addend: 0x0, symName: __ZN5serde2de7Visitor9visit_i6417h665dfeaab321b601E, symObjAddr: 0x10791, symBinAddr: 0x4F0C9, symSize: 0x3F }
  - { offset: 0xA5DCC, size: 0x8, addend: 0x0, symName: __ZN5serde2de7Visitor9visit_i6417ha526d008aff044aaE, symObjAddr: 0x107D0, symBinAddr: 0x4F108, symSize: 0x39 }
  - { offset: 0xA5E1C, size: 0x8, addend: 0x0, symName: __ZN5serde2de7Visitor9visit_str17h0b20de8030be85c9E, symObjAddr: 0x10809, symBinAddr: 0x4F141, symSize: 0x3D }
  - { offset: 0xA5E6C, size: 0x8, addend: 0x0, symName: __ZN5serde2de7Visitor9visit_str17h308d6b63d55a3cd4E, symObjAddr: 0x10846, symBinAddr: 0x4F17E, symSize: 0x3C }
  - { offset: 0xA5EBC, size: 0x8, addend: 0x0, symName: __ZN5serde2de7Visitor9visit_str17h62a954e1b2cb5be5E, symObjAddr: 0x10882, symBinAddr: 0x4F1BA, symSize: 0x43 }
  - { offset: 0xA5F0C, size: 0x8, addend: 0x0, symName: __ZN5serde2de7Visitor9visit_str17h6f80e57bfb0a3aa9E, symObjAddr: 0x108C5, symBinAddr: 0x4F1FD, symSize: 0x3D }
  - { offset: 0xA5F5C, size: 0x8, addend: 0x0, symName: __ZN5serde2de7Visitor9visit_str17h7df9646d66d03d7dE, symObjAddr: 0x10902, symBinAddr: 0x4F23A, symSize: 0x43 }
  - { offset: 0xA5FAC, size: 0x8, addend: 0x0, symName: __ZN5serde2de7Visitor9visit_str17h92ff8011088eaa2cE, symObjAddr: 0x10945, symBinAddr: 0x4F27D, symSize: 0x3C }
  - { offset: 0xA5FFC, size: 0x8, addend: 0x0, symName: __ZN5serde2de7Visitor9visit_str17hba3dd15e9c7d7c9bE, symObjAddr: 0x10981, symBinAddr: 0x4F2B9, symSize: 0x3D }
  - { offset: 0xA604C, size: 0x8, addend: 0x0, symName: __ZN5serde2de7Visitor9visit_str17hc268180c48d9fffcE, symObjAddr: 0x109BE, symBinAddr: 0x4F2F6, symSize: 0x39 }
  - { offset: 0xA609C, size: 0x8, addend: 0x0, symName: __ZN5serde2de7Visitor9visit_str17hc3d2116ff3622059E, symObjAddr: 0x109F7, symBinAddr: 0x4F32F, symSize: 0x30 }
  - { offset: 0xA60EC, size: 0x8, addend: 0x0, symName: __ZN5serde2de7Visitor9visit_str17hda7f34464fe28e5cE, symObjAddr: 0x10A27, symBinAddr: 0x4F35F, symSize: 0x3D }
  - { offset: 0xA613C, size: 0x8, addend: 0x0, symName: __ZN5serde2de7Visitor9visit_str17he2cc6bd92f778f98E, symObjAddr: 0x10A64, symBinAddr: 0x4F39C, symSize: 0x43 }
  - { offset: 0xA618C, size: 0x8, addend: 0x0, symName: __ZN5serde2de7Visitor9visit_str17hfb719435778f7513E, symObjAddr: 0x10AA7, symBinAddr: 0x4F3DF, symSize: 0x3D }
  - { offset: 0xA7F3E, size: 0x8, addend: 0x0, symName: '__ZN41_$LT$T$u20$as$u20$serde..de..Expected$GT$3fmt17h250f26de0720c32cE', symObjAddr: 0xE898, symBinAddr: 0xEDA8, symSize: 0x23 }
  - { offset: 0xA7FB7, size: 0x8, addend: 0x0, symName: '__ZN41_$LT$T$u20$as$u20$serde..de..Expected$GT$3fmt17h2852f918634cca1cE', symObjAddr: 0xE8BB, symBinAddr: 0xEDCB, symSize: 0x23 }
  - { offset: 0xA802F, size: 0x8, addend: 0x0, symName: '__ZN41_$LT$T$u20$as$u20$serde..de..Expected$GT$3fmt17h28c03350e8b7af9bE', symObjAddr: 0xE8DE, symBinAddr: 0xEDEE, symSize: 0x23 }
  - { offset: 0xA80A7, size: 0x8, addend: 0x0, symName: '__ZN41_$LT$T$u20$as$u20$serde..de..Expected$GT$3fmt17h2b591a68711343b4E', symObjAddr: 0xE901, symBinAddr: 0xEE11, symSize: 0x23 }
  - { offset: 0xA8120, size: 0x8, addend: 0x0, symName: '__ZN41_$LT$T$u20$as$u20$serde..de..Expected$GT$3fmt17h2dd3a452a25cd554E', symObjAddr: 0xE924, symBinAddr: 0xEE34, symSize: 0x23 }
  - { offset: 0xA8199, size: 0x8, addend: 0x0, symName: '__ZN41_$LT$T$u20$as$u20$serde..de..Expected$GT$3fmt17h4138517beae78cbaE', symObjAddr: 0xE947, symBinAddr: 0xEE57, symSize: 0x23 }
  - { offset: 0xA8211, size: 0x8, addend: 0x0, symName: '__ZN41_$LT$T$u20$as$u20$serde..de..Expected$GT$3fmt17h64bf85e2c2d192c9E', symObjAddr: 0xE96A, symBinAddr: 0xEE7A, symSize: 0x23 }
  - { offset: 0xA8289, size: 0x8, addend: 0x0, symName: '__ZN41_$LT$T$u20$as$u20$serde..de..Expected$GT$3fmt17h8df4b9abd0a7843bE', symObjAddr: 0xE98D, symBinAddr: 0xEE9D, symSize: 0x42 }
  - { offset: 0xA8301, size: 0x8, addend: 0x0, symName: '__ZN41_$LT$T$u20$as$u20$serde..de..Expected$GT$3fmt17h987b904e49313fafE', symObjAddr: 0xE9CF, symBinAddr: 0xEEDF, symSize: 0x42 }
  - { offset: 0xA8379, size: 0x8, addend: 0x0, symName: '__ZN41_$LT$T$u20$as$u20$serde..de..Expected$GT$3fmt17hcaed3ee967495758E', symObjAddr: 0xEA11, symBinAddr: 0xEF21, symSize: 0x23 }
  - { offset: 0xA83F1, size: 0x8, addend: 0x0, symName: '__ZN41_$LT$T$u20$as$u20$serde..de..Expected$GT$3fmt17hcca42a0e5b7ed07bE', symObjAddr: 0xEA34, symBinAddr: 0xEF44, symSize: 0x42 }
  - { offset: 0xA8469, size: 0x8, addend: 0x0, symName: '__ZN41_$LT$T$u20$as$u20$serde..de..Expected$GT$3fmt17hcda3a981f21c5213E', symObjAddr: 0xEA76, symBinAddr: 0xEF86, symSize: 0x23 }
  - { offset: 0xA84E1, size: 0x8, addend: 0x0, symName: '__ZN41_$LT$T$u20$as$u20$serde..de..Expected$GT$3fmt17hd6086ff3e13be1e6E', symObjAddr: 0xEA99, symBinAddr: 0xEFA9, symSize: 0x23 }
  - { offset: 0xA8559, size: 0x8, addend: 0x0, symName: '__ZN41_$LT$T$u20$as$u20$serde..de..Expected$GT$3fmt17hda1b4adf3a5ac84cE', symObjAddr: 0xEABC, symBinAddr: 0xEFCC, symSize: 0x23 }
  - { offset: 0xA85D1, size: 0x8, addend: 0x0, symName: '__ZN41_$LT$T$u20$as$u20$serde..de..Expected$GT$3fmt17hdbf634aa5a9b18e5E', symObjAddr: 0xEADF, symBinAddr: 0xEFEF, symSize: 0x23 }
  - { offset: 0xAA233, size: 0x8, addend: 0x0, symName: '__ZN4core6result19Result$LT$T$C$E$GT$7map_err17h7f9e7cd569529fa6E', symObjAddr: 0x116E7, symBinAddr: 0x11117, symSize: 0x45 }
  - { offset: 0x1F05C9, size: 0x8, addend: 0x0, symName: __ZN17compiler_builtins3int6traits4DInt10from_lo_hi17h8b807a248a4af038E, symObjAddr: 0x62, symBinAddr: 0x4E72B, symSize: 0xC }
  - { offset: 0x1F0613, size: 0x8, addend: 0x0, symName: '__ZN59_$LT$u64$u20$as$u20$compiler_builtins..int..traits..Int$GT$11logical_shr17h184448479cd24a2cE', symObjAddr: 0x6FD, symBinAddr: 0x4E737, symSize: 0xE }
  - { offset: 0x1F068B, size: 0x8, addend: 0x0, symName: '__ZN59_$LT$u64$u20$as$u20$compiler_builtins..int..traits..Int$GT$12wrapping_shl17h56f051680cb05d89E', symObjAddr: 0x73A, symBinAddr: 0x4E745, symSize: 0xE }
  - { offset: 0x1F085B, size: 0x8, addend: 0x0, symName: __ZN17compiler_builtins3int5shift4Lshr4lshr17ha165374624d70a20E, symObjAddr: 0x7C8, symBinAddr: 0x4E753, symSize: 0x7C }
  - { offset: 0x1F0902, size: 0x8, addend: 0x0, symName: __ZN17compiler_builtins3int5shift9__lshrti317hb3f60c78ade45543E, symObjAddr: 0xE95, symBinAddr: 0x4E7CF, symSize: 0xA }
  - { offset: 0x1F0A5C, size: 0x8, addend: 0x0, symName: ___lshrti3, symObjAddr: 0xEF, symBinAddr: 0x4E7D9, symSize: 0xA }
...
