---
triple:          'arm64-apple-darwin'
binary-path:     './build/ios-arm64/powersync-sqlite-core.framework/powersync-sqlite-core'
relocations:
  - { offset: 0x30, size: 0x8, addend: 0x0, symName: _rust_eh_personality, symObjAddr: 0x0, symBinAddr: 0x4000, symSize: 0x4 }
  - { offset: 0x4E, size: 0x8, addend: 0x0, symName: __RNvCsk8UOdKf0bkt_7___rustc14___rust_realloc, symObjAddr: 0x4, symBinAddr: 0x4004, symSize: 0x44 }
  - { offset: 0x9F1, size: 0x8, addend: 0x0, symName: _OUTLINED_FUNCTION_78, symObjAddr: 0x3B698, symBinAddr: 0x3DBD8, symSize: 0xC }
  - { offset: 0xA08, size: 0x8, addend: 0x0, symName: _OUTLINED_FUNCTION_87, symObjAddr: 0x3B760, symBinAddr: 0x3DCA0, symSize: 0xC }
  - { offset: 0xA1F, size: 0x8, addend: 0x0, symName: _OUTLINED_FUNCTION_605, symObjAddr: 0x3D5FC, symBinAddr: 0x3FB3C, symSize: 0x8 }
  - { offset: 0xA36, size: 0x8, addend: 0x0, symName: _OUTLINED_FUNCTION_642, symObjAddr: 0x3D874, symBinAddr: 0x3FDB4, symSize: 0xC }
  - { offset: 0x7DB0, size: 0x8, addend: 0x0, symName: '__ZN4core3fmt3num53_$LT$impl$u20$core..fmt..LowerHex$u20$for$u20$u32$GT$3fmt17h2656de12fd389fb3E', symObjAddr: 0x924, symBinAddr: 0x4888, symSize: 0x84 }
  - { offset: 0x7F0F, size: 0x8, addend: 0x0, symName: '__ZN4core3fmt3num53_$LT$impl$u20$core..fmt..LowerHex$u20$for$u20$u32$GT$3fmt17h2656de12fd389fb3E', symObjAddr: 0x924, symBinAddr: 0x4888, symSize: 0x84 }
  - { offset: 0xCB96E, size: 0x8, addend: 0x0, symName: __ZN5serde2de7Visitor11visit_bytes17he7af2609702f0c3eE, symObjAddr: 0x15F40, symBinAddr: 0x42698, symSize: 0x2C }
  - { offset: 0xCB9BF, size: 0x8, addend: 0x0, symName: __ZN5serde2de7Visitor9visit_str17hce9cca6a0b90b7f9E, symObjAddr: 0x15F6C, symBinAddr: 0x426C4, symSize: 0x2C }
  - { offset: 0xCBBEB, size: 0x8, addend: 0x0, symName: '__ZN41_$LT$T$u20$as$u20$serde..de..Expected$GT$3fmt17h2a84585df6220c29E', symObjAddr: 0x15ED4, symBinAddr: 0x193EC, symSize: 0x18 }
  - { offset: 0xCBC64, size: 0x8, addend: 0x0, symName: '__ZN41_$LT$T$u20$as$u20$serde..de..Expected$GT$3fmt17h9f2397cca8cdd0e3E', symObjAddr: 0x15EEC, symBinAddr: 0x19404, symSize: 0x18 }
  - { offset: 0xCC0E4, size: 0x8, addend: 0x0, symName: '__ZN84_$LT$serde..__private..de..content..ContentVisitor$u20$as$u20$serde..de..Visitor$GT$9visit_str17h9f9801f31363e67bE', symObjAddr: 0x15FC8, symBinAddr: 0x19488, symSize: 0x4C }
  - { offset: 0xCC72E, size: 0x8, addend: 0x0, symName: '__ZN164_$LT$$LT$powersync_core..sync..bucket_priority..BucketPriority$u20$as$u20$serde..de..Deserialize$GT$..deserialize..PriorityVisitor$u20$as$u20$serde..de..Visitor$GT$9visit_i3217h9b24f613a7f2eb59E', symObjAddr: 0x188DC, symBinAddr: 0x1BD9C, symSize: 0x60 }
  - { offset: 0xCC7F9, size: 0x8, addend: 0x0, symName: '__ZN164_$LT$$LT$powersync_core..sync..bucket_priority..BucketPriority$u20$as$u20$serde..de..Deserialize$GT$..deserialize..PriorityVisitor$u20$as$u20$serde..de..Visitor$GT$9visit_i3217ha33a2ca5ca644c12E', symObjAddr: 0x1893C, symBinAddr: 0x1BDFC, symSize: 0x60 }
  - { offset: 0xCC8EC, size: 0x8, addend: 0x0, symName: '__ZN96_$LT$powersync_core..sync..bucket_priority..BucketPriority$u20$as$u20$serde..de..Deserialize$GT$11deserialize17ha157ef170650e72aE', symObjAddr: 0x18648, symBinAddr: 0x1BB08, symSize: 0x1A0 }
  - { offset: 0xCCBA2, size: 0x8, addend: 0x0, symName: '__ZN96_$LT$powersync_core..sync..bucket_priority..BucketPriority$u20$as$u20$serde..de..Deserialize$GT$11deserialize17hf81096201383f3c5E', symObjAddr: 0x187E8, symBinAddr: 0x1BCA8, symSize: 0xF4 }
  - { offset: 0xCCCD1, size: 0x8, addend: 0x0, symName: '__ZN107_$LT$powersync_core..sync..bucket_priority..BucketPriority$u20$as$u20$core..convert..TryFrom$LT$i32$GT$$GT$8try_from17h6cd36df31591bf71E', symObjAddr: 0x18600, symBinAddr: 0x1BAC0, symSize: 0x48 }
  - { offset: 0xCCD05, size: 0x8, addend: 0x0, symName: '__ZN95_$LT$powersync_core..sync..bucket_priority..BucketPriority$u20$as$u20$serde..ser..Serialize$GT$9serialize17hadd1c28e6adfaedbE', symObjAddr: 0x1899C, symBinAddr: 0x1BE5C, symSize: 0xFC }
  - { offset: 0xCD452, size: 0x8, addend: 0x0, symName: __ZN14powersync_core4sync10operations24insert_bucket_operations17h222d7049d0aa19aaE, symObjAddr: 0x16FEC, symBinAddr: 0x1A4AC, symSize: 0x724 }
  - { offset: 0xCE3F4, size: 0x8, addend: 0x0, symName: __ZN14powersync_core10operations13delete_bucket17h32596515d9f0f5c0E, symObjAddr: 0x177A4, symBinAddr: 0x1AC64, symSize: 0x164 }
  - { offset: 0xCE8CF, size: 0x8, addend: 0x0, symName: __ZN14powersync_core6schema10management24powersync_replace_schema17he375e4df95be455aE, symObjAddr: 0x17908, symBinAddr: 0x1ADC8, symSize: 0xE0 }
  - { offset: 0xCF0D9, size: 0x8, addend: 0x0, symName: __ZN14powersync_core6schema10management29powersync_replace_schema_impl17h3b4c3a2b26a66d10E, symObjAddr: 0x179E8, symBinAddr: 0x1AEA8, symSize: 0xBE0 }
  - { offset: 0xD0C08, size: 0x8, addend: 0x0, symName: __ZN14powersync_core2kv9client_id17hbf3deee03ffc15d8E, symObjAddr: 0x16014, symBinAddr: 0x194D4, symSize: 0xAC }
  - { offset: 0xD0DD6, size: 0x8, addend: 0x0, symName: __ZN14powersync_core2kv19powersync_client_id17h08e2afe9f5aa8064E, symObjAddr: 0x16644, symBinAddr: 0x19B04, symSize: 0x5C }
  - { offset: 0xD0FAA, size: 0x8, addend: 0x0, symName: __ZN14powersync_core2kv24powersync_last_synced_at17ha969da2043e51ef0E, symObjAddr: 0x166A0, symBinAddr: 0x19B60, symSize: 0x108 }
  - { offset: 0xD11AD, size: 0x8, addend: 0x0, symName: __ZN14powersync_core10migrations17powersync_migrate17h41e82517c86d1c83E, symObjAddr: 0x167BC, symBinAddr: 0x19C7C, symSize: 0x7B4 }
  - { offset: 0xD1FEF, size: 0x8, addend: 0x0, symName: __ZN14powersync_core7version20powersync_rs_version17he77fb64f04c89772E, symObjAddr: 0x18A98, symBinAddr: 0x1BF58, symSize: 0xB0 }
  - { offset: 0xD2268, size: 0x8, addend: 0x0, symName: '__ZN95_$LT$$BP$mut$u20$sqlite3_capi..bindings..sqlite3$u20$as$u20$sqlite_nostd..nostd..Connection$GT$10prepare_v217h7b4dbd632987a7deE', symObjAddr: 0x160C0, symBinAddr: 0x19580, symSize: 0x550 }
  - { offset: 0xD2345, size: 0x8, addend: 0x0, symName: '__ZN95_$LT$$BP$mut$u20$sqlite3_capi..bindings..sqlite3$u20$as$u20$sqlite_nostd..nostd..Connection$GT$9exec_safe17hb792261992f576abE', symObjAddr: 0x16F70, symBinAddr: 0x1A430, symSize: 0x54 }
  - { offset: 0xD2AD4, size: 0x8, addend: 0x0, symName: '__ZN4core3ptr59drop_in_place$LT$serde..__private..de..content..Content$GT$17ha04eeb5331f27e5fE.1051', symObjAddr: 0x15E2C, symBinAddr: 0x19344, symSize: 0x48 }
  - { offset: 0xD2B24, size: 0x8, addend: 0x0, symName: '__ZN4core3ptr131drop_in_place$LT$alloc..vec..Vec$LT$$LP$serde..__private..de..content..Content$C$serde..__private..de..content..Content$RP$$GT$$GT$17hbbcf3feda1005c6cE', symObjAddr: 0x15E74, symBinAddr: 0x1938C, symSize: 0x20 }
  - { offset: 0xD2B72, size: 0x8, addend: 0x0, symName: '__ZN4core3ptr84drop_in_place$LT$alloc..boxed..Box$LT$serde..__private..de..content..Content$GT$$GT$17he4be82e6358ff631E.1052', symObjAddr: 0x15E94, symBinAddr: 0x193AC, symSize: 0x20 }
  - { offset: 0xD2C72, size: 0x8, addend: 0x0, symName: '__ZN4core3ptr82drop_in_place$LT$alloc..vec..Vec$LT$serde..__private..de..content..Content$GT$$GT$17he0ad5ed11a24bd18E', symObjAddr: 0x15EB4, symBinAddr: 0x193CC, symSize: 0x20 }
  - { offset: 0xD2DA2, size: 0x8, addend: 0x0, symName: '__ZN4core3ptr74drop_in_place$LT$powersync_core..sync..storage_adapter..StorageAdapter$GT$17h488179a6e652f7a2E', symObjAddr: 0x17710, symBinAddr: 0x1ABD0, symSize: 0x38 }
  - { offset: 0xD2E8D, size: 0x8, addend: 0x0, symName: '__ZN4core3ptr78drop_in_place$LT$powersync_core..operations..insert_operation..BucketBatch$GT$17h56023458804881bfE', symObjAddr: 0x17748, symBinAddr: 0x1AC08, symSize: 0x20 }
  - { offset: 0xD2F8C, size: 0x8, addend: 0x0, symName: '__ZN4core3ptr51drop_in_place$LT$powersync_core..schema..Schema$GT$17h918ca6c450a2e57aE.1120', symObjAddr: 0x185C8, symBinAddr: 0x1BA88, symSize: 0x38 }
  - { offset: 0xDC2F8, size: 0x8, addend: 0x0, symName: '__ZN5serde9__private2de7content28ContentDeserializer$LT$E$GT$12invalid_type17h502cd50212e0304eE', symObjAddr: 0x15D04, symBinAddr: 0x42570, symSize: 0x128 }
  - { offset: 0xDC5F1, size: 0x8, addend: 0x0, symName: '__ZN5alloc11collections5btree8navigate142_$LT$impl$u20$alloc..collections..btree..node..NodeRef$LT$BorrowType$C$K$C$V$C$alloc..collections..btree..node..marker..LeafOrInternal$GT$$GT$15first_leaf_edge17h5dbb1ff325f5f366E', symObjAddr: 0x15F04, symBinAddr: 0x1941C, symSize: 0x14 }
  - { offset: 0xDC614, size: 0x8, addend: 0x0, symName: '__ZN5alloc11collections5btree8navigate142_$LT$impl$u20$alloc..collections..btree..node..NodeRef$LT$BorrowType$C$K$C$V$C$alloc..collections..btree..node..marker..LeafOrInternal$GT$$GT$15first_leaf_edge17h5dbb1ff325f5f366E', symObjAddr: 0x15F04, symBinAddr: 0x1941C, symSize: 0x14 }
  - { offset: 0xDC719, size: 0x8, addend: 0x0, symName: '__ZN5alloc11collections5btree8navigate142_$LT$impl$u20$alloc..collections..btree..node..NodeRef$LT$BorrowType$C$K$C$V$C$alloc..collections..btree..node..marker..LeafOrInternal$GT$$GT$15first_leaf_edge17h94cc8c4ba8644572E', symObjAddr: 0x15F18, symBinAddr: 0x19430, symSize: 0x14 }
  - { offset: 0xDC73C, size: 0x8, addend: 0x0, symName: '__ZN5alloc11collections5btree8navigate142_$LT$impl$u20$alloc..collections..btree..node..NodeRef$LT$BorrowType$C$K$C$V$C$alloc..collections..btree..node..marker..LeafOrInternal$GT$$GT$15first_leaf_edge17h94cc8c4ba8644572E', symObjAddr: 0x15F18, symBinAddr: 0x19430, symSize: 0x14 }
  - { offset: 0xDC841, size: 0x8, addend: 0x0, symName: '__ZN5alloc11collections5btree8navigate142_$LT$impl$u20$alloc..collections..btree..node..NodeRef$LT$BorrowType$C$K$C$V$C$alloc..collections..btree..node..marker..LeafOrInternal$GT$$GT$15first_leaf_edge17hd27a1b010d25b428E', symObjAddr: 0x15F2C, symBinAddr: 0x19444, symSize: 0x14 }
  - { offset: 0xDC864, size: 0x8, addend: 0x0, symName: '__ZN5alloc11collections5btree8navigate142_$LT$impl$u20$alloc..collections..btree..node..NodeRef$LT$BorrowType$C$K$C$V$C$alloc..collections..btree..node..marker..LeafOrInternal$GT$$GT$15first_leaf_edge17hd27a1b010d25b428E', symObjAddr: 0x15F2C, symBinAddr: 0x19444, symSize: 0x14 }
  - { offset: 0xDC969, size: 0x8, addend: 0x0, symName: '__ZN5alloc7raw_vec20RawVecInner$LT$A$GT$16with_capacity_in17h8242ac48d042eef7E', symObjAddr: 0x15F98, symBinAddr: 0x19458, symSize: 0x30 }
  - { offset: 0xDCA3D, size: 0x8, addend: 0x0, symName: __ZN12sqlite_nostd5nostd11ManagedStmt11column_text17h16c7a47e500c1c6bE, symObjAddr: 0x16610, symBinAddr: 0x19AD0, symSize: 0x34 }
  - { offset: 0xDCB11, size: 0x8, addend: 0x0, symName: __ZN12sqlite_nostd5nostd11ManagedStmt8bind_int17h218feee9d3504c64E, symObjAddr: 0x167A8, symBinAddr: 0x19C68, symSize: 0x14 }
  - { offset: 0xDCE59, size: 0x8, addend: 0x0, symName: '__ZN5alloc3vec16Vec$LT$T$C$A$GT$4push17h53ba69066ac7d7ccE', symObjAddr: 0x16FC4, symBinAddr: 0x1A484, symSize: 0x28 }
  - { offset: 0xDD01C, size: 0x8, addend: 0x0, symName: __ZN12sqlite_nostd5nostd11ManagedStmt10bind_int6417hb8bc9a3999c6ff53E, symObjAddr: 0x17768, symBinAddr: 0x1AC28, symSize: 0x14 }
  - { offset: 0xDD05C, size: 0x8, addend: 0x0, symName: __ZN12sqlite_nostd5nostd11ManagedStmt9bind_text17h1b8dc41a215926baE, symObjAddr: 0x1777C, symBinAddr: 0x1AC3C, symSize: 0x14 }
  - { offset: 0xDD0AC, size: 0x8, addend: 0x0, symName: __ZN12sqlite_nostd5nostd11ManagedStmt9bind_null17h31f1c33acffdb53dE, symObjAddr: 0x17790, symBinAddr: 0x1AC50, symSize: 0x14 }
  - { offset: 0xDD9CD, size: 0x8, addend: 0x0, symName: _OUTLINED_FUNCTION_1, symObjAddr: 0x3B07C, symBinAddr: 0x3D5BC, symSize: 0x1C }
  - { offset: 0xDD9E4, size: 0x8, addend: 0x0, symName: _OUTLINED_FUNCTION_9, symObjAddr: 0x3B124, symBinAddr: 0x3D664, symSize: 0x10 }
  - { offset: 0xDD9FB, size: 0x8, addend: 0x0, symName: _OUTLINED_FUNCTION_12, symObjAddr: 0x3B158, symBinAddr: 0x3D698, symSize: 0x18 }
  - { offset: 0xDDA12, size: 0x8, addend: 0x0, symName: _OUTLINED_FUNCTION_27, symObjAddr: 0x3B258, symBinAddr: 0x3D798, symSize: 0x10 }
  - { offset: 0xDDA29, size: 0x8, addend: 0x0, symName: _OUTLINED_FUNCTION_29, symObjAddr: 0x3B278, symBinAddr: 0x3D7B8, symSize: 0x10 }
  - { offset: 0xDDA40, size: 0x8, addend: 0x0, symName: _OUTLINED_FUNCTION_30, symObjAddr: 0x3B288, symBinAddr: 0x3D7C8, symSize: 0x10 }
  - { offset: 0xDDA57, size: 0x8, addend: 0x0, symName: _OUTLINED_FUNCTION_32, symObjAddr: 0x3B2AC, symBinAddr: 0x3D7EC, symSize: 0x10 }
  - { offset: 0xDDA6E, size: 0x8, addend: 0x0, symName: _OUTLINED_FUNCTION_81, symObjAddr: 0x3B6BC, symBinAddr: 0x3DBFC, symSize: 0x10 }
  - { offset: 0xDDA85, size: 0x8, addend: 0x0, symName: _OUTLINED_FUNCTION_85, symObjAddr: 0x3B708, symBinAddr: 0x3DC48, symSize: 0x24 }
  - { offset: 0xDDA9C, size: 0x8, addend: 0x0, symName: _OUTLINED_FUNCTION_94, symObjAddr: 0x3B7D4, symBinAddr: 0x3DD14, symSize: 0x10 }
  - { offset: 0xDDAB3, size: 0x8, addend: 0x0, symName: _OUTLINED_FUNCTION_98, symObjAddr: 0x3B834, symBinAddr: 0x3DD74, symSize: 0x10 }
  - { offset: 0xDDACA, size: 0x8, addend: 0x0, symName: _OUTLINED_FUNCTION_109, symObjAddr: 0x3B900, symBinAddr: 0x3DE40, symSize: 0x14 }
  - { offset: 0xDDAE1, size: 0x8, addend: 0x0, symName: _OUTLINED_FUNCTION_118, symObjAddr: 0x3B9E0, symBinAddr: 0x3DF20, symSize: 0xC }
  - { offset: 0xDDAF8, size: 0x8, addend: 0x0, symName: _OUTLINED_FUNCTION_124, symObjAddr: 0x3BA54, symBinAddr: 0x3DF94, symSize: 0x28 }
  - { offset: 0xDDB0F, size: 0x8, addend: 0x0, symName: _OUTLINED_FUNCTION_132, symObjAddr: 0x3BAF8, symBinAddr: 0x3E038, symSize: 0x10 }
  - { offset: 0xDDB26, size: 0x8, addend: 0x0, symName: _OUTLINED_FUNCTION_146, symObjAddr: 0x3BC10, symBinAddr: 0x3E150, symSize: 0xC }
  - { offset: 0xDDB3D, size: 0x8, addend: 0x0, symName: _OUTLINED_FUNCTION_148, symObjAddr: 0x3BC30, symBinAddr: 0x3E170, symSize: 0xC }
  - { offset: 0xDDB54, size: 0x8, addend: 0x0, symName: _OUTLINED_FUNCTION_160, symObjAddr: 0x3BD14, symBinAddr: 0x3E254, symSize: 0x18 }
  - { offset: 0xDDB6B, size: 0x8, addend: 0x0, symName: _OUTLINED_FUNCTION_164, symObjAddr: 0x3BD54, symBinAddr: 0x3E294, symSize: 0x18 }
  - { offset: 0xDDB82, size: 0x8, addend: 0x0, symName: _OUTLINED_FUNCTION_172, symObjAddr: 0x3BDB8, symBinAddr: 0x3E2F8, symSize: 0x8 }
  - { offset: 0xDDB99, size: 0x8, addend: 0x0, symName: _OUTLINED_FUNCTION_205, symObjAddr: 0x3BFF8, symBinAddr: 0x3E538, symSize: 0x14 }
  - { offset: 0xDDBB0, size: 0x8, addend: 0x0, symName: _OUTLINED_FUNCTION_260, symObjAddr: 0x3C334, symBinAddr: 0x3E874, symSize: 0x10 }
  - { offset: 0xDDBC7, size: 0x8, addend: 0x0, symName: _OUTLINED_FUNCTION_261, symObjAddr: 0x3C344, symBinAddr: 0x3E884, symSize: 0x8 }
  - { offset: 0xDDBDE, size: 0x8, addend: 0x0, symName: _OUTLINED_FUNCTION_263, symObjAddr: 0x3C354, symBinAddr: 0x3E894, symSize: 0x8 }
  - { offset: 0xDDBF5, size: 0x8, addend: 0x0, symName: _OUTLINED_FUNCTION_272, symObjAddr: 0x3C3C4, symBinAddr: 0x3E904, symSize: 0xC }
  - { offset: 0xDDC0C, size: 0x8, addend: 0x0, symName: _OUTLINED_FUNCTION_288, symObjAddr: 0x3C4B8, symBinAddr: 0x3E9F8, symSize: 0x8 }
  - { offset: 0xDDC23, size: 0x8, addend: 0x0, symName: _OUTLINED_FUNCTION_297, symObjAddr: 0x3C52C, symBinAddr: 0x3EA6C, symSize: 0x8 }
  - { offset: 0xDDC3A, size: 0x8, addend: 0x0, symName: _OUTLINED_FUNCTION_303, symObjAddr: 0x3C570, symBinAddr: 0x3EAB0, symSize: 0xC }
  - { offset: 0xDDC51, size: 0x8, addend: 0x0, symName: _OUTLINED_FUNCTION_310, symObjAddr: 0x3C5D8, symBinAddr: 0x3EB18, symSize: 0x10 }
  - { offset: 0xDDC68, size: 0x8, addend: 0x0, symName: _OUTLINED_FUNCTION_313, symObjAddr: 0x3C600, symBinAddr: 0x3EB40, symSize: 0xC }
  - { offset: 0xDDC7F, size: 0x8, addend: 0x0, symName: _OUTLINED_FUNCTION_326, symObjAddr: 0x3C6A4, symBinAddr: 0x3EBE4, symSize: 0xC }
  - { offset: 0xDDC96, size: 0x8, addend: 0x0, symName: _OUTLINED_FUNCTION_327, symObjAddr: 0x3C6B0, symBinAddr: 0x3EBF0, symSize: 0xC }
  - { offset: 0xDDCAD, size: 0x8, addend: 0x0, symName: _OUTLINED_FUNCTION_336, symObjAddr: 0x3C730, symBinAddr: 0x3EC70, symSize: 0x10 }
  - { offset: 0xDDCC4, size: 0x8, addend: 0x0, symName: _OUTLINED_FUNCTION_337, symObjAddr: 0x3C740, symBinAddr: 0x3EC80, symSize: 0x10 }
  - { offset: 0xDDCDB, size: 0x8, addend: 0x0, symName: _OUTLINED_FUNCTION_346, symObjAddr: 0x3C7AC, symBinAddr: 0x3ECEC, symSize: 0xC }
  - { offset: 0xDDCF2, size: 0x8, addend: 0x0, symName: _OUTLINED_FUNCTION_347, symObjAddr: 0x3C7B8, symBinAddr: 0x3ECF8, symSize: 0xC }
  - { offset: 0xDDD09, size: 0x8, addend: 0x0, symName: _OUTLINED_FUNCTION_349, symObjAddr: 0x3C7D0, symBinAddr: 0x3ED10, symSize: 0x10 }
  - { offset: 0xDDD20, size: 0x8, addend: 0x0, symName: _OUTLINED_FUNCTION_359, symObjAddr: 0x3C860, symBinAddr: 0x3EDA0, symSize: 0xC }
  - { offset: 0xDDD37, size: 0x8, addend: 0x0, symName: _OUTLINED_FUNCTION_360, symObjAddr: 0x3C86C, symBinAddr: 0x3EDAC, symSize: 0x8 }
  - { offset: 0xDDD4E, size: 0x8, addend: 0x0, symName: _OUTLINED_FUNCTION_361, symObjAddr: 0x3C874, symBinAddr: 0x3EDB4, symSize: 0x8 }
  - { offset: 0xDDD65, size: 0x8, addend: 0x0, symName: _OUTLINED_FUNCTION_362, symObjAddr: 0x3C87C, symBinAddr: 0x3EDBC, symSize: 0x8 }
  - { offset: 0xDDD7C, size: 0x8, addend: 0x0, symName: _OUTLINED_FUNCTION_365, symObjAddr: 0x3C898, symBinAddr: 0x3EDD8, symSize: 0xC }
  - { offset: 0xDDD93, size: 0x8, addend: 0x0, symName: _OUTLINED_FUNCTION_392, symObjAddr: 0x3CA70, symBinAddr: 0x3EFB0, symSize: 0x18 }
  - { offset: 0xDDDAA, size: 0x8, addend: 0x0, symName: _OUTLINED_FUNCTION_394, symObjAddr: 0x3CA90, symBinAddr: 0x3EFD0, symSize: 0xC }
  - { offset: 0xDDDC1, size: 0x8, addend: 0x0, symName: _OUTLINED_FUNCTION_411, symObjAddr: 0x3CB70, symBinAddr: 0x3F0B0, symSize: 0x8 }
  - { offset: 0xDDDD8, size: 0x8, addend: 0x0, symName: _OUTLINED_FUNCTION_434, symObjAddr: 0x3CC64, symBinAddr: 0x3F1A4, symSize: 0x8 }
  - { offset: 0xDDDEF, size: 0x8, addend: 0x0, symName: _OUTLINED_FUNCTION_435, symObjAddr: 0x3CC6C, symBinAddr: 0x3F1AC, symSize: 0x8 }
  - { offset: 0xDDE06, size: 0x8, addend: 0x0, symName: _OUTLINED_FUNCTION_448, symObjAddr: 0x3CD14, symBinAddr: 0x3F254, symSize: 0xC }
  - { offset: 0xDDE1D, size: 0x8, addend: 0x0, symName: _OUTLINED_FUNCTION_449, symObjAddr: 0x3CD20, symBinAddr: 0x3F260, symSize: 0xC }
  - { offset: 0xDDE34, size: 0x8, addend: 0x0, symName: _OUTLINED_FUNCTION_451, symObjAddr: 0x3CD38, symBinAddr: 0x3F278, symSize: 0xC }
  - { offset: 0xDDE4B, size: 0x8, addend: 0x0, symName: _OUTLINED_FUNCTION_452, symObjAddr: 0x3CD44, symBinAddr: 0x3F284, symSize: 0xC }
  - { offset: 0xDDE62, size: 0x8, addend: 0x0, symName: _OUTLINED_FUNCTION_457, symObjAddr: 0x3CD94, symBinAddr: 0x3F2D4, symSize: 0x8 }
  - { offset: 0xDDE79, size: 0x8, addend: 0x0, symName: _OUTLINED_FUNCTION_467, symObjAddr: 0x3CE34, symBinAddr: 0x3F374, symSize: 0x8 }
  - { offset: 0xDDE90, size: 0x8, addend: 0x0, symName: _OUTLINED_FUNCTION_482, symObjAddr: 0x3CF38, symBinAddr: 0x3F478, symSize: 0x8 }
  - { offset: 0xDDEA7, size: 0x8, addend: 0x0, symName: _OUTLINED_FUNCTION_483, symObjAddr: 0x3CF40, symBinAddr: 0x3F480, symSize: 0x8 }
  - { offset: 0xDDEBE, size: 0x8, addend: 0x0, symName: _OUTLINED_FUNCTION_493, symObjAddr: 0x3D004, symBinAddr: 0x3F544, symSize: 0xC }
  - { offset: 0xDDED5, size: 0x8, addend: 0x0, symName: _OUTLINED_FUNCTION_545, symObjAddr: 0x3D300, symBinAddr: 0x3F840, symSize: 0x8 }
  - { offset: 0xDDEEC, size: 0x8, addend: 0x0, symName: _OUTLINED_FUNCTION_555, symObjAddr: 0x3D378, symBinAddr: 0x3F8B8, symSize: 0xC }
  - { offset: 0xDDF03, size: 0x8, addend: 0x0, symName: _OUTLINED_FUNCTION_557, symObjAddr: 0x3D38C, symBinAddr: 0x3F8CC, symSize: 0x8 }
  - { offset: 0xDDF1A, size: 0x8, addend: 0x0, symName: _OUTLINED_FUNCTION_558, symObjAddr: 0x3D394, symBinAddr: 0x3F8D4, symSize: 0x8 }
  - { offset: 0xDDF31, size: 0x8, addend: 0x0, symName: _OUTLINED_FUNCTION_563, symObjAddr: 0x3D3C8, symBinAddr: 0x3F908, symSize: 0x8 }
  - { offset: 0xDDF48, size: 0x8, addend: 0x0, symName: _OUTLINED_FUNCTION_571, symObjAddr: 0x3D434, symBinAddr: 0x3F974, symSize: 0xC }
  - { offset: 0xDDF5F, size: 0x8, addend: 0x0, symName: _OUTLINED_FUNCTION_579, symObjAddr: 0x3D4A0, symBinAddr: 0x3F9E0, symSize: 0x10 }
  - { offset: 0xDDF76, size: 0x8, addend: 0x0, symName: _OUTLINED_FUNCTION_629, symObjAddr: 0x3D7A8, symBinAddr: 0x3FCE8, symSize: 0xC }
  - { offset: 0xDDF8D, size: 0x8, addend: 0x0, symName: _OUTLINED_FUNCTION_640, symObjAddr: 0x3D85C, symBinAddr: 0x3FD9C, symSize: 0xC }
  - { offset: 0xDDFA4, size: 0x8, addend: 0x0, symName: _OUTLINED_FUNCTION_646, symObjAddr: 0x3D8B0, symBinAddr: 0x3FDF0, symSize: 0x8 }
  - { offset: 0xDDFBB, size: 0x8, addend: 0x0, symName: _OUTLINED_FUNCTION_660, symObjAddr: 0x3D95C, symBinAddr: 0x3FE9C, symSize: 0x8 }
  - { offset: 0xDDFD2, size: 0x8, addend: 0x0, symName: _OUTLINED_FUNCTION_670, symObjAddr: 0x3D9C4, symBinAddr: 0x3FF04, symSize: 0x8 }
  - { offset: 0xDDFE9, size: 0x8, addend: 0x0, symName: _OUTLINED_FUNCTION_690, symObjAddr: 0x3DB30, symBinAddr: 0x40070, symSize: 0xC }
  - { offset: 0xDE000, size: 0x8, addend: 0x0, symName: _OUTLINED_FUNCTION_692, symObjAddr: 0x3DB48, symBinAddr: 0x40088, symSize: 0xC }
  - { offset: 0xDE017, size: 0x8, addend: 0x0, symName: _OUTLINED_FUNCTION_699, symObjAddr: 0x3DB9C, symBinAddr: 0x400DC, symSize: 0xC }
  - { offset: 0xDE02E, size: 0x8, addend: 0x0, symName: _OUTLINED_FUNCTION_705, symObjAddr: 0x3DC20, symBinAddr: 0x40160, symSize: 0x1C }
  - { offset: 0xDE045, size: 0x8, addend: 0x0, symName: _OUTLINED_FUNCTION_773, symObjAddr: 0x3DFB8, symBinAddr: 0x404F8, symSize: 0xC }
  - { offset: 0xDE05C, size: 0x8, addend: 0x0, symName: _OUTLINED_FUNCTION_798, symObjAddr: 0x3E0D8, symBinAddr: 0x40618, symSize: 0x10 }
  - { offset: 0xDE073, size: 0x8, addend: 0x0, symName: _OUTLINED_FUNCTION_799, symObjAddr: 0x3E0E8, symBinAddr: 0x40628, symSize: 0x8 }
  - { offset: 0xDE08A, size: 0x8, addend: 0x0, symName: _OUTLINED_FUNCTION_818, symObjAddr: 0x3E1E4, symBinAddr: 0x40724, symSize: 0x8 }
  - { offset: 0xDE0A1, size: 0x8, addend: 0x0, symName: _OUTLINED_FUNCTION_822, symObjAddr: 0x3E204, symBinAddr: 0x40744, symSize: 0x8 }
  - { offset: 0xDE0B8, size: 0x8, addend: 0x0, symName: _OUTLINED_FUNCTION_824, symObjAddr: 0x3E214, symBinAddr: 0x40754, symSize: 0x8 }
  - { offset: 0xDE0CF, size: 0x8, addend: 0x0, symName: _OUTLINED_FUNCTION_909, symObjAddr: 0x3E780, symBinAddr: 0x40CC0, symSize: 0xC }
  - { offset: 0xDE0E6, size: 0x8, addend: 0x0, symName: _OUTLINED_FUNCTION_921, symObjAddr: 0x3E810, symBinAddr: 0x40D50, symSize: 0xC }
  - { offset: 0xDE0FD, size: 0x8, addend: 0x0, symName: _OUTLINED_FUNCTION_938, symObjAddr: 0x3E8D8, symBinAddr: 0x40E18, symSize: 0xC }
  - { offset: 0xDE114, size: 0x8, addend: 0x0, symName: _OUTLINED_FUNCTION_947, symObjAddr: 0x3E948, symBinAddr: 0x40E88, symSize: 0xC }
  - { offset: 0xDE12B, size: 0x8, addend: 0x0, symName: _OUTLINED_FUNCTION_965, symObjAddr: 0x3EA14, symBinAddr: 0x40F54, symSize: 0xC }
  - { offset: 0xDE142, size: 0x8, addend: 0x0, symName: _OUTLINED_FUNCTION_1022, symObjAddr: 0x3EC48, symBinAddr: 0x41188, symSize: 0x8 }
  - { offset: 0xDE159, size: 0x8, addend: 0x0, symName: _OUTLINED_FUNCTION_1035, symObjAddr: 0x3ECC4, symBinAddr: 0x41204, symSize: 0xC }
  - { offset: 0xDE170, size: 0x8, addend: 0x0, symName: _OUTLINED_FUNCTION_1050, symObjAddr: 0x3ED5C, symBinAddr: 0x4129C, symSize: 0x8 }
  - { offset: 0xDE187, size: 0x8, addend: 0x0, symName: _OUTLINED_FUNCTION_1058, symObjAddr: 0x3EDA0, symBinAddr: 0x412E0, symSize: 0x8 }
  - { offset: 0xDE19E, size: 0x8, addend: 0x0, symName: _OUTLINED_FUNCTION_1059, symObjAddr: 0x3EDA8, symBinAddr: 0x412E8, symSize: 0xC }
  - { offset: 0xDE1B5, size: 0x8, addend: 0x0, symName: _OUTLINED_FUNCTION_1060, symObjAddr: 0x3EDB4, symBinAddr: 0x412F4, symSize: 0xC }
  - { offset: 0xDE1CC, size: 0x8, addend: 0x0, symName: _OUTLINED_FUNCTION_1063, symObjAddr: 0x3EDD4, symBinAddr: 0x41314, symSize: 0xC }
  - { offset: 0xDE1E3, size: 0x8, addend: 0x0, symName: _OUTLINED_FUNCTION_1074, symObjAddr: 0x3EE3C, symBinAddr: 0x4137C, symSize: 0x8 }
  - { offset: 0xDE1FA, size: 0x8, addend: 0x0, symName: _OUTLINED_FUNCTION_1077, symObjAddr: 0x3EE5C, symBinAddr: 0x4139C, symSize: 0x8 }
  - { offset: 0xDE211, size: 0x8, addend: 0x0, symName: _OUTLINED_FUNCTION_1096, symObjAddr: 0x3EF10, symBinAddr: 0x41450, symSize: 0x8 }
  - { offset: 0xDE228, size: 0x8, addend: 0x0, symName: _OUTLINED_FUNCTION_1097, symObjAddr: 0x3EF18, symBinAddr: 0x41458, symSize: 0x8 }
  - { offset: 0xDE23F, size: 0x8, addend: 0x0, symName: _OUTLINED_FUNCTION_1101, symObjAddr: 0x3EF48, symBinAddr: 0x41488, symSize: 0xC }
  - { offset: 0xDE256, size: 0x8, addend: 0x0, symName: _OUTLINED_FUNCTION_1104, symObjAddr: 0x3EF6C, symBinAddr: 0x414AC, symSize: 0xC }
  - { offset: 0xDE26D, size: 0x8, addend: 0x0, symName: _OUTLINED_FUNCTION_1141, symObjAddr: 0x3F1B0, symBinAddr: 0x416F0, symSize: 0xC }
  - { offset: 0xDE284, size: 0x8, addend: 0x0, symName: _OUTLINED_FUNCTION_1170, symObjAddr: 0x3F35C, symBinAddr: 0x4189C, symSize: 0xC }
  - { offset: 0xDE29B, size: 0x8, addend: 0x0, symName: _OUTLINED_FUNCTION_1180, symObjAddr: 0x3F3EC, symBinAddr: 0x4192C, symSize: 0xC }
  - { offset: 0xDE2B2, size: 0x8, addend: 0x0, symName: _OUTLINED_FUNCTION_1195, symObjAddr: 0x3F4C0, symBinAddr: 0x41A00, symSize: 0xC }
  - { offset: 0xDE2C9, size: 0x8, addend: 0x0, symName: _OUTLINED_FUNCTION_1196, symObjAddr: 0x3F4CC, symBinAddr: 0x41A0C, symSize: 0xC }
  - { offset: 0xDE2E0, size: 0x8, addend: 0x0, symName: _OUTLINED_FUNCTION_1203, symObjAddr: 0x3F520, symBinAddr: 0x41A60, symSize: 0xC }
  - { offset: 0xDE2F7, size: 0x8, addend: 0x0, symName: _OUTLINED_FUNCTION_1209, symObjAddr: 0x3F5B8, symBinAddr: 0x41AF8, symSize: 0x1C }
  - { offset: 0x257D1, size: 0x8, addend: 0x0, symName: '__ZN4core4iter5range110_$LT$impl$u20$core..iter..traits..iterator..Iterator$u20$for$u20$core..ops..range..RangeInclusive$LT$A$GT$$GT$4next17heabf0644a2bbab02E', symObjAddr: 0x55F8, symBinAddr: 0x94E4, symSize: 0x38 }
  - { offset: 0x25803, size: 0x8, addend: 0x0, symName: '__ZN4core4iter5range110_$LT$impl$u20$core..iter..traits..iterator..Iterator$u20$for$u20$core..ops..range..RangeInclusive$LT$A$GT$$GT$4next17heabf0644a2bbab02E', symObjAddr: 0x55F8, symBinAddr: 0x94E4, symSize: 0x38 }
  - { offset: 0x25821, size: 0x8, addend: 0x0, symName: '__ZN4core4iter5range110_$LT$impl$u20$core..iter..traits..iterator..Iterator$u20$for$u20$core..ops..range..RangeInclusive$LT$A$GT$$GT$4next17heabf0644a2bbab02E', symObjAddr: 0x55F8, symBinAddr: 0x94E4, symSize: 0x38 }
  - { offset: 0x25AC4, size: 0x8, addend: 0x0, symName: '__ZN4core5array88_$LT$impl$u20$core..ops..index..IndexMut$LT$I$GT$$u20$for$u20$$u5b$T$u3b$$u20$N$u5d$$GT$9index_mut17h92f5e6cee7610f7fE', symObjAddr: 0x5A90, symBinAddr: 0x997C, symSize: 0x1C }
  - { offset: 0x25B81, size: 0x8, addend: 0x0, symName: '__ZN4core5array88_$LT$impl$u20$core..ops..index..IndexMut$LT$I$GT$$u20$for$u20$$u5b$T$u3b$$u20$N$u5d$$GT$9index_mut17h96e849c3843c4363E', symObjAddr: 0x5AAC, symBinAddr: 0x9998, symSize: 0x18 }
  - { offset: 0x25BC0, size: 0x8, addend: 0x0, symName: '__ZN4core5array88_$LT$impl$u20$core..ops..index..IndexMut$LT$I$GT$$u20$for$u20$$u5b$T$u3b$$u20$N$u5d$$GT$9index_mut17h96e849c3843c4363E', symObjAddr: 0x5AAC, symBinAddr: 0x9998, symSize: 0x18 }
  - { offset: 0x25BE5, size: 0x8, addend: 0x0, symName: '__ZN4core5array88_$LT$impl$u20$core..ops..index..IndexMut$LT$I$GT$$u20$for$u20$$u5b$T$u3b$$u20$N$u5d$$GT$9index_mut17h96e849c3843c4363E', symObjAddr: 0x5AAC, symBinAddr: 0x9998, symSize: 0x18 }
  - { offset: 0x25C09, size: 0x8, addend: 0x0, symName: '__ZN4core5array88_$LT$impl$u20$core..ops..index..IndexMut$LT$I$GT$$u20$for$u20$$u5b$T$u3b$$u20$N$u5d$$GT$9index_mut17h96e849c3843c4363E', symObjAddr: 0x5AAC, symBinAddr: 0x9998, symSize: 0x18 }
  - { offset: 0x25C2C, size: 0x8, addend: 0x0, symName: '__ZN4core5array88_$LT$impl$u20$core..ops..index..IndexMut$LT$I$GT$$u20$for$u20$$u5b$T$u3b$$u20$N$u5d$$GT$9index_mut17h96e849c3843c4363E', symObjAddr: 0x5AAC, symBinAddr: 0x9998, symSize: 0x18 }
  - { offset: 0x25C58, size: 0x8, addend: 0x0, symName: '__ZN4core5array88_$LT$impl$u20$core..ops..index..IndexMut$LT$I$GT$$u20$for$u20$$u5b$T$u3b$$u20$N$u5d$$GT$9index_mut17h7521d735f873b312E', symObjAddr: 0x5AC4, symBinAddr: 0x99B0, symSize: 0x18 }
  - { offset: 0x25C97, size: 0x8, addend: 0x0, symName: '__ZN4core5array88_$LT$impl$u20$core..ops..index..IndexMut$LT$I$GT$$u20$for$u20$$u5b$T$u3b$$u20$N$u5d$$GT$9index_mut17h7521d735f873b312E', symObjAddr: 0x5AC4, symBinAddr: 0x99B0, symSize: 0x18 }
  - { offset: 0x25CBC, size: 0x8, addend: 0x0, symName: '__ZN4core5array88_$LT$impl$u20$core..ops..index..IndexMut$LT$I$GT$$u20$for$u20$$u5b$T$u3b$$u20$N$u5d$$GT$9index_mut17h7521d735f873b312E', symObjAddr: 0x5AC4, symBinAddr: 0x99B0, symSize: 0x18 }
  - { offset: 0x25CE0, size: 0x8, addend: 0x0, symName: '__ZN4core5array88_$LT$impl$u20$core..ops..index..IndexMut$LT$I$GT$$u20$for$u20$$u5b$T$u3b$$u20$N$u5d$$GT$9index_mut17h7521d735f873b312E', symObjAddr: 0x5AC4, symBinAddr: 0x99B0, symSize: 0x18 }
  - { offset: 0x25D03, size: 0x8, addend: 0x0, symName: '__ZN4core5array88_$LT$impl$u20$core..ops..index..IndexMut$LT$I$GT$$u20$for$u20$$u5b$T$u3b$$u20$N$u5d$$GT$9index_mut17h7521d735f873b312E', symObjAddr: 0x5AC4, symBinAddr: 0x99B0, symSize: 0x18 }
  - { offset: 0x25D2F, size: 0x8, addend: 0x0, symName: '__ZN4core5array88_$LT$impl$u20$core..ops..index..IndexMut$LT$I$GT$$u20$for$u20$$u5b$T$u3b$$u20$N$u5d$$GT$9index_mut17hdf2c6b723e0801eaE', symObjAddr: 0x5ADC, symBinAddr: 0x99C8, symSize: 0x18 }
  - { offset: 0x25D6E, size: 0x8, addend: 0x0, symName: '__ZN4core5array88_$LT$impl$u20$core..ops..index..IndexMut$LT$I$GT$$u20$for$u20$$u5b$T$u3b$$u20$N$u5d$$GT$9index_mut17hdf2c6b723e0801eaE', symObjAddr: 0x5ADC, symBinAddr: 0x99C8, symSize: 0x18 }
  - { offset: 0x25D93, size: 0x8, addend: 0x0, symName: '__ZN4core5array88_$LT$impl$u20$core..ops..index..IndexMut$LT$I$GT$$u20$for$u20$$u5b$T$u3b$$u20$N$u5d$$GT$9index_mut17hdf2c6b723e0801eaE', symObjAddr: 0x5ADC, symBinAddr: 0x99C8, symSize: 0x18 }
  - { offset: 0x25DB7, size: 0x8, addend: 0x0, symName: '__ZN4core5array88_$LT$impl$u20$core..ops..index..IndexMut$LT$I$GT$$u20$for$u20$$u5b$T$u3b$$u20$N$u5d$$GT$9index_mut17hdf2c6b723e0801eaE', symObjAddr: 0x5ADC, symBinAddr: 0x99C8, symSize: 0x18 }
  - { offset: 0x25DDA, size: 0x8, addend: 0x0, symName: '__ZN4core5array88_$LT$impl$u20$core..ops..index..IndexMut$LT$I$GT$$u20$for$u20$$u5b$T$u3b$$u20$N$u5d$$GT$9index_mut17hdf2c6b723e0801eaE', symObjAddr: 0x5ADC, symBinAddr: 0x99C8, symSize: 0x18 }
  - { offset: 0x25E06, size: 0x8, addend: 0x0, symName: '__ZN4core5array88_$LT$impl$u20$core..ops..index..IndexMut$LT$I$GT$$u20$for$u20$$u5b$T$u3b$$u20$N$u5d$$GT$9index_mut17h8ce142b4c220b6d2E', symObjAddr: 0x5AF4, symBinAddr: 0x99E0, symSize: 0x18 }
  - { offset: 0x25E45, size: 0x8, addend: 0x0, symName: '__ZN4core5array88_$LT$impl$u20$core..ops..index..IndexMut$LT$I$GT$$u20$for$u20$$u5b$T$u3b$$u20$N$u5d$$GT$9index_mut17h8ce142b4c220b6d2E', symObjAddr: 0x5AF4, symBinAddr: 0x99E0, symSize: 0x18 }
  - { offset: 0x25E6A, size: 0x8, addend: 0x0, symName: '__ZN4core5array88_$LT$impl$u20$core..ops..index..IndexMut$LT$I$GT$$u20$for$u20$$u5b$T$u3b$$u20$N$u5d$$GT$9index_mut17h8ce142b4c220b6d2E', symObjAddr: 0x5AF4, symBinAddr: 0x99E0, symSize: 0x18 }
  - { offset: 0x25E8E, size: 0x8, addend: 0x0, symName: '__ZN4core5array88_$LT$impl$u20$core..ops..index..IndexMut$LT$I$GT$$u20$for$u20$$u5b$T$u3b$$u20$N$u5d$$GT$9index_mut17h8ce142b4c220b6d2E', symObjAddr: 0x5AF4, symBinAddr: 0x99E0, symSize: 0x18 }
  - { offset: 0x25EB1, size: 0x8, addend: 0x0, symName: '__ZN4core5array88_$LT$impl$u20$core..ops..index..IndexMut$LT$I$GT$$u20$for$u20$$u5b$T$u3b$$u20$N$u5d$$GT$9index_mut17h8ce142b4c220b6d2E', symObjAddr: 0x5AF4, symBinAddr: 0x99E0, symSize: 0x18 }
  - { offset: 0x27A28, size: 0x8, addend: 0x0, symName: __ZN5alloc11collections5btree4node13move_to_slice17h6597a210436385c3E, symObjAddr: 0x4A2C, symBinAddr: 0x8918, symSize: 0x24 }
  - { offset: 0x27A97, size: 0x8, addend: 0x0, symName: __ZN5alloc11collections5btree4node13move_to_slice17h26cc19a954cc2ceaE, symObjAddr: 0x4A50, symBinAddr: 0x893C, symSize: 0x20 }
  - { offset: 0x2960A, size: 0x8, addend: 0x0, symName: __ZN5alloc11collections5btree4node13move_to_slice17h94d3c68d1e76307bE, symObjAddr: 0x5398, symBinAddr: 0x9284, symSize: 0x18 }
  - { offset: 0x2C450, size: 0x8, addend: 0x0, symName: __ZN5alloc11collections5btree4node12slice_insert17h1ed02866a7b068bcE, symObjAddr: 0x59A8, symBinAddr: 0x9894, symSize: 0x64 }
  - { offset: 0x2C54C, size: 0x8, addend: 0x0, symName: __ZN5alloc11collections5btree4node13move_to_slice17h1658ae79119c08bcE, symObjAddr: 0x5A0C, symBinAddr: 0x98F8, symSize: 0x20 }
  - { offset: 0x2C5BB, size: 0x8, addend: 0x0, symName: __ZN5alloc11collections5btree4node13move_to_slice17h85b3b4cd224dbbf1E, symObjAddr: 0x5A2C, symBinAddr: 0x9918, symSize: 0x24 }
  - { offset: 0x2C62A, size: 0x8, addend: 0x0, symName: __ZN5alloc11collections5btree4node13move_to_slice17hbd292b2ba5e2ddbdE, symObjAddr: 0x5A50, symBinAddr: 0x993C, symSize: 0x20 }
  - { offset: 0x2C699, size: 0x8, addend: 0x0, symName: __ZN5alloc11collections5btree4node13move_to_slice17he9262729a4a6a504E, symObjAddr: 0x5A70, symBinAddr: 0x995C, symSize: 0x20 }
  - { offset: 0x34D85, size: 0x8, addend: 0x0, symName: '__ZN5alloc11collections5btree4node125NodeRef$LT$alloc..collections..btree..node..marker..Mut$C$K$C$V$C$alloc..collections..btree..node..marker..LeafOrInternal$GT$16choose_parent_kv17h247e805bf4baaecaE', symObjAddr: 0x448C, symBinAddr: 0x8378, symSize: 0x6C }
  - { offset: 0x34DAC, size: 0x8, addend: 0x0, symName: '__ZN5alloc11collections5btree4node125NodeRef$LT$alloc..collections..btree..node..marker..Mut$C$K$C$V$C$alloc..collections..btree..node..marker..LeafOrInternal$GT$16choose_parent_kv17h247e805bf4baaecaE', symObjAddr: 0x448C, symBinAddr: 0x8378, symSize: 0x6C }
  - { offset: 0x34DC6, size: 0x8, addend: 0x0, symName: '__ZN5alloc11collections5btree4node125NodeRef$LT$alloc..collections..btree..node..marker..Mut$C$K$C$V$C$alloc..collections..btree..node..marker..LeafOrInternal$GT$16choose_parent_kv17h247e805bf4baaecaE', symObjAddr: 0x448C, symBinAddr: 0x8378, symSize: 0x6C }
  - { offset: 0x355E5, size: 0x8, addend: 0x0, symName: '__ZN5alloc11collections5btree4node29BalancingContext$LT$K$C$V$GT$15bulk_steal_left17hb481b83ab1d96c3eE', symObjAddr: 0x44F8, symBinAddr: 0x83E4, symSize: 0x1FC }
  - { offset: 0x35EE0, size: 0x8, addend: 0x0, symName: '__ZN5alloc11collections5btree4node29BalancingContext$LT$K$C$V$GT$8do_merge17h6ec997e619a0cb23E', symObjAddr: 0x46F4, symBinAddr: 0x85E0, symSize: 0x154 }
  - { offset: 0x36640, size: 0x8, addend: 0x0, symName: '__ZN5alloc11collections5btree4node29BalancingContext$LT$K$C$V$GT$16bulk_steal_right17h475e8eee04dca1f5E', symObjAddr: 0x4848, symBinAddr: 0x8734, symSize: 0x1E4 }
  - { offset: 0x36EA3, size: 0x8, addend: 0x0, symName: '__ZN5alloc11collections5btree4node119NodeRef$LT$alloc..collections..btree..node..marker..Mut$C$K$C$V$C$alloc..collections..btree..node..marker..Internal$GT$30correct_childrens_parent_links17hd3e94bf25d7d61acE', symObjAddr: 0x4A70, symBinAddr: 0x895C, symSize: 0x24 }
  - { offset: 0x36ED2, size: 0x8, addend: 0x0, symName: '__ZN5alloc11collections5btree4node119NodeRef$LT$alloc..collections..btree..node..marker..Mut$C$K$C$V$C$alloc..collections..btree..node..marker..Internal$GT$30correct_childrens_parent_links17hd3e94bf25d7d61acE', symObjAddr: 0x4A70, symBinAddr: 0x895C, symSize: 0x24 }
  - { offset: 0x372FB, size: 0x8, addend: 0x0, symName: '__ZN5alloc11collections5btree4node125NodeRef$LT$alloc..collections..btree..node..marker..Mut$C$K$C$V$C$alloc..collections..btree..node..marker..LeafOrInternal$GT$16choose_parent_kv17h923e56ff15952205E', symObjAddr: 0x4A94, symBinAddr: 0x8980, symSize: 0x70 }
  - { offset: 0x37322, size: 0x8, addend: 0x0, symName: '__ZN5alloc11collections5btree4node125NodeRef$LT$alloc..collections..btree..node..marker..Mut$C$K$C$V$C$alloc..collections..btree..node..marker..LeafOrInternal$GT$16choose_parent_kv17h923e56ff15952205E', symObjAddr: 0x4A94, symBinAddr: 0x8980, symSize: 0x70 }
  - { offset: 0x3733C, size: 0x8, addend: 0x0, symName: '__ZN5alloc11collections5btree4node125NodeRef$LT$alloc..collections..btree..node..marker..Mut$C$K$C$V$C$alloc..collections..btree..node..marker..LeafOrInternal$GT$16choose_parent_kv17h923e56ff15952205E', symObjAddr: 0x4A94, symBinAddr: 0x8980, symSize: 0x70 }
  - { offset: 0x379A9, size: 0x8, addend: 0x0, symName: '__ZN5alloc11collections5btree4node29BalancingContext$LT$K$C$V$GT$15bulk_steal_left17hebfca9d5a08373f4E', symObjAddr: 0x4B04, symBinAddr: 0x89F0, symSize: 0x1BC }
  - { offset: 0x383AE, size: 0x8, addend: 0x0, symName: '__ZN5alloc11collections5btree4node29BalancingContext$LT$K$C$V$GT$8do_merge17h7c527ee688048dc7E', symObjAddr: 0x4CC0, symBinAddr: 0x8BAC, symSize: 0x13C }
  - { offset: 0x38C08, size: 0x8, addend: 0x0, symName: '__ZN5alloc11collections5btree4node29BalancingContext$LT$K$C$V$GT$16bulk_steal_right17h5887a99c4534ad6aE', symObjAddr: 0x4DFC, symBinAddr: 0x8CE8, symSize: 0x1A4 }
  - { offset: 0x39862, size: 0x8, addend: 0x0, symName: '__ZN5alloc11collections5btree4node125NodeRef$LT$alloc..collections..btree..node..marker..Mut$C$K$C$V$C$alloc..collections..btree..node..marker..LeafOrInternal$GT$16choose_parent_kv17h842a4da397e2df78E', symObjAddr: 0x4FA0, symBinAddr: 0x8E8C, symSize: 0x6C }
  - { offset: 0x39889, size: 0x8, addend: 0x0, symName: '__ZN5alloc11collections5btree4node125NodeRef$LT$alloc..collections..btree..node..marker..Mut$C$K$C$V$C$alloc..collections..btree..node..marker..LeafOrInternal$GT$16choose_parent_kv17h842a4da397e2df78E', symObjAddr: 0x4FA0, symBinAddr: 0x8E8C, symSize: 0x6C }
  - { offset: 0x398A3, size: 0x8, addend: 0x0, symName: '__ZN5alloc11collections5btree4node125NodeRef$LT$alloc..collections..btree..node..marker..Mut$C$K$C$V$C$alloc..collections..btree..node..marker..LeafOrInternal$GT$16choose_parent_kv17h842a4da397e2df78E', symObjAddr: 0x4FA0, symBinAddr: 0x8E8C, symSize: 0x6C }
  - { offset: 0x39EBF, size: 0x8, addend: 0x0, symName: '__ZN5alloc11collections5btree4node29BalancingContext$LT$K$C$V$GT$15bulk_steal_left17h9cdedd7073236529E', symObjAddr: 0x500C, symBinAddr: 0x8EF8, symSize: 0x154 }
  - { offset: 0x3A4A4, size: 0x8, addend: 0x0, symName: '__ZN5alloc11collections5btree4node29BalancingContext$LT$K$C$V$GT$8do_merge17h433feb54861ee987E', symObjAddr: 0x5160, symBinAddr: 0x904C, symSize: 0x11C }
  - { offset: 0x3A9A3, size: 0x8, addend: 0x0, symName: '__ZN5alloc11collections5btree4node29BalancingContext$LT$K$C$V$GT$16bulk_steal_right17hc01bccdf8dad1062E', symObjAddr: 0x527C, symBinAddr: 0x9168, symSize: 0x11C }
  - { offset: 0x3AFAB, size: 0x8, addend: 0x0, symName: '__ZN5alloc11collections5btree4node119NodeRef$LT$alloc..collections..btree..node..marker..Mut$C$K$C$V$C$alloc..collections..btree..node..marker..Internal$GT$30correct_childrens_parent_links17hbe81904ef6e22585E', symObjAddr: 0x53B0, symBinAddr: 0x929C, symSize: 0x24 }
  - { offset: 0x3AFDA, size: 0x8, addend: 0x0, symName: '__ZN5alloc11collections5btree4node119NodeRef$LT$alloc..collections..btree..node..marker..Mut$C$K$C$V$C$alloc..collections..btree..node..marker..Internal$GT$30correct_childrens_parent_links17hbe81904ef6e22585E', symObjAddr: 0x53B0, symBinAddr: 0x929C, symSize: 0x24 }
  - { offset: 0x3B262, size: 0x8, addend: 0x0, symName: '__ZN5alloc11collections5btree3fix176_$LT$impl$u20$alloc..collections..btree..node..NodeRef$LT$alloc..collections..btree..node..marker..Mut$C$K$C$V$C$alloc..collections..btree..node..marker..LeafOrInternal$GT$$GT$31fix_node_and_affected_ancestors17hb124988126523625E', symObjAddr: 0x53D4, symBinAddr: 0x92C0, symSize: 0xC4 }
  - { offset: 0x3B3F1, size: 0x8, addend: 0x0, symName: '__ZN5alloc11collections5btree4node115NodeRef$LT$alloc..collections..btree..node..marker..Mut$C$K$C$V$C$alloc..collections..btree..node..marker..Leaf$GT$16push_with_handle17h2297174150ab597aE', symObjAddr: 0x5498, symBinAddr: 0x9384, symSize: 0x44 }
  - { offset: 0x3B42C, size: 0x8, addend: 0x0, symName: '__ZN5alloc11collections5btree4node115NodeRef$LT$alloc..collections..btree..node..marker..Mut$C$K$C$V$C$alloc..collections..btree..node..marker..Leaf$GT$16push_with_handle17h2297174150ab597aE', symObjAddr: 0x5498, symBinAddr: 0x9384, symSize: 0x44 }
  - { offset: 0x3B58D, size: 0x8, addend: 0x0, symName: '__ZN5alloc11collections5btree4node115NodeRef$LT$alloc..collections..btree..node..marker..Mut$C$K$C$V$C$alloc..collections..btree..node..marker..Leaf$GT$16push_with_handle17h4d4adb08a7c63cfcE', symObjAddr: 0x54DC, symBinAddr: 0x93C8, symSize: 0x50 }
  - { offset: 0x3B5CC, size: 0x8, addend: 0x0, symName: '__ZN5alloc11collections5btree4node115NodeRef$LT$alloc..collections..btree..node..marker..Mut$C$K$C$V$C$alloc..collections..btree..node..marker..Leaf$GT$16push_with_handle17h4d4adb08a7c63cfcE', symObjAddr: 0x54DC, symBinAddr: 0x93C8, symSize: 0x50 }
  - { offset: 0x3B6B8, size: 0x8, addend: 0x0, symName: '__ZN5alloc11collections5btree4node21LeafNode$LT$K$C$V$GT$3new17hd41c1ba31cb2c353E', symObjAddr: 0x552C, symBinAddr: 0x9418, symSize: 0x24 }
  - { offset: 0x3B7B4, size: 0x8, addend: 0x0, symName: '__ZN5alloc11collections5btree4node117NodeRef$LT$alloc..collections..btree..node..marker..Owned$C$K$C$V$C$alloc..collections..btree..node..marker..Leaf$GT$8new_leaf17h5813c5ae4466d226E', symObjAddr: 0x5550, symBinAddr: 0x943C, symSize: 0x18 }
  - { offset: 0x3B839, size: 0x8, addend: 0x0, symName: '__ZN5alloc11collections5btree4node21LeafNode$LT$K$C$V$GT$3new17h40434601309c5245E', symObjAddr: 0x5568, symBinAddr: 0x9454, symSize: 0x28 }
  - { offset: 0x3BA6C, size: 0x8, addend: 0x0, symName: '__ZN5alloc11collections5btree4node21LeafNode$LT$K$C$V$GT$3new17h7a5dc351fd4aa443E', symObjAddr: 0x5590, symBinAddr: 0x947C, symSize: 0x28 }
  - { offset: 0x3BC19, size: 0x8, addend: 0x0, symName: '__ZN5alloc11collections5btree4node117NodeRef$LT$alloc..collections..btree..node..marker..Owned$C$K$C$V$C$alloc..collections..btree..node..marker..Leaf$GT$8new_leaf17ha7a13c2ec63eb787E', symObjAddr: 0x55B8, symBinAddr: 0x94A4, symSize: 0x18 }
  - { offset: 0x3BD55, size: 0x8, addend: 0x0, symName: '__ZN5alloc11collections5btree4node21LeafNode$LT$K$C$V$GT$3new17h00cf4b98cb47e9daE', symObjAddr: 0x55D0, symBinAddr: 0x94BC, symSize: 0x28 }
  - { offset: 0x3BFCD, size: 0x8, addend: 0x0, symName: '__ZN5alloc11collections5btree4node119NodeRef$LT$alloc..collections..btree..node..marker..Mut$C$K$C$V$C$alloc..collections..btree..node..marker..Internal$GT$4push17h421aa913045d0ef1E', symObjAddr: 0x5630, symBinAddr: 0x951C, symSize: 0x60 }
  - { offset: 0x3C260, size: 0x8, addend: 0x0, symName: '__ZN5alloc11collections5btree4node119NodeRef$LT$alloc..collections..btree..node..marker..Mut$C$K$C$V$C$alloc..collections..btree..node..marker..Internal$GT$4push17h63339b5714786b0aE', symObjAddr: 0x5690, symBinAddr: 0x957C, symSize: 0x64 }
  - { offset: 0x3C470, size: 0x8, addend: 0x0, symName: '__ZN5alloc11collections5btree4node25InternalNode$LT$K$C$V$GT$3new17hd371feeebd59dc30E', symObjAddr: 0x56F4, symBinAddr: 0x95E0, symSize: 0x28 }
  - { offset: 0x3C859, size: 0x8, addend: 0x0, symName: '__ZN5alloc11collections5btree4node121NodeRef$LT$alloc..collections..btree..node..marker..Owned$C$K$C$V$C$alloc..collections..btree..node..marker..Internal$GT$17from_new_internal17h306e15bdb4c5fbd6E', symObjAddr: 0x571C, symBinAddr: 0x9608, symSize: 0x48 }
  - { offset: 0x3CA90, size: 0x8, addend: 0x0, symName: '__ZN5alloc11collections5btree4node25InternalNode$LT$K$C$V$GT$3new17hb7d1e8414bfb3fc7E', symObjAddr: 0x5764, symBinAddr: 0x9650, symSize: 0x24 }
  - { offset: 0x3CD92, size: 0x8, addend: 0x0, symName: '__ZN5alloc11collections5btree4node121NodeRef$LT$alloc..collections..btree..node..marker..Owned$C$K$C$V$C$alloc..collections..btree..node..marker..Internal$GT$17from_new_internal17haa24e6b12027297bE', symObjAddr: 0x5788, symBinAddr: 0x9674, symSize: 0x48 }
  - { offset: 0x3CFC9, size: 0x8, addend: 0x0, symName: '__ZN5alloc11collections5btree4node25InternalNode$LT$K$C$V$GT$3new17hc881f0c9c3011ad7E', symObjAddr: 0x57D0, symBinAddr: 0x96BC, symSize: 0x28 }
  - { offset: 0x3D1FC, size: 0x8, addend: 0x0, symName: '__ZN5alloc11collections5btree4node121NodeRef$LT$alloc..collections..btree..node..marker..Owned$C$K$C$V$C$alloc..collections..btree..node..marker..Internal$GT$17from_new_internal17h49867ef0a0fe0c73E', symObjAddr: 0x57F8, symBinAddr: 0x96E4, symSize: 0x48 }
  - { offset: 0x3D433, size: 0x8, addend: 0x0, symName: '__ZN5alloc11collections5btree4node25InternalNode$LT$K$C$V$GT$3new17he28f3935e91138e7E', symObjAddr: 0x5840, symBinAddr: 0x972C, symSize: 0x28 }
  - { offset: 0x3D7F7, size: 0x8, addend: 0x0, symName: '__ZN5alloc11collections5btree4node121NodeRef$LT$alloc..collections..btree..node..marker..Owned$C$K$C$V$C$alloc..collections..btree..node..marker..Internal$GT$17from_new_internal17h38441c4cff82b2a4E', symObjAddr: 0x5868, symBinAddr: 0x9754, symSize: 0x48 }
  - { offset: 0x3DB20, size: 0x8, addend: 0x0, symName: '__ZN5alloc11collections5btree4node127NodeRef$LT$alloc..collections..btree..node..marker..Dying$C$K$C$V$C$alloc..collections..btree..node..marker..LeafOrInternal$GT$21deallocate_and_ascend17h07907f8236704320E', symObjAddr: 0x58B0, symBinAddr: 0x979C, symSize: 0x18 }
  - { offset: 0x3DB4F, size: 0x8, addend: 0x0, symName: '__ZN5alloc11collections5btree4node127NodeRef$LT$alloc..collections..btree..node..marker..Dying$C$K$C$V$C$alloc..collections..btree..node..marker..LeafOrInternal$GT$21deallocate_and_ascend17h07907f8236704320E', symObjAddr: 0x58B0, symBinAddr: 0x979C, symSize: 0x18 }
  - { offset: 0x3DB6B, size: 0x8, addend: 0x0, symName: '__ZN5alloc11collections5btree4node127NodeRef$LT$alloc..collections..btree..node..marker..Dying$C$K$C$V$C$alloc..collections..btree..node..marker..LeafOrInternal$GT$21deallocate_and_ascend17h07907f8236704320E', symObjAddr: 0x58B0, symBinAddr: 0x979C, symSize: 0x18 }
  - { offset: 0x3DB8B, size: 0x8, addend: 0x0, symName: '__ZN5alloc11collections5btree4node127NodeRef$LT$alloc..collections..btree..node..marker..Dying$C$K$C$V$C$alloc..collections..btree..node..marker..LeafOrInternal$GT$21deallocate_and_ascend17h07907f8236704320E', symObjAddr: 0x58B0, symBinAddr: 0x979C, symSize: 0x18 }
  - { offset: 0x3DBA5, size: 0x8, addend: 0x0, symName: '__ZN5alloc11collections5btree4node127NodeRef$LT$alloc..collections..btree..node..marker..Dying$C$K$C$V$C$alloc..collections..btree..node..marker..LeafOrInternal$GT$21deallocate_and_ascend17h07907f8236704320E', symObjAddr: 0x58B0, symBinAddr: 0x979C, symSize: 0x18 }
  - { offset: 0x3DCFD, size: 0x8, addend: 0x0, symName: '__ZN5alloc11collections5btree4node127NodeRef$LT$alloc..collections..btree..node..marker..Dying$C$K$C$V$C$alloc..collections..btree..node..marker..LeafOrInternal$GT$21deallocate_and_ascend17h590a1eb4cf1099beE', symObjAddr: 0x58C8, symBinAddr: 0x97B4, symSize: 0x18 }
  - { offset: 0x3DD2C, size: 0x8, addend: 0x0, symName: '__ZN5alloc11collections5btree4node127NodeRef$LT$alloc..collections..btree..node..marker..Dying$C$K$C$V$C$alloc..collections..btree..node..marker..LeafOrInternal$GT$21deallocate_and_ascend17h590a1eb4cf1099beE', symObjAddr: 0x58C8, symBinAddr: 0x97B4, symSize: 0x18 }
  - { offset: 0x3DD48, size: 0x8, addend: 0x0, symName: '__ZN5alloc11collections5btree4node127NodeRef$LT$alloc..collections..btree..node..marker..Dying$C$K$C$V$C$alloc..collections..btree..node..marker..LeafOrInternal$GT$21deallocate_and_ascend17h590a1eb4cf1099beE', symObjAddr: 0x58C8, symBinAddr: 0x97B4, symSize: 0x18 }
  - { offset: 0x3DD68, size: 0x8, addend: 0x0, symName: '__ZN5alloc11collections5btree4node127NodeRef$LT$alloc..collections..btree..node..marker..Dying$C$K$C$V$C$alloc..collections..btree..node..marker..LeafOrInternal$GT$21deallocate_and_ascend17h590a1eb4cf1099beE', symObjAddr: 0x58C8, symBinAddr: 0x97B4, symSize: 0x18 }
  - { offset: 0x3DD82, size: 0x8, addend: 0x0, symName: '__ZN5alloc11collections5btree4node127NodeRef$LT$alloc..collections..btree..node..marker..Dying$C$K$C$V$C$alloc..collections..btree..node..marker..LeafOrInternal$GT$21deallocate_and_ascend17h590a1eb4cf1099beE', symObjAddr: 0x58C8, symBinAddr: 0x97B4, symSize: 0x18 }
  - { offset: 0x3DEF4, size: 0x8, addend: 0x0, symName: '__ZN5alloc11collections5btree4node127NodeRef$LT$alloc..collections..btree..node..marker..Dying$C$K$C$V$C$alloc..collections..btree..node..marker..LeafOrInternal$GT$21deallocate_and_ascend17hf0d3a2ad6cc394eeE', symObjAddr: 0x58E0, symBinAddr: 0x97CC, symSize: 0x18 }
  - { offset: 0x3DF23, size: 0x8, addend: 0x0, symName: '__ZN5alloc11collections5btree4node127NodeRef$LT$alloc..collections..btree..node..marker..Dying$C$K$C$V$C$alloc..collections..btree..node..marker..LeafOrInternal$GT$21deallocate_and_ascend17hf0d3a2ad6cc394eeE', symObjAddr: 0x58E0, symBinAddr: 0x97CC, symSize: 0x18 }
  - { offset: 0x3DF3F, size: 0x8, addend: 0x0, symName: '__ZN5alloc11collections5btree4node127NodeRef$LT$alloc..collections..btree..node..marker..Dying$C$K$C$V$C$alloc..collections..btree..node..marker..LeafOrInternal$GT$21deallocate_and_ascend17hf0d3a2ad6cc394eeE', symObjAddr: 0x58E0, symBinAddr: 0x97CC, symSize: 0x18 }
  - { offset: 0x3DF5F, size: 0x8, addend: 0x0, symName: '__ZN5alloc11collections5btree4node127NodeRef$LT$alloc..collections..btree..node..marker..Dying$C$K$C$V$C$alloc..collections..btree..node..marker..LeafOrInternal$GT$21deallocate_and_ascend17hf0d3a2ad6cc394eeE', symObjAddr: 0x58E0, symBinAddr: 0x97CC, symSize: 0x18 }
  - { offset: 0x3DF79, size: 0x8, addend: 0x0, symName: '__ZN5alloc11collections5btree4node127NodeRef$LT$alloc..collections..btree..node..marker..Dying$C$K$C$V$C$alloc..collections..btree..node..marker..LeafOrInternal$GT$21deallocate_and_ascend17hf0d3a2ad6cc394eeE', symObjAddr: 0x58E0, symBinAddr: 0x97CC, symSize: 0x18 }
  - { offset: 0x3E094, size: 0x8, addend: 0x0, symName: '__ZN5alloc11collections5btree4node127NodeRef$LT$alloc..collections..btree..node..marker..Owned$C$K$C$V$C$alloc..collections..btree..node..marker..LeafOrInternal$GT$18pop_internal_level17h94a3dcc44e12c87fE', symObjAddr: 0x58F8, symBinAddr: 0x97E4, symSize: 0x30 }
  - { offset: 0x3E2D3, size: 0x8, addend: 0x0, symName: '__ZN5alloc11collections5btree4node127NodeRef$LT$alloc..collections..btree..node..marker..Owned$C$K$C$V$C$alloc..collections..btree..node..marker..LeafOrInternal$GT$19push_internal_level17hd1991691f5cdde6aE', symObjAddr: 0x5928, symBinAddr: 0x9814, symSize: 0x34 }
  - { offset: 0x3E4E7, size: 0x8, addend: 0x0, symName: '__ZN5alloc11collections5btree4node127NodeRef$LT$alloc..collections..btree..node..marker..Owned$C$K$C$V$C$alloc..collections..btree..node..marker..LeafOrInternal$GT$19push_internal_level17he9531a210fe506fcE', symObjAddr: 0x595C, symBinAddr: 0x9848, symSize: 0x34 }
  - { offset: 0x3E670, size: 0x8, addend: 0x0, symName: '__ZN5alloc11collections5btree4node127NodeRef$LT$alloc..collections..btree..node..marker..Owned$C$K$C$V$C$alloc..collections..btree..node..marker..LeafOrInternal$GT$3new17h59f7d1e89297dcf5E', symObjAddr: 0x5990, symBinAddr: 0x987C, symSize: 0x18 }
  - { offset: 0x3E7F4, size: 0x8, addend: 0x0, symName: '__ZN5alloc11collections5btree4node208Handle$LT$alloc..collections..btree..node..NodeRef$LT$alloc..collections..btree..node..marker..Mut$C$K$C$V$C$alloc..collections..btree..node..marker..Leaf$GT$$C$alloc..collections..btree..node..marker..KV$GT$6remove17he6e3aaddd9e1a72fE', symObjAddr: 0x5B0C, symBinAddr: 0x99F8, symSize: 0xAC }
  - { offset: 0x3EBD4, size: 0x8, addend: 0x0, symName: '__ZN5alloc11collections5btree4node210Handle$LT$alloc..collections..btree..node..NodeRef$LT$alloc..collections..btree..node..marker..Mut$C$K$C$V$C$alloc..collections..btree..node..marker..Leaf$GT$$C$alloc..collections..btree..node..marker..Edge$GT$10insert_fit17h032951dc93bd5810E', symObjAddr: 0x5BB8, symBinAddr: 0x9AA4, symSize: 0x64 }
  - { offset: 0x3EE48, size: 0x8, addend: 0x0, symName: '__ZN5alloc11collections5btree4node210Handle$LT$alloc..collections..btree..node..NodeRef$LT$alloc..collections..btree..node..marker..Mut$C$K$C$V$C$alloc..collections..btree..node..marker..Leaf$GT$$C$alloc..collections..btree..node..marker..Edge$GT$10insert_fit17h1fe03b9f0779f6adE', symObjAddr: 0x5C1C, symBinAddr: 0x9B08, symSize: 0x80 }
  - { offset: 0x3F189, size: 0x8, addend: 0x0, symName: '__ZN5alloc11collections5btree4node210Handle$LT$alloc..collections..btree..node..NodeRef$LT$alloc..collections..btree..node..marker..Mut$C$K$C$V$C$alloc..collections..btree..node..marker..Leaf$GT$$C$alloc..collections..btree..node..marker..Edge$GT$10insert_fit17h6e48b3c6ed0f9a70E', symObjAddr: 0x5C9C, symBinAddr: 0x9B88, symSize: 0x8C }
  - { offset: 0x3F4B1, size: 0x8, addend: 0x0, symName: '__ZN5alloc11collections5btree4node210Handle$LT$alloc..collections..btree..node..NodeRef$LT$alloc..collections..btree..node..marker..Mut$C$K$C$V$C$alloc..collections..btree..node..marker..Leaf$GT$$C$alloc..collections..btree..node..marker..Edge$GT$10insert_fit17h89dc646e122fb658E', symObjAddr: 0x5D28, symBinAddr: 0x9C14, symSize: 0x50 }
  - { offset: 0x3F75A, size: 0x8, addend: 0x0, symName: '__ZN5alloc11collections5btree4node214Handle$LT$alloc..collections..btree..node..NodeRef$LT$alloc..collections..btree..node..marker..Mut$C$K$C$V$C$alloc..collections..btree..node..marker..Internal$GT$$C$alloc..collections..btree..node..marker..Edge$GT$10insert_fit17h9770750b7f013e24E', symObjAddr: 0x5D78, symBinAddr: 0x9C64, symSize: 0xA0 }
  - { offset: 0x3FAA6, size: 0x8, addend: 0x0, symName: '__ZN5alloc11collections5btree4node214Handle$LT$alloc..collections..btree..node..NodeRef$LT$alloc..collections..btree..node..marker..Mut$C$K$C$V$C$alloc..collections..btree..node..marker..Internal$GT$$C$alloc..collections..btree..node..marker..Edge$GT$10insert_fit17hcaa94e74f6e9aca2E', symObjAddr: 0x5E18, symBinAddr: 0x9D04, symSize: 0x80 }
  - { offset: 0x3FD7A, size: 0x8, addend: 0x0, symName: '__ZN5alloc11collections5btree4node214Handle$LT$alloc..collections..btree..node..NodeRef$LT$alloc..collections..btree..node..marker..Mut$C$K$C$V$C$alloc..collections..btree..node..marker..Internal$GT$$C$alloc..collections..btree..node..marker..Edge$GT$10insert_fit17h2332d6b4caa42dd5E', symObjAddr: 0x5E98, symBinAddr: 0x9D84, symSize: 0xE8 }
  - { offset: 0x40234, size: 0x8, addend: 0x0, symName: '__ZN5alloc11collections5btree4node214Handle$LT$alloc..collections..btree..node..NodeRef$LT$alloc..collections..btree..node..marker..Mut$C$K$C$V$C$alloc..collections..btree..node..marker..Internal$GT$$C$alloc..collections..btree..node..marker..Edge$GT$10insert_fit17h58678f6b7e9717ceE', symObjAddr: 0x5F80, symBinAddr: 0x9E6C, symSize: 0x98 }
  - { offset: 0x40529, size: 0x8, addend: 0x0, symName: '__ZN5alloc11collections5btree4node214Handle$LT$alloc..collections..btree..node..NodeRef$LT$alloc..collections..btree..node..marker..Mut$C$K$C$V$C$alloc..collections..btree..node..marker..Internal$GT$$C$alloc..collections..btree..node..marker..Edge$GT$10insert_fit17h4b2059ca7ee0a6ecE', symObjAddr: 0x6018, symBinAddr: 0x9F04, symSize: 0xB8 }
  - { offset: 0x40999, size: 0x8, addend: 0x0, symName: '__ZN5alloc11collections5btree4node29BalancingContext$LT$K$C$V$GT$10steal_left17h81c64f5d1ff76f9cE', symObjAddr: 0x60D0, symBinAddr: 0x9FBC, symSize: 0x38 }
  - { offset: 0x40A05, size: 0x8, addend: 0x0, symName: '__ZN5alloc11collections5btree4node29BalancingContext$LT$K$C$V$GT$11steal_right17h28b59adb179ffd91E', symObjAddr: 0x6108, symBinAddr: 0x9FF4, symSize: 0x34 }
  - { offset: 0x40A71, size: 0x8, addend: 0x0, symName: '__ZN5alloc11collections5btree4node29BalancingContext$LT$K$C$V$GT$8do_merge17hb94220a5cc218868E', symObjAddr: 0x613C, symBinAddr: 0xA028, symSize: 0x150 }
  - { offset: 0x411C2, size: 0x8, addend: 0x0, symName: '__ZN5alloc11collections5btree4node29BalancingContext$LT$K$C$V$GT$8do_merge17hf442c3c087c01541E', symObjAddr: 0x628C, symBinAddr: 0xA178, symSize: 0x134 }
  - { offset: 0x41A12, size: 0x8, addend: 0x0, symName: '__ZN5alloc11collections5btree4node29BalancingContext$LT$K$C$V$GT$8do_merge17h986ac58792729c1aE', symObjAddr: 0x63C0, symBinAddr: 0xA2AC, symSize: 0x11C }
  - { offset: 0x41F81, size: 0x8, addend: 0x0, symName: '__ZN5alloc11collections5btree4node29BalancingContext$LT$K$C$V$GT$25merge_tracking_child_edge17h817b1c9f935afddbE', symObjAddr: 0x64DC, symBinAddr: 0xA3C8, symSize: 0x64 }
  - { offset: 0x42181, size: 0x8, addend: 0x0, symName: '__ZN5alloc11collections5btree4node29BalancingContext$LT$K$C$V$GT$25merge_tracking_child_edge17h8fbbdf00ab5cce07E', symObjAddr: 0x6540, symBinAddr: 0xA42C, symSize: 0x64 }
  - { offset: 0x4233E, size: 0x8, addend: 0x0, symName: '__ZN5alloc11collections5btree4node29BalancingContext$LT$K$C$V$GT$25merge_tracking_child_edge17hb678be89c211f460E', symObjAddr: 0x65A4, symBinAddr: 0xA490, symSize: 0x64 }
  - { offset: 0x42524, size: 0x8, addend: 0x0, symName: '__ZN5alloc11collections5btree8navigate142_$LT$impl$u20$alloc..collections..btree..node..NodeRef$LT$BorrowType$C$K$C$V$C$alloc..collections..btree..node..marker..LeafOrInternal$GT$$GT$14last_leaf_edge17hb3fded1d09917ab7E', symObjAddr: 0x6608, symBinAddr: 0xA4F4, symSize: 0x20 }
  - { offset: 0x42547, size: 0x8, addend: 0x0, symName: '__ZN5alloc11collections5btree8navigate142_$LT$impl$u20$alloc..collections..btree..node..NodeRef$LT$BorrowType$C$K$C$V$C$alloc..collections..btree..node..marker..LeafOrInternal$GT$$GT$14last_leaf_edge17hb3fded1d09917ab7E', symObjAddr: 0x6608, symBinAddr: 0xA4F4, symSize: 0x20 }
  - { offset: 0x4297F, size: 0x8, addend: 0x0, symName: '__ZN5alloc11collections5btree6remove259_$LT$impl$u20$alloc..collections..btree..node..Handle$LT$alloc..collections..btree..node..NodeRef$LT$alloc..collections..btree..node..marker..Mut$C$K$C$V$C$alloc..collections..btree..node..marker..Leaf$GT$$C$alloc..collections..btree..node..marker..KV$GT$$GT$14remove_leaf_kv17h365a8ed5b6022028E', symObjAddr: 0x6628, symBinAddr: 0xA514, symSize: 0x1B4 }
  - { offset: 0x42F31, size: 0x8, addend: 0x0, symName: '__ZN5alloc11collections5btree6remove259_$LT$impl$u20$alloc..collections..btree..node..Handle$LT$alloc..collections..btree..node..NodeRef$LT$alloc..collections..btree..node..marker..Mut$C$K$C$V$C$alloc..collections..btree..node..marker..Leaf$GT$$C$alloc..collections..btree..node..marker..KV$GT$$GT$14remove_leaf_kv17h3c8516e6277def9cE', symObjAddr: 0x67DC, symBinAddr: 0xA6C8, symSize: 0x128 }
  - { offset: 0x43513, size: 0x8, addend: 0x0, symName: '__ZN5alloc11collections5btree6remove259_$LT$impl$u20$alloc..collections..btree..node..Handle$LT$alloc..collections..btree..node..NodeRef$LT$alloc..collections..btree..node..marker..Mut$C$K$C$V$C$alloc..collections..btree..node..marker..Leaf$GT$$C$alloc..collections..btree..node..marker..KV$GT$$GT$14remove_leaf_kv17h799351ff0802b18eE', symObjAddr: 0x6904, symBinAddr: 0xA7F0, symSize: 0x214 }
  - { offset: 0x43A88, size: 0x8, addend: 0x0, symName: '__ZN5alloc11collections5btree8navigate142_$LT$impl$u20$alloc..collections..btree..node..NodeRef$LT$BorrowType$C$K$C$V$C$alloc..collections..btree..node..marker..LeafOrInternal$GT$$GT$14last_leaf_edge17h852b88eadd14e8a9E', symObjAddr: 0x6B18, symBinAddr: 0xAA04, symSize: 0x20 }
  - { offset: 0x43AAB, size: 0x8, addend: 0x0, symName: '__ZN5alloc11collections5btree8navigate142_$LT$impl$u20$alloc..collections..btree..node..NodeRef$LT$BorrowType$C$K$C$V$C$alloc..collections..btree..node..marker..LeafOrInternal$GT$$GT$14last_leaf_edge17h852b88eadd14e8a9E', symObjAddr: 0x6B18, symBinAddr: 0xAA04, symSize: 0x20 }
  - { offset: 0x43C9C, size: 0x8, addend: 0x0, symName: '__ZN5alloc11collections5btree8navigate227_$LT$impl$u20$alloc..collections..btree..node..Handle$LT$alloc..collections..btree..node..NodeRef$LT$BorrowType$C$K$C$V$C$alloc..collections..btree..node..marker..Leaf$GT$$C$alloc..collections..btree..node..marker..Edge$GT$$GT$7next_kv17h0151101b3c236d2bE', symObjAddr: 0x6B38, symBinAddr: 0xAA24, symSize: 0x44 }
  - { offset: 0x43CC2, size: 0x8, addend: 0x0, symName: '__ZN5alloc11collections5btree8navigate227_$LT$impl$u20$alloc..collections..btree..node..Handle$LT$alloc..collections..btree..node..NodeRef$LT$BorrowType$C$K$C$V$C$alloc..collections..btree..node..marker..Leaf$GT$$C$alloc..collections..btree..node..marker..Edge$GT$$GT$7next_kv17h0151101b3c236d2bE', symObjAddr: 0x6B38, symBinAddr: 0xAA24, symSize: 0x44 }
  - { offset: 0x43F39, size: 0x8, addend: 0x0, symName: '__ZN5alloc11collections5btree8navigate235_$LT$impl$u20$alloc..collections..btree..node..Handle$LT$alloc..collections..btree..node..NodeRef$LT$BorrowType$C$K$C$V$C$alloc..collections..btree..node..marker..LeafOrInternal$GT$$C$alloc..collections..btree..node..marker..KV$GT$$GT$14next_leaf_edge17hc0f6bca2441ca4bfE', symObjAddr: 0x6B7C, symBinAddr: 0xAA68, symSize: 0x48 }
  - { offset: 0x43F5F, size: 0x8, addend: 0x0, symName: '__ZN5alloc11collections5btree8navigate235_$LT$impl$u20$alloc..collections..btree..node..Handle$LT$alloc..collections..btree..node..NodeRef$LT$BorrowType$C$K$C$V$C$alloc..collections..btree..node..marker..LeafOrInternal$GT$$C$alloc..collections..btree..node..marker..KV$GT$$GT$14next_leaf_edge17hc0f6bca2441ca4bfE', symObjAddr: 0x6B7C, symBinAddr: 0xAA68, symSize: 0x48 }
  - { offset: 0x44342, size: 0x8, addend: 0x0, symName: '__ZN5alloc11collections5btree6search142_$LT$impl$u20$alloc..collections..btree..node..NodeRef$LT$BorrowType$C$K$C$V$C$alloc..collections..btree..node..marker..LeafOrInternal$GT$$GT$11search_tree17h5ed7e7b404de5d0cE', symObjAddr: 0x6BC4, symBinAddr: 0xAAB0, symSize: 0x7C }
  - { offset: 0x4479D, size: 0x8, addend: 0x0, symName: '__ZN5alloc11collections5btree6search142_$LT$impl$u20$alloc..collections..btree..node..NodeRef$LT$BorrowType$C$K$C$V$C$alloc..collections..btree..node..marker..LeafOrInternal$GT$$GT$11search_tree17h8620f2bfa987ee9bE', symObjAddr: 0x6C40, symBinAddr: 0xAB2C, symSize: 0x7C }
  - { offset: 0x4C03A, size: 0x8, addend: 0x0, symName: _OUTLINED_FUNCTION_0, symObjAddr: 0x3B064, symBinAddr: 0x3D5A4, symSize: 0x18 }
  - { offset: 0x4C051, size: 0x8, addend: 0x0, symName: _OUTLINED_FUNCTION_19, symObjAddr: 0x3B1C8, symBinAddr: 0x3D708, symSize: 0x10 }
  - { offset: 0x4C068, size: 0x8, addend: 0x0, symName: _OUTLINED_FUNCTION_38, symObjAddr: 0x3B348, symBinAddr: 0x3D888, symSize: 0x1C }
  - { offset: 0x4C07F, size: 0x8, addend: 0x0, symName: _OUTLINED_FUNCTION_39, symObjAddr: 0x3B364, symBinAddr: 0x3D8A4, symSize: 0x1C }
  - { offset: 0x4C096, size: 0x8, addend: 0x0, symName: _OUTLINED_FUNCTION_41, symObjAddr: 0x3B39C, symBinAddr: 0x3D8DC, symSize: 0x1C }
  - { offset: 0x4C0AD, size: 0x8, addend: 0x0, symName: _OUTLINED_FUNCTION_64, symObjAddr: 0x3B544, symBinAddr: 0x3DA84, symSize: 0x10 }
  - { offset: 0x4C0C4, size: 0x8, addend: 0x0, symName: _OUTLINED_FUNCTION_104, symObjAddr: 0x3B894, symBinAddr: 0x3DDD4, symSize: 0x1C }
  - { offset: 0x4C0DB, size: 0x8, addend: 0x0, symName: _OUTLINED_FUNCTION_105, symObjAddr: 0x3B8B0, symBinAddr: 0x3DDF0, symSize: 0x1C }
  - { offset: 0x4C0F2, size: 0x8, addend: 0x0, symName: _OUTLINED_FUNCTION_152, symObjAddr: 0x3BC98, symBinAddr: 0x3E1D8, symSize: 0x10 }
  - { offset: 0x4C109, size: 0x8, addend: 0x0, symName: _OUTLINED_FUNCTION_171, symObjAddr: 0x3BDB0, symBinAddr: 0x3E2F0, symSize: 0x8 }
  - { offset: 0x4C120, size: 0x8, addend: 0x0, symName: _OUTLINED_FUNCTION_203, symObjAddr: 0x3BFD8, symBinAddr: 0x3E518, symSize: 0xC }
  - { offset: 0x4C137, size: 0x8, addend: 0x0, symName: _OUTLINED_FUNCTION_237, symObjAddr: 0x3C1B4, symBinAddr: 0x3E6F4, symSize: 0x10 }
  - { offset: 0x4C14E, size: 0x8, addend: 0x0, symName: _OUTLINED_FUNCTION_264, symObjAddr: 0x3C35C, symBinAddr: 0x3E89C, symSize: 0xC }
  - { offset: 0x4C165, size: 0x8, addend: 0x0, symName: _OUTLINED_FUNCTION_284, symObjAddr: 0x3C490, symBinAddr: 0x3E9D0, symSize: 0x8 }
  - { offset: 0x4C17C, size: 0x8, addend: 0x0, symName: _OUTLINED_FUNCTION_298, symObjAddr: 0x3C534, symBinAddr: 0x3EA74, symSize: 0xC }
  - { offset: 0x4C193, size: 0x8, addend: 0x0, symName: _OUTLINED_FUNCTION_299, symObjAddr: 0x3C540, symBinAddr: 0x3EA80, symSize: 0xC }
  - { offset: 0x4C1AA, size: 0x8, addend: 0x0, symName: _OUTLINED_FUNCTION_322, symObjAddr: 0x3C670, symBinAddr: 0x3EBB0, symSize: 0xC }
  - { offset: 0x4C1C1, size: 0x8, addend: 0x0, symName: _OUTLINED_FUNCTION_323, symObjAddr: 0x3C67C, symBinAddr: 0x3EBBC, symSize: 0x10 }
  - { offset: 0x4C1D8, size: 0x8, addend: 0x0, symName: _OUTLINED_FUNCTION_325, symObjAddr: 0x3C698, symBinAddr: 0x3EBD8, symSize: 0xC }
  - { offset: 0x4C1EF, size: 0x8, addend: 0x0, symName: _OUTLINED_FUNCTION_377, symObjAddr: 0x3C970, symBinAddr: 0x3EEB0, symSize: 0x18 }
  - { offset: 0x4C206, size: 0x8, addend: 0x0, symName: _OUTLINED_FUNCTION_383, symObjAddr: 0x3C9D8, symBinAddr: 0x3EF18, symSize: 0x8 }
  - { offset: 0x4C21D, size: 0x8, addend: 0x0, symName: _OUTLINED_FUNCTION_391, symObjAddr: 0x3CA64, symBinAddr: 0x3EFA4, symSize: 0xC }
  - { offset: 0x4C234, size: 0x8, addend: 0x0, symName: _OUTLINED_FUNCTION_399, symObjAddr: 0x3CADC, symBinAddr: 0x3F01C, symSize: 0xC }
  - { offset: 0x4C24B, size: 0x8, addend: 0x0, symName: _OUTLINED_FUNCTION_401, symObjAddr: 0x3CAF4, symBinAddr: 0x3F034, symSize: 0xC }
  - { offset: 0x4C262, size: 0x8, addend: 0x0, symName: _OUTLINED_FUNCTION_425, symObjAddr: 0x3CC18, symBinAddr: 0x3F158, symSize: 0x8 }
  - { offset: 0x4C279, size: 0x8, addend: 0x0, symName: _OUTLINED_FUNCTION_438, symObjAddr: 0x3CC84, symBinAddr: 0x3F1C4, symSize: 0xC }
  - { offset: 0x4C290, size: 0x8, addend: 0x0, symName: _OUTLINED_FUNCTION_440, symObjAddr: 0x3CC98, symBinAddr: 0x3F1D8, symSize: 0x1C }
  - { offset: 0x4C2A7, size: 0x8, addend: 0x0, symName: _OUTLINED_FUNCTION_443, symObjAddr: 0x3CCD8, symBinAddr: 0x3F218, symSize: 0xC }
  - { offset: 0x4C2BE, size: 0x8, addend: 0x0, symName: _OUTLINED_FUNCTION_459, symObjAddr: 0x3CDB8, symBinAddr: 0x3F2F8, symSize: 0x1C }
  - { offset: 0x4C2D5, size: 0x8, addend: 0x0, symName: _OUTLINED_FUNCTION_463, symObjAddr: 0x3CE14, symBinAddr: 0x3F354, symSize: 0x8 }
  - { offset: 0x4C2EC, size: 0x8, addend: 0x0, symName: _OUTLINED_FUNCTION_468, symObjAddr: 0x3CE3C, symBinAddr: 0x3F37C, symSize: 0x1C }
  - { offset: 0x4C303, size: 0x8, addend: 0x0, symName: _OUTLINED_FUNCTION_477, symObjAddr: 0x3CEE8, symBinAddr: 0x3F428, symSize: 0x1C }
  - { offset: 0x4C31A, size: 0x8, addend: 0x0, symName: _OUTLINED_FUNCTION_492, symObjAddr: 0x3CFF8, symBinAddr: 0x3F538, symSize: 0xC }
  - { offset: 0x4C331, size: 0x8, addend: 0x0, symName: _OUTLINED_FUNCTION_519, symObjAddr: 0x3D178, symBinAddr: 0x3F6B8, symSize: 0x10 }
  - { offset: 0x4C348, size: 0x8, addend: 0x0, symName: _OUTLINED_FUNCTION_521, symObjAddr: 0x3D190, symBinAddr: 0x3F6D0, symSize: 0x1C }
  - { offset: 0x4C35F, size: 0x8, addend: 0x0, symName: _OUTLINED_FUNCTION_527, symObjAddr: 0x3D1FC, symBinAddr: 0x3F73C, symSize: 0xC }
  - { offset: 0x4C376, size: 0x8, addend: 0x0, symName: _OUTLINED_FUNCTION_531, symObjAddr: 0x3D250, symBinAddr: 0x3F790, symSize: 0xC }
  - { offset: 0x4C38D, size: 0x8, addend: 0x0, symName: _OUTLINED_FUNCTION_540, symObjAddr: 0x3D2C8, symBinAddr: 0x3F808, symSize: 0x14 }
  - { offset: 0x4C3A4, size: 0x8, addend: 0x0, symName: _OUTLINED_FUNCTION_549, symObjAddr: 0x3D330, symBinAddr: 0x3F870, symSize: 0x8 }
  - { offset: 0x4C3BB, size: 0x8, addend: 0x0, symName: _OUTLINED_FUNCTION_551, symObjAddr: 0x3D340, symBinAddr: 0x3F880, symSize: 0xC }
  - { offset: 0x4C3D2, size: 0x8, addend: 0x0, symName: _OUTLINED_FUNCTION_552, symObjAddr: 0x3D34C, symBinAddr: 0x3F88C, symSize: 0x14 }
  - { offset: 0x4C3E9, size: 0x8, addend: 0x0, symName: _OUTLINED_FUNCTION_553, symObjAddr: 0x3D360, symBinAddr: 0x3F8A0, symSize: 0xC }
  - { offset: 0x4C400, size: 0x8, addend: 0x0, symName: _OUTLINED_FUNCTION_561, symObjAddr: 0x3D3B0, symBinAddr: 0x3F8F0, symSize: 0xC }
  - { offset: 0x4C417, size: 0x8, addend: 0x0, symName: _OUTLINED_FUNCTION_632, symObjAddr: 0x3D7CC, symBinAddr: 0x3FD0C, symSize: 0xC }
  - { offset: 0x4C42E, size: 0x8, addend: 0x0, symName: _OUTLINED_FUNCTION_649, symObjAddr: 0x3D8D4, symBinAddr: 0x3FE14, symSize: 0x8 }
  - { offset: 0x4C445, size: 0x8, addend: 0x0, symName: _OUTLINED_FUNCTION_650, symObjAddr: 0x3D8DC, symBinAddr: 0x3FE1C, symSize: 0x14 }
  - { offset: 0x4C45C, size: 0x8, addend: 0x0, symName: _OUTLINED_FUNCTION_652, symObjAddr: 0x3D904, symBinAddr: 0x3FE44, symSize: 0x8 }
  - { offset: 0x4C473, size: 0x8, addend: 0x0, symName: _OUTLINED_FUNCTION_656, symObjAddr: 0x3D930, symBinAddr: 0x3FE70, symSize: 0x14 }
  - { offset: 0x4C48A, size: 0x8, addend: 0x0, symName: _OUTLINED_FUNCTION_666, symObjAddr: 0x3D998, symBinAddr: 0x3FED8, symSize: 0x8 }
  - { offset: 0x4C4A1, size: 0x8, addend: 0x0, symName: _OUTLINED_FUNCTION_687, symObjAddr: 0x3DAF8, symBinAddr: 0x40038, symSize: 0xC }
  - { offset: 0x4C4B8, size: 0x8, addend: 0x0, symName: _OUTLINED_FUNCTION_702, symObjAddr: 0x3DBCC, symBinAddr: 0x4010C, symSize: 0x1C }
  - { offset: 0x4C4CF, size: 0x8, addend: 0x0, symName: _OUTLINED_FUNCTION_703, symObjAddr: 0x3DBE8, symBinAddr: 0x40128, symSize: 0x1C }
  - { offset: 0x4C4E6, size: 0x8, addend: 0x0, symName: _OUTLINED_FUNCTION_704, symObjAddr: 0x3DC04, symBinAddr: 0x40144, symSize: 0x1C }
  - { offset: 0x4C4FD, size: 0x8, addend: 0x0, symName: _OUTLINED_FUNCTION_729, symObjAddr: 0x3DD60, symBinAddr: 0x402A0, symSize: 0x8 }
  - { offset: 0x4C514, size: 0x8, addend: 0x0, symName: _OUTLINED_FUNCTION_731, symObjAddr: 0x3DD74, symBinAddr: 0x402B4, symSize: 0xC }
  - { offset: 0x4C52B, size: 0x8, addend: 0x0, symName: _OUTLINED_FUNCTION_760, symObjAddr: 0x3DF0C, symBinAddr: 0x4044C, symSize: 0x10 }
  - { offset: 0x4C542, size: 0x8, addend: 0x0, symName: _OUTLINED_FUNCTION_770, symObjAddr: 0x3DF8C, symBinAddr: 0x404CC, symSize: 0x10 }
  - { offset: 0x4C559, size: 0x8, addend: 0x0, symName: _OUTLINED_FUNCTION_793, symObjAddr: 0x3E094, symBinAddr: 0x405D4, symSize: 0xC }
  - { offset: 0x4C570, size: 0x8, addend: 0x0, symName: _OUTLINED_FUNCTION_806, symObjAddr: 0x3E134, symBinAddr: 0x40674, symSize: 0x8 }
  - { offset: 0x4C587, size: 0x8, addend: 0x0, symName: _OUTLINED_FUNCTION_817, symObjAddr: 0x3E1D4, symBinAddr: 0x40714, symSize: 0x10 }
  - { offset: 0x4C59E, size: 0x8, addend: 0x0, symName: _OUTLINED_FUNCTION_820, symObjAddr: 0x3E1F4, symBinAddr: 0x40734, symSize: 0x8 }
  - { offset: 0x4C5B5, size: 0x8, addend: 0x0, symName: _OUTLINED_FUNCTION_840, symObjAddr: 0x3E30C, symBinAddr: 0x4084C, symSize: 0x10 }
  - { offset: 0x4C5CC, size: 0x8, addend: 0x0, symName: _OUTLINED_FUNCTION_855, symObjAddr: 0x3E3FC, symBinAddr: 0x4093C, symSize: 0x10 }
  - { offset: 0x4C5E3, size: 0x8, addend: 0x0, symName: _OUTLINED_FUNCTION_892, symObjAddr: 0x3E660, symBinAddr: 0x40BA0, symSize: 0x18 }
  - { offset: 0x4C5FA, size: 0x8, addend: 0x0, symName: _OUTLINED_FUNCTION_894, symObjAddr: 0x3E684, symBinAddr: 0x40BC4, symSize: 0x18 }
  - { offset: 0x4C611, size: 0x8, addend: 0x0, symName: _OUTLINED_FUNCTION_895, symObjAddr: 0x3E69C, symBinAddr: 0x40BDC, symSize: 0x18 }
  - { offset: 0x4C628, size: 0x8, addend: 0x0, symName: _OUTLINED_FUNCTION_897, symObjAddr: 0x3E6C0, symBinAddr: 0x40C00, symSize: 0x18 }
  - { offset: 0x4C63F, size: 0x8, addend: 0x0, symName: _OUTLINED_FUNCTION_898, symObjAddr: 0x3E6D8, symBinAddr: 0x40C18, symSize: 0xC }
  - { offset: 0x4C656, size: 0x8, addend: 0x0, symName: _OUTLINED_FUNCTION_922, symObjAddr: 0x3E81C, symBinAddr: 0x40D5C, symSize: 0xC }
  - { offset: 0x4C66D, size: 0x8, addend: 0x0, symName: _OUTLINED_FUNCTION_925, symObjAddr: 0x3E840, symBinAddr: 0x40D80, symSize: 0xC }
  - { offset: 0x4C684, size: 0x8, addend: 0x0, symName: _OUTLINED_FUNCTION_963, symObjAddr: 0x3EA00, symBinAddr: 0x40F40, symSize: 0x8 }
  - { offset: 0x4C69B, size: 0x8, addend: 0x0, symName: _OUTLINED_FUNCTION_999, symObjAddr: 0x3EB64, symBinAddr: 0x410A4, symSize: 0x8 }
  - { offset: 0x4C6B2, size: 0x8, addend: 0x0, symName: _OUTLINED_FUNCTION_1002, symObjAddr: 0x3EB7C, symBinAddr: 0x410BC, symSize: 0x8 }
  - { offset: 0x4C6C9, size: 0x8, addend: 0x0, symName: _OUTLINED_FUNCTION_1006, symObjAddr: 0x3EBA4, symBinAddr: 0x410E4, symSize: 0x8 }
  - { offset: 0x4C6E0, size: 0x8, addend: 0x0, symName: _OUTLINED_FUNCTION_1018, symObjAddr: 0x3EC1C, symBinAddr: 0x4115C, symSize: 0xC }
  - { offset: 0x4C6F7, size: 0x8, addend: 0x0, symName: _OUTLINED_FUNCTION_1019, symObjAddr: 0x3EC28, symBinAddr: 0x41168, symSize: 0xC }
  - { offset: 0x4C70E, size: 0x8, addend: 0x0, symName: _OUTLINED_FUNCTION_1026, symObjAddr: 0x3EC68, symBinAddr: 0x411A8, symSize: 0x8 }
  - { offset: 0x4C725, size: 0x8, addend: 0x0, symName: _OUTLINED_FUNCTION_1027, symObjAddr: 0x3EC70, symBinAddr: 0x411B0, symSize: 0x8 }
  - { offset: 0x4C73C, size: 0x8, addend: 0x0, symName: _OUTLINED_FUNCTION_1031, symObjAddr: 0x3EC9C, symBinAddr: 0x411DC, symSize: 0xC }
  - { offset: 0x4C753, size: 0x8, addend: 0x0, symName: _OUTLINED_FUNCTION_1036, symObjAddr: 0x3ECD0, symBinAddr: 0x41210, symSize: 0xC }
  - { offset: 0x4C76A, size: 0x8, addend: 0x0, symName: _OUTLINED_FUNCTION_1076, symObjAddr: 0x3EE50, symBinAddr: 0x41390, symSize: 0xC }
  - { offset: 0x4C781, size: 0x8, addend: 0x0, symName: _OUTLINED_FUNCTION_1083, symObjAddr: 0x3EE90, symBinAddr: 0x413D0, symSize: 0xC }
  - { offset: 0x4C798, size: 0x8, addend: 0x0, symName: _OUTLINED_FUNCTION_1102, symObjAddr: 0x3EF54, symBinAddr: 0x41494, symSize: 0xC }
  - { offset: 0x4C7AF, size: 0x8, addend: 0x0, symName: _OUTLINED_FUNCTION_1103, symObjAddr: 0x3EF60, symBinAddr: 0x414A0, symSize: 0xC }
  - { offset: 0x4C7C6, size: 0x8, addend: 0x0, symName: _OUTLINED_FUNCTION_1122, symObjAddr: 0x3F07C, symBinAddr: 0x415BC, symSize: 0x14 }
  - { offset: 0x4C7DD, size: 0x8, addend: 0x0, symName: _OUTLINED_FUNCTION_1127, symObjAddr: 0x3F0D8, symBinAddr: 0x41618, symSize: 0xC }
  - { offset: 0x4C7F4, size: 0x8, addend: 0x0, symName: _OUTLINED_FUNCTION_1129, symObjAddr: 0x3F0F0, symBinAddr: 0x41630, symSize: 0x14 }
  - { offset: 0x4C80B, size: 0x8, addend: 0x0, symName: _OUTLINED_FUNCTION_1135, symObjAddr: 0x3F160, symBinAddr: 0x416A0, symSize: 0xC }
  - { offset: 0x4C822, size: 0x8, addend: 0x0, symName: _OUTLINED_FUNCTION_1137, symObjAddr: 0x3F178, symBinAddr: 0x416B8, symSize: 0xC }
  - { offset: 0x4C839, size: 0x8, addend: 0x0, symName: _OUTLINED_FUNCTION_1150, symObjAddr: 0x3F224, symBinAddr: 0x41764, symSize: 0x14 }
  - { offset: 0x4C850, size: 0x8, addend: 0x0, symName: _OUTLINED_FUNCTION_1158, symObjAddr: 0x3F29C, symBinAddr: 0x417DC, symSize: 0x14 }
  - { offset: 0x4C867, size: 0x8, addend: 0x0, symName: _OUTLINED_FUNCTION_1189, symObjAddr: 0x3F470, symBinAddr: 0x419B0, symSize: 0xC }
  - { offset: 0x4C87E, size: 0x8, addend: 0x0, symName: _OUTLINED_FUNCTION_1202, symObjAddr: 0x3F514, symBinAddr: 0x41A54, symSize: 0xC }
  - { offset: 0x4C895, size: 0x8, addend: 0x0, symName: _OUTLINED_FUNCTION_1213, symObjAddr: 0x3F624, symBinAddr: 0x41B64, symSize: 0x1C }
  - { offset: 0xFBB4, size: 0x8, addend: 0x0, symName: __ZN4core3num7flt2dec8round_up17hae4d34358ffddc63E, symObjAddr: 0x20B4, symBinAddr: 0x6018, symSize: 0x88 }
  - { offset: 0xFD86, size: 0x8, addend: 0x0, symName: __ZN4core3num7flt2dec17digits_to_dec_str17hcaa5c7a69fb63856E, symObjAddr: 0x213C, symBinAddr: 0x60A0, symSize: 0x110 }
  - { offset: 0x1066B, size: 0x8, addend: 0x0, symName: '__ZN4core5slice3cmp81_$LT$impl$u20$core..cmp..PartialEq$LT$$u5b$U$u5d$$GT$$u20$for$u20$$u5b$T$u5d$$GT$2eq17h6f0e023d99db0e8dE', symObjAddr: 0x224C, symBinAddr: 0x61B0, symSize: 0x34 }
  - { offset: 0x10694, size: 0x8, addend: 0x0, symName: '__ZN4core5slice3cmp81_$LT$impl$u20$core..cmp..PartialEq$LT$$u5b$U$u5d$$GT$$u20$for$u20$$u5b$T$u5d$$GT$2eq17h6f0e023d99db0e8dE', symObjAddr: 0x224C, symBinAddr: 0x61B0, symSize: 0x34 }
  - { offset: 0x10C2A, size: 0x8, addend: 0x0, symName: _OUTLINED_FUNCTION_744, symObjAddr: 0x3DE18, symBinAddr: 0x40358, symSize: 0x8 }
  - { offset: 0x10C41, size: 0x8, addend: 0x0, symName: _OUTLINED_FUNCTION_1085, symObjAddr: 0x3EEA4, symBinAddr: 0x413E4, symSize: 0x8 }
  - { offset: 0xD6BB, size: 0x8, addend: 0x0, symName: __ZN4core3str8converts9from_utf817h977603e5fb46387bE, symObjAddr: 0x17C8, symBinAddr: 0x572C, symSize: 0x238 }
  - { offset: 0xDB94, size: 0x8, addend: 0x0, symName: '__ZN4core3fmt3num3imp51_$LT$impl$u20$core..fmt..Display$u20$for$u20$u8$GT$3fmt17h53282d5c49f73bf7E', symObjAddr: 0x1A00, symBinAddr: 0x5964, symSize: 0x10 }
  - { offset: 0xDBD7, size: 0x8, addend: 0x0, symName: '__ZN4core3fmt3num3imp20_$LT$impl$u20$u8$GT$4_fmt17hc3742eb5014b776bE', symObjAddr: 0x1A10, symBinAddr: 0x5974, symSize: 0x88 }
  - { offset: 0xDD78, size: 0x8, addend: 0x0, symName: '__ZN4core3fmt3num3imp52_$LT$impl$u20$core..fmt..Display$u20$for$u20$u32$GT$3fmt17hf65b2a71eddddf30E', symObjAddr: 0x1A98, symBinAddr: 0x59FC, symSize: 0x10 }
  - { offset: 0xDDBB, size: 0x8, addend: 0x0, symName: '__ZN4core3fmt3num3imp21_$LT$impl$u20$u32$GT$4_fmt17h393826c1d18ff757E', symObjAddr: 0x1AA8, symBinAddr: 0x5A0C, symSize: 0xF4 }
  - { offset: 0xE034, size: 0x8, addend: 0x0, symName: '__ZN4core3fmt3num3imp52_$LT$impl$u20$core..fmt..Display$u20$for$u20$i32$GT$3fmt17ha0f5f0d325090bb6E', symObjAddr: 0x1B9C, symBinAddr: 0x5B00, symSize: 0x1C }
  - { offset: 0xE0B0, size: 0x8, addend: 0x0, symName: '__ZN4core3fmt3num3imp52_$LT$impl$u20$core..fmt..Display$u20$for$u20$u64$GT$3fmt17h319f4f990412acdcE', symObjAddr: 0x1BB8, symBinAddr: 0x5B1C, symSize: 0x10 }
  - { offset: 0xE0F3, size: 0x8, addend: 0x0, symName: '__ZN4core3fmt3num3imp21_$LT$impl$u20$u64$GT$4_fmt17h3a72bb53265b600cE', symObjAddr: 0x1BC8, symBinAddr: 0x5B2C, symSize: 0xFC }
  - { offset: 0xE309, size: 0x8, addend: 0x0, symName: '__ZN4core3fmt3num3imp52_$LT$impl$u20$core..fmt..Display$u20$for$u20$i64$GT$3fmt17h804efa69d3f5a343E', symObjAddr: 0x1CC4, symBinAddr: 0x5C28, symSize: 0x1C }
  - { offset: 0xE45F, size: 0x8, addend: 0x0, symName: '__ZN4core3fmt3num3imp54_$LT$impl$u20$core..fmt..Display$u20$for$u20$usize$GT$3fmt17h5912d2f1338666c0E', symObjAddr: 0x1CE0, symBinAddr: 0x5C44, symSize: 0x10C }
  - { offset: 0xEA89, size: 0x8, addend: 0x0, symName: _OUTLINED_FUNCTION_199, symObjAddr: 0x3BF98, symBinAddr: 0x3E4D8, symSize: 0x14 }
  - { offset: 0xEAA0, size: 0x8, addend: 0x0, symName: _OUTLINED_FUNCTION_535, symObjAddr: 0x3D294, symBinAddr: 0x3F7D4, symSize: 0x8 }
  - { offset: 0xEAB7, size: 0x8, addend: 0x0, symName: _OUTLINED_FUNCTION_989, symObjAddr: 0x3EB00, symBinAddr: 0x41040, symSize: 0x14 }
  - { offset: 0xEACE, size: 0x8, addend: 0x0, symName: _OUTLINED_FUNCTION_1130, symObjAddr: 0x3F104, symBinAddr: 0x41644, symSize: 0x14 }
  - { offset: 0xEAE5, size: 0x8, addend: 0x0, symName: _OUTLINED_FUNCTION_1131, symObjAddr: 0x3F118, symBinAddr: 0x41658, symSize: 0x14 }
  - { offset: 0x198CAC, size: 0x8, addend: 0x0, symName: __ZN3ryu14d2s_full_table21DOUBLE_POW5_INV_SPLIT17h7085d848151fd33fE, symObjAddr: 0x484E8, symBinAddr: 0x4C598, symSize: 0x0 }
  - { offset: 0x198CC8, size: 0x8, addend: 0x0, symName: __ZN3ryu14d2s_full_table17DOUBLE_POW5_SPLIT17h4f53dbc428f016b2E, symObjAddr: 0x49A48, symBinAddr: 0x4DAF8, symSize: 0x0 }
  - { offset: 0x1990E7, size: 0x8, addend: 0x0, symName: __ZN3ryu14d2s_intrinsics16mul_shift_all_6417h4e9ae453efb8a508E, symObjAddr: 0x35514, symBinAddr: 0x38008, symSize: 0xB4 }
  - { offset: 0x19923A, size: 0x8, addend: 0x0, symName: __ZN3ryu14d2s_intrinsics22multiple_of_power_of_517hb2fcc4961c62455dE, symObjAddr: 0x355C8, symBinAddr: 0x380BC, symSize: 0x30 }
  - { offset: 0x1992D9, size: 0x8, addend: 0x0, symName: __ZN3ryu6pretty8format6417h6dc70dfde5343a77E, symObjAddr: 0x34EE8, symBinAddr: 0x379DC, symSize: 0x62C }
  - { offset: 0x199EBE, size: 0x8, addend: 0x0, symName: __ZN3ryu6pretty8mantissa19write_mantissa_long17h5f2ff578cfa5beecE, symObjAddr: 0x355F8, symBinAddr: 0x380EC, symSize: 0x108 }
  - { offset: 0x19A0C5, size: 0x8, addend: 0x0, symName: __ZN3ryu6pretty8exponent15write_exponent317h0c85e710f9af5fd1E, symObjAddr: 0x35700, symBinAddr: 0x381F4, symSize: 0x8C }
  - { offset: 0x19A0FE, size: 0x8, addend: 0x0, symName: __ZN3ryu6pretty8exponent15write_exponent317h0c85e710f9af5fd1E, symObjAddr: 0x35700, symBinAddr: 0x381F4, symSize: 0x8C }
  - { offset: 0x19A81C, size: 0x8, addend: 0x0, symName: _OUTLINED_FUNCTION_998, symObjAddr: 0x3EB5C, symBinAddr: 0x4109C, symSize: 0x8 }
  - { offset: 0x1892F5, size: 0x8, addend: 0x0, symName: '__ZN145_$LT$$LT$powersync_core..sync..checksum..Checksum$u20$as$u20$serde..de..Deserialize$GT$..deserialize..MyVisitor$u20$as$u20$serde..de..Visitor$GT$9visit_i6417h7180bbff99e7443bE', symObjAddr: 0x33C60, symBinAddr: 0x36754, symSize: 0x58 }
  - { offset: 0x18938E, size: 0x8, addend: 0x0, symName: '__ZN145_$LT$$LT$powersync_core..sync..checksum..Checksum$u20$as$u20$serde..de..Deserialize$GT$..deserialize..MyVisitor$u20$as$u20$serde..de..Visitor$GT$9visit_i6417h71de9122189e7ed0E', symObjAddr: 0x33CB8, symBinAddr: 0x367AC, symSize: 0x58 }
  - { offset: 0x189475, size: 0x8, addend: 0x0, symName: '__ZN83_$LT$powersync_core..sync..checksum..Checksum$u20$as$u20$serde..de..Deserialize$GT$11deserialize17h8a3a7455f30f1a47E', symObjAddr: 0x33960, symBinAddr: 0x36454, symSize: 0xF4 }
  - { offset: 0x189537, size: 0x8, addend: 0x0, symName: '__ZN83_$LT$powersync_core..sync..checksum..Checksum$u20$as$u20$serde..de..Deserialize$GT$11deserialize17hbde17da61495d66eE', symObjAddr: 0x33A54, symBinAddr: 0x36548, symSize: 0x20C }
  - { offset: 0x1898B5, size: 0x8, addend: 0x0, symName: '__ZN79_$LT$powersync_core..sync..checksum..Checksum$u20$as$u20$core..fmt..Display$GT$3fmt17hfb4e4de8d9cdc36eE', symObjAddr: 0x33904, symBinAddr: 0x363F8, symSize: 0x5C }
  - { offset: 0x189D88, size: 0x8, addend: 0x0, symName: '__ZN14powersync_core4sync13subscriptions1_99_$LT$impl$u20$serde..de..Deserialize$u20$for$u20$powersync_core..sync..subscriptions..StreamKey$GT$11deserialize17hdc9d35d6c36f62bfE', symObjAddr: 0x34B34, symBinAddr: 0x37628, symSize: 0x3B4 }
  - { offset: 0x18AFC1, size: 0x8, addend: 0x0, symName: __ZN14powersync_core8fix_data39powersync_remove_duplicate_key_encoding17h07abe299819c8e75E, symObjAddr: 0x335C8, symBinAddr: 0x360BC, symSize: 0x264 }
  - { offset: 0x18BDCD, size: 0x8, addend: 0x0, symName: '__ZN95_$LT$$BP$mut$u20$sqlite3_capi..bindings..sqlite3$u20$as$u20$sqlite_nostd..nostd..Connection$GT$9exec_safe17hb792261992f576abE.2720', symObjAddr: 0x34878, symBinAddr: 0x3736C, symSize: 0x54 }
  - { offset: 0x18C6A4, size: 0x8, addend: 0x0, symName: '__ZN4core3ptr67drop_in_place$LT$powersync_core..sync..subscriptions..StreamKey$GT$17hb9e1e6ca2fefaefaE.2715', symObjAddr: 0x33D38, symBinAddr: 0x3682C, symSize: 0x30 }
  - { offset: 0x18C83A, size: 0x8, addend: 0x0, symName: '__ZN4core3ptr94drop_in_place$LT$core..option..Option$LT$powersync_core..sync_local..ParsedSchemaTable$GT$$GT$17hea102864a6e90c6cE', symObjAddr: 0x34830, symBinAddr: 0x37324, symSize: 0x48 }
  - { offset: 0x18C8FC, size: 0x8, addend: 0x0, symName: '__ZN4core3ptr114drop_in_place$LT$core..option..Option$LT$powersync_core..sync_local..SyncOperation..apply..CachedStatement$GT$$GT$17h8e5187d4e3f0af6fE', symObjAddr: 0x348CC, symBinAddr: 0x373C0, symSize: 0x38 }
  - { offset: 0x18C9E7, size: 0x8, addend: 0x0, symName: '__ZN4core3ptr45drop_in_place$LT$serde_json..value..Value$GT$17h10227df8d831a4eaE.2722', symObjAddr: 0x34A4C, symBinAddr: 0x37540, symSize: 0x58 }
  - { offset: 0x18CAB8, size: 0x8, addend: 0x0, symName: '__ZN4core3ptr83drop_in_place$LT$powersync_core..sync..subscriptions..SubscriptionChangeRequest$GT$17h59b27840b484a12dE', symObjAddr: 0x34B18, symBinAddr: 0x3760C, symSize: 0x1C }
  - { offset: 0x18EDEC, size: 0x8, addend: 0x0, symName: '__ZN4core3str6traits66_$LT$impl$u20$core..ops..index..Index$LT$I$GT$$u20$for$u20$str$GT$5index17h74516973097a0e38E', symObjAddr: 0x334CC, symBinAddr: 0x35FEC, symSize: 0x54 }
  - { offset: 0x18EE2C, size: 0x8, addend: 0x0, symName: '__ZN4core3str6traits66_$LT$impl$u20$core..ops..index..Index$LT$I$GT$$u20$for$u20$str$GT$5index17h74516973097a0e38E', symObjAddr: 0x334CC, symBinAddr: 0x35FEC, symSize: 0x54 }
  - { offset: 0x18EE4E, size: 0x8, addend: 0x0, symName: '__ZN4core3str6traits66_$LT$impl$u20$core..ops..index..Index$LT$I$GT$$u20$for$u20$str$GT$5index17h74516973097a0e38E', symObjAddr: 0x334CC, symBinAddr: 0x35FEC, symSize: 0x54 }
  - { offset: 0x18EEDF, size: 0x8, addend: 0x0, symName: '__ZN4core3str6traits66_$LT$impl$u20$core..ops..index..Index$LT$I$GT$$u20$for$u20$str$GT$5index17h3669d6dfd83e2b4bE', symObjAddr: 0x3354C, symBinAddr: 0x36040, symSize: 0x34 }
  - { offset: 0x18F0EA, size: 0x8, addend: 0x0, symName: '__ZN4core3str6traits112_$LT$impl$u20$core..slice..index..SliceIndex$LT$str$GT$$u20$for$u20$core..ops..range..RangeFrom$LT$usize$GT$$GT$3get17h6129aca85916d4eaE', symObjAddr: 0x338D0, symBinAddr: 0x363C4, symSize: 0x34 }
  - { offset: 0x18F12C, size: 0x8, addend: 0x0, symName: '__ZN4core3str6traits112_$LT$impl$u20$core..slice..index..SliceIndex$LT$str$GT$$u20$for$u20$core..ops..range..RangeFrom$LT$usize$GT$$GT$3get17h6129aca85916d4eaE', symObjAddr: 0x338D0, symBinAddr: 0x363C4, symSize: 0x34 }
  - { offset: 0x18F391, size: 0x8, addend: 0x0, symName: '__ZN102_$LT$core..str..iter..CharIndices$u20$as$u20$core..iter..traits..double_ended..DoubleEndedIterator$GT$9next_back17hfa887343f6febf2aE', symObjAddr: 0x3382C, symBinAddr: 0x36320, symSize: 0xA4 }
  - { offset: 0x191ACA, size: 0x8, addend: 0x0, symName: '__ZN4core5slice29_$LT$impl$u20$$u5b$T$u5d$$GT$15copy_from_slice17h8b57a10b43c5c3daE', symObjAddr: 0x333C8, symBinAddr: 0x35F40, symSize: 0x28 }
  - { offset: 0x191C42, size: 0x8, addend: 0x0, symName: '__ZN104_$LT$core..iter..adapters..cloned..Cloned$LT$I$GT$$u20$as$u20$core..iter..traits..iterator..Iterator$GT$4next17hfb19c701393709e7E', symObjAddr: 0x3330C, symBinAddr: 0x35E84, symSize: 0x34 }
  - { offset: 0x19285E, size: 0x8, addend: 0x0, symName: '__ZN84_$LT$serde..de..value..StrDeserializer$LT$E$GT$$u20$as$u20$serde..de..EnumAccess$GT$12variant_seed17hbd1d9e74a431ed9dE', symObjAddr: 0x33520, symBinAddr: 0x43090, symSize: 0x2C }
  - { offset: 0x192B64, size: 0x8, addend: 0x0, symName: __ZN5serde2de7Visitor11visit_bytes17hbeb8cd014487518cE, symObjAddr: 0x33474, symBinAddr: 0x43038, symSize: 0x2C }
  - { offset: 0x192BB5, size: 0x8, addend: 0x0, symName: __ZN5serde2de7Visitor9visit_str17h7408edb6b4ad3d25E, symObjAddr: 0x334A0, symBinAddr: 0x43064, symSize: 0x2C }
  - { offset: 0x192C84, size: 0x8, addend: 0x0, symName: '__ZN41_$LT$T$u20$as$u20$serde..de..Expected$GT$3fmt17h4d76a735b87f3019E', symObjAddr: 0x33340, symBinAddr: 0x35EB8, symSize: 0x2C }
  - { offset: 0x192CFD, size: 0x8, addend: 0x0, symName: '__ZN41_$LT$T$u20$as$u20$serde..de..Expected$GT$3fmt17h67ae3b58b8d3d127E', symObjAddr: 0x3336C, symBinAddr: 0x35EE4, symSize: 0x14 }
  - { offset: 0x192D76, size: 0x8, addend: 0x0, symName: '__ZN41_$LT$T$u20$as$u20$serde..de..Expected$GT$3fmt17h767925c771483549E', symObjAddr: 0x33380, symBinAddr: 0x35EF8, symSize: 0x18 }
  - { offset: 0x192DEF, size: 0x8, addend: 0x0, symName: '__ZN41_$LT$T$u20$as$u20$serde..de..Expected$GT$3fmt17hc1ebfef6e44e1492E', symObjAddr: 0x33398, symBinAddr: 0x35F10, symSize: 0x18 }
  - { offset: 0x192E69, size: 0x8, addend: 0x0, symName: '__ZN41_$LT$T$u20$as$u20$serde..de..Expected$GT$3fmt17hd776b78e4cb39bdeE', symObjAddr: 0x333B0, symBinAddr: 0x35F28, symSize: 0x18 }
  - { offset: 0x195726, size: 0x8, addend: 0x0, symName: '__ZN5alloc4sync16Arc$LT$T$C$A$GT$9drop_slow17h64c58d2c7d420193E', symObjAddr: 0x333F0, symBinAddr: 0x35F68, symSize: 0x2C }
  - { offset: 0x195749, size: 0x8, addend: 0x0, symName: '__ZN5alloc4sync16Arc$LT$T$C$A$GT$9drop_slow17h64c58d2c7d420193E', symObjAddr: 0x333F0, symBinAddr: 0x35F68, symSize: 0x2C }
  - { offset: 0x19575E, size: 0x8, addend: 0x0, symName: '__ZN5alloc4sync16Arc$LT$T$C$A$GT$9drop_slow17h64c58d2c7d420193E', symObjAddr: 0x333F0, symBinAddr: 0x35F68, symSize: 0x2C }
  - { offset: 0x19594B, size: 0x8, addend: 0x0, symName: '__ZN5alloc4sync16Arc$LT$T$C$A$GT$9drop_slow17he53df88ce1004a65E', symObjAddr: 0x3341C, symBinAddr: 0x35F94, symSize: 0x58 }
  - { offset: 0x195C5C, size: 0x8, addend: 0x0, symName: __ZN12sqlite_nostd5nostd11ManagedStmt11column_text17h16c7a47e500c1c6bE.2667, symObjAddr: 0x33580, symBinAddr: 0x36074, symSize: 0x34 }
  - { offset: 0x195CC8, size: 0x8, addend: 0x0, symName: __ZN12sqlite_nostd5nostd11ManagedStmt9bind_text17h1b8dc41a215926baE.2671, symObjAddr: 0x335B4, symBinAddr: 0x360A8, symSize: 0x14 }
  - { offset: 0x1961C8, size: 0x8, addend: 0x0, symName: __ZN12sqlite_nostd5nostd11ManagedStmt8bind_int17h218feee9d3504c64E.2713, symObjAddr: 0x33D10, symBinAddr: 0x36804, symSize: 0x14 }
  - { offset: 0x196208, size: 0x8, addend: 0x0, symName: __ZN12sqlite_nostd5nostd11ManagedStmt9bind_null17h31f1c33acffdb53dE.2714, symObjAddr: 0x33D24, symBinAddr: 0x36818, symSize: 0x14 }
  - { offset: 0x196BE9, size: 0x8, addend: 0x0, symName: __ZN14powersync_core10sync_local13SyncOperation5apply17h0ce58928a79f4bcdE, symObjAddr: 0x33D68, symBinAddr: 0x3685C, symSize: 0xAC8 }
  - { offset: 0x198548, size: 0x8, addend: 0x0, symName: __ZN14powersync_core10sync_local28RawTableWithCachedStatements14prepare_lazily17h6dff78761b2f02bbE, symObjAddr: 0x34904, symBinAddr: 0x373F8, symSize: 0x148 }
  - { offset: 0x1988F3, size: 0x8, addend: 0x0, symName: __ZN14powersync_core10sync_local13SyncOperation10use_schema17h4e5e22ffaa56bb4bE, symObjAddr: 0x34AA4, symBinAddr: 0x37598, symSize: 0x74 }
  - { offset: 0x1989CF, size: 0x8, addend: 0x0, symName: _OUTLINED_FUNCTION_119, symObjAddr: 0x3B9EC, symBinAddr: 0x3DF2C, symSize: 0xC }
  - { offset: 0x1989E6, size: 0x8, addend: 0x0, symName: _OUTLINED_FUNCTION_447, symObjAddr: 0x3CD08, symBinAddr: 0x3F248, symSize: 0xC }
  - { offset: 0x1989FD, size: 0x8, addend: 0x0, symName: _OUTLINED_FUNCTION_478, symObjAddr: 0x3CF04, symBinAddr: 0x3F444, symSize: 0x1C }
  - { offset: 0x198A14, size: 0x8, addend: 0x0, symName: _OUTLINED_FUNCTION_562, symObjAddr: 0x3D3BC, symBinAddr: 0x3F8FC, symSize: 0xC }
  - { offset: 0x198A2B, size: 0x8, addend: 0x0, symName: _OUTLINED_FUNCTION_566, symObjAddr: 0x3D3EC, symBinAddr: 0x3F92C, symSize: 0x8 }
  - { offset: 0x198A42, size: 0x8, addend: 0x0, symName: _OUTLINED_FUNCTION_763, symObjAddr: 0x3DF38, symBinAddr: 0x40478, symSize: 0x10 }
  - { offset: 0x198A59, size: 0x8, addend: 0x0, symName: _OUTLINED_FUNCTION_785, symObjAddr: 0x3E044, symBinAddr: 0x40584, symSize: 0x8 }
  - { offset: 0x198A70, size: 0x8, addend: 0x0, symName: _OUTLINED_FUNCTION_810, symObjAddr: 0x3E158, symBinAddr: 0x40698, symSize: 0x1C }
  - { offset: 0x198A87, size: 0x8, addend: 0x0, symName: _OUTLINED_FUNCTION_902, symObjAddr: 0x3E720, symBinAddr: 0x40C60, symSize: 0xC }
  - { offset: 0x198A9E, size: 0x8, addend: 0x0, symName: _OUTLINED_FUNCTION_906, symObjAddr: 0x3E750, symBinAddr: 0x40C90, symSize: 0xC }
  - { offset: 0x198AB5, size: 0x8, addend: 0x0, symName: _OUTLINED_FUNCTION_942, symObjAddr: 0x3E904, symBinAddr: 0x40E44, symSize: 0x8 }
  - { offset: 0x198ACC, size: 0x8, addend: 0x0, symName: _OUTLINED_FUNCTION_960, symObjAddr: 0x3E9E0, symBinAddr: 0x40F20, symSize: 0x8 }
  - { offset: 0x198AE3, size: 0x8, addend: 0x0, symName: _OUTLINED_FUNCTION_1030, symObjAddr: 0x3EC90, symBinAddr: 0x411D0, symSize: 0xC }
  - { offset: 0x198AFA, size: 0x8, addend: 0x0, symName: _OUTLINED_FUNCTION_1042, symObjAddr: 0x3ED08, symBinAddr: 0x41248, symSize: 0xC }
  - { offset: 0x198B11, size: 0x8, addend: 0x0, symName: _OUTLINED_FUNCTION_1043, symObjAddr: 0x3ED14, symBinAddr: 0x41254, symSize: 0xC }
  - { offset: 0x198B28, size: 0x8, addend: 0x0, symName: _OUTLINED_FUNCTION_1066, symObjAddr: 0x3EDF4, symBinAddr: 0x41334, symSize: 0x8 }
  - { offset: 0x1A90CF, size: 0x8, addend: 0x0, symName: __ZN10serde_json2de5POW1017h4baa5dd766eb18bdE, symObjAddr: 0x4B378, symBinAddr: 0x4F428, symSize: 0x0 }
  - { offset: 0x1A96AF, size: 0x8, addend: 0x0, symName: '__ZN75_$LT$serde_json..de..SeqAccess$LT$R$GT$$u20$as$u20$serde..de..SeqAccess$GT$17next_element_seed16has_next_element17hf1680033dada8510E', symObjAddr: 0x37CF8, symBinAddr: 0x3A3A0, symSize: 0xD4 }
  - { offset: 0x1A9B08, size: 0x8, addend: 0x0, symName: '__ZN75_$LT$serde_json..de..MapAccess$LT$R$GT$$u20$as$u20$serde..de..MapAccess$GT$13next_key_seed12has_next_key17hbd8fc41e8e93800aE', symObjAddr: 0x384A0, symBinAddr: 0x3AB48, symSize: 0xF0 }
  - { offset: 0x1A9B54, size: 0x8, addend: 0x0, symName: '__ZN75_$LT$serde_json..de..MapAccess$LT$R$GT$$u20$as$u20$serde..de..MapAccess$GT$13next_key_seed17hac4cde7fa598d155E', symObjAddr: 0x38590, symBinAddr: 0x3AC38, symSize: 0x8C }
  - { offset: 0x1A9C4E, size: 0x8, addend: 0x0, symName: '__ZN75_$LT$serde_json..de..MapAccess$LT$R$GT$$u20$as$u20$serde..de..MapAccess$GT$15next_value_seed17h228739818612e786E', symObjAddr: 0x3861C, symBinAddr: 0x3ACC4, symSize: 0x38 }
  - { offset: 0x1A9DB7, size: 0x8, addend: 0x0, symName: __ZN10serde_json2de8from_str17hd0396c927eab9c56E, symObjAddr: 0x38654, symBinAddr: 0x3ACFC, symSize: 0x64 }
  - { offset: 0x1AA4F1, size: 0x8, addend: 0x0, symName: '__ZN10serde_json5value2de77_$LT$impl$u20$serde..de..Deserialize$u20$for$u20$serde_json..value..Value$GT$11deserialize17hb88652e1af45d001E', symObjAddr: 0x37DCC, symBinAddr: 0x3A474, symSize: 0x6D4 }
  - { offset: 0x1AB53E, size: 0x8, addend: 0x0, symName: '__ZN4core3ptr45drop_in_place$LT$serde_json..value..Value$GT$17ha168c4b35adba43fE', symObjAddr: 0x36B90, symBinAddr: 0x39594, symSize: 0x30 }
  - { offset: 0x1AB5D8, size: 0x8, addend: 0x0, symName: '__ZN4core3ptr68drop_in_place$LT$alloc..vec..Vec$LT$serde_json..value..Value$GT$$GT$17hcdb4b44e3e89d909E', symObjAddr: 0x36BC0, symBinAddr: 0x395C4, symSize: 0x20 }
  - { offset: 0x1AB6A2, size: 0x8, addend: 0x0, symName: '__ZN4core3ptr45drop_in_place$LT$serde_json..error..Error$GT$17h0bab74cdc6a9509aE', symObjAddr: 0x37178, symBinAddr: 0x39938, symSize: 0x2C }
  - { offset: 0x1ACFD7, size: 0x8, addend: 0x0, symName: __ZN10serde_json2de12ParserNumber5visit17hf5058c075cbf60aeE, symObjAddr: 0x36AE8, symBinAddr: 0x394EC, symSize: 0xA8 }
  - { offset: 0x1AD196, size: 0x8, addend: 0x0, symName: __ZN10serde_json2de12ParserNumber12invalid_type17h5ad6b06fdc1b03fcE, symObjAddr: 0x36BE0, symBinAddr: 0x395E4, symSize: 0x54 }
  - { offset: 0x1AD220, size: 0x8, addend: 0x0, symName: '__ZN10serde_json2de21Deserializer$LT$R$GT$3end17hb168e0c904d60088E', symObjAddr: 0x36C34, symBinAddr: 0x39638, symSize: 0x44 }
  - { offset: 0x1AD267, size: 0x8, addend: 0x0, symName: '__ZN10serde_json2de21Deserializer$LT$R$GT$16parse_whitespace17hd43462d78d1c5819E', symObjAddr: 0x36C78, symBinAddr: 0x3967C, symSize: 0x5C }
  - { offset: 0x1AD360, size: 0x8, addend: 0x0, symName: '__ZN10serde_json2de21Deserializer$LT$R$GT$10peek_error17h5dfa335b4a922ac3E', symObjAddr: 0x36CD4, symBinAddr: 0x431AC, symSize: 0x48 }
  - { offset: 0x1AD47D, size: 0x8, addend: 0x0, symName: '__ZN10serde_json2de21Deserializer$LT$R$GT$9next_char17h097d721f4f4042d2E', symObjAddr: 0x36D1C, symBinAddr: 0x396D8, symSize: 0x34 }
  - { offset: 0x1AD4A1, size: 0x8, addend: 0x0, symName: '__ZN10serde_json2de21Deserializer$LT$R$GT$9next_char17h097d721f4f4042d2E', symObjAddr: 0x36D1C, symBinAddr: 0x396D8, symSize: 0x34 }
  - { offset: 0x1AD4BE, size: 0x8, addend: 0x0, symName: '__ZN10serde_json2de21Deserializer$LT$R$GT$9next_char17h097d721f4f4042d2E', symObjAddr: 0x36D1C, symBinAddr: 0x396D8, symSize: 0x34 }
  - { offset: 0x1AD51B, size: 0x8, addend: 0x0, symName: '__ZN10serde_json2de21Deserializer$LT$R$GT$17next_char_or_null17h89b447c61ad8e561E', symObjAddr: 0x36D50, symBinAddr: 0x3970C, symSize: 0x4C }
  - { offset: 0x1AD56B, size: 0x8, addend: 0x0, symName: '__ZN10serde_json2de21Deserializer$LT$R$GT$5error17h82ebd8366a84546aE', symObjAddr: 0x36D9C, symBinAddr: 0x431F4, symSize: 0x38 }
  - { offset: 0x1AD6BD, size: 0x8, addend: 0x0, symName: '__ZN10serde_json2de21Deserializer$LT$R$GT$17peek_invalid_type17he4b1952b93d72058E', symObjAddr: 0x36DD4, symBinAddr: 0x4322C, symSize: 0x1C4 }
  - { offset: 0x1AD8D3, size: 0x8, addend: 0x0, symName: '__ZN10serde_json2de21Deserializer$LT$R$GT$11parse_ident17h760c803b9a67598fE', symObjAddr: 0x36F98, symBinAddr: 0x39758, symSize: 0x84 }
  - { offset: 0x1AD978, size: 0x8, addend: 0x0, symName: '__ZN10serde_json2de21Deserializer$LT$R$GT$13parse_integer17hc15d36dd438317abE', symObjAddr: 0x3701C, symBinAddr: 0x397DC, symSize: 0x15C }
  - { offset: 0x1ADC1E, size: 0x8, addend: 0x0, symName: '__ZN10serde_json2de21Deserializer$LT$R$GT$12parse_number17hfafb9d4fa0bbf8e9E', symObjAddr: 0x371A4, symBinAddr: 0x39964, symSize: 0xBC }
  - { offset: 0x1ADD41, size: 0x8, addend: 0x0, symName: '__ZN10serde_json2de21Deserializer$LT$R$GT$18parse_long_integer17h348e2e75e0f7dc43E', symObjAddr: 0x37260, symBinAddr: 0x433F0, symSize: 0x58 }
  - { offset: 0x1ADE7C, size: 0x8, addend: 0x0, symName: '__ZN10serde_json2de21Deserializer$LT$R$GT$14f64_from_parts17h5f63cf8430a2fc64E', symObjAddr: 0x372B8, symBinAddr: 0x39A20, symSize: 0xA4 }
  - { offset: 0x1ADF4A, size: 0x8, addend: 0x0, symName: '__ZN10serde_json2de21Deserializer$LT$R$GT$13parse_decimal17h819acdf853f72995E', symObjAddr: 0x3735C, symBinAddr: 0x39AC4, symSize: 0x108 }
  - { offset: 0x1AE168, size: 0x8, addend: 0x0, symName: '__ZN10serde_json2de21Deserializer$LT$R$GT$14parse_exponent17ha38dcf16b6c3c624E', symObjAddr: 0x37464, symBinAddr: 0x39BCC, symSize: 0x184 }
  - { offset: 0x1AE4DD, size: 0x8, addend: 0x0, symName: '__ZN10serde_json2de21Deserializer$LT$R$GT$23parse_exponent_overflow17h4e749d7bc47a2f94E', symObjAddr: 0x375E8, symBinAddr: 0x43448, symSize: 0x80 }
  - { offset: 0x1AE60A, size: 0x8, addend: 0x0, symName: '__ZN10serde_json2de21Deserializer$LT$R$GT$22parse_decimal_overflow17hdacbdddd8230d033E', symObjAddr: 0x37668, symBinAddr: 0x434C8, symSize: 0x40 }
  - { offset: 0x1AE737, size: 0x8, addend: 0x0, symName: '__ZN10serde_json2de21Deserializer$LT$R$GT$18parse_object_colon17ha9d1f1fc114315fcE', symObjAddr: 0x376A8, symBinAddr: 0x39D50, symSize: 0x5C }
  - { offset: 0x1AE771, size: 0x8, addend: 0x0, symName: '__ZN10serde_json2de21Deserializer$LT$R$GT$7end_seq17h4455c810ac0620b5E', symObjAddr: 0x37704, symBinAddr: 0x39DAC, symSize: 0xD4 }
  - { offset: 0x1AE7BD, size: 0x8, addend: 0x0, symName: '__ZN10serde_json2de21Deserializer$LT$R$GT$7end_map17hbc835a2ced9dd49aE', symObjAddr: 0x377D8, symBinAddr: 0x39E80, symSize: 0x6C }
  - { offset: 0x1AE7EA, size: 0x8, addend: 0x0, symName: '__ZN10serde_json2de21Deserializer$LT$R$GT$12ignore_value17hf02ead33966d264dE', symObjAddr: 0x37844, symBinAddr: 0x39EEC, symSize: 0x2A0 }
  - { offset: 0x1AEBD8, size: 0x8, addend: 0x0, symName: '__ZN10serde_json2de21Deserializer$LT$R$GT$14ignore_integer17h18d98f3f4a517687E', symObjAddr: 0x37AE4, symBinAddr: 0x3A18C, symSize: 0x13C }
  - { offset: 0x1AEF3F, size: 0x8, addend: 0x0, symName: '__ZN5alloc3vec16Vec$LT$T$C$A$GT$3pop17hc8e4705323e341a6E', symObjAddr: 0x37C20, symBinAddr: 0x3A2C8, symSize: 0x28 }
  - { offset: 0x1AF00B, size: 0x8, addend: 0x0, symName: '__ZN10serde_json2de21Deserializer$LT$R$GT$15ignore_exponent17h967811319eb379c4E', symObjAddr: 0x37C48, symBinAddr: 0x3A2F0, symSize: 0xB0 }
  - { offset: 0x1AF463, size: 0x8, addend: 0x0, symName: _OUTLINED_FUNCTION_113, symObjAddr: 0x3B940, symBinAddr: 0x3DE80, symSize: 0x10 }
  - { offset: 0x1AF47A, size: 0x8, addend: 0x0, symName: _OUTLINED_FUNCTION_243, symObjAddr: 0x3C228, symBinAddr: 0x3E768, symSize: 0xC }
  - { offset: 0x1AF491, size: 0x8, addend: 0x0, symName: _OUTLINED_FUNCTION_671, symObjAddr: 0x3D9CC, symBinAddr: 0x3FF0C, symSize: 0x14 }
  - { offset: 0x1AF4A8, size: 0x8, addend: 0x0, symName: _OUTLINED_FUNCTION_741, symObjAddr: 0x3DDEC, symBinAddr: 0x4032C, symSize: 0x10 }
  - { offset: 0x1AF4BF, size: 0x8, addend: 0x0, symName: _OUTLINED_FUNCTION_1192, symObjAddr: 0x3F494, symBinAddr: 0x419D4, symSize: 0xC }
  - { offset: 0x1533EA, size: 0x8, addend: 0x0, symName: __ZN14powersync_core9crud_vtab6MODULE17h127015c7ea31903eE, symObjAddr: 0x4E1F0, symBinAddr: 0x55AF0, symSize: 0x0 }
  - { offset: 0x15361F, size: 0x8, addend: 0x0, symName: __ZN14powersync_core9crud_vtab7connect17h318cc323b4a0dd76E, symObjAddr: 0x2C250, symBinAddr: 0x2EDC8, symSize: 0xF4 }
  - { offset: 0x153CDF, size: 0x8, addend: 0x0, symName: __ZN14powersync_core9crud_vtab6update17h316a6d1c88b9df56E, symObjAddr: 0x2C344, symBinAddr: 0x2EEBC, symSize: 0x554 }
  - { offset: 0x154680, size: 0x8, addend: 0x0, symName: __ZN14powersync_core9crud_vtab5begin17h0a56d1771531ad3fE, symObjAddr: 0x2C898, symBinAddr: 0x2F410, symSize: 0xC4 }
  - { offset: 0x1547C7, size: 0x8, addend: 0x0, symName: __ZN14powersync_core9crud_vtab6commit17h81361729c06d17d8E, symObjAddr: 0x2C95C, symBinAddr: 0x2F4D4, symSize: 0x18 }
  - { offset: 0x1551B1, size: 0x8, addend: 0x0, symName: __ZN14powersync_core5state8register4func17ha3c38911da141f0cE, symObjAddr: 0x2C198, symBinAddr: 0x2ED10, symSize: 0x54 }
  - { offset: 0x155895, size: 0x8, addend: 0x0, symName: '__ZN124_$LT$core..result..Result$LT$T$C$sqlite_nostd..nostd..ResultCode$GT$$u20$as$u20$powersync_core..error..PSResult$LT$T$GT$$GT$14into_db_result17h2633d82365c647b2E', symObjAddr: 0x2B044, symBinAddr: 0x2DBBC, symSize: 0x54 }
  - { offset: 0x15592E, size: 0x8, addend: 0x0, symName: '__ZN124_$LT$core..result..Result$LT$T$C$sqlite_nostd..nostd..ResultCode$GT$$u20$as$u20$powersync_core..error..PSResult$LT$T$GT$$GT$14into_db_result17h8f063e42bc63a169E', symObjAddr: 0x2B098, symBinAddr: 0x2DC10, symSize: 0x54 }
  - { offset: 0x1559D3, size: 0x8, addend: 0x0, symName: '__ZN124_$LT$core..result..Result$LT$T$C$sqlite_nostd..nostd..ResultCode$GT$$u20$as$u20$powersync_core..error..PSResult$LT$T$GT$$GT$14into_db_result17hc5055a75c5ce30f0E', symObjAddr: 0x2B0EC, symBinAddr: 0x2DC64, symSize: 0x4C }
  - { offset: 0x155A74, size: 0x8, addend: 0x0, symName: '__ZN89_$LT$sqlite_nostd..nostd..ManagedStmt$u20$as$u20$powersync_core..ext..SafeManagedStmt$GT$4exec17h26791ff5334b47faE', symObjAddr: 0x2B138, symBinAddr: 0x2DCB0, symSize: 0x50 }
  - { offset: 0x155DB3, size: 0x8, addend: 0x0, symName: __ZN14powersync_core9json_util20powersync_json_merge17h565f0ef03e0569ffE, symObjAddr: 0x2B99C, symBinAddr: 0x2E514, symSize: 0x198 }
  - { offset: 0x1562F7, size: 0x8, addend: 0x0, symName: __ZN14powersync_core9json_util23powersync_strip_subtype17h9a2a374a649743a0E, symObjAddr: 0x2BB34, symBinAddr: 0x2E6AC, symSize: 0x50 }
  - { offset: 0x156556, size: 0x8, addend: 0x0, symName: __ZN14powersync_core10view_admin19powersync_drop_view17h860e084a76fecb4eE, symObjAddr: 0x2BB84, symBinAddr: 0x2E6FC, symSize: 0x148 }
  - { offset: 0x1569CC, size: 0x8, addend: 0x0, symName: __ZN14powersync_core10view_admin14powersync_exec17h30d7843b07d0d3caE, symObjAddr: 0x2BCCC, symBinAddr: 0x2E844, symSize: 0x88 }
  - { offset: 0x156BEB, size: 0x8, addend: 0x0, symName: __ZN14powersync_core10view_admin14powersync_init17hd92895f149e8b2c2E, symObjAddr: 0x2BD54, symBinAddr: 0x2E8CC, symSize: 0xBC }
  - { offset: 0x156D9D, size: 0x8, addend: 0x0, symName: __ZN14powersync_core10view_admin24powersync_test_migration17h41df55fa0626cdc0E, symObjAddr: 0x2BE10, symBinAddr: 0x2E988, symSize: 0xBC }
  - { offset: 0x156F60, size: 0x8, addend: 0x0, symName: __ZN14powersync_core10view_admin15powersync_clear17h22afaa4ecf147970E, symObjAddr: 0x2BECC, symBinAddr: 0x2EA44, symSize: 0xC0 }
  - { offset: 0x1570C1, size: 0x8, addend: 0x0, symName: __ZN14powersync_core10view_admin29powersync_external_table_name17haece756e6b1e3b71E, symObjAddr: 0x2BF8C, symBinAddr: 0x2EB04, symSize: 0xBC }
  - { offset: 0x1573C4, size: 0x8, addend: 0x0, symName: __ZN14powersync_core10view_admin29powersync_internal_table_name17h1e2ae456b7a5954aE, symObjAddr: 0x2C048, symBinAddr: 0x2EBC0, symSize: 0x150 }
  - { offset: 0x157602, size: 0x8, addend: 0x0, symName: __ZN14powersync_core10view_admin20powersync_clear_impl17hafd59f1044155f8dE, symObjAddr: 0x2D2EC, symBinAddr: 0x2FE64, symSize: 0x264 }
  - { offset: 0x157C20, size: 0x8, addend: 0x0, symName: __ZN14powersync_core10view_admin29powersync_test_migration_impl17hb7e87f3c4e4894c5E, symObjAddr: 0x2D568, symBinAddr: 0x300E0, symSize: 0x50 }
  - { offset: 0x157D45, size: 0x8, addend: 0x0, symName: __ZN14powersync_core10view_admin19powersync_init_impl17hd8f5f71a046e5375E, symObjAddr: 0x2D5B8, symBinAddr: 0x30130, symSize: 0x8C }
  - { offset: 0x157E48, size: 0x8, addend: 0x0, symName: _sqlite3_powersync_init, symObjAddr: 0x2B1D4, symBinAddr: 0x2DD4C, symSize: 0x7A4 }
  - { offset: 0x160AE9, size: 0x8, addend: 0x0, symName: '__ZN4core3ptr58drop_in_place$LT$powersync_core..error..PowerSyncError$GT$17h13b64e1f68ee6928E.2511', symObjAddr: 0x2C1EC, symBinAddr: 0x2ED64, symSize: 0x64 }
  - { offset: 0x160CB0, size: 0x8, addend: 0x0, symName: '__ZN4core3ptr97drop_in_place$LT$core..option..Option$LT$powersync_core..crud_vtab..ActiveCrudTransaction$GT$$GT$17hf5695e9645bd40acE', symObjAddr: 0x2C99C, symBinAddr: 0x2F514, symSize: 0x50 }
  - { offset: 0x160D49, size: 0x8, addend: 0x0, symName: '__ZN4core3ptr81drop_in_place$LT$core..option..Option$LT$sqlite_nostd..nostd..ManagedStmt$GT$$GT$17hab611ad4945e88a8E', symObjAddr: 0x2C9EC, symBinAddr: 0x2F564, symSize: 0x10 }
  - { offset: 0x160E17, size: 0x8, addend: 0x0, symName: '__ZN4core3ptr110drop_in_place$LT$core..result..Result$LT$alloc..string..String$C$powersync_core..error..PowerSyncError$GT$$GT$17hef6619f92e908cb5E', symObjAddr: 0x2D550, symBinAddr: 0x300C8, symSize: 0x18 }
  - { offset: 0x163305, size: 0x8, addend: 0x0, symName: '__ZN4core3str6traits66_$LT$impl$u20$core..ops..index..Index$LT$I$GT$$u20$for$u20$str$GT$5index17h54f667ce8b9d8d0eE', symObjAddr: 0x2D2C4, symBinAddr: 0x2FE3C, symSize: 0x28 }
  - { offset: 0x163343, size: 0x8, addend: 0x0, symName: '__ZN4core3str6traits66_$LT$impl$u20$core..ops..index..Index$LT$I$GT$$u20$for$u20$str$GT$5index17h54f667ce8b9d8d0eE', symObjAddr: 0x2D2C4, symBinAddr: 0x2FE3C, symSize: 0x28 }
  - { offset: 0x163363, size: 0x8, addend: 0x0, symName: '__ZN4core3str6traits66_$LT$impl$u20$core..ops..index..Index$LT$I$GT$$u20$for$u20$str$GT$5index17h54f667ce8b9d8d0eE', symObjAddr: 0x2D2C4, symBinAddr: 0x2FE3C, symSize: 0x28 }
  - { offset: 0x163382, size: 0x8, addend: 0x0, symName: '__ZN4core3str6traits66_$LT$impl$u20$core..ops..index..Index$LT$I$GT$$u20$for$u20$str$GT$5index17h54f667ce8b9d8d0eE', symObjAddr: 0x2D2C4, symBinAddr: 0x2FE3C, symSize: 0x28 }
  - { offset: 0x1633A9, size: 0x8, addend: 0x0, symName: '__ZN4core3str6traits66_$LT$impl$u20$core..ops..index..Index$LT$I$GT$$u20$for$u20$str$GT$5index17h54f667ce8b9d8d0eE', symObjAddr: 0x2D2C4, symBinAddr: 0x2FE3C, symSize: 0x28 }
  - { offset: 0x163D90, size: 0x8, addend: 0x0, symName: '__ZN86_$LT$serde_json..ser..Compound$LT$W$C$F$GT$$u20$as$u20$serde..ser..SerializeStruct$GT$15serialize_field17hbf311e47d517b782E', symObjAddr: 0x2D154, symBinAddr: 0x2FCCC, symSize: 0x78 }
  - { offset: 0x163EF9, size: 0x8, addend: 0x0, symName: '__ZN86_$LT$serde_json..ser..Compound$LT$W$C$F$GT$$u20$as$u20$serde..ser..SerializeStruct$GT$15serialize_field17h20be57c088c9d631E', symObjAddr: 0x2D1CC, symBinAddr: 0x2FD44, symSize: 0xAC }
  - { offset: 0x164692, size: 0x8, addend: 0x0, symName: '__ZN96_$LT$$BP$mut$u20$sqlite3_capi..bindings..sqlite3_value$u20$as$u20$sqlite_nostd..nostd..Value$GT$3int17hfb2eac28a73a001cE', symObjAddr: 0x2D080, symBinAddr: 0x2FBF8, symSize: 0x20 }
  - { offset: 0x1646C0, size: 0x8, addend: 0x0, symName: '__ZN96_$LT$$BP$mut$u20$sqlite3_capi..bindings..sqlite3_value$u20$as$u20$sqlite_nostd..nostd..Value$GT$3int17hfb2eac28a73a001cE', symObjAddr: 0x2D080, symBinAddr: 0x2FBF8, symSize: 0x20 }
  - { offset: 0x1647AA, size: 0x8, addend: 0x0, symName: '__ZN95_$LT$$BP$mut$u20$sqlite3_capi..bindings..sqlite3$u20$as$u20$sqlite_nostd..nostd..Connection$GT$10prepare_v217h7b4dbd632987a7deE.2524', symObjAddr: 0x2C9FC, symBinAddr: 0x2F574, symSize: 0x48 }
  - { offset: 0x164844, size: 0x8, addend: 0x0, symName: '__ZN95_$LT$$BP$mut$u20$sqlite3_capi..bindings..sqlite3$u20$as$u20$sqlite_nostd..nostd..Connection$GT$10prepare_v317h4470ad3c70d00479E', symObjAddr: 0x2D008, symBinAddr: 0x2FB80, symSize: 0x78 }
  - { offset: 0x164943, size: 0x8, addend: 0x0, symName: '__ZN95_$LT$$BP$mut$u20$sqlite3_capi..bindings..sqlite3$u20$as$u20$sqlite_nostd..nostd..Connection$GT$9exec_safe17hb792261992f576abE.2530', symObjAddr: 0x2D0F0, symBinAddr: 0x2FC68, symSize: 0x64 }
  - { offset: 0x164A44, size: 0x8, addend: 0x0, symName: '__ZN77_$LT$alloc..raw_vec..RawVec$LT$T$C$A$GT$$u20$as$u20$core..ops..drop..Drop$GT$4drop17h1fcc5e5bab534680E', symObjAddr: 0x2AFC0, symBinAddr: 0x2DB38, symSize: 0xC }
  - { offset: 0x164A7D, size: 0x8, addend: 0x0, symName: '__ZN77_$LT$alloc..raw_vec..RawVec$LT$T$C$A$GT$$u20$as$u20$core..ops..drop..Drop$GT$4drop17h225517caf1f1f78dE', symObjAddr: 0x2AFCC, symBinAddr: 0x2DB44, symSize: 0xC }
  - { offset: 0x164AB6, size: 0x8, addend: 0x0, symName: '__ZN77_$LT$alloc..raw_vec..RawVec$LT$T$C$A$GT$$u20$as$u20$core..ops..drop..Drop$GT$4drop17h2d2c69bfb54dc3f2E', symObjAddr: 0x2AFD8, symBinAddr: 0x2DB50, symSize: 0xC }
  - { offset: 0x164AEF, size: 0x8, addend: 0x0, symName: '__ZN77_$LT$alloc..raw_vec..RawVec$LT$T$C$A$GT$$u20$as$u20$core..ops..drop..Drop$GT$4drop17h3699ba3154056032E', symObjAddr: 0x2AFE4, symBinAddr: 0x2DB5C, symSize: 0xC }
  - { offset: 0x164B28, size: 0x8, addend: 0x0, symName: '__ZN77_$LT$alloc..raw_vec..RawVec$LT$T$C$A$GT$$u20$as$u20$core..ops..drop..Drop$GT$4drop17h3805a7d14cc99dc4E', symObjAddr: 0x2AFF0, symBinAddr: 0x2DB68, symSize: 0xC }
  - { offset: 0x164B61, size: 0x8, addend: 0x0, symName: '__ZN77_$LT$alloc..raw_vec..RawVec$LT$T$C$A$GT$$u20$as$u20$core..ops..drop..Drop$GT$4drop17h45f4e1fcf29f6b76E', symObjAddr: 0x2AFFC, symBinAddr: 0x2DB74, symSize: 0xC }
  - { offset: 0x164B9A, size: 0x8, addend: 0x0, symName: '__ZN77_$LT$alloc..raw_vec..RawVec$LT$T$C$A$GT$$u20$as$u20$core..ops..drop..Drop$GT$4drop17h7522696cf6133d2cE', symObjAddr: 0x2B008, symBinAddr: 0x2DB80, symSize: 0xC }
  - { offset: 0x164BD3, size: 0x8, addend: 0x0, symName: '__ZN77_$LT$alloc..raw_vec..RawVec$LT$T$C$A$GT$$u20$as$u20$core..ops..drop..Drop$GT$4drop17h895f87370535cae9E', symObjAddr: 0x2B014, symBinAddr: 0x2DB8C, symSize: 0xC }
  - { offset: 0x164C0C, size: 0x8, addend: 0x0, symName: '__ZN77_$LT$alloc..raw_vec..RawVec$LT$T$C$A$GT$$u20$as$u20$core..ops..drop..Drop$GT$4drop17h951f2a718473ee66E', symObjAddr: 0x2B020, symBinAddr: 0x2DB98, symSize: 0xC }
  - { offset: 0x164C45, size: 0x8, addend: 0x0, symName: '__ZN77_$LT$alloc..raw_vec..RawVec$LT$T$C$A$GT$$u20$as$u20$core..ops..drop..Drop$GT$4drop17hd41113a162a6bf1fE', symObjAddr: 0x2B02C, symBinAddr: 0x2DBA4, symSize: 0xC }
  - { offset: 0x164C7E, size: 0x8, addend: 0x0, symName: '__ZN77_$LT$alloc..raw_vec..RawVec$LT$T$C$A$GT$$u20$as$u20$core..ops..drop..Drop$GT$4drop17hfe1308ba7712aa4fE', symObjAddr: 0x2B038, symBinAddr: 0x2DBB0, symSize: 0xC }
  - { offset: 0x165F24, size: 0x8, addend: 0x0, symName: __ZN5alloc5alloc15exchange_malloc17h8bc033b4f6887839E.2508, symObjAddr: 0x2B978, symBinAddr: 0x2E4F0, symSize: 0x24 }
  - { offset: 0x16634F, size: 0x8, addend: 0x0, symName: '__ZN104_$LT$alloc..collections..btree..set..Iter$LT$T$GT$$u20$as$u20$core..iter..traits..iterator..Iterator$GT$4next17haa9f49356dd5ee33E', symObjAddr: 0x2AC60, symBinAddr: 0x2D7D8, symSize: 0x4 }
  - { offset: 0x16637F, size: 0x8, addend: 0x0, symName: '__ZN104_$LT$alloc..collections..btree..set..Iter$LT$T$GT$$u20$as$u20$core..iter..traits..iterator..Iterator$GT$4next17haa9f49356dd5ee33E', symObjAddr: 0x2AC60, symBinAddr: 0x2D7D8, symSize: 0x4 }
  - { offset: 0x167421, size: 0x8, addend: 0x0, symName: '__ZN5alloc5slice29_$LT$impl$u20$$u5b$T$u5d$$GT$4sort17h31665168b551a17aE', symObjAddr: 0x2AC64, symBinAddr: 0x2D7DC, symSize: 0x6C }
  - { offset: 0x16874E, size: 0x8, addend: 0x0, symName: '__ZN5alloc11collections5btree3set21BTreeSet$LT$T$C$A$GT$16from_sorted_iter17h766081e989384809E', symObjAddr: 0x2ACD0, symBinAddr: 0x2D848, symSize: 0x260 }
  - { offset: 0x16901D, size: 0x8, addend: 0x0, symName: '__ZN5alloc7raw_vec19RawVec$LT$T$C$A$GT$8grow_one17h035c21c2170f0004E', symObjAddr: 0x2AF30, symBinAddr: 0x2DAA8, symSize: 0x8 }
  - { offset: 0x16905E, size: 0x8, addend: 0x0, symName: '__ZN5alloc7raw_vec20RawVecInner$LT$A$GT$8grow_one17h25c602dd7d7a7edfE', symObjAddr: 0x2AF38, symBinAddr: 0x2DAB0, symSize: 0x30 }
  - { offset: 0x1690BF, size: 0x8, addend: 0x0, symName: '__ZN5alloc7raw_vec19RawVec$LT$T$C$A$GT$8grow_one17h0a8619f073016540E', symObjAddr: 0x2AF68, symBinAddr: 0x2DAE0, symSize: 0x8 }
  - { offset: 0x169100, size: 0x8, addend: 0x0, symName: '__ZN5alloc7raw_vec19RawVec$LT$T$C$A$GT$8grow_one17h0b3b3b8018f76a6cE', symObjAddr: 0x2AF70, symBinAddr: 0x2DAE8, symSize: 0x8 }
  - { offset: 0x169141, size: 0x8, addend: 0x0, symName: '__ZN5alloc7raw_vec19RawVec$LT$T$C$A$GT$8grow_one17h0d21b00f6d7b81fbE', symObjAddr: 0x2AF78, symBinAddr: 0x2DAF0, symSize: 0x8 }
  - { offset: 0x169182, size: 0x8, addend: 0x0, symName: '__ZN5alloc7raw_vec19RawVec$LT$T$C$A$GT$8grow_one17h2a16de2983d310f8E', symObjAddr: 0x2AF80, symBinAddr: 0x2DAF8, symSize: 0x8 }
  - { offset: 0x1691C3, size: 0x8, addend: 0x0, symName: '__ZN5alloc7raw_vec19RawVec$LT$T$C$A$GT$8grow_one17h320e5acee13f3967E', symObjAddr: 0x2AF88, symBinAddr: 0x2DB00, symSize: 0x8 }
  - { offset: 0x169204, size: 0x8, addend: 0x0, symName: '__ZN5alloc7raw_vec19RawVec$LT$T$C$A$GT$8grow_one17h48b52d4a743d1a68E', symObjAddr: 0x2AF90, symBinAddr: 0x2DB08, symSize: 0x8 }
  - { offset: 0x169245, size: 0x8, addend: 0x0, symName: '__ZN5alloc7raw_vec19RawVec$LT$T$C$A$GT$8grow_one17h5e4dc0c572d4feb3E', symObjAddr: 0x2AF98, symBinAddr: 0x2DB10, symSize: 0x8 }
  - { offset: 0x169279, size: 0x8, addend: 0x0, symName: '__ZN5alloc7raw_vec19RawVec$LT$T$C$A$GT$8grow_one17h775402e4eabe8e7dE', symObjAddr: 0x2AFA0, symBinAddr: 0x2DB18, symSize: 0x8 }
  - { offset: 0x1692BA, size: 0x8, addend: 0x0, symName: '__ZN5alloc7raw_vec19RawVec$LT$T$C$A$GT$8grow_one17h7d4d89ee599403deE', symObjAddr: 0x2AFA8, symBinAddr: 0x2DB20, symSize: 0x8 }
  - { offset: 0x169315, size: 0x8, addend: 0x0, symName: '__ZN5alloc7raw_vec19RawVec$LT$T$C$A$GT$8grow_one17ha5deebfae5d55934E', symObjAddr: 0x2AFB0, symBinAddr: 0x2DB28, symSize: 0x8 }
  - { offset: 0x169356, size: 0x8, addend: 0x0, symName: '__ZN5alloc7raw_vec19RawVec$LT$T$C$A$GT$8grow_one17hff8b4d0def322766E', symObjAddr: 0x2AFB8, symBinAddr: 0x2DB30, symSize: 0x8 }
  - { offset: 0x16953B, size: 0x8, addend: 0x0, symName: '__ZN4core4cell16RefCell$LT$T$GT$10borrow_mut17h21227bae0555341cE', symObjAddr: 0x2B188, symBinAddr: 0x2DD00, symSize: 0x24 }
  - { offset: 0x169562, size: 0x8, addend: 0x0, symName: '__ZN4core4cell16RefCell$LT$T$GT$10borrow_mut17h21227bae0555341cE', symObjAddr: 0x2B188, symBinAddr: 0x2DD00, symSize: 0x24 }
  - { offset: 0x169580, size: 0x8, addend: 0x0, symName: '__ZN4core4cell16RefCell$LT$T$GT$10borrow_mut17h21227bae0555341cE', symObjAddr: 0x2B188, symBinAddr: 0x2DD00, symSize: 0x24 }
  - { offset: 0x16959E, size: 0x8, addend: 0x0, symName: '__ZN4core4cell16RefCell$LT$T$GT$10borrow_mut17h21227bae0555341cE', symObjAddr: 0x2B188, symBinAddr: 0x2DD00, symSize: 0x24 }
  - { offset: 0x1696DC, size: 0x8, addend: 0x0, symName: __ZN14powersync_core5state13DatabaseState11destroy_arc17hef8d1cd1499dc4b6E, symObjAddr: 0x2B1AC, symBinAddr: 0x2DD24, symSize: 0x28 }
  - { offset: 0x16BA11, size: 0x8, addend: 0x0, symName: __ZN14powersync_core9crud_vtab12VirtualTable15end_transaction17heb99dfd77768fd92E, symObjAddr: 0x2C974, symBinAddr: 0x2F4EC, symSize: 0x28 }
  - { offset: 0x16BAA3, size: 0x8, addend: 0x0, symName: __ZN10num_traits4cast13FromPrimitive8from_i3217hb0196d9cbc83deb0E, symObjAddr: 0x2CA44, symBinAddr: 0x2F5BC, symSize: 0x5C4 }
  - { offset: 0x16BAF5, size: 0x8, addend: 0x0, symName: __ZN12sqlite_nostd5nostd11ManagedStmt10bind_int6417hb8bc9a3999c6ff53E.2527, symObjAddr: 0x2D0A0, symBinAddr: 0x2FC18, symSize: 0x1C }
  - { offset: 0x16BB33, size: 0x8, addend: 0x0, symName: __ZN14powersync_core9crud_vtab12VirtualTable13value_to_json17h559a91fb8da87b99E, symObjAddr: 0x2D0BC, symBinAddr: 0x2FC34, symSize: 0x34 }
  - { offset: 0x16BB80, size: 0x8, addend: 0x0, symName: __ZN12sqlite_nostd5nostd11ManagedStmt11column_text17h16c7a47e500c1c6bE.2532, symObjAddr: 0x2D278, symBinAddr: 0x2FDF0, symSize: 0x4C }
  - { offset: 0x16BDDF, size: 0x8, addend: 0x0, symName: __ZN5alloc6string6String4push17hb885a7d892884642E.2535, symObjAddr: 0x2D644, symBinAddr: 0x301BC, symSize: 0x3C }
  - { offset: 0x16C1A0, size: 0x8, addend: 0x0, symName: _OUTLINED_FUNCTION_80, symObjAddr: 0x3B6B0, symBinAddr: 0x3DBF0, symSize: 0xC }
  - { offset: 0x16C1B7, size: 0x8, addend: 0x0, symName: _OUTLINED_FUNCTION_91, symObjAddr: 0x3B7A0, symBinAddr: 0x3DCE0, symSize: 0x14 }
  - { offset: 0x16C1CE, size: 0x8, addend: 0x0, symName: _OUTLINED_FUNCTION_135, symObjAddr: 0x3BB44, symBinAddr: 0x3E084, symSize: 0x10 }
  - { offset: 0x16C1E5, size: 0x8, addend: 0x0, symName: _OUTLINED_FUNCTION_161, symObjAddr: 0x3BD2C, symBinAddr: 0x3E26C, symSize: 0xC }
  - { offset: 0x16C1FC, size: 0x8, addend: 0x0, symName: _OUTLINED_FUNCTION_216, symObjAddr: 0x3C0A4, symBinAddr: 0x3E5E4, symSize: 0x8 }
  - { offset: 0x16C213, size: 0x8, addend: 0x0, symName: _OUTLINED_FUNCTION_358, symObjAddr: 0x3C850, symBinAddr: 0x3ED90, symSize: 0x10 }
  - { offset: 0x16C22A, size: 0x8, addend: 0x0, symName: _OUTLINED_FUNCTION_368, symObjAddr: 0x3C8BC, symBinAddr: 0x3EDFC, symSize: 0xC }
  - { offset: 0x16C241, size: 0x8, addend: 0x0, symName: _OUTLINED_FUNCTION_460, symObjAddr: 0x3CDD4, symBinAddr: 0x3F314, symSize: 0x1C }
  - { offset: 0x16C258, size: 0x8, addend: 0x0, symName: _OUTLINED_FUNCTION_608, symObjAddr: 0x3D614, symBinAddr: 0x3FB54, symSize: 0xC }
  - { offset: 0x16C26F, size: 0x8, addend: 0x0, symName: _OUTLINED_FUNCTION_609, symObjAddr: 0x3D620, symBinAddr: 0x3FB60, symSize: 0xC }
  - { offset: 0x16C286, size: 0x8, addend: 0x0, symName: _OUTLINED_FUNCTION_610, symObjAddr: 0x3D62C, symBinAddr: 0x3FB6C, symSize: 0xC }
  - { offset: 0x16C29D, size: 0x8, addend: 0x0, symName: _OUTLINED_FUNCTION_1064, symObjAddr: 0x3EDE0, symBinAddr: 0x41320, symSize: 0xC }
  - { offset: 0x16C2B4, size: 0x8, addend: 0x0, symName: _OUTLINED_FUNCTION_1069, symObjAddr: 0x3EE10, symBinAddr: 0x41350, symSize: 0x8 }
  - { offset: 0x1C229, size: 0x8, addend: 0x0, symName: __ZN4core3num7flt2dec8strategy6dragon9mul_pow1017h118550280672257fE, symObjAddr: 0x428C, symBinAddr: 0x8178, symSize: 0xE8 }
  - { offset: 0x1C25D, size: 0x8, addend: 0x0, symName: __ZN4core3num7flt2dec8strategy6dragon5POW1017h2bdfdcb51c96a7a9E, symObjAddr: 0x40F38, symBinAddr: 0x44FE8, symSize: 0x0 }
  - { offset: 0x1C278, size: 0x8, addend: 0x0, symName: __ZN4core3num7flt2dec8strategy6dragon8POW5TO1617h98aa2a91bc6428aaE, symObjAddr: 0x40F60, symBinAddr: 0x45010, symSize: 0x0 }
  - { offset: 0x1C293, size: 0x8, addend: 0x0, symName: __ZN4core3num7flt2dec8strategy6dragon8POW5TO3217h146419fa4a9e9348E, symObjAddr: 0x40F68, symBinAddr: 0x45018, symSize: 0x0 }
  - { offset: 0x1C2AE, size: 0x8, addend: 0x0, symName: __ZN4core3num7flt2dec8strategy6dragon8POW5TO6417h5632719cb3760277E, symObjAddr: 0x40F74, symBinAddr: 0x45024, symSize: 0x0 }
  - { offset: 0x1C2C9, size: 0x8, addend: 0x0, symName: __ZN4core3num7flt2dec8strategy6dragon9POW5TO12817h33826aec7587f518E, symObjAddr: 0x40F88, symBinAddr: 0x45038, symSize: 0x0 }
  - { offset: 0x1C2E4, size: 0x8, addend: 0x0, symName: __ZN4core3num7flt2dec8strategy6dragon9POW5TO25617h1af74a1c661d7a16E, symObjAddr: 0x40FB0, symBinAddr: 0x45060, symSize: 0x0 }
  - { offset: 0x1C572, size: 0x8, addend: 0x0, symName: __ZN4core3num7flt2dec8strategy6dragon9mul_pow1017h118550280672257fE, symObjAddr: 0x428C, symBinAddr: 0x8178, symSize: 0xE8 }
  - { offset: 0x1C719, size: 0x8, addend: 0x0, symName: __ZN4core7unicode12unicode_data15grapheme_extend17SHORT_OFFSET_RUNS17h2104efe219b45d52E, symObjAddr: 0x40FFC, symBinAddr: 0x450AC, symSize: 0x0 }
  - { offset: 0x1C735, size: 0x8, addend: 0x0, symName: __ZN4core7unicode12unicode_data15grapheme_extend7OFFSETS17h2436d805e3d839adE, symObjAddr: 0x40C48, symBinAddr: 0x44CF8, symSize: 0x0 }
  - { offset: 0x1C743, size: 0x8, addend: 0x0, symName: __ZN4core7unicode12unicode_data15grapheme_extend11lookup_slow17had6d06b030b5ac9dE, symObjAddr: 0x43D8, symBinAddr: 0x82C4, symSize: 0xB4 }
  - { offset: 0x1CBC9, size: 0x8, addend: 0x0, symName: __ZN4core3cmp10PartialOrd2ge17hbe7fdf2709ba88c3E, symObjAddr: 0x4374, symBinAddr: 0x8260, symSize: 0x1C }
  - { offset: 0x1CF14, size: 0x8, addend: 0x0, symName: '__ZN106_$LT$core..ops..range..Range$LT$usize$GT$$u20$as$u20$core..slice..index..SliceIndex$LT$$u5b$T$u5d$$GT$$GT$9index_mut17h719d0c0c47f780d4E', symObjAddr: 0x43A4, symBinAddr: 0x8290, symSize: 0x34 }
  - { offset: 0x1D00A, size: 0x8, addend: 0x0, symName: '__ZN108_$LT$core..ops..range..RangeTo$LT$usize$GT$$u20$as$u20$core..slice..index..SliceIndex$LT$$u5b$T$u5d$$GT$$GT$9index_mut17h2173a8f7deb2afbaE.356', symObjAddr: 0x4390, symBinAddr: 0x827C, symSize: 0x14 }
  - { offset: 0xB11, size: 0x8, addend: 0x0, symName: '__ZN58_$LT$alloc..string..String$u20$as$u20$core..fmt..Write$GT$9write_str17h150c025dd4a83072E', symObjAddr: 0x68, symBinAddr: 0x4068, symSize: 0x1C }
  - { offset: 0xC27, size: 0x8, addend: 0x0, symName: '__ZN58_$LT$alloc..string..String$u20$as$u20$core..fmt..Write$GT$10write_char17h0d136672011f763fE', symObjAddr: 0x84, symBinAddr: 0x4084, symSize: 0x68 }
  - { offset: 0x108C, size: 0x8, addend: 0x0, symName: '__ZN4core3ptr42drop_in_place$LT$alloc..string..String$GT$17h362f92d2c0a7f206E', symObjAddr: 0x60, symBinAddr: 0x4060, symSize: 0x8 }
  - { offset: 0x134C, size: 0x8, addend: 0x0, symName: __ZN4core3fmt5Write9write_fmt17ha38a2622453b076cE, symObjAddr: 0x48, symBinAddr: 0x4048, symSize: 0x18 }
  - { offset: 0x19D9, size: 0x8, addend: 0x0, symName: _OUTLINED_FUNCTION_86, symObjAddr: 0x3B72C, symBinAddr: 0x3DC6C, symSize: 0x34 }
  - { offset: 0x19F0, size: 0x8, addend: 0x0, symName: _OUTLINED_FUNCTION_112, symObjAddr: 0x3B934, symBinAddr: 0x3DE74, symSize: 0xC }
  - { offset: 0x1A07, size: 0x8, addend: 0x0, symName: _OUTLINED_FUNCTION_125, symObjAddr: 0x3BA7C, symBinAddr: 0x3DFBC, symSize: 0x28 }
  - { offset: 0x1A1E, size: 0x8, addend: 0x0, symName: _OUTLINED_FUNCTION_184, symObjAddr: 0x3BEB0, symBinAddr: 0x3E3F0, symSize: 0x20 }
  - { offset: 0x1A35, size: 0x8, addend: 0x0, symName: _OUTLINED_FUNCTION_258, symObjAddr: 0x3C308, symBinAddr: 0x3E848, symSize: 0x1C }
  - { offset: 0x1A4C, size: 0x8, addend: 0x0, symName: _OUTLINED_FUNCTION_707, symObjAddr: 0x3DC58, symBinAddr: 0x40198, symSize: 0x20 }
  - { offset: 0x1A63, size: 0x8, addend: 0x0, symName: _OUTLINED_FUNCTION_815, symObjAddr: 0x3E1C0, symBinAddr: 0x40700, symSize: 0x8 }
  - { offset: 0x1A7A, size: 0x8, addend: 0x0, symName: _OUTLINED_FUNCTION_863, symObjAddr: 0x3E47C, symBinAddr: 0x409BC, symSize: 0x10 }
  - { offset: 0x165C3, size: 0x8, addend: 0x0, symName: __ZN4core3num9diy_float2Fp12normalize_to17h600b18371b6c88edE, symObjAddr: 0x3774, symBinAddr: 0x7678, symSize: 0x5C }
  - { offset: 0x16683, size: 0x8, addend: 0x0, symName: '__ZN62_$LT$core..char..EscapeDebug$u20$as$u20$core..fmt..Display$GT$3fmt17h80db2f73317c1f21E', symObjAddr: 0x37D0, symBinAddr: 0x76D4, symSize: 0x40 }
  - { offset: 0x16D36, size: 0x8, addend: 0x0, symName: __ZN4core5slice4sort6stable5drift11sqrt_approx17h3fea8ec1abe222c6E, symObjAddr: 0x3810, symBinAddr: 0x7714, symSize: 0x2C }
  - { offset: 0x17238, size: 0x8, addend: 0x0, symName: __ZN4core3num9diy_float2Fp12normalize_to17h600b18371b6c88edE, symObjAddr: 0x3774, symBinAddr: 0x7678, symSize: 0x5C }
  - { offset: 0x11DF0, size: 0x8, addend: 0x0, symName: __ZN4core3fmt5float29float_to_decimal_common_exact17h2edcb2df6879386bE, symObjAddr: 0x23C8, symBinAddr: 0x62D8, symSize: 0x788 }
  - { offset: 0x12645, size: 0x8, addend: 0x0, symName: __ZN4core3fmt5float32float_to_decimal_common_shortest17h7af5b948a7fbe470E, symObjAddr: 0x2B50, symBinAddr: 0x6A60, symSize: 0x660 }
  - { offset: 0x12D2D, size: 0x8, addend: 0x0, symName: '__ZN4core3fmt5float52_$LT$impl$u20$core..fmt..Display$u20$for$u20$f64$GT$3fmt17hfdf429077a48cf4dE', symObjAddr: 0x31B0, symBinAddr: 0x70C0, symSize: 0x30 }
  - { offset: 0x12DBF, size: 0x8, addend: 0x0, symName: __ZN4core9panicking5panic17h05203c9faf409af7E, symObjAddr: 0x239C, symBinAddr: 0x41C74, symSize: 0xC }
  - { offset: 0x12E25, size: 0x8, addend: 0x0, symName: __ZN4core9panicking18panic_nounwind_fmt17hd62a412cfcacc1c1E, symObjAddr: 0x23A8, symBinAddr: 0x41C80, symSize: 0x4 }
  - { offset: 0x12E5C, size: 0x8, addend: 0x0, symName: __ZN4core9panicking18panic_nounwind_fmt17hd62a412cfcacc1c1E, symObjAddr: 0x23A8, symBinAddr: 0x41C80, symSize: 0x4 }
  - { offset: 0x12E75, size: 0x8, addend: 0x0, symName: __ZN4core9panicking18panic_nounwind_fmt17hd62a412cfcacc1c1E, symObjAddr: 0x23A8, symBinAddr: 0x41C80, symSize: 0x4 }
  - { offset: 0x12E8F, size: 0x8, addend: 0x0, symName: __ZN4core9panicking18panic_nounwind_fmt17hd62a412cfcacc1c1E, symObjAddr: 0x23A8, symBinAddr: 0x41C80, symSize: 0x4 }
  - { offset: 0x12EA3, size: 0x8, addend: 0x0, symName: __ZN4core9panicking13assert_failed17h2d708a54bc886c9cE, symObjAddr: 0x23AC, symBinAddr: 0x41C84, symSize: 0x10 }
  - { offset: 0x12F0B, size: 0x8, addend: 0x0, symName: __ZN4core9panicking19assert_failed_inner17ha0ac4a6a329890deE, symObjAddr: 0x23BC, symBinAddr: 0x41C94, symSize: 0xC }
  - { offset: 0x13026, size: 0x8, addend: 0x0, symName: __ZN4core6result13unwrap_failed17hdd42965b01a2ab1aE, symObjAddr: 0x237C, symBinAddr: 0x41C58, symSize: 0xC }
  - { offset: 0x13142, size: 0x8, addend: 0x0, symName: __ZN4core6option13unwrap_failed17h5967f6afa110bc30E, symObjAddr: 0x238C, symBinAddr: 0x41C64, symSize: 0x10 }
  - { offset: 0x136BF, size: 0x8, addend: 0x0, symName: __ZN4core3fmt9Formatter9write_fmt17h1d854119291a54b3E.199, symObjAddr: 0x2388, symBinAddr: 0x62D4, symSize: 0x4 }
  - { offset: 0x13829, size: 0x8, addend: 0x0, symName: _OUTLINED_FUNCTION_315, symObjAddr: 0x3C618, symBinAddr: 0x3EB58, symSize: 0xC }
  - { offset: 0x13840, size: 0x8, addend: 0x0, symName: _OUTLINED_FUNCTION_406, symObjAddr: 0x3CB48, symBinAddr: 0x3F088, symSize: 0x8 }
  - { offset: 0x13857, size: 0x8, addend: 0x0, symName: _OUTLINED_FUNCTION_421, symObjAddr: 0x3CBF0, symBinAddr: 0x3F130, symSize: 0x8 }
  - { offset: 0x1386E, size: 0x8, addend: 0x0, symName: _OUTLINED_FUNCTION_441, symObjAddr: 0x3CCB4, symBinAddr: 0x3F1F4, symSize: 0x18 }
  - { offset: 0x13885, size: 0x8, addend: 0x0, symName: _OUTLINED_FUNCTION_453, symObjAddr: 0x3CD50, symBinAddr: 0x3F290, symSize: 0x18 }
  - { offset: 0x1389C, size: 0x8, addend: 0x0, symName: _OUTLINED_FUNCTION_542, symObjAddr: 0x3D2E4, symBinAddr: 0x3F824, symSize: 0xC }
  - { offset: 0x138B3, size: 0x8, addend: 0x0, symName: _OUTLINED_FUNCTION_684, symObjAddr: 0x3DAD4, symBinAddr: 0x40014, symSize: 0xC }
  - { offset: 0x138CA, size: 0x8, addend: 0x0, symName: _OUTLINED_FUNCTION_725, symObjAddr: 0x3DD34, symBinAddr: 0x40274, symSize: 0x8 }
  - { offset: 0x138E1, size: 0x8, addend: 0x0, symName: _OUTLINED_FUNCTION_872, symObjAddr: 0x3E528, symBinAddr: 0x40A68, symSize: 0x18 }
  - { offset: 0x138F8, size: 0x8, addend: 0x0, symName: _OUTLINED_FUNCTION_877, symObjAddr: 0x3E57C, symBinAddr: 0x40ABC, symSize: 0x18 }
  - { offset: 0x1390F, size: 0x8, addend: 0x0, symName: _OUTLINED_FUNCTION_941, symObjAddr: 0x3E8F8, symBinAddr: 0x40E38, symSize: 0xC }
  - { offset: 0x13926, size: 0x8, addend: 0x0, symName: _OUTLINED_FUNCTION_944, symObjAddr: 0x3E918, symBinAddr: 0x40E58, symSize: 0xC }
  - { offset: 0x1393D, size: 0x8, addend: 0x0, symName: _OUTLINED_FUNCTION_951, symObjAddr: 0x3E980, symBinAddr: 0x40EC0, symSize: 0xC }
  - { offset: 0x13954, size: 0x8, addend: 0x0, symName: _OUTLINED_FUNCTION_957, symObjAddr: 0x3E9C0, symBinAddr: 0x40F00, symSize: 0xC }
  - { offset: 0x1396B, size: 0x8, addend: 0x0, symName: _OUTLINED_FUNCTION_961, symObjAddr: 0x3E9E8, symBinAddr: 0x40F28, symSize: 0xC }
  - { offset: 0x13982, size: 0x8, addend: 0x0, symName: _OUTLINED_FUNCTION_974, symObjAddr: 0x3EA70, symBinAddr: 0x40FB0, symSize: 0xC }
  - { offset: 0x13999, size: 0x8, addend: 0x0, symName: _OUTLINED_FUNCTION_1044, symObjAddr: 0x3ED20, symBinAddr: 0x41260, symSize: 0x8 }
  - { offset: 0x1B93A2, size: 0x8, addend: 0x0, symName: '__ZN4core3ptr73drop_in_place$LT$core..option..Option$LT$serde_json..value..Value$GT$$GT$17h5c213c48a63ddebdE', symObjAddr: 0x39758, symBinAddr: 0x3BCA4, symSize: 0x60 }
  - { offset: 0x1B95C3, size: 0x8, addend: 0x0, symName: '__ZN4core3ptr73drop_in_place$LT$core..option..Option$LT$serde_json..value..Value$GT$$GT$17h5c213c48a63ddebdE', symObjAddr: 0x39758, symBinAddr: 0x3BCA4, symSize: 0x60 }
  - { offset: 0x1B55C3, size: 0x8, addend: 0x0, symName: __ZN10serde_json3ser9Formatter9end_array17h180466d39837fbe1E, symObjAddr: 0x39240, symBinAddr: 0x3B7AC, symSize: 0x14 }
  - { offset: 0x1B55FE, size: 0x8, addend: 0x0, symName: __ZN10serde_json3ser9Formatter9end_array17h180466d39837fbe1E, symObjAddr: 0x39240, symBinAddr: 0x3B7AC, symSize: 0x14 }
  - { offset: 0x1B561C, size: 0x8, addend: 0x0, symName: __ZN10serde_json3ser9Formatter9end_array17h180466d39837fbe1E, symObjAddr: 0x39240, symBinAddr: 0x3B7AC, symSize: 0x14 }
  - { offset: 0x1B5639, size: 0x8, addend: 0x0, symName: __ZN10serde_json3ser9Formatter9end_array17h180466d39837fbe1E, symObjAddr: 0x39240, symBinAddr: 0x3B7AC, symSize: 0x14 }
  - { offset: 0x1B5652, size: 0x8, addend: 0x0, symName: __ZN10serde_json3ser9Formatter9end_array17h180466d39837fbe1E, symObjAddr: 0x39240, symBinAddr: 0x3B7AC, symSize: 0x14 }
  - { offset: 0x1B576D, size: 0x8, addend: 0x0, symName: __ZN10serde_json3ser9Formatter10end_object17h43fad3dfc428cda8E.2927, symObjAddr: 0x393FC, symBinAddr: 0x3B968, symSize: 0x14 }
  - { offset: 0x1B57A8, size: 0x8, addend: 0x0, symName: __ZN10serde_json3ser9Formatter10end_object17h43fad3dfc428cda8E.2927, symObjAddr: 0x393FC, symBinAddr: 0x3B968, symSize: 0x14 }
  - { offset: 0x1B57C6, size: 0x8, addend: 0x0, symName: __ZN10serde_json3ser9Formatter10end_object17h43fad3dfc428cda8E.2927, symObjAddr: 0x393FC, symBinAddr: 0x3B968, symSize: 0x14 }
  - { offset: 0x1B57E3, size: 0x8, addend: 0x0, symName: __ZN10serde_json3ser9Formatter10end_object17h43fad3dfc428cda8E.2927, symObjAddr: 0x393FC, symBinAddr: 0x3B968, symSize: 0x14 }
  - { offset: 0x1B57FC, size: 0x8, addend: 0x0, symName: __ZN10serde_json3ser9Formatter10end_object17h43fad3dfc428cda8E.2927, symObjAddr: 0x393FC, symBinAddr: 0x3B968, symSize: 0x14 }
  - { offset: 0x1B5A10, size: 0x8, addend: 0x0, symName: __ZN10serde_json3ser6ESCAPE17h1bfa47b90e12bb5cE, symObjAddr: 0x4BF86, symBinAddr: 0x50036, symSize: 0x0 }
  - { offset: 0x1B619A, size: 0x8, addend: 0x0, symName: __ZN10serde_json3ser18format_escaped_str17h9e720dd6dc7d1a1bE, symObjAddr: 0x3949C, symBinAddr: 0x3BA08, symSize: 0x108 }
  - { offset: 0x1B65FC, size: 0x8, addend: 0x0, symName: __ZN10serde_json3ser17invalid_raw_value17h01c1ad904e905f63E, symObjAddr: 0x395A4, symBinAddr: 0x43644, symSize: 0x20 }
  - { offset: 0x1B6773, size: 0x8, addend: 0x0, symName: '__ZN10serde_json5value3ser76_$LT$impl$u20$serde..ser..Serialize$u20$for$u20$serde_json..value..Value$GT$9serialize17h7c7fda2a712590daE', symObjAddr: 0x39254, symBinAddr: 0x3B7C0, symSize: 0x1A8 }
  - { offset: 0x1B8243, size: 0x8, addend: 0x0, symName: __ZN5serde3ser10Serializer11collect_seq17h2b0accc53b9bce55E, symObjAddr: 0x3917C, symBinAddr: 0x3B6E8, symSize: 0xC4 }
  - { offset: 0x1B85E8, size: 0x8, addend: 0x0, symName: __ZN5serde3ser12SerializeMap15serialize_entry17h219484709f54743fE, symObjAddr: 0x39410, symBinAddr: 0x3B97C, symSize: 0x8C }
  - { offset: 0x1B8B75, size: 0x8, addend: 0x0, symName: _OUTLINED_FUNCTION_381, symObjAddr: 0x3C9C0, symBinAddr: 0x3EF00, symSize: 0x10 }
  - { offset: 0x1B8B8C, size: 0x8, addend: 0x0, symName: _OUTLINED_FUNCTION_442, symObjAddr: 0x3CCCC, symBinAddr: 0x3F20C, symSize: 0xC }
  - { offset: 0x1B8BA3, size: 0x8, addend: 0x0, symName: _OUTLINED_FUNCTION_582, symObjAddr: 0x3D4CC, symBinAddr: 0x3FA0C, symSize: 0x8 }
  - { offset: 0x84DFE, size: 0x8, addend: 0x0, symName: '__ZN45_$LT$T$u20$as$u20$alloc..string..ToString$GT$9to_string17h0fd2ab8cf7458644E', symObjAddr: 0xD960, symBinAddr: 0x10FB4, symSize: 0x194 }
  - { offset: 0x85AA0, size: 0x8, addend: 0x0, symName: '__ZN5alloc5slice29_$LT$impl$u20$$u5b$T$u5d$$GT$11sort_by_key28_$u7b$$u7b$closure$u7d$$u7d$17h26d1e41c23ec6b7eE', symObjAddr: 0xBEB8, symBinAddr: 0xFD4C, symSize: 0x4 }
  - { offset: 0x8650E, size: 0x8, addend: 0x0, symName: '__ZN4core3ptr45drop_in_place$LT$serde_json..value..Value$GT$17h10227df8d831a4eaE', symObjAddr: 0xD8E8, symBinAddr: 0x10F3C, symSize: 0x5C }
  - { offset: 0x86595, size: 0x8, addend: 0x0, symName: '__ZN4core3ptr105drop_in_place$LT$core..option..Option$LT$$LP$alloc..string..String$C$serde_json..value..Value$RP$$GT$$GT$17h9471c14500f4d9e5E', symObjAddr: 0xD944, symBinAddr: 0x10F98, symSize: 0x1C }
  - { offset: 0x865C3, size: 0x8, addend: 0x0, symName: '__ZN4core3ptr77drop_in_place$LT$$LP$alloc..string..String$C$serde_json..value..Value$RP$$GT$17h1204b02e70623e75E', symObjAddr: 0xDAF4, symBinAddr: 0x11148, symSize: 0x24 }
  - { offset: 0x8670B, size: 0x8, addend: 0x0, symName: '__ZN4core3ptr57drop_in_place$LT$powersync_core..sync..line..SyncLine$GT$17hc40b21794f2b2bf2E', symObjAddr: 0xDB18, symBinAddr: 0x1116C, symSize: 0x78 }
  - { offset: 0x873C1, size: 0x8, addend: 0x0, symName: '__ZN4core3cmp5impls70_$LT$impl$u20$core..cmp..PartialOrd$LT$$RF$B$GT$$u20$for$u20$$RF$A$GT$2lt17hde7a33e8b1f9669fE', symObjAddr: 0xBE64, symBinAddr: 0xFCF8, symSize: 0x18 }
  - { offset: 0x8ACB0, size: 0x8, addend: 0x0, symName: '__ZN4core5slice29_$LT$impl$u20$$u5b$T$u5d$$GT$7reverse17h031a6e08bda545cdE', symObjAddr: 0xBE0C, symBinAddr: 0xFCA0, symSize: 0x58 }
  - { offset: 0x8AF34, size: 0x8, addend: 0x0, symName: '__ZN108_$LT$core..ops..range..RangeTo$LT$usize$GT$$u20$as$u20$core..slice..index..SliceIndex$LT$$u5b$T$u5d$$GT$$GT$9index_mut17h29d602c785fe0a2dE', symObjAddr: 0xBE94, symBinAddr: 0xFD28, symSize: 0x24 }
  - { offset: 0x8B157, size: 0x8, addend: 0x0, symName: '__ZN110_$LT$core..ops..range..RangeFrom$LT$usize$GT$$u20$as$u20$core..slice..index..SliceIndex$LT$$u5b$T$u5d$$GT$$GT$9index_mut17h904d80f18d61d3ecE', symObjAddr: 0xC174, symBinAddr: 0x10008, symSize: 0x1C }
  - { offset: 0x8B2A4, size: 0x8, addend: 0x0, symName: '__ZN110_$LT$core..ops..range..RangeFrom$LT$usize$GT$$u20$as$u20$core..slice..index..SliceIndex$LT$$u5b$T$u5d$$GT$$GT$9index_mut17h9335446562dda221E', symObjAddr: 0xCB10, symBinAddr: 0x109A4, symSize: 0x20 }
  - { offset: 0x8B456, size: 0x8, addend: 0x0, symName: __ZN4core5slice4sort6stable5drift16stable_quicksort17h1e18fdd4e5e6cc4dE, symObjAddr: 0xBEBC, symBinAddr: 0xFD50, symSize: 0x10 }
  - { offset: 0x8B4CC, size: 0x8, addend: 0x0, symName: __ZN4core5slice4sort6stable5drift16stable_quicksort17h77e03fcdb3ba3208E, symObjAddr: 0xBECC, symBinAddr: 0xFD60, symSize: 0x10 }
  - { offset: 0x8B542, size: 0x8, addend: 0x0, symName: __ZN4core5slice4sort6stable5drift16stable_quicksort17h9f667c605f825f70E, symObjAddr: 0xBEDC, symBinAddr: 0xFD70, symSize: 0x10 }
  - { offset: 0x8B5B8, size: 0x8, addend: 0x0, symName: __ZN4core5slice4sort6stable5drift16stable_quicksort17hb1e7ef191264f0efE, symObjAddr: 0xBEEC, symBinAddr: 0xFD80, symSize: 0x10 }
  - { offset: 0x8B78C, size: 0x8, addend: 0x0, symName: __ZN4core5slice4sort6stable5drift4sort17h3047c088b8e2610bE, symObjAddr: 0xBEFC, symBinAddr: 0xFD90, symSize: 0x278 }
  - { offset: 0x8BEE7, size: 0x8, addend: 0x0, symName: __ZN4core5slice4sort6stable5drift4sort17h5c670aacf19eeeeaE, symObjAddr: 0xC190, symBinAddr: 0x10024, symSize: 0x278 }
  - { offset: 0x8C642, size: 0x8, addend: 0x0, symName: __ZN4core5slice4sort6stable5drift4sort17h782256045fed0648E, symObjAddr: 0xC408, symBinAddr: 0x1029C, symSize: 0x278 }
  - { offset: 0x8CE12, size: 0x8, addend: 0x0, symName: __ZN4core5slice4sort6stable5drift4sort17h7a62e22ca6cda082E, symObjAddr: 0xC680, symBinAddr: 0x10514, symSize: 0x490 }
  - { offset: 0x8DE30, size: 0x8, addend: 0x0, symName: __ZN4core3ops8function5FnMut8call_mut17h246c2b0eb27eeffeE, symObjAddr: 0xBE7C, symBinAddr: 0xFD10, symSize: 0x18 }
  - { offset: 0x8EB5F, size: 0x8, addend: 0x0, symName: '__ZN189_$LT$powersync_core..sync..line.._..$LT$impl$u20$serde..de..Deserialize$u20$for$u20$powersync_core..sync..line..Checkpoint$GT$..deserialize..__FieldVisitor$u20$as$u20$serde..de..Visitor$GT$9visit_str17h681294dd21a4f572E', symObjAddr: 0x10268, symBinAddr: 0x138BC, symSize: 0x98 }
  - { offset: 0x8EC95, size: 0x8, addend: 0x0, symName: '__ZN196_$LT$powersync_core..sync..line.._..$LT$impl$u20$serde..de..Deserialize$u20$for$u20$powersync_core..sync..line..StreamDescription$GT$..deserialize..__FieldVisitor$u20$as$u20$serde..de..Visitor$GT$9visit_str17h9ddbba8cb7d0f98bE', symObjAddr: 0x10300, symBinAddr: 0x13954, symSize: 0x7C }
  - { offset: 0x8ED90, size: 0x8, addend: 0x0, symName: '__ZN202_$LT$powersync_core..sync..line.._..$LT$impl$u20$serde..de..Deserialize$u20$for$u20$powersync_core..sync..line..StreamSubscriptionError$GT$..deserialize..__FieldVisitor$u20$as$u20$serde..de..Visitor$GT$9visit_str17h4c62d65078197d50E', symObjAddr: 0x1037C, symBinAddr: 0x139D0, symSize: 0x60 }
  - { offset: 0x8EE50, size: 0x8, addend: 0x0, symName: '__ZN193_$LT$powersync_core..sync..line.._..$LT$impl$u20$serde..de..Deserialize$u20$for$u20$powersync_core..sync..line..CheckpointDiff$GT$..deserialize..__FieldVisitor$u20$as$u20$serde..de..Visitor$GT$9visit_str17h85b8c709a6b1d56eE', symObjAddr: 0x103DC, symBinAddr: 0x13A30, symSize: 0x98 }
  - { offset: 0x8EF86, size: 0x8, addend: 0x0, symName: '__ZN206_$LT$powersync_core..sync..line.._..$LT$impl$u20$serde..de..Deserialize$u20$for$u20$powersync_core..sync..line..CheckpointPartiallyComplete$GT$..deserialize..__FieldVisitor$u20$as$u20$serde..de..Visitor$GT$9visit_str17h7e0d7b36f11f2199E', symObjAddr: 0x10474, symBinAddr: 0x13AC8, symSize: 0x38 }
  - { offset: 0x8F00B, size: 0x8, addend: 0x0, symName: '__ZN193_$LT$powersync_core..sync..line.._..$LT$impl$u20$serde..de..Deserialize$u20$for$u20$powersync_core..sync..line..BucketChecksum$GT$..deserialize..__FieldVisitor$u20$as$u20$serde..de..Visitor$GT$9visit_str17h0c7234dd497ac23aE', symObjAddr: 0x104AC, symBinAddr: 0x13B00, symSize: 0xB4 }
  - { offset: 0x8F1B4, size: 0x8, addend: 0x0, symName: '__ZN187_$LT$powersync_core..sync..line.._..$LT$impl$u20$serde..de..Deserialize$u20$for$u20$powersync_core..sync..line..DataLine$GT$..deserialize..__FieldVisitor$u20$as$u20$serde..de..Visitor$GT$9visit_str17hb6be0528dc5becedE', symObjAddr: 0x109E0, symBinAddr: 0x14034, symSize: 0x60 }
  - { offset: 0x8F275, size: 0x8, addend: 0x0, symName: '__ZN189_$LT$powersync_core..sync..line.._..$LT$impl$u20$serde..de..Deserialize$u20$for$u20$powersync_core..sync..line..OplogEntry$GT$..deserialize..__FieldVisitor$u20$as$u20$serde..de..Visitor$GT$9visit_str17hb09007b09810dc67E', symObjAddr: 0x10A40, symBinAddr: 0x14094, symSize: 0xF0 }
  - { offset: 0x8F4A2, size: 0x8, addend: 0x0, symName: '__ZN185_$LT$powersync_core..sync..line.._..$LT$impl$u20$serde..de..Deserialize$u20$for$u20$powersync_core..sync..line..OpType$GT$..deserialize..__FieldVisitor$u20$as$u20$serde..de..Visitor$GT$9visit_str17he3514bea9e8f8498E', symObjAddr: 0x11294, symBinAddr: 0x148E8, symSize: 0xB0 }
  - { offset: 0x8F5DF, size: 0x8, addend: 0x0, symName: '__ZN185_$LT$powersync_core..sync..line.._..$LT$impl$u20$serde..de..Deserialize$u20$for$u20$powersync_core..sync..line..OpType$GT$..deserialize..__FieldVisitor$u20$as$u20$serde..de..Visitor$GT$11visit_bytes17h177af8f4cf4c4f21E', symObjAddr: 0x11344, symBinAddr: 0x14998, symSize: 0x230 }
  - { offset: 0x908B0, size: 0x8, addend: 0x0, symName: '__ZN14powersync_core4sync4line1_91_$LT$impl$u20$serde..de..Deserialize$u20$for$u20$powersync_core..sync..line..Checkpoint$GT$11deserialize17h810b825b23a0ec96E', symObjAddr: 0xFC98, symBinAddr: 0x132EC, symSize: 0x5D0 }
  - { offset: 0x9112B, size: 0x8, addend: 0x0, symName: '__ZN14powersync_core4sync4line1_89_$LT$impl$u20$serde..de..Deserialize$u20$for$u20$powersync_core..sync..line..DataLine$GT$11deserialize17h13120f776832a3b9E', symObjAddr: 0x10560, symBinAddr: 0x13BB4, symSize: 0x480 }
  - { offset: 0x915D4, size: 0x8, addend: 0x0, symName: '__ZN14powersync_core4sync4line1_87_$LT$impl$u20$serde..de..Deserialize$u20$for$u20$powersync_core..sync..line..OpType$GT$11deserialize17h9c1ed319f201b9ffE', symObjAddr: 0x10B30, symBinAddr: 0x14184, symSize: 0x1E4 }
  - { offset: 0x91841, size: 0x8, addend: 0x0, symName: '__ZN14powersync_core4sync4line1_87_$LT$impl$u20$serde..de..Deserialize$u20$for$u20$powersync_core..sync..line..OpType$GT$11deserialize17hfbd81dbcf06835a5E', symObjAddr: 0x10D14, symBinAddr: 0x14368, symSize: 0x580 }
  - { offset: 0x92232, size: 0x8, addend: 0x0, symName: '__ZN99_$LT$powersync_core..sync..line..StreamSubscriptionErrorCause$u20$as$u20$serde..de..Deserialize$GT$11deserialize17h6dd461f5478ff8e0E', symObjAddr: 0xF900, symBinAddr: 0x12F54, symSize: 0x18C }
  - { offset: 0x924AF, size: 0x8, addend: 0x0, symName: '__ZN99_$LT$powersync_core..sync..line..StreamSubscriptionErrorCause$u20$as$u20$serde..de..Deserialize$GT$11deserialize17hbd6ab8672fd0225aE', symObjAddr: 0xFA8C, symBinAddr: 0x130E0, symSize: 0x20C }
  - { offset: 0x92A25, size: 0x8, addend: 0x0, symName: '__ZN147_$LT$$LT$powersync_core..sync..line..SyncLine$u20$as$u20$serde..de..Deserialize$GT$..deserialize..SyncLineVisitor$u20$as$u20$serde..de..Visitor$GT$10visit_enum17h5374b8d9ffbe66f0E', symObjAddr: 0xDB90, symBinAddr: 0x111E4, symSize: 0x1D70 }
  - { offset: 0x9744A, size: 0x8, addend: 0x0, symName: __ZN14powersync_core4diff14powersync_diff17hbdb76683c6013615E, symObjAddr: 0xD370, symBinAddr: 0x109C4, symSize: 0x53C }
  - { offset: 0x98BED, size: 0x8, addend: 0x0, symName: __ZN5serde2de7Visitor10visit_bool17h08635ee23967d01bE, symObjAddr: 0xCB30, symBinAddr: 0x41D1C, symSize: 0x34 }
  - { offset: 0x98C3D, size: 0x8, addend: 0x0, symName: __ZN5serde2de7Visitor11visit_bytes17h15198d55a60aa684E, symObjAddr: 0xCB64, symBinAddr: 0x41D50, symSize: 0x28 }
  - { offset: 0x98C8D, size: 0x8, addend: 0x0, symName: __ZN5serde2de7Visitor11visit_bytes17h5d31cc240594d432E, symObjAddr: 0xCB8C, symBinAddr: 0x41D78, symSize: 0x2C }
  - { offset: 0x98CDD, size: 0x8, addend: 0x0, symName: __ZN5serde2de7Visitor11visit_bytes17h66b9d21aa77401e4E, symObjAddr: 0xCBB8, symBinAddr: 0x41DA4, symSize: 0x2C }
  - { offset: 0x98D2D, size: 0x8, addend: 0x0, symName: __ZN5serde2de7Visitor11visit_bytes17h699f293c516d81b1E, symObjAddr: 0xCBE4, symBinAddr: 0x41DD0, symSize: 0x2C }
  - { offset: 0x98D7D, size: 0x8, addend: 0x0, symName: __ZN5serde2de7Visitor11visit_bytes17h6a2df95b81b1c1acE, symObjAddr: 0xCC10, symBinAddr: 0x41DFC, symSize: 0x2C }
  - { offset: 0x98DCD, size: 0x8, addend: 0x0, symName: __ZN5serde2de7Visitor11visit_bytes17h6ac5abc406ef8221E, symObjAddr: 0xCC3C, symBinAddr: 0x41E28, symSize: 0x2C }
  - { offset: 0x98E1D, size: 0x8, addend: 0x0, symName: __ZN5serde2de7Visitor11visit_bytes17h6c50b296aca1fe33E, symObjAddr: 0xCC68, symBinAddr: 0x41E54, symSize: 0x2C }
  - { offset: 0x98E6D, size: 0x8, addend: 0x0, symName: __ZN5serde2de7Visitor11visit_bytes17h72f1bf1ead4d6185E, symObjAddr: 0xCC94, symBinAddr: 0x41E80, symSize: 0x2C }
  - { offset: 0x98EBD, size: 0x8, addend: 0x0, symName: __ZN5serde2de7Visitor11visit_bytes17h86f0077b533ec397E, symObjAddr: 0xCCC0, symBinAddr: 0x41EAC, symSize: 0x2C }
  - { offset: 0x98F0D, size: 0x8, addend: 0x0, symName: __ZN5serde2de7Visitor11visit_bytes17hb3845f5e81a1aedbE, symObjAddr: 0xCCEC, symBinAddr: 0x41ED8, symSize: 0x2C }
  - { offset: 0x98F5D, size: 0x8, addend: 0x0, symName: __ZN5serde2de7Visitor11visit_bytes17hc6d3f5fead8b1189E, symObjAddr: 0xCD18, symBinAddr: 0x41F04, symSize: 0x30 }
  - { offset: 0x98FAD, size: 0x8, addend: 0x0, symName: __ZN5serde2de7Visitor11visit_bytes17hd0f3f1ad6f79d374E, symObjAddr: 0xCD48, symBinAddr: 0x41F34, symSize: 0x2C }
  - { offset: 0x98FFD, size: 0x8, addend: 0x0, symName: __ZN5serde2de7Visitor11visit_bytes17hdbe5c0d409ea0dd3E, symObjAddr: 0xCD74, symBinAddr: 0x41F60, symSize: 0x2C }
  - { offset: 0x9904D, size: 0x8, addend: 0x0, symName: __ZN5serde2de7Visitor9visit_i6417ha6916c002f304cddE, symObjAddr: 0xCDA0, symBinAddr: 0x41F8C, symSize: 0x2C }
  - { offset: 0x9909D, size: 0x8, addend: 0x0, symName: __ZN5serde2de7Visitor9visit_i6417h525e1f9a305c39e3E, symObjAddr: 0xCDCC, symBinAddr: 0x41FB8, symSize: 0x28 }
  - { offset: 0x990ED, size: 0x8, addend: 0x0, symName: __ZN5serde2de7Visitor9visit_i6417h3b52e3252cf42de1E, symObjAddr: 0xCDF4, symBinAddr: 0x41FE0, symSize: 0x2C }
  - { offset: 0x9913D, size: 0x8, addend: 0x0, symName: __ZN5serde2de7Visitor9visit_i6417hfaf5b2693ab1dc45E, symObjAddr: 0xCE20, symBinAddr: 0x4200C, symSize: 0x30 }
  - { offset: 0x9918D, size: 0x8, addend: 0x0, symName: __ZN5serde2de7Visitor9visit_i6417h0a2f87fd8d1a2e36E, symObjAddr: 0xCE50, symBinAddr: 0x4203C, symSize: 0x2C }
  - { offset: 0x991DD, size: 0x8, addend: 0x0, symName: __ZN5serde2de7Visitor9visit_i6417h07cd1b7bac120797E, symObjAddr: 0xCE7C, symBinAddr: 0x42068, symSize: 0x2C }
  - { offset: 0x9922E, size: 0x8, addend: 0x0, symName: __ZN5serde2de7Visitor9visit_i6417hccec629d618ab51dE, symObjAddr: 0xCEA8, symBinAddr: 0x42094, symSize: 0x2C }
  - { offset: 0x9927E, size: 0x8, addend: 0x0, symName: __ZN5serde2de7Visitor9visit_i6417h1cdaca91e1576df7E, symObjAddr: 0xCED4, symBinAddr: 0x420C0, symSize: 0x2C }
  - { offset: 0x992CE, size: 0x8, addend: 0x0, symName: __ZN5serde2de7Visitor9visit_i6417h2a3a1d5574c8586fE, symObjAddr: 0xCF00, symBinAddr: 0x420EC, symSize: 0x2C }
  - { offset: 0x9931E, size: 0x8, addend: 0x0, symName: __ZN5serde2de7Visitor9visit_i6417h2e090aed0dad9de6E, symObjAddr: 0xCF2C, symBinAddr: 0x42118, symSize: 0x2C }
  - { offset: 0x9936E, size: 0x8, addend: 0x0, symName: __ZN5serde2de7Visitor9visit_i6417h013d179949f7f15cE, symObjAddr: 0xCF58, symBinAddr: 0x42144, symSize: 0x2C }
  - { offset: 0x993BE, size: 0x8, addend: 0x0, symName: __ZN5serde2de7Visitor9visit_i6417hb128f31ce28e03d5E, symObjAddr: 0xCF84, symBinAddr: 0x42170, symSize: 0x2C }
  - { offset: 0x9940E, size: 0x8, addend: 0x0, symName: __ZN5serde2de7Visitor9visit_i6417he7bf5726a22592afE, symObjAddr: 0xCFB0, symBinAddr: 0x4219C, symSize: 0x2C }
  - { offset: 0x9945E, size: 0x8, addend: 0x0, symName: __ZN5serde2de7Visitor9visit_i6417hdc918392007f083fE, symObjAddr: 0xCFDC, symBinAddr: 0x421C8, symSize: 0x28 }
  - { offset: 0x994AE, size: 0x8, addend: 0x0, symName: __ZN5serde2de7Visitor9visit_i6417h904812bb9427fd47E, symObjAddr: 0xD004, symBinAddr: 0x421F0, symSize: 0x2C }
  - { offset: 0x994FE, size: 0x8, addend: 0x0, symName: __ZN5serde2de7Visitor9visit_i6417h868f9ee266512376E, symObjAddr: 0xD030, symBinAddr: 0x4221C, symSize: 0x2C }
  - { offset: 0x9954E, size: 0x8, addend: 0x0, symName: __ZN5serde2de7Visitor9visit_i6417h780d4f4015514281E, symObjAddr: 0xD05C, symBinAddr: 0x42248, symSize: 0x2C }
  - { offset: 0x9959E, size: 0x8, addend: 0x0, symName: __ZN5serde2de7Visitor9visit_i6417h2fefab8039661da2E, symObjAddr: 0xD088, symBinAddr: 0x42274, symSize: 0x2C }
  - { offset: 0x995EE, size: 0x8, addend: 0x0, symName: __ZN5serde2de7Visitor9visit_i6417h2c7a12f29f3868d1E, symObjAddr: 0xD0B4, symBinAddr: 0x422A0, symSize: 0x2C }
  - { offset: 0x9963E, size: 0x8, addend: 0x0, symName: __ZN5serde2de7Visitor9visit_i6417h5b500ccefc9a686bE, symObjAddr: 0xD0E0, symBinAddr: 0x422CC, symSize: 0x2C }
  - { offset: 0x9968E, size: 0x8, addend: 0x0, symName: __ZN5serde2de7Visitor9visit_i6417h332b0ff4d0695e67E, symObjAddr: 0xD10C, symBinAddr: 0x422F8, symSize: 0x2C }
  - { offset: 0x996DE, size: 0x8, addend: 0x0, symName: __ZN5serde2de7Visitor9visit_i6417ha29f67a569971985E, symObjAddr: 0xD138, symBinAddr: 0x42324, symSize: 0x2C }
  - { offset: 0x9972E, size: 0x8, addend: 0x0, symName: __ZN5serde2de7Visitor9visit_str17h085e9a1643a99e07E, symObjAddr: 0xD164, symBinAddr: 0x42350, symSize: 0x2C }
  - { offset: 0x9977E, size: 0x8, addend: 0x0, symName: __ZN5serde2de7Visitor9visit_str17h293d476be97bd027E, symObjAddr: 0xD190, symBinAddr: 0x4237C, symSize: 0x30 }
  - { offset: 0x997CE, size: 0x8, addend: 0x0, symName: __ZN5serde2de7Visitor9visit_str17h2a67750c4bddb76fE, symObjAddr: 0xD1C0, symBinAddr: 0x423AC, symSize: 0x2C }
  - { offset: 0x9981E, size: 0x8, addend: 0x0, symName: __ZN5serde2de7Visitor9visit_str17h463ae84bb9d1a425E, symObjAddr: 0xD1EC, symBinAddr: 0x423D8, symSize: 0x24 }
  - { offset: 0x9986E, size: 0x8, addend: 0x0, symName: __ZN5serde2de7Visitor9visit_str17h4d0c1be1329d7056E, symObjAddr: 0xD210, symBinAddr: 0x423FC, symSize: 0x2C }
  - { offset: 0x998BE, size: 0x8, addend: 0x0, symName: __ZN5serde2de7Visitor9visit_str17h4dd79c3c248a2815E, symObjAddr: 0xD23C, symBinAddr: 0x42428, symSize: 0x2C }
  - { offset: 0x9990E, size: 0x8, addend: 0x0, symName: __ZN5serde2de7Visitor9visit_str17h73b989a546f4e093E, symObjAddr: 0xD268, symBinAddr: 0x42454, symSize: 0x2C }
  - { offset: 0x9995E, size: 0x8, addend: 0x0, symName: __ZN5serde2de7Visitor9visit_str17h848c1cb95bb8c0e8E, symObjAddr: 0xD294, symBinAddr: 0x42480, symSize: 0x2C }
  - { offset: 0x999AE, size: 0x8, addend: 0x0, symName: __ZN5serde2de7Visitor9visit_str17h885d586c875ce0a8E, symObjAddr: 0xD2C0, symBinAddr: 0x424AC, symSize: 0x2C }
  - { offset: 0x999FE, size: 0x8, addend: 0x0, symName: __ZN5serde2de7Visitor9visit_str17heb5c55ee0c5af2a8E, symObjAddr: 0xD2EC, symBinAddr: 0x424D8, symSize: 0x2C }
  - { offset: 0x99A4E, size: 0x8, addend: 0x0, symName: __ZN5serde2de7Visitor9visit_str17hf5a9206e896ead41E, symObjAddr: 0xD318, symBinAddr: 0x42504, symSize: 0x2C }
  - { offset: 0x99A9E, size: 0x8, addend: 0x0, symName: __ZN5serde2de7Visitor9visit_str17hfbf788acfd5a92a4E, symObjAddr: 0xD344, symBinAddr: 0x42530, symSize: 0x2C }
  - { offset: 0x9B31D, size: 0x8, addend: 0x0, symName: '__ZN41_$LT$T$u20$as$u20$serde..de..Expected$GT$3fmt17h09796a08f6b71434E', symObjAddr: 0xBCA4, symBinAddr: 0xFB38, symSize: 0x18 }
  - { offset: 0x9B396, size: 0x8, addend: 0x0, symName: '__ZN41_$LT$T$u20$as$u20$serde..de..Expected$GT$3fmt17h2f84593df8a52984E', symObjAddr: 0xBCBC, symBinAddr: 0xFB50, symSize: 0x18 }
  - { offset: 0x9B40F, size: 0x8, addend: 0x0, symName: '__ZN41_$LT$T$u20$as$u20$serde..de..Expected$GT$3fmt17h3c6bcd468664c664E', symObjAddr: 0xBCD4, symBinAddr: 0xFB68, symSize: 0x18 }
  - { offset: 0x9B488, size: 0x8, addend: 0x0, symName: '__ZN41_$LT$T$u20$as$u20$serde..de..Expected$GT$3fmt17h4d843adc1ca7eea6E', symObjAddr: 0xBCEC, symBinAddr: 0xFB80, symSize: 0x18 }
  - { offset: 0x9B500, size: 0x8, addend: 0x0, symName: '__ZN41_$LT$T$u20$as$u20$serde..de..Expected$GT$3fmt17h5d220413e3c332efE', symObjAddr: 0xBD04, symBinAddr: 0xFB98, symSize: 0x24 }
  - { offset: 0x9B579, size: 0x8, addend: 0x0, symName: '__ZN41_$LT$T$u20$as$u20$serde..de..Expected$GT$3fmt17h63d578b216c2599aE', symObjAddr: 0xBD28, symBinAddr: 0xFBBC, symSize: 0x14 }
  - { offset: 0x9B5F2, size: 0x8, addend: 0x0, symName: '__ZN41_$LT$T$u20$as$u20$serde..de..Expected$GT$3fmt17h79a2d2d8b84f8d98E', symObjAddr: 0xBD3C, symBinAddr: 0xFBD0, symSize: 0x18 }
  - { offset: 0x9B66B, size: 0x8, addend: 0x0, symName: '__ZN41_$LT$T$u20$as$u20$serde..de..Expected$GT$3fmt17h7ff6edd97c84e590E', symObjAddr: 0xBD54, symBinAddr: 0xFBE8, symSize: 0x18 }
  - { offset: 0x9B6E3, size: 0x8, addend: 0x0, symName: '__ZN41_$LT$T$u20$as$u20$serde..de..Expected$GT$3fmt17h8fae7f98cb44ea62E', symObjAddr: 0xBD6C, symBinAddr: 0xFC00, symSize: 0x24 }
  - { offset: 0x9B75C, size: 0x8, addend: 0x0, symName: '__ZN41_$LT$T$u20$as$u20$serde..de..Expected$GT$3fmt17ha3e309d51b7f2a43E', symObjAddr: 0xBD90, symBinAddr: 0xFC24, symSize: 0x14 }
  - { offset: 0x9B7D6, size: 0x8, addend: 0x0, symName: '__ZN41_$LT$T$u20$as$u20$serde..de..Expected$GT$3fmt17ha4ba08ef016e5b6aE', symObjAddr: 0xBDA4, symBinAddr: 0xFC38, symSize: 0x14 }
  - { offset: 0x9B84F, size: 0x8, addend: 0x0, symName: '__ZN41_$LT$T$u20$as$u20$serde..de..Expected$GT$3fmt17hb96f2bf99e8fe33cE', symObjAddr: 0xBDB8, symBinAddr: 0xFC4C, symSize: 0x18 }
  - { offset: 0x9B8C8, size: 0x8, addend: 0x0, symName: '__ZN41_$LT$T$u20$as$u20$serde..de..Expected$GT$3fmt17hc543fefbc0da55aeE', symObjAddr: 0xBDD0, symBinAddr: 0xFC64, symSize: 0x24 }
  - { offset: 0x9B941, size: 0x8, addend: 0x0, symName: '__ZN41_$LT$T$u20$as$u20$serde..de..Expected$GT$3fmt17hf80ff12c7948a07aE', symObjAddr: 0xBDF4, symBinAddr: 0xFC88, symSize: 0x18 }
  - { offset: 0x9D530, size: 0x8, addend: 0x0, symName: '__ZN4core6result19Result$LT$T$C$E$GT$7map_err17hde6199d53278ef98E', symObjAddr: 0xD8AC, symBinAddr: 0x10F00, symSize: 0x3C }
  - { offset: 0x9D893, size: 0x8, addend: 0x0, symName: _OUTLINED_FUNCTION_4, symObjAddr: 0x3B0C0, symBinAddr: 0x3D600, symSize: 0x14 }
  - { offset: 0x9D8AA, size: 0x8, addend: 0x0, symName: _OUTLINED_FUNCTION_6, symObjAddr: 0x3B0E8, symBinAddr: 0x3D628, symSize: 0x14 }
  - { offset: 0x9D8C1, size: 0x8, addend: 0x0, symName: _OUTLINED_FUNCTION_8, symObjAddr: 0x3B110, symBinAddr: 0x3D650, symSize: 0x14 }
  - { offset: 0x9D8D8, size: 0x8, addend: 0x0, symName: _OUTLINED_FUNCTION_10, symObjAddr: 0x3B134, symBinAddr: 0x3D674, symSize: 0x10 }
  - { offset: 0x9D8EF, size: 0x8, addend: 0x0, symName: _OUTLINED_FUNCTION_14, symObjAddr: 0x3B17C, symBinAddr: 0x3D6BC, symSize: 0xC }
  - { offset: 0x9D906, size: 0x8, addend: 0x0, symName: _OUTLINED_FUNCTION_15, symObjAddr: 0x3B188, symBinAddr: 0x3D6C8, symSize: 0x10 }
  - { offset: 0x9D91D, size: 0x8, addend: 0x0, symName: _OUTLINED_FUNCTION_33, symObjAddr: 0x3B2BC, symBinAddr: 0x3D7FC, symSize: 0x10 }
  - { offset: 0x9D934, size: 0x8, addend: 0x0, symName: _OUTLINED_FUNCTION_34, symObjAddr: 0x3B2CC, symBinAddr: 0x3D80C, symSize: 0x50 }
  - { offset: 0x9D94B, size: 0x8, addend: 0x0, symName: _OUTLINED_FUNCTION_40, symObjAddr: 0x3B380, symBinAddr: 0x3D8C0, symSize: 0x1C }
  - { offset: 0x9D962, size: 0x8, addend: 0x0, symName: _OUTLINED_FUNCTION_42, symObjAddr: 0x3B3B8, symBinAddr: 0x3D8F8, symSize: 0xC }
  - { offset: 0x9D979, size: 0x8, addend: 0x0, symName: _OUTLINED_FUNCTION_45, symObjAddr: 0x3B3EC, symBinAddr: 0x3D92C, symSize: 0xC }
  - { offset: 0x9D990, size: 0x8, addend: 0x0, symName: _OUTLINED_FUNCTION_50, symObjAddr: 0x3B43C, symBinAddr: 0x3D97C, symSize: 0xC }
  - { offset: 0x9D9A7, size: 0x8, addend: 0x0, symName: _OUTLINED_FUNCTION_52, symObjAddr: 0x3B45C, symBinAddr: 0x3D99C, symSize: 0x24 }
  - { offset: 0x9D9BE, size: 0x8, addend: 0x0, symName: _OUTLINED_FUNCTION_62, symObjAddr: 0x3B51C, symBinAddr: 0x3DA5C, symSize: 0x10 }
  - { offset: 0x9D9D5, size: 0x8, addend: 0x0, symName: _OUTLINED_FUNCTION_67, symObjAddr: 0x3B574, symBinAddr: 0x3DAB4, symSize: 0xC }
  - { offset: 0x9D9EC, size: 0x8, addend: 0x0, symName: _OUTLINED_FUNCTION_69, symObjAddr: 0x3B590, symBinAddr: 0x3DAD0, symSize: 0x18 }
  - { offset: 0x9DA03, size: 0x8, addend: 0x0, symName: _OUTLINED_FUNCTION_71, symObjAddr: 0x3B60C, symBinAddr: 0x3DB4C, symSize: 0xC }
  - { offset: 0x9DA1A, size: 0x8, addend: 0x0, symName: _OUTLINED_FUNCTION_74, symObjAddr: 0x3B64C, symBinAddr: 0x3DB8C, symSize: 0xC }
  - { offset: 0x9DA31, size: 0x8, addend: 0x0, symName: _OUTLINED_FUNCTION_75, symObjAddr: 0x3B658, symBinAddr: 0x3DB98, symSize: 0x28 }
  - { offset: 0x9DA48, size: 0x8, addend: 0x0, symName: _OUTLINED_FUNCTION_76, symObjAddr: 0x3B680, symBinAddr: 0x3DBC0, symSize: 0xC }
  - { offset: 0x9DA5F, size: 0x8, addend: 0x0, symName: _OUTLINED_FUNCTION_77, symObjAddr: 0x3B68C, symBinAddr: 0x3DBCC, symSize: 0xC }
  - { offset: 0x9DA76, size: 0x8, addend: 0x0, symName: _OUTLINED_FUNCTION_90, symObjAddr: 0x3B790, symBinAddr: 0x3DCD0, symSize: 0x10 }
  - { offset: 0x9DA8D, size: 0x8, addend: 0x0, symName: _OUTLINED_FUNCTION_96, symObjAddr: 0x3B7F4, symBinAddr: 0x3DD34, symSize: 0x30 }
  - { offset: 0x9DAA4, size: 0x8, addend: 0x0, symName: _OUTLINED_FUNCTION_103, symObjAddr: 0x3B880, symBinAddr: 0x3DDC0, symSize: 0x14 }
  - { offset: 0x9DABB, size: 0x8, addend: 0x0, symName: _OUTLINED_FUNCTION_114, symObjAddr: 0x3B950, symBinAddr: 0x3DE90, symSize: 0x2C }
  - { offset: 0x9DAD2, size: 0x8, addend: 0x0, symName: _OUTLINED_FUNCTION_127, symObjAddr: 0x3BAB4, symBinAddr: 0x3DFF4, symSize: 0x10 }
  - { offset: 0x9DAE9, size: 0x8, addend: 0x0, symName: _OUTLINED_FUNCTION_128, symObjAddr: 0x3BAC4, symBinAddr: 0x3E004, symSize: 0xC }
  - { offset: 0x9DB00, size: 0x8, addend: 0x0, symName: _OUTLINED_FUNCTION_129, symObjAddr: 0x3BAD0, symBinAddr: 0x3E010, symSize: 0xC }
  - { offset: 0x9DB17, size: 0x8, addend: 0x0, symName: _OUTLINED_FUNCTION_130, symObjAddr: 0x3BADC, symBinAddr: 0x3E01C, symSize: 0xC }
  - { offset: 0x9DB2E, size: 0x8, addend: 0x0, symName: _OUTLINED_FUNCTION_133, symObjAddr: 0x3BB08, symBinAddr: 0x3E048, symSize: 0x24 }
  - { offset: 0x9DB45, size: 0x8, addend: 0x0, symName: _OUTLINED_FUNCTION_134, symObjAddr: 0x3BB2C, symBinAddr: 0x3E06C, symSize: 0x18 }
  - { offset: 0x9DB5C, size: 0x8, addend: 0x0, symName: _OUTLINED_FUNCTION_139, symObjAddr: 0x3BB90, symBinAddr: 0x3E0D0, symSize: 0x24 }
  - { offset: 0x9DB73, size: 0x8, addend: 0x0, symName: _OUTLINED_FUNCTION_154, symObjAddr: 0x3BCCC, symBinAddr: 0x3E20C, symSize: 0xC }
  - { offset: 0x9DB8A, size: 0x8, addend: 0x0, symName: _OUTLINED_FUNCTION_155, symObjAddr: 0x3BCD8, symBinAddr: 0x3E218, symSize: 0xC }
  - { offset: 0x9DBA1, size: 0x8, addend: 0x0, symName: _OUTLINED_FUNCTION_156, symObjAddr: 0x3BCE4, symBinAddr: 0x3E224, symSize: 0xC }
  - { offset: 0x9DBB8, size: 0x8, addend: 0x0, symName: _OUTLINED_FUNCTION_157, symObjAddr: 0x3BCF0, symBinAddr: 0x3E230, symSize: 0xC }
  - { offset: 0x9DBCF, size: 0x8, addend: 0x0, symName: _OUTLINED_FUNCTION_158, symObjAddr: 0x3BCFC, symBinAddr: 0x3E23C, symSize: 0xC }
  - { offset: 0x9DBE6, size: 0x8, addend: 0x0, symName: _OUTLINED_FUNCTION_159, symObjAddr: 0x3BD08, symBinAddr: 0x3E248, symSize: 0xC }
  - { offset: 0x9DBFD, size: 0x8, addend: 0x0, symName: _OUTLINED_FUNCTION_162, symObjAddr: 0x3BD38, symBinAddr: 0x3E278, symSize: 0xC }
  - { offset: 0x9DC14, size: 0x8, addend: 0x0, symName: _OUTLINED_FUNCTION_165, symObjAddr: 0x3BD6C, symBinAddr: 0x3E2AC, symSize: 0x14 }
  - { offset: 0x9DC2B, size: 0x8, addend: 0x0, symName: _OUTLINED_FUNCTION_173, symObjAddr: 0x3BDC0, symBinAddr: 0x3E300, symSize: 0x20 }
  - { offset: 0x9DC42, size: 0x8, addend: 0x0, symName: _OUTLINED_FUNCTION_174, symObjAddr: 0x3BDE0, symBinAddr: 0x3E320, symSize: 0x20 }
  - { offset: 0x9DC59, size: 0x8, addend: 0x0, symName: _OUTLINED_FUNCTION_186, symObjAddr: 0x3BEF0, symBinAddr: 0x3E430, symSize: 0xC }
  - { offset: 0x9DC70, size: 0x8, addend: 0x0, symName: _OUTLINED_FUNCTION_207, symObjAddr: 0x3C040, symBinAddr: 0x3E580, symSize: 0xC }
  - { offset: 0x9DC87, size: 0x8, addend: 0x0, symName: _OUTLINED_FUNCTION_225, symObjAddr: 0x3C0FC, symBinAddr: 0x3E63C, symSize: 0xC }
  - { offset: 0x9DC9E, size: 0x8, addend: 0x0, symName: _OUTLINED_FUNCTION_227, symObjAddr: 0x3C114, symBinAddr: 0x3E654, symSize: 0xC }
  - { offset: 0x9DCB5, size: 0x8, addend: 0x0, symName: _OUTLINED_FUNCTION_229, symObjAddr: 0x3C128, symBinAddr: 0x3E668, symSize: 0xC }
  - { offset: 0x9DCCC, size: 0x8, addend: 0x0, symName: _OUTLINED_FUNCTION_232, symObjAddr: 0x3C15C, symBinAddr: 0x3E69C, symSize: 0x1C }
  - { offset: 0x9DCE3, size: 0x8, addend: 0x0, symName: _OUTLINED_FUNCTION_233, symObjAddr: 0x3C178, symBinAddr: 0x3E6B8, symSize: 0x10 }
  - { offset: 0x9DCFA, size: 0x8, addend: 0x0, symName: _OUTLINED_FUNCTION_234, symObjAddr: 0x3C188, symBinAddr: 0x3E6C8, symSize: 0x10 }
  - { offset: 0x9DD11, size: 0x8, addend: 0x0, symName: _OUTLINED_FUNCTION_235, symObjAddr: 0x3C198, symBinAddr: 0x3E6D8, symSize: 0x10 }
  - { offset: 0x9DD28, size: 0x8, addend: 0x0, symName: _OUTLINED_FUNCTION_236, symObjAddr: 0x3C1A8, symBinAddr: 0x3E6E8, symSize: 0xC }
  - { offset: 0x9DD3F, size: 0x8, addend: 0x0, symName: _OUTLINED_FUNCTION_238, symObjAddr: 0x3C1C4, symBinAddr: 0x3E704, symSize: 0x1C }
  - { offset: 0x9DD56, size: 0x8, addend: 0x0, symName: _OUTLINED_FUNCTION_241, symObjAddr: 0x3C20C, symBinAddr: 0x3E74C, symSize: 0x10 }
  - { offset: 0x9DD6D, size: 0x8, addend: 0x0, symName: _OUTLINED_FUNCTION_274, symObjAddr: 0x3C3E4, symBinAddr: 0x3E924, symSize: 0xC }
  - { offset: 0x9DD84, size: 0x8, addend: 0x0, symName: _OUTLINED_FUNCTION_286, symObjAddr: 0x3C4A4, symBinAddr: 0x3E9E4, symSize: 0xC }
  - { offset: 0x9DD9B, size: 0x8, addend: 0x0, symName: _OUTLINED_FUNCTION_309, symObjAddr: 0x3C5C8, symBinAddr: 0x3EB08, symSize: 0x10 }
  - { offset: 0x9DDB2, size: 0x8, addend: 0x0, symName: _OUTLINED_FUNCTION_316, symObjAddr: 0x3C624, symBinAddr: 0x3EB64, symSize: 0xC }
  - { offset: 0x9DDC9, size: 0x8, addend: 0x0, symName: _OUTLINED_FUNCTION_317, symObjAddr: 0x3C630, symBinAddr: 0x3EB70, symSize: 0xC }
  - { offset: 0x9DDE0, size: 0x8, addend: 0x0, symName: _OUTLINED_FUNCTION_320, symObjAddr: 0x3C650, symBinAddr: 0x3EB90, symSize: 0x10 }
  - { offset: 0x9DDF7, size: 0x8, addend: 0x0, symName: _OUTLINED_FUNCTION_321, symObjAddr: 0x3C660, symBinAddr: 0x3EBA0, symSize: 0x10 }
  - { offset: 0x9DE0E, size: 0x8, addend: 0x0, symName: _OUTLINED_FUNCTION_340, symObjAddr: 0x3C760, symBinAddr: 0x3ECA0, symSize: 0x8 }
  - { offset: 0x9DE25, size: 0x8, addend: 0x0, symName: _OUTLINED_FUNCTION_350, symObjAddr: 0x3C7E0, symBinAddr: 0x3ED20, symSize: 0x10 }
  - { offset: 0x9DE3C, size: 0x8, addend: 0x0, symName: _OUTLINED_FUNCTION_351, symObjAddr: 0x3C7F0, symBinAddr: 0x3ED30, symSize: 0xC }
  - { offset: 0x9DE53, size: 0x8, addend: 0x0, symName: _OUTLINED_FUNCTION_354, symObjAddr: 0x3C818, symBinAddr: 0x3ED58, symSize: 0xC }
  - { offset: 0x9DE6A, size: 0x8, addend: 0x0, symName: _OUTLINED_FUNCTION_367, symObjAddr: 0x3C8B0, symBinAddr: 0x3EDF0, symSize: 0xC }
  - { offset: 0x9DE81, size: 0x8, addend: 0x0, symName: _OUTLINED_FUNCTION_371, symObjAddr: 0x3C918, symBinAddr: 0x3EE58, symSize: 0x8 }
  - { offset: 0x9DE98, size: 0x8, addend: 0x0, symName: _OUTLINED_FUNCTION_378, symObjAddr: 0x3C988, symBinAddr: 0x3EEC8, symSize: 0x10 }
  - { offset: 0x9DEAF, size: 0x8, addend: 0x0, symName: _OUTLINED_FUNCTION_386, symObjAddr: 0x3CA10, symBinAddr: 0x3EF50, symSize: 0xC }
  - { offset: 0x9DEC6, size: 0x8, addend: 0x0, symName: _OUTLINED_FUNCTION_404, symObjAddr: 0x3CB18, symBinAddr: 0x3F058, symSize: 0xC }
  - { offset: 0x9DEDD, size: 0x8, addend: 0x0, symName: _OUTLINED_FUNCTION_407, symObjAddr: 0x3CB50, symBinAddr: 0x3F090, symSize: 0x8 }
  - { offset: 0x9DEF4, size: 0x8, addend: 0x0, symName: _OUTLINED_FUNCTION_417, symObjAddr: 0x3CBC4, symBinAddr: 0x3F104, symSize: 0xC }
  - { offset: 0x9DF0B, size: 0x8, addend: 0x0, symName: _OUTLINED_FUNCTION_422, symObjAddr: 0x3CBF8, symBinAddr: 0x3F138, symSize: 0xC }
  - { offset: 0x9DF22, size: 0x8, addend: 0x0, symName: _OUTLINED_FUNCTION_429, symObjAddr: 0x3CC38, symBinAddr: 0x3F178, symSize: 0x8 }
  - { offset: 0x9DF39, size: 0x8, addend: 0x0, symName: _OUTLINED_FUNCTION_439, symObjAddr: 0x3CC90, symBinAddr: 0x3F1D0, symSize: 0x8 }
  - { offset: 0x9DF50, size: 0x8, addend: 0x0, symName: _OUTLINED_FUNCTION_456, symObjAddr: 0x3CD8C, symBinAddr: 0x3F2CC, symSize: 0x8 }
  - { offset: 0x9DF67, size: 0x8, addend: 0x0, symName: _OUTLINED_FUNCTION_458, symObjAddr: 0x3CD9C, symBinAddr: 0x3F2DC, symSize: 0x1C }
  - { offset: 0x9DF7E, size: 0x8, addend: 0x0, symName: _OUTLINED_FUNCTION_466, symObjAddr: 0x3CE2C, symBinAddr: 0x3F36C, symSize: 0x8 }
  - { offset: 0x9DF95, size: 0x8, addend: 0x0, symName: _OUTLINED_FUNCTION_488, symObjAddr: 0x3CFA8, symBinAddr: 0x3F4E8, symSize: 0xC }
  - { offset: 0x9DFAC, size: 0x8, addend: 0x0, symName: _OUTLINED_FUNCTION_490, symObjAddr: 0x3CFE0, symBinAddr: 0x3F520, symSize: 0xC }
  - { offset: 0x9DFC3, size: 0x8, addend: 0x0, symName: _OUTLINED_FUNCTION_497, symObjAddr: 0x3D038, symBinAddr: 0x3F578, symSize: 0xC }
  - { offset: 0x9DFDA, size: 0x8, addend: 0x0, symName: _OUTLINED_FUNCTION_498, symObjAddr: 0x3D044, symBinAddr: 0x3F584, symSize: 0x8 }
  - { offset: 0x9DFF1, size: 0x8, addend: 0x0, symName: _OUTLINED_FUNCTION_512, symObjAddr: 0x3D108, symBinAddr: 0x3F648, symSize: 0x14 }
  - { offset: 0x9E008, size: 0x8, addend: 0x0, symName: _OUTLINED_FUNCTION_513, symObjAddr: 0x3D11C, symBinAddr: 0x3F65C, symSize: 0x10 }
  - { offset: 0x9E01F, size: 0x8, addend: 0x0, symName: _OUTLINED_FUNCTION_514, symObjAddr: 0x3D12C, symBinAddr: 0x3F66C, symSize: 0x8 }
  - { offset: 0x9E036, size: 0x8, addend: 0x0, symName: _OUTLINED_FUNCTION_517, symObjAddr: 0x3D15C, symBinAddr: 0x3F69C, symSize: 0xC }
  - { offset: 0x9E04D, size: 0x8, addend: 0x0, symName: _OUTLINED_FUNCTION_518, symObjAddr: 0x3D168, symBinAddr: 0x3F6A8, symSize: 0x10 }
  - { offset: 0x9E064, size: 0x8, addend: 0x0, symName: _OUTLINED_FUNCTION_523, symObjAddr: 0x3D1B4, symBinAddr: 0x3F6F4, symSize: 0x14 }
  - { offset: 0x9E07B, size: 0x8, addend: 0x0, symName: _OUTLINED_FUNCTION_530, symObjAddr: 0x3D23C, symBinAddr: 0x3F77C, symSize: 0x14 }
  - { offset: 0x9E092, size: 0x8, addend: 0x0, symName: _OUTLINED_FUNCTION_532, symObjAddr: 0x3D25C, symBinAddr: 0x3F79C, symSize: 0x14 }
  - { offset: 0x9E0A9, size: 0x8, addend: 0x0, symName: _OUTLINED_FUNCTION_534, symObjAddr: 0x3D280, symBinAddr: 0x3F7C0, symSize: 0x14 }
  - { offset: 0x9E0C0, size: 0x8, addend: 0x0, symName: _OUTLINED_FUNCTION_536, symObjAddr: 0x3D29C, symBinAddr: 0x3F7DC, symSize: 0x14 }
  - { offset: 0x9E0D7, size: 0x8, addend: 0x0, symName: _OUTLINED_FUNCTION_548, symObjAddr: 0x3D31C, symBinAddr: 0x3F85C, symSize: 0x14 }
  - { offset: 0x9E0EE, size: 0x8, addend: 0x0, symName: _OUTLINED_FUNCTION_559, symObjAddr: 0x3D39C, symBinAddr: 0x3F8DC, symSize: 0xC }
  - { offset: 0x9E105, size: 0x8, addend: 0x0, symName: _OUTLINED_FUNCTION_583, symObjAddr: 0x3D4D4, symBinAddr: 0x3FA14, symSize: 0x8 }
  - { offset: 0x9E11C, size: 0x8, addend: 0x0, symName: _OUTLINED_FUNCTION_584, symObjAddr: 0x3D4DC, symBinAddr: 0x3FA1C, symSize: 0x14 }
  - { offset: 0x9E133, size: 0x8, addend: 0x0, symName: _OUTLINED_FUNCTION_588, symObjAddr: 0x3D52C, symBinAddr: 0x3FA6C, symSize: 0xC }
  - { offset: 0x9E14A, size: 0x8, addend: 0x0, symName: _OUTLINED_FUNCTION_592, symObjAddr: 0x3D560, symBinAddr: 0x3FAA0, symSize: 0x8 }
  - { offset: 0x9E161, size: 0x8, addend: 0x0, symName: _OUTLINED_FUNCTION_597, symObjAddr: 0x3D59C, symBinAddr: 0x3FADC, symSize: 0x14 }
  - { offset: 0x9E178, size: 0x8, addend: 0x0, symName: _OUTLINED_FUNCTION_611, symObjAddr: 0x3D638, symBinAddr: 0x3FB78, symSize: 0xC }
  - { offset: 0x9E18F, size: 0x8, addend: 0x0, symName: _OUTLINED_FUNCTION_618, symObjAddr: 0x3D6C4, symBinAddr: 0x3FC04, symSize: 0xC }
  - { offset: 0x9E1A6, size: 0x8, addend: 0x0, symName: _OUTLINED_FUNCTION_620, symObjAddr: 0x3D6F4, symBinAddr: 0x3FC34, symSize: 0xC }
  - { offset: 0x9E1BD, size: 0x8, addend: 0x0, symName: _OUTLINED_FUNCTION_631, symObjAddr: 0x3D7C0, symBinAddr: 0x3FD00, symSize: 0xC }
  - { offset: 0x9E1D4, size: 0x8, addend: 0x0, symName: _OUTLINED_FUNCTION_633, symObjAddr: 0x3D7D8, symBinAddr: 0x3FD18, symSize: 0xC }
  - { offset: 0x9E1EB, size: 0x8, addend: 0x0, symName: _OUTLINED_FUNCTION_673, symObjAddr: 0x3D9EC, symBinAddr: 0x3FF2C, symSize: 0x20 }
  - { offset: 0x9E202, size: 0x8, addend: 0x0, symName: _OUTLINED_FUNCTION_677, symObjAddr: 0x3DA6C, symBinAddr: 0x3FFAC, symSize: 0xC }
  - { offset: 0x9E219, size: 0x8, addend: 0x0, symName: _OUTLINED_FUNCTION_679, symObjAddr: 0x3DA84, symBinAddr: 0x3FFC4, symSize: 0x20 }
  - { offset: 0x9E230, size: 0x8, addend: 0x0, symName: _OUTLINED_FUNCTION_708, symObjAddr: 0x3DC78, symBinAddr: 0x401B8, symSize: 0x8 }
  - { offset: 0x9E247, size: 0x8, addend: 0x0, symName: _OUTLINED_FUNCTION_712, symObjAddr: 0x3DC98, symBinAddr: 0x401D8, symSize: 0xC }
  - { offset: 0x9E25E, size: 0x8, addend: 0x0, symName: _OUTLINED_FUNCTION_715, symObjAddr: 0x3DCD0, symBinAddr: 0x40210, symSize: 0xC }
  - { offset: 0x9E275, size: 0x8, addend: 0x0, symName: _OUTLINED_FUNCTION_722, symObjAddr: 0x3DD14, symBinAddr: 0x40254, symSize: 0x8 }
  - { offset: 0x9E28C, size: 0x8, addend: 0x0, symName: _OUTLINED_FUNCTION_726, symObjAddr: 0x3DD3C, symBinAddr: 0x4027C, symSize: 0xC }
  - { offset: 0x9E2A3, size: 0x8, addend: 0x0, symName: _OUTLINED_FUNCTION_728, symObjAddr: 0x3DD54, symBinAddr: 0x40294, symSize: 0xC }
  - { offset: 0x9E2BA, size: 0x8, addend: 0x0, symName: _OUTLINED_FUNCTION_730, symObjAddr: 0x3DD68, symBinAddr: 0x402A8, symSize: 0xC }
  - { offset: 0x9E2D1, size: 0x8, addend: 0x0, symName: _OUTLINED_FUNCTION_733, symObjAddr: 0x3DD88, symBinAddr: 0x402C8, symSize: 0x10 }
  - { offset: 0x9E2E8, size: 0x8, addend: 0x0, symName: _OUTLINED_FUNCTION_735, symObjAddr: 0x3DDA0, symBinAddr: 0x402E0, symSize: 0x8 }
  - { offset: 0x9E2FF, size: 0x8, addend: 0x0, symName: _OUTLINED_FUNCTION_736, symObjAddr: 0x3DDA8, symBinAddr: 0x402E8, symSize: 0x8 }
  - { offset: 0x9E316, size: 0x8, addend: 0x0, symName: _OUTLINED_FUNCTION_737, symObjAddr: 0x3DDB0, symBinAddr: 0x402F0, symSize: 0xC }
  - { offset: 0x9E32D, size: 0x8, addend: 0x0, symName: _OUTLINED_FUNCTION_738, symObjAddr: 0x3DDBC, symBinAddr: 0x402FC, symSize: 0xC }
  - { offset: 0x9E344, size: 0x8, addend: 0x0, symName: _OUTLINED_FUNCTION_749, symObjAddr: 0x3DE68, symBinAddr: 0x403A8, symSize: 0x10 }
  - { offset: 0x9E35B, size: 0x8, addend: 0x0, symName: _OUTLINED_FUNCTION_761, symObjAddr: 0x3DF1C, symBinAddr: 0x4045C, symSize: 0xC }
  - { offset: 0x9E372, size: 0x8, addend: 0x0, symName: _OUTLINED_FUNCTION_771, symObjAddr: 0x3DF9C, symBinAddr: 0x404DC, symSize: 0xC }
  - { offset: 0x9E389, size: 0x8, addend: 0x0, symName: _OUTLINED_FUNCTION_777, symObjAddr: 0x3DFF0, symBinAddr: 0x40530, symSize: 0xC }
  - { offset: 0x9E3A0, size: 0x8, addend: 0x0, symName: _OUTLINED_FUNCTION_784, symObjAddr: 0x3E03C, symBinAddr: 0x4057C, symSize: 0x8 }
  - { offset: 0x9E3B7, size: 0x8, addend: 0x0, symName: _OUTLINED_FUNCTION_787, symObjAddr: 0x3E054, symBinAddr: 0x40594, symSize: 0xC }
  - { offset: 0x9E3CE, size: 0x8, addend: 0x0, symName: _OUTLINED_FUNCTION_802, symObjAddr: 0x3E108, symBinAddr: 0x40648, symSize: 0xC }
  - { offset: 0x9E3E5, size: 0x8, addend: 0x0, symName: _OUTLINED_FUNCTION_809, symObjAddr: 0x3E14C, symBinAddr: 0x4068C, symSize: 0xC }
  - { offset: 0x9E3FC, size: 0x8, addend: 0x0, symName: _OUTLINED_FUNCTION_811, symObjAddr: 0x3E174, symBinAddr: 0x406B4, symSize: 0x8 }
  - { offset: 0x9E413, size: 0x8, addend: 0x0, symName: _OUTLINED_FUNCTION_814, symObjAddr: 0x3E1B4, symBinAddr: 0x406F4, symSize: 0xC }
  - { offset: 0x9E42A, size: 0x8, addend: 0x0, symName: _OUTLINED_FUNCTION_826, symObjAddr: 0x3E22C, symBinAddr: 0x4076C, symSize: 0x10 }
  - { offset: 0x9E441, size: 0x8, addend: 0x0, symName: _OUTLINED_FUNCTION_827, symObjAddr: 0x3E23C, symBinAddr: 0x4077C, symSize: 0x10 }
  - { offset: 0x9E458, size: 0x8, addend: 0x0, symName: _OUTLINED_FUNCTION_828, symObjAddr: 0x3E24C, symBinAddr: 0x4078C, symSize: 0x10 }
  - { offset: 0x9E46F, size: 0x8, addend: 0x0, symName: _OUTLINED_FUNCTION_830, symObjAddr: 0x3E26C, symBinAddr: 0x407AC, symSize: 0x10 }
  - { offset: 0x9E486, size: 0x8, addend: 0x0, symName: _OUTLINED_FUNCTION_832, symObjAddr: 0x3E28C, symBinAddr: 0x407CC, symSize: 0x10 }
  - { offset: 0x9E49D, size: 0x8, addend: 0x0, symName: _OUTLINED_FUNCTION_835, symObjAddr: 0x3E2BC, symBinAddr: 0x407FC, symSize: 0x10 }
  - { offset: 0x9E4B4, size: 0x8, addend: 0x0, symName: _OUTLINED_FUNCTION_838, symObjAddr: 0x3E2EC, symBinAddr: 0x4082C, symSize: 0x10 }
  - { offset: 0x9E4CB, size: 0x8, addend: 0x0, symName: _OUTLINED_FUNCTION_839, symObjAddr: 0x3E2FC, symBinAddr: 0x4083C, symSize: 0x10 }
  - { offset: 0x9E4E2, size: 0x8, addend: 0x0, symName: _OUTLINED_FUNCTION_841, symObjAddr: 0x3E31C, symBinAddr: 0x4085C, symSize: 0x10 }
  - { offset: 0x9E4F9, size: 0x8, addend: 0x0, symName: _OUTLINED_FUNCTION_842, symObjAddr: 0x3E32C, symBinAddr: 0x4086C, symSize: 0x10 }
  - { offset: 0x9E510, size: 0x8, addend: 0x0, symName: _OUTLINED_FUNCTION_844, symObjAddr: 0x3E34C, symBinAddr: 0x4088C, symSize: 0x10 }
  - { offset: 0x9E527, size: 0x8, addend: 0x0, symName: _OUTLINED_FUNCTION_876, symObjAddr: 0x3E570, symBinAddr: 0x40AB0, symSize: 0xC }
  - { offset: 0x9E53E, size: 0x8, addend: 0x0, symName: _OUTLINED_FUNCTION_878, symObjAddr: 0x3E594, symBinAddr: 0x40AD4, symSize: 0xC }
  - { offset: 0x9E555, size: 0x8, addend: 0x0, symName: _OUTLINED_FUNCTION_890, symObjAddr: 0x3E63C, symBinAddr: 0x40B7C, symSize: 0xC }
  - { offset: 0x9E56C, size: 0x8, addend: 0x0, symName: _OUTLINED_FUNCTION_901, symObjAddr: 0x3E714, symBinAddr: 0x40C54, symSize: 0xC }
  - { offset: 0x9E583, size: 0x8, addend: 0x0, symName: _OUTLINED_FUNCTION_903, symObjAddr: 0x3E72C, symBinAddr: 0x40C6C, symSize: 0xC }
  - { offset: 0x9E59A, size: 0x8, addend: 0x0, symName: _OUTLINED_FUNCTION_916, symObjAddr: 0x3E7D4, symBinAddr: 0x40D14, symSize: 0xC }
  - { offset: 0x9E5B1, size: 0x8, addend: 0x0, symName: _OUTLINED_FUNCTION_920, symObjAddr: 0x3E804, symBinAddr: 0x40D44, symSize: 0xC }
  - { offset: 0x9E5C8, size: 0x8, addend: 0x0, symName: _OUTLINED_FUNCTION_929, symObjAddr: 0x3E87C, symBinAddr: 0x40DBC, symSize: 0x8 }
  - { offset: 0x9E5DF, size: 0x8, addend: 0x0, symName: _OUTLINED_FUNCTION_936, symObjAddr: 0x3E8C8, symBinAddr: 0x40E08, symSize: 0x8 }
  - { offset: 0x9E5F6, size: 0x8, addend: 0x0, symName: _OUTLINED_FUNCTION_943, symObjAddr: 0x3E90C, symBinAddr: 0x40E4C, symSize: 0xC }
  - { offset: 0x9E60D, size: 0x8, addend: 0x0, symName: _OUTLINED_FUNCTION_945, symObjAddr: 0x3E924, symBinAddr: 0x40E64, symSize: 0xC }
  - { offset: 0x9E624, size: 0x8, addend: 0x0, symName: _OUTLINED_FUNCTION_950, symObjAddr: 0x3E978, symBinAddr: 0x40EB8, symSize: 0x8 }
  - { offset: 0x9E63B, size: 0x8, addend: 0x0, symName: _OUTLINED_FUNCTION_964, symObjAddr: 0x3EA08, symBinAddr: 0x40F48, symSize: 0xC }
  - { offset: 0x9E652, size: 0x8, addend: 0x0, symName: _OUTLINED_FUNCTION_967, symObjAddr: 0x3EA2C, symBinAddr: 0x40F6C, symSize: 0xC }
  - { offset: 0x9E669, size: 0x8, addend: 0x0, symName: _OUTLINED_FUNCTION_969, symObjAddr: 0x3EA40, symBinAddr: 0x40F80, symSize: 0xC }
  - { offset: 0x9E680, size: 0x8, addend: 0x0, symName: _OUTLINED_FUNCTION_976, symObjAddr: 0x3EA88, symBinAddr: 0x40FC8, symSize: 0x8 }
  - { offset: 0x9E697, size: 0x8, addend: 0x0, symName: _OUTLINED_FUNCTION_977, symObjAddr: 0x3EA90, symBinAddr: 0x40FD0, symSize: 0x8 }
  - { offset: 0x9E6AE, size: 0x8, addend: 0x0, symName: _OUTLINED_FUNCTION_984, symObjAddr: 0x3EAD4, symBinAddr: 0x41014, symSize: 0xC }
  - { offset: 0x9E6C5, size: 0x8, addend: 0x0, symName: _OUTLINED_FUNCTION_985, symObjAddr: 0x3EAE0, symBinAddr: 0x41020, symSize: 0x8 }
  - { offset: 0x9E6DC, size: 0x8, addend: 0x0, symName: _OUTLINED_FUNCTION_995, symObjAddr: 0x3EB40, symBinAddr: 0x41080, symSize: 0x8 }
  - { offset: 0x9E6F3, size: 0x8, addend: 0x0, symName: _OUTLINED_FUNCTION_1016, symObjAddr: 0x3EC0C, symBinAddr: 0x4114C, symSize: 0x8 }
  - { offset: 0x9E70A, size: 0x8, addend: 0x0, symName: _OUTLINED_FUNCTION_1051, symObjAddr: 0x3ED64, symBinAddr: 0x412A4, symSize: 0x8 }
  - { offset: 0x9E721, size: 0x8, addend: 0x0, symName: _OUTLINED_FUNCTION_1054, symObjAddr: 0x3ED7C, symBinAddr: 0x412BC, symSize: 0x8 }
  - { offset: 0x9E738, size: 0x8, addend: 0x0, symName: _OUTLINED_FUNCTION_1056, symObjAddr: 0x3ED8C, symBinAddr: 0x412CC, symSize: 0xC }
  - { offset: 0x9E74F, size: 0x8, addend: 0x0, symName: _OUTLINED_FUNCTION_1057, symObjAddr: 0x3ED98, symBinAddr: 0x412D8, symSize: 0x8 }
  - { offset: 0x9E766, size: 0x8, addend: 0x0, symName: _OUTLINED_FUNCTION_1078, symObjAddr: 0x3EE64, symBinAddr: 0x413A4, symSize: 0x8 }
  - { offset: 0x9E77D, size: 0x8, addend: 0x0, symName: _OUTLINED_FUNCTION_1105, symObjAddr: 0x3EF78, symBinAddr: 0x414B8, symSize: 0x14 }
  - { offset: 0x9E794, size: 0x8, addend: 0x0, symName: _OUTLINED_FUNCTION_1108, symObjAddr: 0x3EFB4, symBinAddr: 0x414F4, symSize: 0xC }
  - { offset: 0x9E7AB, size: 0x8, addend: 0x0, symName: _OUTLINED_FUNCTION_1115, symObjAddr: 0x3F018, symBinAddr: 0x41558, symSize: 0x14 }
  - { offset: 0x9E7C2, size: 0x8, addend: 0x0, symName: _OUTLINED_FUNCTION_1124, symObjAddr: 0x3F0A4, symBinAddr: 0x415E4, symSize: 0x14 }
  - { offset: 0x9E7D9, size: 0x8, addend: 0x0, symName: _OUTLINED_FUNCTION_1139, symObjAddr: 0x3F190, symBinAddr: 0x416D0, symSize: 0xC }
  - { offset: 0x9E7F0, size: 0x8, addend: 0x0, symName: _OUTLINED_FUNCTION_1166, symObjAddr: 0x3F314, symBinAddr: 0x41854, symSize: 0x14 }
  - { offset: 0x9E807, size: 0x8, addend: 0x0, symName: _OUTLINED_FUNCTION_1167, symObjAddr: 0x3F328, symBinAddr: 0x41868, symSize: 0xC }
  - { offset: 0x9E81E, size: 0x8, addend: 0x0, symName: _OUTLINED_FUNCTION_1173, symObjAddr: 0x3F388, symBinAddr: 0x418C8, symSize: 0xC }
  - { offset: 0x9E835, size: 0x8, addend: 0x0, symName: _OUTLINED_FUNCTION_1179, symObjAddr: 0x3F3E0, symBinAddr: 0x41920, symSize: 0xC }
  - { offset: 0x9E84C, size: 0x8, addend: 0x0, symName: _OUTLINED_FUNCTION_1197, symObjAddr: 0x3F4D8, symBinAddr: 0x41A18, symSize: 0xC }
  - { offset: 0x9E863, size: 0x8, addend: 0x0, symName: _OUTLINED_FUNCTION_1211, symObjAddr: 0x3F5F0, symBinAddr: 0x41B30, symSize: 0x18 }
  - { offset: 0x7CB5, size: 0x8, addend: 0x0, symName: '__ZN5alloc6borrow12Cow$LT$B$GT$10into_owned17he3dbb5e26c0b8d63E', symObjAddr: 0x8F0, symBinAddr: 0x4854, symSize: 0x34 }
  - { offset: 0x7D7B, size: 0x8, addend: 0x0, symName: _OUTLINED_FUNCTION_644, symObjAddr: 0x3D89C, symBinAddr: 0x3FDDC, symSize: 0xC }
  - { offset: 0x112E2B, size: 0x8, addend: 0x0, symName: '__ZN5serde2de5impls74_$LT$impl$u20$serde..de..Deserialize$u20$for$u20$alloc..string..String$GT$11deserialize17h86182a14e2b6d984E', symObjAddr: 0x24140, symBinAddr: 0x27534, symSize: 0xA4 }
  - { offset: 0x112ED3, size: 0x8, addend: 0x0, symName: '__ZN5serde2de5impls74_$LT$impl$u20$serde..de..Deserialize$u20$for$u20$alloc..string..String$GT$11deserialize17hc708995c2664c7d9E', symObjAddr: 0x241E4, symBinAddr: 0x275D8, symSize: 0x184 }
  - { offset: 0x1131EC, size: 0x8, addend: 0x0, symName: '__ZN5serde2de5impls60_$LT$impl$u20$serde..de..Deserialize$u20$for$u20$$RF$str$GT$11deserialize17h512fe51aaa83f082E', symObjAddr: 0x24088, symBinAddr: 0x2747C, symSize: 0xB8 }
  - { offset: 0x1133DD, size: 0x8, addend: 0x0, symName: '__ZN67_$LT$serde..de..impls..StrVisitor$u20$as$u20$serde..de..Visitor$GT$20visit_borrowed_bytes17hb7fbaf396ec9c2f7E', symObjAddr: 0x24888, symBinAddr: 0x2775C, symSize: 0x58 }
  - { offset: 0x1134D9, size: 0x8, addend: 0x0, symName: '__ZN5serde2de5impls57_$LT$impl$u20$serde..de..Deserialize$u20$for$u20$bool$GT$11deserialize17h3f56f3d591519518E', symObjAddr: 0x23E30, symBinAddr: 0x27224, symSize: 0x1AC }
  - { offset: 0x113744, size: 0x8, addend: 0x0, symName: '__ZN5serde2de5impls57_$LT$impl$u20$serde..de..Deserialize$u20$for$u20$bool$GT$11deserialize17hf9ad409ca2f63576E', symObjAddr: 0x23FDC, symBinAddr: 0x273D0, symSize: 0xAC }
  - { offset: 0x113807, size: 0x8, addend: 0x0, symName: '__ZN70_$LT$serde..de..impls..StringVisitor$u20$as$u20$serde..de..Visitor$GT$11visit_bytes17he71fc1c8bb446afbE', symObjAddr: 0x248E0, symBinAddr: 0x277B4, symSize: 0x68 }
  - { offset: 0x114578, size: 0x8, addend: 0x0, symName: __ZN5serde2de7Visitor11visit_bytes17h223841015da49d28E, symObjAddr: 0x24368, symBinAddr: 0x427BC, symSize: 0x2C }
  - { offset: 0x1145C9, size: 0x8, addend: 0x0, symName: __ZN5serde2de7Visitor11visit_bytes17h340ffc2769d74a2cE, symObjAddr: 0x24394, symBinAddr: 0x427E8, symSize: 0x2C }
  - { offset: 0x114619, size: 0x8, addend: 0x0, symName: __ZN5serde2de7Visitor11visit_bytes17h4c2c504571dde196E, symObjAddr: 0x243C0, symBinAddr: 0x42814, symSize: 0x2C }
  - { offset: 0x11466A, size: 0x8, addend: 0x0, symName: __ZN5serde2de7Visitor11visit_bytes17h4cb816dffb400b5eE, symObjAddr: 0x243EC, symBinAddr: 0x42840, symSize: 0x2C }
  - { offset: 0x1146BA, size: 0x8, addend: 0x0, symName: __ZN5serde2de7Visitor11visit_bytes17h5742dccb0996d4e6E, symObjAddr: 0x24418, symBinAddr: 0x4286C, symSize: 0x2C }
  - { offset: 0x11470A, size: 0x8, addend: 0x0, symName: __ZN5serde2de7Visitor11visit_bytes17h5d2b345d96b63a42E, symObjAddr: 0x24444, symBinAddr: 0x42898, symSize: 0x2C }
  - { offset: 0x11475B, size: 0x8, addend: 0x0, symName: __ZN5serde2de7Visitor11visit_bytes17h761a4c2ab696cd77E, symObjAddr: 0x24470, symBinAddr: 0x428C4, symSize: 0x2C }
  - { offset: 0x1147AB, size: 0x8, addend: 0x0, symName: __ZN5serde2de7Visitor11visit_bytes17h823a846159679510E, symObjAddr: 0x2449C, symBinAddr: 0x428F0, symSize: 0x2C }
  - { offset: 0x1147FB, size: 0x8, addend: 0x0, symName: __ZN5serde2de7Visitor11visit_bytes17h8d0c355336b6efedE, symObjAddr: 0x244C8, symBinAddr: 0x4291C, symSize: 0x2C }
  - { offset: 0x11484C, size: 0x8, addend: 0x0, symName: __ZN5serde2de7Visitor11visit_bytes17he3d41788f5d2db08E, symObjAddr: 0x244F4, symBinAddr: 0x42948, symSize: 0x2C }
  - { offset: 0x11489C, size: 0x8, addend: 0x0, symName: __ZN5serde2de7Visitor9visit_i6417h24abdcfc4c2eb0b9E, symObjAddr: 0x24520, symBinAddr: 0x42974, symSize: 0x2C }
  - { offset: 0x1148ED, size: 0x8, addend: 0x0, symName: __ZN5serde2de7Visitor9visit_i6417hd28f4608a5fc4f3bE, symObjAddr: 0x2454C, symBinAddr: 0x429A0, symSize: 0x2C }
  - { offset: 0x11493D, size: 0x8, addend: 0x0, symName: __ZN5serde2de7Visitor9visit_i6417h3968046443b05f5aE, symObjAddr: 0x24578, symBinAddr: 0x429CC, symSize: 0x2C }
  - { offset: 0x11498E, size: 0x8, addend: 0x0, symName: __ZN5serde2de7Visitor9visit_i6417h0bf77dfcd071eb9fE, symObjAddr: 0x245A4, symBinAddr: 0x429F8, symSize: 0x2C }
  - { offset: 0x1149DF, size: 0x8, addend: 0x0, symName: __ZN5serde2de7Visitor9visit_i6417hab5ef730fa618fb5E, symObjAddr: 0x245D0, symBinAddr: 0x42A24, symSize: 0x2C }
  - { offset: 0x114A2F, size: 0x8, addend: 0x0, symName: __ZN5serde2de7Visitor9visit_i6417h9213f8daf376c670E, symObjAddr: 0x245FC, symBinAddr: 0x42A50, symSize: 0x2C }
  - { offset: 0x114A7F, size: 0x8, addend: 0x0, symName: __ZN5serde2de7Visitor9visit_i6417hf7a085128fb2b55bE, symObjAddr: 0x24628, symBinAddr: 0x42A7C, symSize: 0x2C }
  - { offset: 0x114ACF, size: 0x8, addend: 0x0, symName: __ZN5serde2de7Visitor9visit_i6417hdc1ab0072ffefb3eE, symObjAddr: 0x24654, symBinAddr: 0x42AA8, symSize: 0x2C }
  - { offset: 0x114B1F, size: 0x8, addend: 0x0, symName: __ZN5serde2de7Visitor9visit_i6417h8fd117e2be7cdddfE, symObjAddr: 0x24680, symBinAddr: 0x42AD4, symSize: 0x2C }
  - { offset: 0x114B6F, size: 0x8, addend: 0x0, symName: __ZN5serde2de7Visitor9visit_str17h4bacff76bad239d2E, symObjAddr: 0x246AC, symBinAddr: 0x42B00, symSize: 0x28 }
  - { offset: 0x114BC0, size: 0x8, addend: 0x0, symName: __ZN5serde2de7Visitor9visit_str17h5775c928237bf259E, symObjAddr: 0x246D4, symBinAddr: 0x42B28, symSize: 0x2C }
  - { offset: 0x114C11, size: 0x8, addend: 0x0, symName: __ZN5serde2de7Visitor9visit_str17h59e83e2d862e8ebdE, symObjAddr: 0x24700, symBinAddr: 0x42B54, symSize: 0x2C }
  - { offset: 0x114C61, size: 0x8, addend: 0x0, symName: __ZN5serde2de7Visitor9visit_str17h704a90a19cb15a66E, symObjAddr: 0x2472C, symBinAddr: 0x42B80, symSize: 0x2C }
  - { offset: 0x114CB1, size: 0x8, addend: 0x0, symName: __ZN5serde2de7Visitor9visit_str17h79b5ec1f1c4be581E, symObjAddr: 0x24758, symBinAddr: 0x42BAC, symSize: 0x2C }
  - { offset: 0x114D01, size: 0x8, addend: 0x0, symName: __ZN5serde2de7Visitor9visit_str17h96be115531ed2e47E, symObjAddr: 0x24784, symBinAddr: 0x42BD8, symSize: 0x2C }
  - { offset: 0x114D52, size: 0x8, addend: 0x0, symName: __ZN5serde2de7Visitor9visit_str17ha0425a618c07d213E, symObjAddr: 0x247B0, symBinAddr: 0x42C04, symSize: 0x2C }
  - { offset: 0x114DA2, size: 0x8, addend: 0x0, symName: __ZN5serde2de7Visitor9visit_str17ha27edba4352952cfE, symObjAddr: 0x247DC, symBinAddr: 0x42C30, symSize: 0x2C }
  - { offset: 0x114DF2, size: 0x8, addend: 0x0, symName: __ZN5serde2de7Visitor9visit_str17haf1c7f4c72d706f7E, symObjAddr: 0x24808, symBinAddr: 0x42C5C, symSize: 0x28 }
  - { offset: 0x114E43, size: 0x8, addend: 0x0, symName: __ZN5serde2de7Visitor9visit_str17hce35c3e521bc919dE, symObjAddr: 0x24830, symBinAddr: 0x42C84, symSize: 0x2C }
  - { offset: 0x114E94, size: 0x8, addend: 0x0, symName: __ZN5serde2de7Visitor9visit_str17hecb032d6dbdb09d8E, symObjAddr: 0x2485C, symBinAddr: 0x42CB0, symSize: 0x2C }
  - { offset: 0x115851, size: 0x8, addend: 0x0, symName: '__ZN41_$LT$T$u20$as$u20$serde..de..Expected$GT$3fmt17h19346dd0125e0512E', symObjAddr: 0x23984, symBinAddr: 0x26D78, symSize: 0x18 }
  - { offset: 0x1158CA, size: 0x8, addend: 0x0, symName: '__ZN41_$LT$T$u20$as$u20$serde..de..Expected$GT$3fmt17h1fb1697e6f7c9042E', symObjAddr: 0x2399C, symBinAddr: 0x26D90, symSize: 0x40 }
  - { offset: 0x11597D, size: 0x8, addend: 0x0, symName: '__ZN41_$LT$T$u20$as$u20$serde..de..Expected$GT$3fmt17h21d438d249dd6168E', symObjAddr: 0x23A10, symBinAddr: 0x26E04, symSize: 0x14 }
  - { offset: 0x1159F6, size: 0x8, addend: 0x0, symName: '__ZN41_$LT$T$u20$as$u20$serde..de..Expected$GT$3fmt17h23d640b845a5d696E', symObjAddr: 0x23A24, symBinAddr: 0x26E18, symSize: 0x14 }
  - { offset: 0x115A6F, size: 0x8, addend: 0x0, symName: '__ZN41_$LT$T$u20$as$u20$serde..de..Expected$GT$3fmt17h2a16c1b9c766cb77E', symObjAddr: 0x23A38, symBinAddr: 0x26E2C, symSize: 0x18 }
  - { offset: 0x115AE8, size: 0x8, addend: 0x0, symName: '__ZN41_$LT$T$u20$as$u20$serde..de..Expected$GT$3fmt17h3277d249edf2bb68E', symObjAddr: 0x23A50, symBinAddr: 0x26E44, symSize: 0x18 }
  - { offset: 0x115B61, size: 0x8, addend: 0x0, symName: '__ZN41_$LT$T$u20$as$u20$serde..de..Expected$GT$3fmt17h677f380aada57200E', symObjAddr: 0x23A68, symBinAddr: 0x26E5C, symSize: 0x18 }
  - { offset: 0x115BDB, size: 0x8, addend: 0x0, symName: '__ZN41_$LT$T$u20$as$u20$serde..de..Expected$GT$3fmt17h68ea132fec737dceE', symObjAddr: 0x23A80, symBinAddr: 0x26E74, symSize: 0x18 }
  - { offset: 0x115C54, size: 0x8, addend: 0x0, symName: '__ZN41_$LT$T$u20$as$u20$serde..de..Expected$GT$3fmt17h6ad2bafd05d8f844E', symObjAddr: 0x23A98, symBinAddr: 0x26E8C, symSize: 0x18 }
  - { offset: 0x115CCD, size: 0x8, addend: 0x0, symName: '__ZN41_$LT$T$u20$as$u20$serde..de..Expected$GT$3fmt17h793d3dd645ac8688E', symObjAddr: 0x23AB0, symBinAddr: 0x26EA4, symSize: 0x14 }
  - { offset: 0x115D46, size: 0x8, addend: 0x0, symName: '__ZN41_$LT$T$u20$as$u20$serde..de..Expected$GT$3fmt17h9f5db725509b983eE', symObjAddr: 0x23AC4, symBinAddr: 0x26EB8, symSize: 0x18 }
  - { offset: 0x115DBF, size: 0x8, addend: 0x0, symName: '__ZN41_$LT$T$u20$as$u20$serde..de..Expected$GT$3fmt17ha3c30bc204fc08a5E', symObjAddr: 0x23ADC, symBinAddr: 0x26ED0, symSize: 0x18 }
  - { offset: 0x115E38, size: 0x8, addend: 0x0, symName: '__ZN41_$LT$T$u20$as$u20$serde..de..Expected$GT$3fmt17hb3c0717ba2819a0dE', symObjAddr: 0x23AF4, symBinAddr: 0x26EE8, symSize: 0x14 }
  - { offset: 0x115EB1, size: 0x8, addend: 0x0, symName: '__ZN41_$LT$T$u20$as$u20$serde..de..Expected$GT$3fmt17hc06958713be58d3fE', symObjAddr: 0x23B08, symBinAddr: 0x26EFC, symSize: 0x14 }
  - { offset: 0x115F2B, size: 0x8, addend: 0x0, symName: '__ZN41_$LT$T$u20$as$u20$serde..de..Expected$GT$3fmt17hea0787cce28f1c4fE', symObjAddr: 0x23B1C, symBinAddr: 0x26F10, symSize: 0x14 }
  - { offset: 0x117035, size: 0x8, addend: 0x0, symName: '__ZN14powersync_core6schema10table_info1_105_$LT$impl$u20$serde..de..Deserialize$u20$for$u20$powersync_core..schema..table_info..PendingStatement$GT$11deserialize17h39004a051d2ebcbdE', symObjAddr: 0x24AF8, symBinAddr: 0x279CC, symSize: 0x474 }
  - { offset: 0x118B87, size: 0x8, addend: 0x0, symName: '__ZN81_$LT$alloc..vec..Vec$LT$T$C$A$GT$$u20$as$u20$core..ops..index..Index$LT$I$GT$$GT$5index17hc73449e3328a970eE', symObjAddr: 0x23B48, symBinAddr: 0x26F3C, symSize: 0x20 }
  - { offset: 0x119B6D, size: 0x8, addend: 0x0, symName: '__ZN5alloc5slice29_$LT$impl$u20$$u5b$T$u5d$$GT$4join17ha70188677f49d080E', symObjAddr: 0x23D0C, symBinAddr: 0x27100, symSize: 0x124 }
  - { offset: 0x11A5B5, size: 0x8, addend: 0x0, symName: __ZN5alloc3fmt6format17h4ffda33657175125E.1929, symObjAddr: 0x249B8, symBinAddr: 0x2788C, symSize: 0x38 }
  - { offset: 0x11B023, size: 0x8, addend: 0x0, symName: '__ZN4core3ptr95drop_in_place$LT$alloc..vec..Vec$LT$powersync_core..sync..line..StreamSubscriptionError$GT$$GT$17h7e89274c26324555E', symObjAddr: 0x2370C, symBinAddr: 0x26B00, symSize: 0x20 }
  - { offset: 0x11B090, size: 0x8, addend: 0x0, symName: '__ZN4core3ptr100drop_in_place$LT$core..option..Option$LT$powersync_core..sync..line..StreamSubscriptionError$GT$$GT$17h2db72499108af5c0E', symObjAddr: 0x23754, symBinAddr: 0x26B48, symSize: 0x18 }
  - { offset: 0x11B1B5, size: 0x8, addend: 0x0, symName: '__ZN4core3ptr87drop_in_place$LT$core..option..Option$LT$powersync_core..sync..line..OplogEntry$GT$$GT$17hb2caa1b8d45de9f5E', symObjAddr: 0x23854, symBinAddr: 0x26C48, symSize: 0x48 }
  - { offset: 0x11B281, size: 0x8, addend: 0x0, symName: '__ZN4core3ptr91drop_in_place$LT$core..option..Option$LT$powersync_core..sync..line..BucketChecksum$GT$$GT$17h65035054bf5e626cE', symObjAddr: 0x238E0, symBinAddr: 0x26CD4, symSize: 0x34 }
  - { offset: 0x11B305, size: 0x8, addend: 0x0, symName: '__ZN4core3ptr94drop_in_place$LT$core..option..Option$LT$powersync_core..sync..line..StreamDescription$GT$$GT$17h788556f1bead1a20E', symObjAddr: 0x2393C, symBinAddr: 0x26D30, symSize: 0x48 }
  - { offset: 0x11B4BA, size: 0x8, addend: 0x0, symName: '__ZN4core3ptr101drop_in_place$LT$core..option..Option$LT$powersync_core..sync_local..PreparedPendingStatement$GT$$GT$17hb49b2f40b80f5294E', symObjAddr: 0x23B38, symBinAddr: 0x26F2C, symSize: 0x10 }
  - { offset: 0x11B5CB, size: 0x8, addend: 0x0, symName: '__ZN4core3ptr59drop_in_place$LT$serde..__private..de..content..Content$GT$17ha04eeb5331f27e5fE.1937', symObjAddr: 0x24A68, symBinAddr: 0x2793C, symSize: 0x70 }
  - { offset: 0x11B652, size: 0x8, addend: 0x0, symName: '__ZN4core3ptr84drop_in_place$LT$alloc..boxed..Box$LT$serde..__private..de..content..Content$GT$$GT$17he4be82e6358ff631E.1938', symObjAddr: 0x24AD8, symBinAddr: 0x279AC, symSize: 0x20 }
  - { offset: 0x11B733, size: 0x8, addend: 0x0, symName: '__ZN4core3ptr78drop_in_place$LT$powersync_core..schema..table_info..PendingStatementValue$GT$17h15a60b0aab4e4687E', symObjAddr: 0x24F6C, symBinAddr: 0x27E40, symSize: 0x14 }
  - { offset: 0x11FC59, size: 0x8, addend: 0x0, symName: '__ZN4core5slice29_$LT$impl$u20$$u5b$T$u5d$$GT$20binary_search_by_key28_$u7b$$u7b$closure$u7d$$u7d$17h0499d60a49e80ecdE', symObjAddr: 0x23B68, symBinAddr: 0x26F5C, symSize: 0x10 }
  - { offset: 0x11FE38, size: 0x8, addend: 0x0, symName: __ZN4core5slice4sort6stable14driftsort_main17h13eb21c66fe381caE, symObjAddr: 0x23B78, symBinAddr: 0x26F6C, symSize: 0x8C }
  - { offset: 0x12004F, size: 0x8, addend: 0x0, symName: __ZN4core5slice4sort6stable14driftsort_main17h1ac8310bb9c24ab1E, symObjAddr: 0x23C04, symBinAddr: 0x26FF8, symSize: 0x58 }
  - { offset: 0x12019D, size: 0x8, addend: 0x0, symName: __ZN4core5slice4sort6stable14driftsort_main17h6fcd2c1ff91383bbE, symObjAddr: 0x23C5C, symBinAddr: 0x27050, symSize: 0x58 }
  - { offset: 0x1202EB, size: 0x8, addend: 0x0, symName: __ZN4core5slice4sort6stable14driftsort_main17hfc21f7bdc3462102E, symObjAddr: 0x23CB4, symBinAddr: 0x270A8, symSize: 0x58 }
  - { offset: 0x1209F3, size: 0x8, addend: 0x0, symName: '__ZN44_$LT$$RF$T$u20$as$u20$core..fmt..Display$GT$3fmt17h8fad5c2c8e1f3d3fE', symObjAddr: 0x23B30, symBinAddr: 0x26F24, symSize: 0x8 }
  - { offset: 0x120AA3, size: 0x8, addend: 0x0, symName: __ZN4core4iter6traits8iterator8Iterator7collect17h083750dd4cab5df6E, symObjAddr: 0x249F0, symBinAddr: 0x278C4, symSize: 0x78 }
  - { offset: 0x122F1C, size: 0x8, addend: 0x0, symName: '__ZN10serde_with2de41_$LT$impl$u20$serde_with..As$LT$T$GT$$GT$11deserialize17h0c540109e2aa2e5bE', symObjAddr: 0x23508, symBinAddr: 0x268FC, symSize: 0x68 }
  - { offset: 0x123099, size: 0x8, addend: 0x0, symName: '__ZN10serde_with2de41_$LT$impl$u20$serde_with..As$LT$T$GT$$GT$11deserialize17h6bfdb7197dc4a605E', symObjAddr: 0x23570, symBinAddr: 0x26964, symSize: 0x11C }
  - { offset: 0x123210, size: 0x8, addend: 0x0, symName: '__ZN10serde_with2de41_$LT$impl$u20$serde_with..As$LT$T$GT$$GT$11deserialize17hf352557f933b1418E', symObjAddr: 0x2368C, symBinAddr: 0x26A80, symSize: 0x80 }
  - { offset: 0x1232FB, size: 0x8, addend: 0x0, symName: '__ZN5alloc3vec16Vec$LT$T$C$A$GT$4push17h6dc49cb415715c89E', symObjAddr: 0x2372C, symBinAddr: 0x26B20, symSize: 0x28 }
  - { offset: 0x123369, size: 0x8, addend: 0x0, symName: '__ZN5alloc7raw_vec20RawVecInner$LT$A$GT$16with_capacity_in17h8242ac48d042eef7E.1480', symObjAddr: 0x2376C, symBinAddr: 0x26B60, symSize: 0x38 }
  - { offset: 0x1233BD, size: 0x8, addend: 0x0, symName: '__ZN5alloc3vec16Vec$LT$T$C$A$GT$4push17ha78df0ee1efb5af3E', symObjAddr: 0x237A4, symBinAddr: 0x26B98, symSize: 0x28 }
  - { offset: 0x1234E6, size: 0x8, addend: 0x0, symName: '__ZN5alloc3vec16Vec$LT$T$C$A$GT$4push17hd3e3cd9fa89fe509E', symObjAddr: 0x237CC, symBinAddr: 0x26BC0, symSize: 0x48 }
  - { offset: 0x1236EE, size: 0x8, addend: 0x0, symName: '__ZN5alloc3vec16Vec$LT$T$C$A$GT$4push17ha03660b7f14e86ebE', symObjAddr: 0x23814, symBinAddr: 0x26C08, symSize: 0x40 }
  - { offset: 0x12390B, size: 0x8, addend: 0x0, symName: '__ZN5alloc3vec16Vec$LT$T$C$A$GT$4push17hd4ce3717f4551fb1E', symObjAddr: 0x2389C, symBinAddr: 0x26C90, symSize: 0x44 }
  - { offset: 0x123A4F, size: 0x8, addend: 0x0, symName: '__ZN5alloc3vec16Vec$LT$T$C$A$GT$4push17h7086cc46d2e2a1a0E', symObjAddr: 0x23914, symBinAddr: 0x26D08, symSize: 0x28 }
  - { offset: 0x123C69, size: 0x8, addend: 0x0, symName: __ZN4core3fmt9Arguments6as_str17heb8f4b1b74a0d980E.1537, symObjAddr: 0x239DC, symBinAddr: 0x26DD0, symSize: 0x34 }
  - { offset: 0x123E0F, size: 0x8, addend: 0x0, symName: __ZN14powersync_core6schema10table_info5Table9from_json17h5305ba4d47361afeE, symObjAddr: 0x24948, symBinAddr: 0x2781C, symSize: 0x70 }
  - { offset: 0x1245E5, size: 0x8, addend: 0x0, symName: _OUTLINED_FUNCTION_46, symObjAddr: 0x3B3F8, symBinAddr: 0x3D938, symSize: 0x18 }
  - { offset: 0x1245FC, size: 0x8, addend: 0x0, symName: _OUTLINED_FUNCTION_115, symObjAddr: 0x3B97C, symBinAddr: 0x3DEBC, symSize: 0x2C }
  - { offset: 0x124613, size: 0x8, addend: 0x0, symName: _OUTLINED_FUNCTION_123, symObjAddr: 0x3BA2C, symBinAddr: 0x3DF6C, symSize: 0x28 }
  - { offset: 0x12462A, size: 0x8, addend: 0x0, symName: _OUTLINED_FUNCTION_140, symObjAddr: 0x3BBB4, symBinAddr: 0x3E0F4, symSize: 0x18 }
  - { offset: 0x124641, size: 0x8, addend: 0x0, symName: _OUTLINED_FUNCTION_153, symObjAddr: 0x3BCA8, symBinAddr: 0x3E1E8, symSize: 0x24 }
  - { offset: 0x124658, size: 0x8, addend: 0x0, symName: _OUTLINED_FUNCTION_301, symObjAddr: 0x3C558, symBinAddr: 0x3EA98, symSize: 0xC }
  - { offset: 0x12466F, size: 0x8, addend: 0x0, symName: _OUTLINED_FUNCTION_343, symObjAddr: 0x3C784, symBinAddr: 0x3ECC4, symSize: 0x10 }
  - { offset: 0x124686, size: 0x8, addend: 0x0, symName: _OUTLINED_FUNCTION_344, symObjAddr: 0x3C794, symBinAddr: 0x3ECD4, symSize: 0x10 }
  - { offset: 0x12469D, size: 0x8, addend: 0x0, symName: _OUTLINED_FUNCTION_533, symObjAddr: 0x3D270, symBinAddr: 0x3F7B0, symSize: 0x10 }
  - { offset: 0x1246B4, size: 0x8, addend: 0x0, symName: _OUTLINED_FUNCTION_614, symObjAddr: 0x3D660, symBinAddr: 0x3FBA0, symSize: 0x28 }
  - { offset: 0x1246CB, size: 0x8, addend: 0x0, symName: _OUTLINED_FUNCTION_718, symObjAddr: 0x3DCF4, symBinAddr: 0x40234, symSize: 0x8 }
  - { offset: 0x1246E2, size: 0x8, addend: 0x0, symName: _OUTLINED_FUNCTION_750, symObjAddr: 0x3DE78, symBinAddr: 0x403B8, symSize: 0x8 }
  - { offset: 0x1246F9, size: 0x8, addend: 0x0, symName: _OUTLINED_FUNCTION_816, symObjAddr: 0x3E1C8, symBinAddr: 0x40708, symSize: 0xC }
  - { offset: 0x124710, size: 0x8, addend: 0x0, symName: _OUTLINED_FUNCTION_940, symObjAddr: 0x3E8EC, symBinAddr: 0x40E2C, symSize: 0xC }
  - { offset: 0x124727, size: 0x8, addend: 0x0, symName: _OUTLINED_FUNCTION_994, symObjAddr: 0x3EB38, symBinAddr: 0x41078, symSize: 0x8 }
  - { offset: 0x12473E, size: 0x8, addend: 0x0, symName: _OUTLINED_FUNCTION_997, symObjAddr: 0x3EB54, symBinAddr: 0x41094, symSize: 0x8 }
  - { offset: 0x124755, size: 0x8, addend: 0x0, symName: _OUTLINED_FUNCTION_1025, symObjAddr: 0x3EC60, symBinAddr: 0x411A0, symSize: 0x8 }
  - { offset: 0x12476C, size: 0x8, addend: 0x0, symName: _OUTLINED_FUNCTION_1048, symObjAddr: 0x3ED48, symBinAddr: 0x41288, symSize: 0xC }
  - { offset: 0x124783, size: 0x8, addend: 0x0, symName: _OUTLINED_FUNCTION_1052, symObjAddr: 0x3ED6C, symBinAddr: 0x412AC, symSize: 0x8 }
  - { offset: 0x12479A, size: 0x8, addend: 0x0, symName: _OUTLINED_FUNCTION_1094, symObjAddr: 0x3EF00, symBinAddr: 0x41440, symSize: 0x8 }
  - { offset: 0x1247B1, size: 0x8, addend: 0x0, symName: _OUTLINED_FUNCTION_1175, symObjAddr: 0x3F3A0, symBinAddr: 0x418E0, symSize: 0xC }
  - { offset: 0x1B8BE5, size: 0x8, addend: 0x0, symName: __ZN4itoa6Buffer6format17h345cc9f3a3c22400E, symObjAddr: 0x395C4, symBinAddr: 0x3BB10, symSize: 0xD8 }
  - { offset: 0x1B909D, size: 0x8, addend: 0x0, symName: __ZN4itoa6Buffer6format17h345cc9f3a3c22400E, symObjAddr: 0x395C4, symBinAddr: 0x3BB10, symSize: 0xD8 }
  - { offset: 0x1B920A, size: 0x8, addend: 0x0, symName: __ZN4itoa6Buffer6format17h38eca3f08707f63bE, symObjAddr: 0x3969C, symBinAddr: 0x3BBE8, symSize: 0xBC }
  - { offset: 0x1AF6A2, size: 0x8, addend: 0x0, symName: '__ZN74_$LT$alloc..string..String$u20$as$u20$core..ops..index..Index$LT$I$GT$$GT$5index17hbe7aa0c426b5aac2E', symObjAddr: 0x38E3C, symBinAddr: 0x3B460, symSize: 0x34 }
  - { offset: 0x1AF6DF, size: 0x8, addend: 0x0, symName: '__ZN74_$LT$alloc..string..String$u20$as$u20$core..ops..index..Index$LT$I$GT$$GT$5index17hbe7aa0c426b5aac2E', symObjAddr: 0x38E3C, symBinAddr: 0x3B460, symSize: 0x34 }
  - { offset: 0x1AF700, size: 0x8, addend: 0x0, symName: '__ZN74_$LT$alloc..string..String$u20$as$u20$core..ops..index..Index$LT$I$GT$$GT$5index17hbe7aa0c426b5aac2E', symObjAddr: 0x38E3C, symBinAddr: 0x3B460, symSize: 0x34 }
  - { offset: 0x1AF721, size: 0x8, addend: 0x0, symName: '__ZN74_$LT$alloc..string..String$u20$as$u20$core..ops..index..Index$LT$I$GT$$GT$5index17hbe7aa0c426b5aac2E', symObjAddr: 0x38E3C, symBinAddr: 0x3B460, symSize: 0x34 }
  - { offset: 0x1AF748, size: 0x8, addend: 0x0, symName: '__ZN74_$LT$alloc..string..String$u20$as$u20$core..ops..index..Index$LT$I$GT$$GT$5index17hbe7aa0c426b5aac2E', symObjAddr: 0x38E3C, symBinAddr: 0x3B460, symSize: 0x34 }
  - { offset: 0x1AF82C, size: 0x8, addend: 0x0, symName: '__ZN74_$LT$alloc..string..String$u20$as$u20$core..ops..index..Index$LT$I$GT$$GT$5index17h7b1ceca91154ac0dE', symObjAddr: 0x38E70, symBinAddr: 0x3B494, symSize: 0x54 }
  - { offset: 0x1AF86B, size: 0x8, addend: 0x0, symName: '__ZN74_$LT$alloc..string..String$u20$as$u20$core..ops..index..Index$LT$I$GT$$GT$5index17h7b1ceca91154ac0dE', symObjAddr: 0x38E70, symBinAddr: 0x3B494, symSize: 0x54 }
  - { offset: 0x1AF88E, size: 0x8, addend: 0x0, symName: '__ZN74_$LT$alloc..string..String$u20$as$u20$core..ops..index..Index$LT$I$GT$$GT$5index17h7b1ceca91154ac0dE', symObjAddr: 0x38E70, symBinAddr: 0x3B494, symSize: 0x54 }
  - { offset: 0x1AFA96, size: 0x8, addend: 0x0, symName: __ZN5alloc5alloc15exchange_malloc17h8bc033b4f6887839E.2885, symObjAddr: 0x386B8, symBinAddr: 0x3AD60, symSize: 0x28 }
  - { offset: 0x1B047F, size: 0x8, addend: 0x0, symName: '__ZN4core3num62_$LT$impl$u20$core..str..traits..FromStr$u20$for$u20$usize$GT$8from_str17hb53fee86e4fe4f85E', symObjAddr: 0x38EC4, symBinAddr: 0x3B4E8, symSize: 0xF0 }
  - { offset: 0x1B04B1, size: 0x8, addend: 0x0, symName: '__ZN4core3num62_$LT$impl$u20$core..str..traits..FromStr$u20$for$u20$usize$GT$8from_str17hb53fee86e4fe4f85E', symObjAddr: 0x38EC4, symBinAddr: 0x3B4E8, symSize: 0xF0 }
  - { offset: 0x1B04D5, size: 0x8, addend: 0x0, symName: '__ZN4core3num62_$LT$impl$u20$core..str..traits..FromStr$u20$for$u20$usize$GT$8from_str17hb53fee86e4fe4f85E', symObjAddr: 0x38EC4, symBinAddr: 0x3B4E8, symSize: 0xF0 }
  - { offset: 0x1B1BD2, size: 0x8, addend: 0x0, symName: '__ZN61_$LT$serde_json..error..Error$u20$as$u20$serde..de..Error$GT$6custom17haa04889f755414a7E', symObjAddr: 0x389B4, symBinAddr: 0x43548, symSize: 0x44 }
  - { offset: 0x1B1D2E, size: 0x8, addend: 0x0, symName: '__ZN61_$LT$serde_json..error..Error$u20$as$u20$serde..de..Error$GT$6custom17hbd2887f7fe745815E', symObjAddr: 0x38FB4, symBinAddr: 0x4358C, symSize: 0x20 }
  - { offset: 0x1B1DE8, size: 0x8, addend: 0x0, symName: '__ZN61_$LT$serde_json..error..Error$u20$as$u20$serde..de..Error$GT$12invalid_type17h01b66c28731d3de2E', symObjAddr: 0x38FD4, symBinAddr: 0x435AC, symSize: 0x4C }
  - { offset: 0x1B1E4F, size: 0x8, addend: 0x0, symName: '__ZN61_$LT$serde_json..error..Error$u20$as$u20$serde..de..Error$GT$13invalid_value17h7b848a3eb7cb8d92E', symObjAddr: 0x3911C, symBinAddr: 0x435F8, symSize: 0x4C }
  - { offset: 0x1B1EBC, size: 0x8, addend: 0x0, symName: '__ZN67_$LT$serde_json..error..ErrorCode$u20$as$u20$core..fmt..Display$GT$3fmt17ha1c94f46fb65da4cE', symObjAddr: 0x38720, symBinAddr: 0x3AD88, symSize: 0x228 }
  - { offset: 0x1B220C, size: 0x8, addend: 0x0, symName: '__ZN67_$LT$serde_json..error..ErrorImpl$u20$as$u20$core..fmt..Display$GT$3fmt17hbc3e935ea00d73cfE', symObjAddr: 0x38948, symBinAddr: 0x3AFB0, symSize: 0x6C }
  - { offset: 0x1B2355, size: 0x8, addend: 0x0, symName: __ZN10serde_json5error10make_error17heaa89801b10a44bcE, symObjAddr: 0x389F8, symBinAddr: 0x3B01C, symSize: 0x2C4 }
  - { offset: 0x1B2968, size: 0x8, addend: 0x0, symName: '__ZN72_$LT$serde_json..error..JsonUnexpected$u20$as$u20$core..fmt..Display$GT$3fmt17hf85a8aa0c0712be8E', symObjAddr: 0x39020, symBinAddr: 0x3B5D8, symSize: 0xFC }
  - { offset: 0x1B2E7E, size: 0x8, addend: 0x0, symName: __ZN10serde_json5error5Error12fix_position17h75fbf84cb3bfe4d2E, symObjAddr: 0x386E0, symBinAddr: 0x43508, symSize: 0x40 }
  - { offset: 0x1B3286, size: 0x8, addend: 0x0, symName: __ZN4core3str7pattern14TwoWaySearcher9next_back17h0af6461f36edbe1aE, symObjAddr: 0x38CBC, symBinAddr: 0x3B2E0, symSize: 0x180 }
  - { offset: 0x1B356C, size: 0x8, addend: 0x0, symName: _OUTLINED_FUNCTION_758, symObjAddr: 0x3DEE8, symBinAddr: 0x40428, symSize: 0x1C }
  - { offset: 0x1BBE53, size: 0x8, addend: 0x0, symName: '__ZN71_$LT$serde_json..raw..BoxedFromString$u20$as$u20$serde..de..Visitor$GT$9visit_str17h61cc4391ae4e34bbE', symObjAddr: 0x3A068, symBinAddr: 0x3C5B4, symSize: 0x2C }
  - { offset: 0x1BBEE6, size: 0x8, addend: 0x0, symName: '__ZN68_$LT$serde_json..raw..RawValue$u20$as$u20$alloc..borrow..ToOwned$GT$8to_owned17h3ac9aa6dc9f49c07E', symObjAddr: 0x39FC4, symBinAddr: 0x3C510, symSize: 0x24 }
  - { offset: 0x1BC077, size: 0x8, addend: 0x0, symName: '__ZN81_$LT$serde_json..raw..BorrowedRawDeserializer$u20$as$u20$serde..de..MapAccess$GT$13next_key_seed17hf3a7424c61155d24E', symObjAddr: 0x3A018, symBinAddr: 0x3C564, symSize: 0x50 }
  - { offset: 0x1BD3E2, size: 0x8, addend: 0x0, symName: '__ZN4core3cmp5impls69_$LT$impl$u20$core..cmp..PartialEq$LT$$RF$B$GT$$u20$for$u20$$RF$A$GT$2eq17ha9d0236858d316f8E', symObjAddr: 0x3A014, symBinAddr: 0x3C560, symSize: 0x4 }
  - { offset: 0x1BD6F5, size: 0x8, addend: 0x0, symName: '__ZN4core5slice3cmp56_$LT$impl$u20$core..cmp..Ord$u20$for$u20$$u5b$T$u5d$$GT$3cmp17hd6b6a62ffb0bbaddE', symObjAddr: 0x398BC, symBinAddr: 0x3BE08, symSize: 0x44 }
  - { offset: 0x1BDF3D, size: 0x8, addend: 0x0, symName: '__ZN99_$LT$alloc..collections..btree..map..BTreeMap$LT$K$C$V$C$A$GT$$u20$as$u20$core..ops..drop..Drop$GT$4drop17h8fcd45f1288b7d34E', symObjAddr: 0x39EA8, symBinAddr: 0x3C3F4, symSize: 0x11C }
  - { offset: 0x1BF44A, size: 0x8, addend: 0x0, symName: '__ZN41_$LT$T$u20$as$u20$serde..de..Expected$GT$3fmt17he4a1aa552a45e3edE', symObjAddr: 0x3988C, symBinAddr: 0x3BDD8, symSize: 0x18 }
  - { offset: 0x1BF4C3, size: 0x8, addend: 0x0, symName: '__ZN41_$LT$T$u20$as$u20$serde..de..Expected$GT$3fmt17hfb6cfbf219c775b5E', symObjAddr: 0x398A4, symBinAddr: 0x3BDF0, symSize: 0x18 }
  - { offset: 0x1BF77A, size: 0x8, addend: 0x0, symName: '__ZN5alloc11collections5btree3map25BTreeMap$LT$K$C$V$C$A$GT$3get17h9708145ece7400d9E', symObjAddr: 0x39900, symBinAddr: 0x3BE4C, symSize: 0x8C }
  - { offset: 0x1BFCFA, size: 0x8, addend: 0x0, symName: '__ZN5alloc11collections5btree3map25BTreeMap$LT$K$C$V$C$A$GT$6insert17h1e3e69db690f734aE', symObjAddr: 0x3998C, symBinAddr: 0x3BED8, symSize: 0x508 }
  - { offset: 0x1C11D8, size: 0x8, addend: 0x0, symName: '__ZN5alloc11collections5btree8navigate142_$LT$impl$u20$alloc..collections..btree..node..NodeRef$LT$BorrowType$C$K$C$V$C$alloc..collections..btree..node..marker..LeafOrInternal$GT$$GT$15first_leaf_edge17h0632d8b2e5f901b2E', symObjAddr: 0x39E94, symBinAddr: 0x3C3E0, symSize: 0x14 }
  - { offset: 0x1C11FB, size: 0x8, addend: 0x0, symName: '__ZN5alloc11collections5btree8navigate142_$LT$impl$u20$alloc..collections..btree..node..NodeRef$LT$BorrowType$C$K$C$V$C$alloc..collections..btree..node..marker..LeafOrInternal$GT$$GT$15first_leaf_edge17h0632d8b2e5f901b2E', symObjAddr: 0x39E94, symBinAddr: 0x3C3E0, symSize: 0x14 }
  - { offset: 0x1C15C5, size: 0x8, addend: 0x0, symName: __ZN5alloc6string6String14into_boxed_str17hb43dde57f0174c5fE, symObjAddr: 0x39FE8, symBinAddr: 0x3C534, symSize: 0x2C }
  - { offset: 0x1C1662, size: 0x8, addend: 0x0, symName: _OUTLINED_FUNCTION_966, symObjAddr: 0x3EA20, symBinAddr: 0x40F60, symSize: 0xC }
  - { offset: 0x1B41DC, size: 0x8, addend: 0x0, symName: __ZN10serde_json3ser9Formatter10end_object17h43fad3dfc428cda8E, symObjAddr: 0x39168, symBinAddr: 0x3B6D4, symSize: 0x14 }
  - { offset: 0x1B4217, size: 0x8, addend: 0x0, symName: __ZN10serde_json3ser9Formatter10end_object17h43fad3dfc428cda8E, symObjAddr: 0x39168, symBinAddr: 0x3B6D4, symSize: 0x14 }
  - { offset: 0x1B4235, size: 0x8, addend: 0x0, symName: __ZN10serde_json3ser9Formatter10end_object17h43fad3dfc428cda8E, symObjAddr: 0x39168, symBinAddr: 0x3B6D4, symSize: 0x14 }
  - { offset: 0x1B4252, size: 0x8, addend: 0x0, symName: __ZN10serde_json3ser9Formatter10end_object17h43fad3dfc428cda8E, symObjAddr: 0x39168, symBinAddr: 0x3B6D4, symSize: 0x14 }
  - { offset: 0x1B426B, size: 0x8, addend: 0x0, symName: __ZN10serde_json3ser9Formatter10end_object17h43fad3dfc428cda8E, symObjAddr: 0x39168, symBinAddr: 0x3B6D4, symSize: 0x14 }
  - { offset: 0x1B54ED, size: 0x8, addend: 0x0, symName: _OUTLINED_FUNCTION_598, symObjAddr: 0x3D5B0, symBinAddr: 0x3FAF0, symSize: 0xC }
  - { offset: 0x1C3DE5, size: 0x8, addend: 0x0, symName: __ZN12sqlite3_capi4capi8bind_int17h41b586da82edc507E, symObjAddr: 0x3A174, symBinAddr: 0x3C6B4, symSize: 0x20 }
  - { offset: 0x1C9B30, size: 0x8, addend: 0x0, symName: __MergedGlobals, symObjAddr: 0x61C958, symBinAddr: 0x56148, symSize: 0x0 }
  - { offset: 0x1C9CC2, size: 0x8, addend: 0x0, symName: __ZN12sqlite3_capi4capi8bind_int17h41b586da82edc507E, symObjAddr: 0x3A174, symBinAddr: 0x3C6B4, symSize: 0x20 }
  - { offset: 0x1C9D24, size: 0x8, addend: 0x0, symName: __ZN12sqlite3_capi4capi10bind_int6417h218de3226268e860E, symObjAddr: 0x3A194, symBinAddr: 0x3C6D4, symSize: 0x20 }
  - { offset: 0x1C9D86, size: 0x8, addend: 0x0, symName: __ZN12sqlite3_capi4capi9bind_null17hbb43292a8622b0d4E, symObjAddr: 0x3A1B4, symBinAddr: 0x3C6F4, symSize: 0x20 }
  - { offset: 0x1C9DD9, size: 0x8, addend: 0x0, symName: __ZN12sqlite3_capi4capi9bind_text17h2c50ec976c1fed70E, symObjAddr: 0x3A1D4, symBinAddr: 0x3C714, symSize: 0x24 }
  - { offset: 0x1C9E5A, size: 0x8, addend: 0x0, symName: __ZN12sqlite3_capi4capi20bind_parameter_count17hf68b3cbc7088fa53E, symObjAddr: 0x3A1F8, symBinAddr: 0x3C738, symSize: 0x20 }
  - { offset: 0x1C9E9E, size: 0x8, addend: 0x0, symName: __ZN12sqlite3_capi4capi12column_bytes17hc03c1399c06d7b94E, symObjAddr: 0x3A218, symBinAddr: 0x3C758, symSize: 0x20 }
  - { offset: 0x1C9EF4, size: 0x8, addend: 0x0, symName: __ZN12sqlite3_capi4capi15column_text_ptr17h3a61a62af1d10f6bE, symObjAddr: 0x3A238, symBinAddr: 0x3C778, symSize: 0x20 }
  - { offset: 0x1C9F4A, size: 0x8, addend: 0x0, symName: __ZN12sqlite3_capi4capi10column_int17h0cc4a59c09dfeec3E, symObjAddr: 0x3A258, symBinAddr: 0x3C798, symSize: 0x20 }
  - { offset: 0x1C9FA0, size: 0x8, addend: 0x0, symName: __ZN12sqlite3_capi4capi12column_int6417h351211a50307d0deE, symObjAddr: 0x3A278, symBinAddr: 0x3C7B8, symSize: 0x20 }
  - { offset: 0x1C9FF5, size: 0x8, addend: 0x0, symName: __ZN12sqlite3_capi4capi17context_db_handle17hc23859f0f1f35694E, symObjAddr: 0x3A298, symBinAddr: 0x3C7D8, symSize: 0x20 }
  - { offset: 0x1CA03B, size: 0x8, addend: 0x0, symName: __ZN12sqlite3_capi4capi16create_module_v217h6b92e3953f02567dE, symObjAddr: 0x3A2B8, symBinAddr: 0x3C7F8, symSize: 0x28 }
  - { offset: 0x1CA0BE, size: 0x8, addend: 0x0, symName: __ZN12sqlite3_capi4capi4exec17h76a9bc3d37ec145bE, symObjAddr: 0x3A2E0, symBinAddr: 0x3C820, symSize: 0x2C }
  - { offset: 0x1CA114, size: 0x8, addend: 0x0, symName: __ZN12sqlite3_capi4capi10prepare_v217hddb1a6c8458fc316E, symObjAddr: 0x3A30C, symBinAddr: 0x3C84C, symSize: 0x20 }
  - { offset: 0x1CA19A, size: 0x8, addend: 0x0, symName: __ZN12sqlite3_capi4capi11result_null17h151c486dad5f1473E, symObjAddr: 0x3A32C, symBinAddr: 0x3C86C, symSize: 0x20 }
  - { offset: 0x1CA1DC, size: 0x8, addend: 0x0, symName: __ZN12sqlite3_capi4capi12result_error17h4d484d8522999eb2E, symObjAddr: 0x3A34C, symBinAddr: 0x3C88C, symSize: 0x20 }
  - { offset: 0x1CA23E, size: 0x8, addend: 0x0, symName: __ZN12sqlite3_capi4capi17result_error_code17hec4cb7483aec205cE, symObjAddr: 0x3A36C, symBinAddr: 0x3C8AC, symSize: 0x20 }
  - { offset: 0x1CA290, size: 0x8, addend: 0x0, symName: __ZN12sqlite3_capi4capi11result_text17h301a156ef6bdb927E, symObjAddr: 0x3A38C, symBinAddr: 0x3C8CC, symSize: 0x24 }
  - { offset: 0x1CA303, size: 0x8, addend: 0x0, symName: __ZN12sqlite3_capi4capi14result_subtype17hd329fc564fa51029E, symObjAddr: 0x3A3B0, symBinAddr: 0x3C8F0, symSize: 0x20 }
  - { offset: 0x1CA354, size: 0x8, addend: 0x0, symName: __ZN12sqlite3_capi4capi10value_text17h9f01ea8791bf2246E, symObjAddr: 0x3A3D0, symBinAddr: 0x3C910, symSize: 0x40 }
  - { offset: 0x1CA3CE, size: 0x8, addend: 0x0, symName: __ZN12sqlite3_capi4capi11value_bytes17he9425871cbe88d30E, symObjAddr: 0x3A410, symBinAddr: 0x3C950, symSize: 0x20 }
  - { offset: 0x1CA414, size: 0x8, addend: 0x0, symName: __ZN12sqlite3_capi4capi10value_type17he07d47c655856c19E, symObjAddr: 0x3A430, symBinAddr: 0x3C970, symSize: 0x20 }
  - { offset: 0x125BC1, size: 0x8, addend: 0x0, symName: '__ZN66_$LT$alloc..borrow..Cow$LT$B$GT$$u20$as$u20$core..fmt..Display$GT$3fmt17h1628b00cd7d58793E', symObjAddr: 0x24F88, symBinAddr: 0x27E5C, symSize: 0x20 }
  - { offset: 0x125C45, size: 0x8, addend: 0x0, symName: '__ZN66_$LT$alloc..borrow..Cow$LT$B$GT$$u20$as$u20$core..clone..Clone$GT$5clone17hb600a1ff2e858a1cE', symObjAddr: 0x24FB0, symBinAddr: 0x27E84, symSize: 0x24 }
  - { offset: 0x127127, size: 0x8, addend: 0x0, symName: '__ZN4core3ptr99drop_in_place$LT$powersync_core..sync..storage_adapter..StorageAdapter..sync_local..PartialArgs$GT$17ha5cf2ef8b05dd933E', symObjAddr: 0x25EAC, symBinAddr: 0x28D4C, symSize: 0xC }
  - { offset: 0x12714D, size: 0x8, addend: 0x0, symName: '__ZN4core3ptr99drop_in_place$LT$powersync_core..sync..storage_adapter..StorageAdapter..sync_local..PartialArgs$GT$17ha5cf2ef8b05dd933E', symObjAddr: 0x25EAC, symBinAddr: 0x28D4C, symSize: 0xC }
  - { offset: 0x127162, size: 0x8, addend: 0x0, symName: '__ZN4core3ptr99drop_in_place$LT$powersync_core..sync..storage_adapter..StorageAdapter..sync_local..PartialArgs$GT$17ha5cf2ef8b05dd933E', symObjAddr: 0x25EAC, symBinAddr: 0x28D4C, symSize: 0xC }
  - { offset: 0x127177, size: 0x8, addend: 0x0, symName: '__ZN4core3ptr99drop_in_place$LT$powersync_core..sync..storage_adapter..StorageAdapter..sync_local..PartialArgs$GT$17ha5cf2ef8b05dd933E', symObjAddr: 0x25EAC, symBinAddr: 0x28D4C, symSize: 0xC }
  - { offset: 0x1276D3, size: 0x8, addend: 0x0, symName: '__ZN44_$LT$$RF$T$u20$as$u20$core..fmt..Display$GT$3fmt17h4bae08f9c1de7f74E', symObjAddr: 0x24F80, symBinAddr: 0x27E54, symSize: 0x8 }
  - { offset: 0x12771A, size: 0x8, addend: 0x0, symName: '__ZN44_$LT$$RF$T$u20$as$u20$core..fmt..Display$GT$3fmt17ha71c038fd1f9533bE', symObjAddr: 0x24FA8, symBinAddr: 0x27E7C, symSize: 0x8 }
  - { offset: 0x12B7C1, size: 0x8, addend: 0x0, symName: '__ZN95_$LT$$BP$mut$u20$sqlite3_capi..bindings..sqlite3$u20$as$u20$sqlite_nostd..nostd..Connection$GT$10prepare_v217h7b4dbd632987a7deE.2011', symObjAddr: 0x250A0, symBinAddr: 0x27F40, symSize: 0x550 }
  - { offset: 0x12B89E, size: 0x8, addend: 0x0, symName: '__ZN95_$LT$$BP$mut$u20$sqlite3_capi..bindings..sqlite3$u20$as$u20$sqlite_nostd..nostd..Connection$GT$9exec_safe17hb792261992f576abE.2030', symObjAddr: 0x25E44, symBinAddr: 0x28CE4, symSize: 0x54 }
  - { offset: 0x12C1DD, size: 0x8, addend: 0x0, symName: '__ZN94_$LT$powersync_core..sync..storage_adapter..CheckpointResult$u20$as$u20$core..fmt..Display$GT$3fmt17h22a5e6e107033780E', symObjAddr: 0x26264, symBinAddr: 0x29104, symSize: 0x174 }
  - { offset: 0x12C6F8, size: 0x8, addend: 0x0, symName: '__ZN147_$LT$powersync_core..sync..checkpoint..OwnedBucketChecksum$u20$as$u20$core..convert..From$LT$$RF$powersync_core..sync..line..BucketChecksum$GT$$GT$4from17hca547a5ec501c69fE', symObjAddr: 0x25604, symBinAddr: 0x284A4, symSize: 0x7C }
  - { offset: 0x12D224, size: 0x8, addend: 0x0, symName: '__ZN101_$LT$$BP$mut$u20$sqlite3_capi..bindings..sqlite3$u20$as$u20$powersync_core..ext..ExtendedDatabase$GT$9exec_text17hcfe3e6c6b6b98f28E', symObjAddr: 0x25008, symBinAddr: 0x27EA8, symSize: 0x98 }
  - { offset: 0x12D4E4, size: 0x8, addend: 0x0, symName: __ZN14powersync_core4uuid7uuid_v417h368f41e002136c97E, symObjAddr: 0x263DC, symBinAddr: 0x2927C, symSize: 0x1DC }
  - { offset: 0x12EC19, size: 0x8, addend: 0x0, symName: '__ZN89_$LT$serde..de..value..private..UnitOnly$LT$E$GT$$u20$as$u20$serde..de..VariantAccess$GT$20newtype_variant_seed17haa6ff86c1f9f7497E', symObjAddr: 0x24FD4, symBinAddr: 0x42CDC, symSize: 0x34 }
  - { offset: 0x12ED27, size: 0x8, addend: 0x0, symName: __ZN12sqlite_nostd5nostd11ManagedStmt9bind_text17h1b8dc41a215926baE.2012, symObjAddr: 0x255F0, symBinAddr: 0x28490, symSize: 0x14 }
  - { offset: 0x12EE9C, size: 0x8, addend: 0x0, symName: '__ZN5alloc3vec16Vec$LT$T$C$A$GT$4push17h9a48ca540b13ef7cE', symObjAddr: 0x25680, symBinAddr: 0x28520, symSize: 0x28 }
  - { offset: 0x12EF0A, size: 0x8, addend: 0x0, symName: __ZN14powersync_core4sync15storage_adapter14StorageAdapter3new17h076d10c0591d80c0E, symObjAddr: 0x256A8, symBinAddr: 0x28548, symSize: 0x110 }
  - { offset: 0x12F02D, size: 0x8, addend: 0x0, symName: __ZN12sqlite_nostd5nostd11ManagedStmt11column_text17h16c7a47e500c1c6bE.2017, symObjAddr: 0x257B8, symBinAddr: 0x28658, symSize: 0x34 }
  - { offset: 0x12F4EA, size: 0x8, addend: 0x0, symName: __ZN14powersync_core4sync15storage_adapter14StorageAdapter18offline_sync_state17hb01a07045b3d6719E, symObjAddr: 0x257EC, symBinAddr: 0x2868C, symSize: 0x254 }
  - { offset: 0x12FA3B, size: 0x8, addend: 0x0, symName: __ZN14powersync_core4sync15storage_adapter14StorageAdapter24read_stream_subscription17h800c1689c2992d03E, symObjAddr: 0x25A40, symBinAddr: 0x288E0, symSize: 0x3C0 }
  - { offset: 0x13031A, size: 0x8, addend: 0x0, symName: __ZN12sqlite_nostd5nostd11ManagedStmt11column_type17h071ea38be367753eE, symObjAddr: 0x25E00, symBinAddr: 0x28CA0, symSize: 0x44 }
  - { offset: 0x1303C7, size: 0x8, addend: 0x0, symName: __ZN12sqlite_nostd5nostd11ManagedStmt10bind_int6417hb8bc9a3999c6ff53E.2035, symObjAddr: 0x25E98, symBinAddr: 0x28D38, symSize: 0x14 }
  - { offset: 0x1306E1, size: 0x8, addend: 0x0, symName: __ZN14powersync_core4sync15storage_adapter14StorageAdapter29collect_subscription_requests17he20f3b95399488beE, symObjAddr: 0x25EB8, symBinAddr: 0x28D58, symSize: 0x244 }
  - { offset: 0x130BC6, size: 0x8, addend: 0x0, symName: __ZN14powersync_core4sync15storage_adapter14StorageAdapter3now17h915c526b0299b1f1E, symObjAddr: 0x260FC, symBinAddr: 0x28F9C, symSize: 0x50 }
  - { offset: 0x130CA3, size: 0x8, addend: 0x0, symName: __ZN14powersync_core4sync15storage_adapter14StorageAdapter12increase_ttl17hba4bbfec4b735653E, symObjAddr: 0x2614C, symBinAddr: 0x28FEC, symSize: 0xF0 }
  - { offset: 0x130E89, size: 0x8, addend: 0x0, symName: __ZN12sqlite_nostd5nostd11ManagedStmt8bind_int17h218feee9d3504c64E.2037, symObjAddr: 0x2623C, symBinAddr: 0x290DC, symSize: 0x14 }
  - { offset: 0x130EC9, size: 0x8, addend: 0x0, symName: __ZN12sqlite_nostd5nostd11ManagedStmt9bind_null17h31f1c33acffdb53dE.2038, symObjAddr: 0x26250, symBinAddr: 0x290F0, symSize: 0x14 }
  - { offset: 0x1311B0, size: 0x8, addend: 0x0, symName: __ZN4core3fmt9Formatter9write_fmt17h1d854119291a54b3E.2039, symObjAddr: 0x263D8, symBinAddr: 0x29278, symSize: 0x4 }
  - { offset: 0x1323BC, size: 0x8, addend: 0x0, symName: _OUTLINED_FUNCTION_266, symObjAddr: 0x3C374, symBinAddr: 0x3E8B4, symSize: 0x8 }
  - { offset: 0x1323D3, size: 0x8, addend: 0x0, symName: _OUTLINED_FUNCTION_382, symObjAddr: 0x3C9D0, symBinAddr: 0x3EF10, symSize: 0x8 }
  - { offset: 0x1323EA, size: 0x8, addend: 0x0, symName: _OUTLINED_FUNCTION_759, symObjAddr: 0x3DF04, symBinAddr: 0x40444, symSize: 0x8 }
  - { offset: 0x132401, size: 0x8, addend: 0x0, symName: _OUTLINED_FUNCTION_769, symObjAddr: 0x3DF84, symBinAddr: 0x404C4, symSize: 0x8 }
  - { offset: 0x132418, size: 0x8, addend: 0x0, symName: _OUTLINED_FUNCTION_791, symObjAddr: 0x3E07C, symBinAddr: 0x405BC, symSize: 0x8 }
  - { offset: 0x13242F, size: 0x8, addend: 0x0, symName: _OUTLINED_FUNCTION_821, symObjAddr: 0x3E1FC, symBinAddr: 0x4073C, symSize: 0x8 }
  - { offset: 0x132446, size: 0x8, addend: 0x0, symName: _OUTLINED_FUNCTION_918, symObjAddr: 0x3E7EC, symBinAddr: 0x40D2C, symSize: 0xC }
  - { offset: 0x13245D, size: 0x8, addend: 0x0, symName: _OUTLINED_FUNCTION_990, symObjAddr: 0x3EB14, symBinAddr: 0x41054, symSize: 0x8 }
  - { offset: 0x132474, size: 0x8, addend: 0x0, symName: _OUTLINED_FUNCTION_1049, symObjAddr: 0x3ED54, symBinAddr: 0x41294, symSize: 0x8 }
  - { offset: 0x13248B, size: 0x8, addend: 0x0, symName: _OUTLINED_FUNCTION_1095, symObjAddr: 0x3EF08, symBinAddr: 0x41448, symSize: 0x8 }
  - { offset: 0x1324A2, size: 0x8, addend: 0x0, symName: _OUTLINED_FUNCTION_1136, symObjAddr: 0x3F16C, symBinAddr: 0x416AC, symSize: 0xC }
  - { offset: 0x1324B9, size: 0x8, addend: 0x0, symName: _OUTLINED_FUNCTION_1188, symObjAddr: 0x3F464, symBinAddr: 0x419A4, symSize: 0xC }
  - { offset: 0xDE486, size: 0x8, addend: 0x0, symName: '__ZN45_$LT$T$u20$as$u20$alloc..string..ToString$GT$9to_string17h85f7cb809adbc350E', symObjAddr: 0x1A390, symBinAddr: 0x1D850, symSize: 0x5C }
  - { offset: 0xDE578, size: 0x8, addend: 0x0, symName: '__ZN58_$LT$alloc..string..String$u20$as$u20$core..fmt..Write$GT$10write_char17h0d136672011f763fE.1222', symObjAddr: 0x1A524, symBinAddr: 0x1D9E4, symSize: 0x68 }
  - { offset: 0xDEF90, size: 0x8, addend: 0x0, symName: '__ZN63_$LT$alloc..alloc..Global$u20$as$u20$core..alloc..Allocator$GT$8allocate17h69aae233b6820a24E.1180', symObjAddr: 0x18EAC, symBinAddr: 0x1C36C, symSize: 0x4 }
  - { offset: 0xDEFE3, size: 0x8, addend: 0x0, symName: __ZN5alloc5alloc15exchange_malloc17h8bc033b4f6887839E.1203, symObjAddr: 0x18ED0, symBinAddr: 0x1C390, symSize: 0x1C }
  - { offset: 0xDFDBE, size: 0x8, addend: 0x0, symName: '__ZN5alloc5boxed16Box$LT$T$C$A$GT$13new_uninit_in17h1ca3baa816582a23E', symObjAddr: 0x18EB0, symBinAddr: 0x1C370, symSize: 0x20 }
  - { offset: 0xDFFCA, size: 0x8, addend: 0x0, symName: '__ZN69_$LT$alloc..boxed..Box$LT$T$C$A$GT$$u20$as$u20$core..fmt..Display$GT$3fmt17h045bab3fbee82fc0E', symObjAddr: 0x18F48, symBinAddr: 0x1C408, symSize: 0x210 }
  - { offset: 0xE2BF5, size: 0x8, addend: 0x0, symName: '__ZN4core3ptr65drop_in_place$LT$powersync_core..checkpoint..CheckpointResult$GT$17h3d247599e427a027E', symObjAddr: 0x1970C, symBinAddr: 0x1CBCC, symSize: 0x20 }
  - { offset: 0xE2C78, size: 0x8, addend: 0x0, symName: '__ZN4core3ptr97drop_in_place$LT$alloc..vec..Vec$LT$powersync_core..sync..checkpoint..OwnedBucketChecksum$GT$$GT$17h98246ff5a570474bE', symObjAddr: 0x1972C, symBinAddr: 0x1CBEC, symSize: 0x54 }
  - { offset: 0xE2DF5, size: 0x8, addend: 0x0, symName: '__ZN4core3ptr59drop_in_place$LT$powersync_core..sync..line..Checkpoint$GT$17h8eb2e58c2e536c72E.1209', symObjAddr: 0x19780, symBinAddr: 0x1CC40, symSize: 0x40 }
  - { offset: 0xE3020, size: 0x8, addend: 0x0, symName: '__ZN4core3ptr58drop_in_place$LT$powersync_core..error..PowerSyncError$GT$17h13b64e1f68ee6928E', symObjAddr: 0x1A3EC, symBinAddr: 0x1D8AC, symSize: 0x64 }
  - { offset: 0xE32A1, size: 0x8, addend: 0x0, symName: '__ZN4core3ptr63drop_in_place$LT$powersync_core..error..PowerSyncErrorCause$GT$17hcedd51e9f783dca8E', symObjAddr: 0x1A4C0, symBinAddr: 0x1D980, symSize: 0x64 }
  - { offset: 0xE3603, size: 0x8, addend: 0x0, symName: '__ZN4core3ptr74drop_in_place$LT$powersync_core..sync..sync_status..DownloadSyncStatus$GT$17h7df2992e7c1dc68dE', symObjAddr: 0x1C884, symBinAddr: 0x1FD44, symSize: 0x48 }
  - { offset: 0xE36F8, size: 0x8, addend: 0x0, symName: '__ZN4core3ptr81drop_in_place$LT$alloc..sync..Arc$LT$powersync_core..state..DatabaseState$GT$$GT$17h15f156d794eda578E', symObjAddr: 0x1C8CC, symBinAddr: 0x1FD8C, symSize: 0x28 }
  - { offset: 0xE3723, size: 0x8, addend: 0x0, symName: '__ZN4core3ptr81drop_in_place$LT$alloc..sync..Arc$LT$powersync_core..state..DatabaseState$GT$$GT$17h15f156d794eda578E', symObjAddr: 0x1C8CC, symBinAddr: 0x1FD8C, symSize: 0x28 }
  - { offset: 0xE3741, size: 0x8, addend: 0x0, symName: '__ZN4core3ptr81drop_in_place$LT$alloc..sync..Arc$LT$powersync_core..state..DatabaseState$GT$$GT$17h15f156d794eda578E', symObjAddr: 0x1C8CC, symBinAddr: 0x1FD8C, symSize: 0x28 }
  - { offset: 0xE375D, size: 0x8, addend: 0x0, symName: '__ZN4core3ptr81drop_in_place$LT$alloc..sync..Arc$LT$powersync_core..state..DatabaseState$GT$$GT$17h15f156d794eda578E', symObjAddr: 0x1C8CC, symBinAddr: 0x1FD8C, symSize: 0x28 }
  - { offset: 0xE380E, size: 0x8, addend: 0x0, symName: '__ZN4core3ptr88drop_in_place$LT$alloc..vec..Vec$LT$powersync_core..sync..interface..Instruction$GT$$GT$17h21e9a394ddf43486E', symObjAddr: 0x1C914, symBinAddr: 0x1FDD4, symSize: 0x24 }
  - { offset: 0xE3E2D, size: 0x8, addend: 0x0, symName: '__ZN44_$LT$$RF$T$u20$as$u20$core..fmt..Display$GT$3fmt17hdc70d6509f51982eE', symObjAddr: 0x18B78, symBinAddr: 0x1C038, symSize: 0xC }
  - { offset: 0xE80B7, size: 0x8, addend: 0x0, symName: __ZN4core3ops8function6FnOnce9call_once17h373ee9af1c7b910bE, symObjAddr: 0x18EEC, symBinAddr: 0x1C3AC, symSize: 0x24 }
  - { offset: 0xE8821, size: 0x8, addend: 0x0, symName: __ZN14powersync_core15operations_vtab6MODULE17h412ae3746ce9bf31E, symObjAddr: 0x4D608, symBinAddr: 0x54F08, symSize: 0x0 }
  - { offset: 0xE8873, size: 0x8, addend: 0x0, symName: __ZN14powersync_core15operations_vtab7connect17h941d613617fe92f0E, symObjAddr: 0x198E0, symBinAddr: 0x1CDA0, symSize: 0x7C }
  - { offset: 0xE8A4C, size: 0x8, addend: 0x0, symName: __ZN14powersync_core15operations_vtab10disconnect17hd542aab5d2ae9138E, symObjAddr: 0x1995C, symBinAddr: 0x1CE1C, symSize: 0x18 }
  - { offset: 0xE8B5B, size: 0x8, addend: 0x0, symName: __ZN14powersync_core15operations_vtab6update17h16706ed46a59a299E, symObjAddr: 0x19984, symBinAddr: 0x1CE44, symSize: 0x9E4 }
  - { offset: 0xEA3B8, size: 0x8, addend: 0x0, symName: __ZN14powersync_core4sync9interface8register7control17h3089663e510c53d5E, symObjAddr: 0x1A58C, symBinAddr: 0x1DA4C, symSize: 0x215C }
  - { offset: 0xED90E, size: 0x8, addend: 0x0, symName: __ZN14powersync_core4sync9interface8register7destroy17h710a42beecae64d8E, symObjAddr: 0x1C6E8, symBinAddr: 0x1FBA8, symSize: 0x54 }
  - { offset: 0xEDF58, size: 0x8, addend: 0x0, symName: __ZN14powersync_core4sync9interface29powersync_offline_sync_status17he14a85c2bd59f083E, symObjAddr: 0x1C73C, symBinAddr: 0x1FBFC, symSize: 0x148 }
  - { offset: 0xEEBC2, size: 0x8, addend: 0x0, symName: '__ZN14powersync_core6schema1_83_$LT$impl$u20$serde..de..Deserialize$u20$for$u20$powersync_core..schema..Schema$GT$11deserialize17h556fd2d38129af7dE', symObjAddr: 0x1CEE4, symBinAddr: 0x203A4, symSize: 0x3EC }
  - { offset: 0xEF523, size: 0x8, addend: 0x0, symName: __ZN14powersync_core10checkpoint29powersync_validate_checkpoint17hf8533c0df3baea11E, symObjAddr: 0x19158, symBinAddr: 0x1C618, symSize: 0x510 }
  - { offset: 0xF08CA, size: 0x8, addend: 0x0, symName: __ZN14powersync_core9vtab_util12vtab_no_open17h64bd3f356acf4606E, symObjAddr: 0x19974, symBinAddr: 0x1CE34, symSize: 0x4 }
  - { offset: 0xF08E8, size: 0x8, addend: 0x0, symName: __ZN14powersync_core9vtab_util14vtab_no_filter17h1d34a90d94e878f9E, symObjAddr: 0x19978, symBinAddr: 0x1CE38, symSize: 0x4 }
  - { offset: 0xF0906, size: 0x8, addend: 0x0, symName: __ZN14powersync_core9vtab_util11vtab_no_eof17h132510cefb533d0cE, symObjAddr: 0x1997C, symBinAddr: 0x1CE3C, symSize: 0x4 }
  - { offset: 0xF0924, size: 0x8, addend: 0x0, symName: __ZN14powersync_core9vtab_util14vtab_no_column17h5183063c6c23a8bdE, symObjAddr: 0x19980, symBinAddr: 0x1CE40, symSize: 0x4 }
  - { offset: 0xF09EB, size: 0x8, addend: 0x0, symName: __ZN14powersync_core9vtab_util11vtab_result17hdeb995c55418c18cE, symObjAddr: 0x1A450, symBinAddr: 0x1D910, symSize: 0x70 }
  - { offset: 0xF0B71, size: 0x8, addend: 0x0, symName: __ZN14powersync_core12update_hooks22powersync_update_hooks17h4787188c90c86ea4E, symObjAddr: 0x1C938, symBinAddr: 0x1FDF8, symSize: 0x278 }
  - { offset: 0xF1448, size: 0x8, addend: 0x0, symName: __ZN14powersync_core12update_hooks16destroy_function17h50c304ff38edc7d6E, symObjAddr: 0x1CBB0, symBinAddr: 0x20070, symSize: 0x6C }
  - { offset: 0xF15B9, size: 0x8, addend: 0x0, symName: __ZN14powersync_core12update_hooks14check_previous17h7e777f591757f542E, symObjAddr: 0x1CC1C, symBinAddr: 0x200DC, symSize: 0x48 }
  - { offset: 0xF179E, size: 0x8, addend: 0x0, symName: __ZN14powersync_core12update_hooks16update_hook_impl17h5343236893e2dc29E, symObjAddr: 0x1CC64, symBinAddr: 0x20124, symSize: 0xE8 }
  - { offset: 0xF1B7A, size: 0x8, addend: 0x0, symName: __ZN14powersync_core12update_hooks16commit_hook_impl17h65b74996621f8e08E, symObjAddr: 0x1CD4C, symBinAddr: 0x2020C, symSize: 0x154 }
  - { offset: 0xF20A8, size: 0x8, addend: 0x0, symName: __ZN14powersync_core12update_hooks18rollback_hook_impl17h5561a140fa409500E, symObjAddr: 0x1CEA0, symBinAddr: 0x20360, symSize: 0x44 }
  - { offset: 0xF2911, size: 0x8, addend: 0x0, symName: '__ZN100_$LT$$BP$mut$u20$sqlite3_capi..bindings..sqlite3_context$u20$as$u20$sqlite_nostd..nostd..Context$GT$9user_data17h9aa378fe9634a40dE', symObjAddr: 0x1C8F4, symBinAddr: 0x1FDB4, symSize: 0x20 }
  - { offset: 0xF293F, size: 0x8, addend: 0x0, symName: '__ZN100_$LT$$BP$mut$u20$sqlite3_capi..bindings..sqlite3_context$u20$as$u20$sqlite_nostd..nostd..Context$GT$9user_data17h9aa378fe9634a40dE', symObjAddr: 0x1C8F4, symBinAddr: 0x1FDB4, symSize: 0x20 }
  - { offset: 0xF29E1, size: 0x8, addend: 0x0, symName: '__ZN96_$LT$$BP$mut$u20$sqlite3_capi..bindings..sqlite3_value$u20$as$u20$sqlite_nostd..nostd..Value$GT$10value_type17hb8dc9c084f2253bdE', symObjAddr: 0x1A368, symBinAddr: 0x1D828, symSize: 0x28 }
  - { offset: 0xF2CE8, size: 0x8, addend: 0x0, symName: '__ZN86_$LT$serde_json..ser..Compound$LT$W$C$F$GT$$u20$as$u20$serde..ser..SerializeStruct$GT$15serialize_field17h15b913b9736d4d8cE.1212', symObjAddr: 0x1981C, symBinAddr: 0x1CCDC, symSize: 0x40 }
  - { offset: 0xF2DD1, size: 0x8, addend: 0x0, symName: '__ZN86_$LT$serde_json..ser..Compound$LT$W$C$F$GT$$u20$as$u20$serde..ser..SerializeStruct$GT$3end17h967f4a37ae9ecc61E.1213', symObjAddr: 0x1985C, symBinAddr: 0x1CD1C, symSize: 0x20 }
  - { offset: 0xF31FE, size: 0x8, addend: 0x0, symName: '__ZN86_$LT$serde_json..ser..Compound$LT$W$C$F$GT$$u20$as$u20$serde..ser..SerializeStruct$GT$15serialize_field17h8a81ab6c0a82d56eE', symObjAddr: 0x1D37C, symBinAddr: 0x2083C, symSize: 0x60 }
  - { offset: 0xF32D3, size: 0x8, addend: 0x0, symName: '__ZN95_$LT$$RF$mut$u20$serde_json..ser..Serializer$LT$W$C$F$GT$$u20$as$u20$serde..ser..Serializer$GT$16serialize_struct17hb90045e82c335b4fE.1211', symObjAddr: 0x197C0, symBinAddr: 0x1CC80, symSize: 0x5C }
  - { offset: 0xF3371, size: 0x8, addend: 0x0, symName: '__ZN95_$LT$$RF$mut$u20$serde_json..ser..Serializer$LT$W$C$F$GT$$u20$as$u20$serde..ser..Serializer$GT$13serialize_map17h9f1933b19a5b763cE.1216', symObjAddr: 0x1988C, symBinAddr: 0x1CD4C, symSize: 0x48 }
  - { offset: 0xF3582, size: 0x8, addend: 0x0, symName: '__ZN95_$LT$$RF$mut$u20$serde_json..ser..Serializer$LT$W$C$F$GT$$u20$as$u20$serde..ser..Serializer$GT$24serialize_struct_variant17h3613085116f5105fE', symObjAddr: 0x1D2D0, symBinAddr: 0x20790, symSize: 0x64 }
  - { offset: 0xF369B, size: 0x8, addend: 0x0, symName: __ZN10serde_json3ser9Formatter10end_object17h6cf3b080481494bfE.1214, symObjAddr: 0x1987C, symBinAddr: 0x1CD3C, symSize: 0xC }
  - { offset: 0xF36E6, size: 0x8, addend: 0x0, symName: __ZN10serde_json3ser9Formatter12begin_object17he2108257bbb91ccaE, symObjAddr: 0x198D4, symBinAddr: 0x1CD94, symSize: 0xC }
  - { offset: 0xF3731, size: 0x8, addend: 0x0, symName: __ZN10serde_json3ser9Formatter18begin_object_value17h914096b4e9c7377aE, symObjAddr: 0x1D334, symBinAddr: 0x207F4, symSize: 0xC }
  - { offset: 0xF3A19, size: 0x8, addend: 0x0, symName: '__ZN93_$LT$serde_json..ser..Compound$LT$W$C$F$GT$$u20$as$u20$serde..ser..SerializeStructVariant$GT$3end17h93faf5e751c45943E', symObjAddr: 0x1D340, symBinAddr: 0x20800, symSize: 0x3C }
  - { offset: 0xF412F, size: 0x8, addend: 0x0, symName: '__ZN60_$LT$$RF$mut$u20$W$u20$as$u20$serde_json..io..imp..Write$GT$9write_all17h54bc7eeb7b96354bE.1215', symObjAddr: 0x19888, symBinAddr: 0x1CD48, symSize: 0x4 }
  - { offset: 0xF4B8E, size: 0x8, addend: 0x0, symName: '__ZN41_$LT$T$u20$as$u20$serde..de..Expected$GT$3fmt17h6b96c8d069c0a864E', symObjAddr: 0x18B48, symBinAddr: 0x1C008, symSize: 0x18 }
  - { offset: 0xF4C07, size: 0x8, addend: 0x0, symName: '__ZN41_$LT$T$u20$as$u20$serde..de..Expected$GT$3fmt17he88f4563bd1b30c3E', symObjAddr: 0x18B60, symBinAddr: 0x1C020, symSize: 0x18 }
  - { offset: 0xF4FA9, size: 0x8, addend: 0x0, symName: '__ZN5alloc11collections5btree3map5entry28VacantEntry$LT$K$C$V$C$A$GT$12insert_entry17hc2db25408f909c96E', symObjAddr: 0x18B84, symBinAddr: 0x1C044, symSize: 0x328 }
  - { offset: 0xF58BE, size: 0x8, addend: 0x0, symName: '__ZN4core6result19Result$LT$T$C$E$GT$3map17h7d63626bfee8b8b9E', symObjAddr: 0x18F10, symBinAddr: 0x1C3D0, symSize: 0x38 }
  - { offset: 0xF5F24, size: 0x8, addend: 0x0, symName: '__ZN5alloc7raw_vec20RawVecInner$LT$A$GT$16with_capacity_in17h8242ac48d042eef7E.1207', symObjAddr: 0x19668, symBinAddr: 0x1CB28, symSize: 0x30 }
  - { offset: 0xF5FCD, size: 0x8, addend: 0x0, symName: '__ZN5alloc3vec12Vec$LT$T$GT$13with_capacity17h9d0ce85f7f393cecE', symObjAddr: 0x19698, symBinAddr: 0x1CB58, symSize: 0x30 }
  - { offset: 0xF6033, size: 0x8, addend: 0x0, symName: '__ZN4core6result19Result$LT$T$C$E$GT$7map_err17ha81833ad605e3dd7E', symObjAddr: 0x196C8, symBinAddr: 0x1CB88, symSize: 0x44 }
  - { offset: 0xF7229, size: 0x8, addend: 0x0, symName: _OUTLINED_FUNCTION_23, symObjAddr: 0x3B208, symBinAddr: 0x3D748, symSize: 0x14 }
  - { offset: 0xF7240, size: 0x8, addend: 0x0, symName: _OUTLINED_FUNCTION_107, symObjAddr: 0x3B8E0, symBinAddr: 0x3DE20, symSize: 0x14 }
  - { offset: 0xF7257, size: 0x8, addend: 0x0, symName: _OUTLINED_FUNCTION_144, symObjAddr: 0x3BBF4, symBinAddr: 0x3E134, symSize: 0x10 }
  - { offset: 0xF726E, size: 0x8, addend: 0x0, symName: _OUTLINED_FUNCTION_175, symObjAddr: 0x3BE00, symBinAddr: 0x3E340, symSize: 0x10 }
  - { offset: 0xF7285, size: 0x8, addend: 0x0, symName: _OUTLINED_FUNCTION_177, symObjAddr: 0x3BE20, symBinAddr: 0x3E360, symSize: 0x10 }
  - { offset: 0xF729C, size: 0x8, addend: 0x0, symName: _OUTLINED_FUNCTION_185, symObjAddr: 0x3BED0, symBinAddr: 0x3E410, symSize: 0x20 }
  - { offset: 0xF72B3, size: 0x8, addend: 0x0, symName: _OUTLINED_FUNCTION_200, symObjAddr: 0x3BFAC, symBinAddr: 0x3E4EC, symSize: 0xC }
  - { offset: 0xF72CA, size: 0x8, addend: 0x0, symName: _OUTLINED_FUNCTION_273, symObjAddr: 0x3C3D0, symBinAddr: 0x3E910, symSize: 0x14 }
  - { offset: 0xF72E1, size: 0x8, addend: 0x0, symName: _OUTLINED_FUNCTION_276, symObjAddr: 0x3C404, symBinAddr: 0x3E944, symSize: 0x14 }
  - { offset: 0xF72F8, size: 0x8, addend: 0x0, symName: _OUTLINED_FUNCTION_277, symObjAddr: 0x3C418, symBinAddr: 0x3E958, symSize: 0x14 }
  - { offset: 0xF730F, size: 0x8, addend: 0x0, symName: _OUTLINED_FUNCTION_296, symObjAddr: 0x3C524, symBinAddr: 0x3EA64, symSize: 0x8 }
  - { offset: 0xF7326, size: 0x8, addend: 0x0, symName: _OUTLINED_FUNCTION_333, symObjAddr: 0x3C700, symBinAddr: 0x3EC40, symSize: 0x10 }
  - { offset: 0xF733D, size: 0x8, addend: 0x0, symName: _OUTLINED_FUNCTION_374, symObjAddr: 0x3C944, symBinAddr: 0x3EE84, symSize: 0x10 }
  - { offset: 0xF7354, size: 0x8, addend: 0x0, symName: _OUTLINED_FUNCTION_405, symObjAddr: 0x3CB24, symBinAddr: 0x3F064, symSize: 0x24 }
  - { offset: 0xF736B, size: 0x8, addend: 0x0, symName: _OUTLINED_FUNCTION_424, symObjAddr: 0x3CC0C, symBinAddr: 0x3F14C, symSize: 0xC }
  - { offset: 0xF7382, size: 0x8, addend: 0x0, symName: _OUTLINED_FUNCTION_489, symObjAddr: 0x3CFB4, symBinAddr: 0x3F4F4, symSize: 0x2C }
  - { offset: 0xF7399, size: 0x8, addend: 0x0, symName: _OUTLINED_FUNCTION_510, symObjAddr: 0x3D0F0, symBinAddr: 0x3F630, symSize: 0xC }
  - { offset: 0xF73B0, size: 0x8, addend: 0x0, symName: _OUTLINED_FUNCTION_524, symObjAddr: 0x3D1C8, symBinAddr: 0x3F708, symSize: 0x14 }
  - { offset: 0xF73C7, size: 0x8, addend: 0x0, symName: _OUTLINED_FUNCTION_528, symObjAddr: 0x3D208, symBinAddr: 0x3F748, symSize: 0x28 }
  - { offset: 0xF73DE, size: 0x8, addend: 0x0, symName: _OUTLINED_FUNCTION_537, symObjAddr: 0x3D2B0, symBinAddr: 0x3F7F0, symSize: 0x8 }
  - { offset: 0xF73F5, size: 0x8, addend: 0x0, symName: _OUTLINED_FUNCTION_573, symObjAddr: 0x3D454, symBinAddr: 0x3F994, symSize: 0xC }
  - { offset: 0xF740C, size: 0x8, addend: 0x0, symName: _OUTLINED_FUNCTION_580, symObjAddr: 0x3D4B0, symBinAddr: 0x3F9F0, symSize: 0x10 }
  - { offset: 0xF7423, size: 0x8, addend: 0x0, symName: _OUTLINED_FUNCTION_600, symObjAddr: 0x3D5C8, symBinAddr: 0x3FB08, symSize: 0xC }
  - { offset: 0xF743A, size: 0x8, addend: 0x0, symName: _OUTLINED_FUNCTION_604, symObjAddr: 0x3D5F4, symBinAddr: 0x3FB34, symSize: 0x8 }
  - { offset: 0xF7451, size: 0x8, addend: 0x0, symName: _OUTLINED_FUNCTION_623, symObjAddr: 0x3D730, symBinAddr: 0x3FC70, symSize: 0xC }
  - { offset: 0xF7468, size: 0x8, addend: 0x0, symName: _OUTLINED_FUNCTION_624, symObjAddr: 0x3D73C, symBinAddr: 0x3FC7C, symSize: 0xC }
  - { offset: 0xF747F, size: 0x8, addend: 0x0, symName: _OUTLINED_FUNCTION_625, symObjAddr: 0x3D748, symBinAddr: 0x3FC88, symSize: 0x24 }
  - { offset: 0xF7496, size: 0x8, addend: 0x0, symName: _OUTLINED_FUNCTION_635, symObjAddr: 0x3D808, symBinAddr: 0x3FD48, symSize: 0xC }
  - { offset: 0xF74AD, size: 0x8, addend: 0x0, symName: _OUTLINED_FUNCTION_647, symObjAddr: 0x3D8B8, symBinAddr: 0x3FDF8, symSize: 0x8 }
  - { offset: 0xF74C4, size: 0x8, addend: 0x0, symName: _OUTLINED_FUNCTION_648, symObjAddr: 0x3D8C0, symBinAddr: 0x3FE00, symSize: 0x14 }
  - { offset: 0xF74DB, size: 0x8, addend: 0x0, symName: _OUTLINED_FUNCTION_653, symObjAddr: 0x3D90C, symBinAddr: 0x3FE4C, symSize: 0x14 }
  - { offset: 0xF74F2, size: 0x8, addend: 0x0, symName: _OUTLINED_FUNCTION_654, symObjAddr: 0x3D920, symBinAddr: 0x3FE60, symSize: 0x8 }
  - { offset: 0xF7509, size: 0x8, addend: 0x0, symName: _OUTLINED_FUNCTION_655, symObjAddr: 0x3D928, symBinAddr: 0x3FE68, symSize: 0x8 }
  - { offset: 0xF7520, size: 0x8, addend: 0x0, symName: _OUTLINED_FUNCTION_678, symObjAddr: 0x3DA78, symBinAddr: 0x3FFB8, symSize: 0xC }
  - { offset: 0xF7537, size: 0x8, addend: 0x0, symName: _OUTLINED_FUNCTION_680, symObjAddr: 0x3DAA4, symBinAddr: 0x3FFE4, symSize: 0xC }
  - { offset: 0xF754E, size: 0x8, addend: 0x0, symName: _OUTLINED_FUNCTION_681, symObjAddr: 0x3DAB0, symBinAddr: 0x3FFF0, symSize: 0xC }
  - { offset: 0xF7565, size: 0x8, addend: 0x0, symName: _OUTLINED_FUNCTION_689, symObjAddr: 0x3DB10, symBinAddr: 0x40050, symSize: 0x20 }
  - { offset: 0xF757C, size: 0x8, addend: 0x0, symName: _OUTLINED_FUNCTION_698, symObjAddr: 0x3DB90, symBinAddr: 0x400D0, symSize: 0xC }
  - { offset: 0xF7593, size: 0x8, addend: 0x0, symName: _OUTLINED_FUNCTION_716, symObjAddr: 0x3DCDC, symBinAddr: 0x4021C, symSize: 0xC }
  - { offset: 0xF75AA, size: 0x8, addend: 0x0, symName: _OUTLINED_FUNCTION_717, symObjAddr: 0x3DCE8, symBinAddr: 0x40228, symSize: 0xC }
  - { offset: 0xF75C1, size: 0x8, addend: 0x0, symName: _OUTLINED_FUNCTION_719, symObjAddr: 0x3DCFC, symBinAddr: 0x4023C, symSize: 0x8 }
  - { offset: 0xF75D8, size: 0x8, addend: 0x0, symName: _OUTLINED_FUNCTION_720, symObjAddr: 0x3DD04, symBinAddr: 0x40244, symSize: 0x8 }
  - { offset: 0xF75EF, size: 0x8, addend: 0x0, symName: _OUTLINED_FUNCTION_721, symObjAddr: 0x3DD0C, symBinAddr: 0x4024C, symSize: 0x8 }
  - { offset: 0xF7606, size: 0x8, addend: 0x0, symName: _OUTLINED_FUNCTION_734, symObjAddr: 0x3DD98, symBinAddr: 0x402D8, symSize: 0x8 }
  - { offset: 0xF761D, size: 0x8, addend: 0x0, symName: _OUTLINED_FUNCTION_746, symObjAddr: 0x3DE30, symBinAddr: 0x40370, symSize: 0x10 }
  - { offset: 0xF7634, size: 0x8, addend: 0x0, symName: _OUTLINED_FUNCTION_748, symObjAddr: 0x3DE4C, symBinAddr: 0x4038C, symSize: 0x1C }
  - { offset: 0xF764B, size: 0x8, addend: 0x0, symName: _OUTLINED_FUNCTION_751, symObjAddr: 0x3DE80, symBinAddr: 0x403C0, symSize: 0x18 }
  - { offset: 0xF7662, size: 0x8, addend: 0x0, symName: _OUTLINED_FUNCTION_755, symObjAddr: 0x3DEB4, symBinAddr: 0x403F4, symSize: 0x8 }
  - { offset: 0xF7679, size: 0x8, addend: 0x0, symName: _OUTLINED_FUNCTION_768, symObjAddr: 0x3DF78, symBinAddr: 0x404B8, symSize: 0xC }
  - { offset: 0xF7690, size: 0x8, addend: 0x0, symName: _OUTLINED_FUNCTION_804, symObjAddr: 0x3E11C, symBinAddr: 0x4065C, symSize: 0x8 }
  - { offset: 0xF76A7, size: 0x8, addend: 0x0, symName: _OUTLINED_FUNCTION_825, symObjAddr: 0x3E21C, symBinAddr: 0x4075C, symSize: 0x10 }
  - { offset: 0xF76BE, size: 0x8, addend: 0x0, symName: _OUTLINED_FUNCTION_836, symObjAddr: 0x3E2CC, symBinAddr: 0x4080C, symSize: 0x10 }
  - { offset: 0xF76D5, size: 0x8, addend: 0x0, symName: _OUTLINED_FUNCTION_837, symObjAddr: 0x3E2DC, symBinAddr: 0x4081C, symSize: 0x10 }
  - { offset: 0xF76EC, size: 0x8, addend: 0x0, symName: _OUTLINED_FUNCTION_843, symObjAddr: 0x3E33C, symBinAddr: 0x4087C, symSize: 0x10 }
  - { offset: 0xF7703, size: 0x8, addend: 0x0, symName: _OUTLINED_FUNCTION_852, symObjAddr: 0x3E3CC, symBinAddr: 0x4090C, symSize: 0x10 }
  - { offset: 0xF771A, size: 0x8, addend: 0x0, symName: _OUTLINED_FUNCTION_856, symObjAddr: 0x3E40C, symBinAddr: 0x4094C, symSize: 0x10 }
  - { offset: 0xF7731, size: 0x8, addend: 0x0, symName: _OUTLINED_FUNCTION_857, symObjAddr: 0x3E41C, symBinAddr: 0x4095C, symSize: 0x10 }
  - { offset: 0xF7748, size: 0x8, addend: 0x0, symName: _OUTLINED_FUNCTION_880, symObjAddr: 0x3E5AC, symBinAddr: 0x40AEC, symSize: 0xC }
  - { offset: 0xF775F, size: 0x8, addend: 0x0, symName: _OUTLINED_FUNCTION_885, symObjAddr: 0x3E5F4, symBinAddr: 0x40B34, symSize: 0xC }
  - { offset: 0xF7776, size: 0x8, addend: 0x0, symName: _OUTLINED_FUNCTION_889, symObjAddr: 0x3E630, symBinAddr: 0x40B70, symSize: 0xC }
  - { offset: 0xF778D, size: 0x8, addend: 0x0, symName: _OUTLINED_FUNCTION_952, symObjAddr: 0x3E98C, symBinAddr: 0x40ECC, symSize: 0x8 }
  - { offset: 0xF77A4, size: 0x8, addend: 0x0, symName: _OUTLINED_FUNCTION_959, symObjAddr: 0x3E9D8, symBinAddr: 0x40F18, symSize: 0x8 }
  - { offset: 0xF77BB, size: 0x8, addend: 0x0, symName: _OUTLINED_FUNCTION_962, symObjAddr: 0x3E9F4, symBinAddr: 0x40F34, symSize: 0xC }
  - { offset: 0xF77D2, size: 0x8, addend: 0x0, symName: _OUTLINED_FUNCTION_968, symObjAddr: 0x3EA38, symBinAddr: 0x40F78, symSize: 0x8 }
  - { offset: 0xF77E9, size: 0x8, addend: 0x0, symName: _OUTLINED_FUNCTION_970, symObjAddr: 0x3EA4C, symBinAddr: 0x40F8C, symSize: 0x8 }
  - { offset: 0xF7800, size: 0x8, addend: 0x0, symName: _OUTLINED_FUNCTION_972, symObjAddr: 0x3EA5C, symBinAddr: 0x40F9C, symSize: 0xC }
  - { offset: 0xF7817, size: 0x8, addend: 0x0, symName: _OUTLINED_FUNCTION_978, symObjAddr: 0x3EA98, symBinAddr: 0x40FD8, symSize: 0xC }
  - { offset: 0xF782E, size: 0x8, addend: 0x0, symName: _OUTLINED_FUNCTION_979, symObjAddr: 0x3EAA4, symBinAddr: 0x40FE4, symSize: 0x8 }
  - { offset: 0xF7845, size: 0x8, addend: 0x0, symName: _OUTLINED_FUNCTION_980, symObjAddr: 0x3EAAC, symBinAddr: 0x40FEC, symSize: 0x8 }
  - { offset: 0xF785C, size: 0x8, addend: 0x0, symName: _OUTLINED_FUNCTION_981, symObjAddr: 0x3EAB4, symBinAddr: 0x40FF4, symSize: 0x8 }
  - { offset: 0xF7873, size: 0x8, addend: 0x0, symName: _OUTLINED_FUNCTION_982, symObjAddr: 0x3EABC, symBinAddr: 0x40FFC, symSize: 0xC }
  - { offset: 0xF788A, size: 0x8, addend: 0x0, symName: _OUTLINED_FUNCTION_988, symObjAddr: 0x3EAF8, symBinAddr: 0x41038, symSize: 0x8 }
  - { offset: 0xF78A1, size: 0x8, addend: 0x0, symName: _OUTLINED_FUNCTION_993, symObjAddr: 0x3EB30, symBinAddr: 0x41070, symSize: 0x8 }
  - { offset: 0xF78B8, size: 0x8, addend: 0x0, symName: _OUTLINED_FUNCTION_1005, symObjAddr: 0x3EB9C, symBinAddr: 0x410DC, symSize: 0x8 }
  - { offset: 0xF78CF, size: 0x8, addend: 0x0, symName: _OUTLINED_FUNCTION_1007, symObjAddr: 0x3EBAC, symBinAddr: 0x410EC, symSize: 0xC }
  - { offset: 0xF78E6, size: 0x8, addend: 0x0, symName: _OUTLINED_FUNCTION_1011, symObjAddr: 0x3EBD8, symBinAddr: 0x41118, symSize: 0x8 }
  - { offset: 0xF78FD, size: 0x8, addend: 0x0, symName: _OUTLINED_FUNCTION_1014, symObjAddr: 0x3EBF8, symBinAddr: 0x41138, symSize: 0xC }
  - { offset: 0xF7914, size: 0x8, addend: 0x0, symName: _OUTLINED_FUNCTION_1038, symObjAddr: 0x3ECE4, symBinAddr: 0x41224, symSize: 0x8 }
  - { offset: 0xF792B, size: 0x8, addend: 0x0, symName: _OUTLINED_FUNCTION_1088, symObjAddr: 0x3EEBC, symBinAddr: 0x413FC, symSize: 0x8 }
  - { offset: 0xF7942, size: 0x8, addend: 0x0, symName: _OUTLINED_FUNCTION_1106, symObjAddr: 0x3EF8C, symBinAddr: 0x414CC, symSize: 0x14 }
  - { offset: 0xF7959, size: 0x8, addend: 0x0, symName: _OUTLINED_FUNCTION_1112, symObjAddr: 0x3EFEC, symBinAddr: 0x4152C, symSize: 0x14 }
  - { offset: 0xF7970, size: 0x8, addend: 0x0, symName: _OUTLINED_FUNCTION_1113, symObjAddr: 0x3F000, symBinAddr: 0x41540, symSize: 0xC }
  - { offset: 0xF7987, size: 0x8, addend: 0x0, symName: _OUTLINED_FUNCTION_1117, symObjAddr: 0x3F040, symBinAddr: 0x41580, symSize: 0xC }
  - { offset: 0xF799E, size: 0x8, addend: 0x0, symName: _OUTLINED_FUNCTION_1133, symObjAddr: 0x3F138, symBinAddr: 0x41678, symSize: 0x14 }
  - { offset: 0xF79B5, size: 0x8, addend: 0x0, symName: _OUTLINED_FUNCTION_1134, symObjAddr: 0x3F14C, symBinAddr: 0x4168C, symSize: 0x14 }
  - { offset: 0xF79CC, size: 0x8, addend: 0x0, symName: _OUTLINED_FUNCTION_1138, symObjAddr: 0x3F184, symBinAddr: 0x416C4, symSize: 0xC }
  - { offset: 0xF79E3, size: 0x8, addend: 0x0, symName: _OUTLINED_FUNCTION_1153, symObjAddr: 0x3F250, symBinAddr: 0x41790, symSize: 0xC }
  - { offset: 0xF79FA, size: 0x8, addend: 0x0, symName: _OUTLINED_FUNCTION_1160, symObjAddr: 0x3F2BC, symBinAddr: 0x417FC, symSize: 0xC }
  - { offset: 0x1A4A1C, size: 0x8, addend: 0x0, symName: __ZN10serde_json4read4HEX017he905033d2491cfe2E, symObjAddr: 0x4AF70, symBinAddr: 0x4F020, symSize: 0x0 }
  - { offset: 0x1A4A38, size: 0x8, addend: 0x0, symName: __ZN10serde_json4read4HEX117h4ee348b77d368412E, symObjAddr: 0x4B170, symBinAddr: 0x4F220, symSize: 0x0 }
  - { offset: 0x1A4A64, size: 0x8, addend: 0x0, symName: '__ZN70_$LT$serde_json..read..SliceRead$u20$as$u20$serde_json..read..Read$GT$8position17h33024875852ccb44E', symObjAddr: 0x35F94, symBinAddr: 0x38A88, symSize: 0x10 }
  - { offset: 0x1A4AC0, size: 0x8, addend: 0x0, symName: '__ZN70_$LT$serde_json..read..SliceRead$u20$as$u20$serde_json..read..Read$GT$17decode_hex_escape17hcb1caa02d3ec3299E', symObjAddr: 0x36494, symBinAddr: 0x38F24, symSize: 0xB4 }
  - { offset: 0x1A4D8D, size: 0x8, addend: 0x0, symName: '__ZN68_$LT$serde_json..read..StrRead$u20$as$u20$serde_json..read..Read$GT$9parse_str17hddd416276ca243a6E', symObjAddr: 0x366D8, symBinAddr: 0x390DC, symSize: 0x2F0 }
  - { offset: 0x1A50D6, size: 0x8, addend: 0x0, symName: '__ZN68_$LT$serde_json..read..StrRead$u20$as$u20$serde_json..read..Read$GT$10ignore_str17h836c54f34041a197E', symObjAddr: 0x369C8, symBinAddr: 0x393CC, symSize: 0x120 }
  - { offset: 0x1A51D9, size: 0x8, addend: 0x0, symName: __ZN10serde_json4read5error17h81f4e1631dc26024E, symObjAddr: 0x363A8, symBinAddr: 0x430BC, symSize: 0x30 }
  - { offset: 0x1A5282, size: 0x8, addend: 0x0, symName: __ZN10serde_json4read11next_or_eof17h84a2a6ab304648eaE, symObjAddr: 0x363D8, symBinAddr: 0x38E9C, symSize: 0x44 }
  - { offset: 0x1A52B4, size: 0x8, addend: 0x0, symName: __ZN10serde_json4read11next_or_eof17h84a2a6ab304648eaE, symObjAddr: 0x363D8, symBinAddr: 0x38E9C, symSize: 0x44 }
  - { offset: 0x1A5309, size: 0x8, addend: 0x0, symName: __ZN10serde_json4read5error17hc8f57e567db6aa96E, symObjAddr: 0x3641C, symBinAddr: 0x430EC, symSize: 0x34 }
  - { offset: 0x1A5453, size: 0x8, addend: 0x0, symName: __ZN10serde_json4read11peek_or_eof17h8569f5d146d90cdcE, symObjAddr: 0x36548, symBinAddr: 0x38FD8, symSize: 0x34 }
  - { offset: 0x1A5485, size: 0x8, addend: 0x0, symName: __ZN10serde_json4read11peek_or_eof17h8569f5d146d90cdcE, symObjAddr: 0x36548, symBinAddr: 0x38FD8, symSize: 0x34 }
  - { offset: 0x1A54A8, size: 0x8, addend: 0x0, symName: __ZN10serde_json4read19push_wtf8_codepoint17h4f0516c4d7ddf53aE, symObjAddr: 0x3657C, symBinAddr: 0x3900C, symSize: 0xD0 }
  - { offset: 0x1A5802, size: 0x8, addend: 0x0, symName: __ZN10serde_json4read5error17ha5c6f6d0558edd5dE, symObjAddr: 0x3664C, symBinAddr: 0x43120, symSize: 0x28 }
  - { offset: 0x1A586D, size: 0x8, addend: 0x0, symName: __ZN10serde_json4read5error17h356b0fa258b0fab1E, symObjAddr: 0x36674, symBinAddr: 0x43148, symSize: 0x28 }
  - { offset: 0x1A6B29, size: 0x8, addend: 0x0, symName: __ZN10serde_json4read9SliceRead17position_of_index17hf056161af3b72e15E, symObjAddr: 0x35FA4, symBinAddr: 0x38A98, symSize: 0x318 }
  - { offset: 0x1A85B9, size: 0x8, addend: 0x0, symName: __ZN10serde_json4read9SliceRead14skip_to_escape17h2bcae080a7f9c2edE, symObjAddr: 0x362BC, symBinAddr: 0x38DB0, symSize: 0xEC }
  - { offset: 0x1A8C7B, size: 0x8, addend: 0x0, symName: '__ZN5alloc3vec16Vec$LT$T$C$A$GT$4push17h8799ba954dcbdb1aE', symObjAddr: 0x36450, symBinAddr: 0x38EE0, symSize: 0x44 }
  - { offset: 0x1A8E0E, size: 0x8, addend: 0x0, symName: __ZN10serde_json4read9SliceRead19skip_to_escape_slow17h141b36a1eb2af82fE, symObjAddr: 0x3669C, symBinAddr: 0x43170, symSize: 0x3C }
  - { offset: 0x1A9018, size: 0x8, addend: 0x0, symName: _OUTLINED_FUNCTION_239, symObjAddr: 0x3C1E0, symBinAddr: 0x3E720, symSize: 0x1C }
  - { offset: 0x1A902F, size: 0x8, addend: 0x0, symName: _OUTLINED_FUNCTION_289, symObjAddr: 0x3C4C0, symBinAddr: 0x3EA00, symSize: 0x24 }
  - { offset: 0x1A9046, size: 0x8, addend: 0x0, symName: _OUTLINED_FUNCTION_742, symObjAddr: 0x3DDFC, symBinAddr: 0x4033C, symSize: 0x10 }
  - { offset: 0x1A905D, size: 0x8, addend: 0x0, symName: _OUTLINED_FUNCTION_757, symObjAddr: 0x3DED8, symBinAddr: 0x40418, symSize: 0x10 }
  - { offset: 0x1A9074, size: 0x8, addend: 0x0, symName: _OUTLINED_FUNCTION_1140, symObjAddr: 0x3F19C, symBinAddr: 0x416DC, symSize: 0x14 }
  - { offset: 0x1B091, size: 0x8, addend: 0x0, symName: __ZN4core3num7flt2dec8strategy5grisu12CACHED_POW1017hc6574477c6476e42E, symObjAddr: 0x40738, symBinAddr: 0x447E8, symSize: 0x0 }
  - { offset: 0x1B564, size: 0x8, addend: 0x0, symName: __ZN4core3num7flt2dec8strategy5grisu12cached_power17hb3e2a03c5c6ed2a1E, symObjAddr: 0x3ED4, symBinAddr: 0x7DC0, symSize: 0x64 }
  - { offset: 0x1B62D, size: 0x8, addend: 0x0, symName: __ZN4core3num7flt2dec8strategy5grisu22max_pow10_no_more_than17h5bb2a1f1d873e5ddE, symObjAddr: 0x4010, symBinAddr: 0x7EFC, symSize: 0xC0 }
  - { offset: 0x1B65F, size: 0x8, addend: 0x0, symName: __ZN4core3num7flt2dec8strategy5grisu19format_shortest_opt14round_and_weed17h52c5201f54efb50fE, symObjAddr: 0x40F4, symBinAddr: 0x7FE0, symSize: 0xD0 }
  - { offset: 0x1B788, size: 0x8, addend: 0x0, symName: __ZN4core3num7flt2dec8strategy5grisu16format_exact_opt14possibly_round17hd79f55c864dd5880E, symObjAddr: 0x41C4, symBinAddr: 0x80B0, symSize: 0xC8 }
  - { offset: 0x1BC37, size: 0x8, addend: 0x0, symName: '__ZN108_$LT$core..ops..range..RangeTo$LT$usize$GT$$u20$as$u20$core..slice..index..SliceIndex$LT$$u5b$T$u5d$$GT$$GT$9index_mut17h2173a8f7deb2afbaE.339', symObjAddr: 0x40D0, symBinAddr: 0x7FBC, symSize: 0x24 }
  - { offset: 0x1BDBF, size: 0x8, addend: 0x0, symName: '__ZN4core3f6421_$LT$impl$u20$f64$GT$8classify17hbcd8c0d007527bd9E', symObjAddr: 0x3E94, symBinAddr: 0x7D80, symSize: 0x40 }
  - { offset: 0x1BF1F, size: 0x8, addend: 0x0, symName: __ZN4core3num9diy_float2Fp9normalize17h4cad35dc84b64eb5E, symObjAddr: 0x3F38, symBinAddr: 0x7E24, symSize: 0x8C }
  - { offset: 0x1BF3D, size: 0x8, addend: 0x0, symName: __ZN4core3num9diy_float2Fp9normalize17h4cad35dc84b64eb5E, symObjAddr: 0x3F38, symBinAddr: 0x7E24, symSize: 0x8C }
  - { offset: 0x1BF5B, size: 0x8, addend: 0x0, symName: __ZN4core3num9diy_float2Fp9normalize17h4cad35dc84b64eb5E, symObjAddr: 0x3F38, symBinAddr: 0x7E24, symSize: 0x8C }
  - { offset: 0x1BF7B, size: 0x8, addend: 0x0, symName: __ZN4core3num9diy_float2Fp3mul17h38120da0a1901065E, symObjAddr: 0x3FC4, symBinAddr: 0x7EB0, symSize: 0x4C }
  - { offset: 0x1C15C, size: 0x8, addend: 0x0, symName: _OUTLINED_FUNCTION_20, symObjAddr: 0x3B1D8, symBinAddr: 0x3D718, symSize: 0x10 }
  - { offset: 0x1C173, size: 0x8, addend: 0x0, symName: _OUTLINED_FUNCTION_338, symObjAddr: 0x3C750, symBinAddr: 0x3EC90, symSize: 0x8 }
  - { offset: 0x1C18A, size: 0x8, addend: 0x0, symName: _OUTLINED_FUNCTION_433, symObjAddr: 0x3CC5C, symBinAddr: 0x3F19C, symSize: 0x8 }
  - { offset: 0x1C1A1, size: 0x8, addend: 0x0, symName: _OUTLINED_FUNCTION_641, symObjAddr: 0x3D868, symBinAddr: 0x3FDA8, symSize: 0xC }
  - { offset: 0x1C1B8, size: 0x8, addend: 0x0, symName: _OUTLINED_FUNCTION_807, symObjAddr: 0x3E13C, symBinAddr: 0x4067C, symSize: 0x8 }
  - { offset: 0xF929D, size: 0x8, addend: 0x0, symName: '__ZN4core3ptr208drop_in_place$LT$powersync_core..sync..streaming_sync..StreamingSyncIteration..resolve_subscription_state..LocalAndServerSubscription$LT$powersync_core..sync..subscriptions..LocallyTrackedSubscription$GT$$GT$17h969f518335ca583cE', symObjAddr: 0x1D488, symBinAddr: 0x20948, symSize: 0x2C }
  - { offset: 0xF9356, size: 0x8, addend: 0x0, symName: '__ZN4core3ptr106drop_in_place$LT$core..option..Option$LT$alloc..boxed..Box$LT$powersync_core..util..JsonString$GT$$GT$$GT$17hcd9b2036a0625978E', symObjAddr: 0x1D4B4, symBinAddr: 0x20974, symSize: 0x10 }
  - { offset: 0xF96A0, size: 0x8, addend: 0x0, symName: '__ZN4core3ptr73drop_in_place$LT$powersync_core..schema..table_info..PendingStatement$GT$17he475c2bcf7a06b02E.1410', symObjAddr: 0x23028, symBinAddr: 0x2641C, symSize: 0x2C }
  - { offset: 0xF99B9, size: 0x8, addend: 0x0, symName: '__ZN4core3ptr136drop_in_place$LT$core..option..Option$LT$$LP$serde..__private..de..content..Content$C$serde..__private..de..content..Content$RP$$GT$$GT$17he6ed90b8644a74fcE', symObjAddr: 0x232A0, symBinAddr: 0x26694, symSize: 0x14 }
  - { offset: 0xF99E7, size: 0x8, addend: 0x0, symName: '__ZN4core3ptr108drop_in_place$LT$$LP$serde..__private..de..content..Content$C$serde..__private..de..content..Content$RP$$GT$17hd54f97f6199ec350E', symObjAddr: 0x232B4, symBinAddr: 0x266A8, symSize: 0x24 }
  - { offset: 0xF9A94, size: 0x8, addend: 0x0, symName: '__ZN4core3ptr59drop_in_place$LT$serde..__private..de..content..Content$GT$17ha04eeb5331f27e5fE.1433', symObjAddr: 0x232D8, symBinAddr: 0x266CC, symSize: 0x70 }
  - { offset: 0xF9B3A, size: 0x8, addend: 0x0, symName: '__ZN4core3ptr84drop_in_place$LT$alloc..boxed..Box$LT$serde..__private..de..content..Content$GT$$GT$17he4be82e6358ff631E.1436', symObjAddr: 0x23378, symBinAddr: 0x2676C, symSize: 0x20 }
  - { offset: 0xFDC79, size: 0x8, addend: 0x0, symName: '__ZN115_$LT$core..iter..adapters..filter_map..FilterMap$LT$I$C$F$GT$$u20$as$u20$core..iter..traits..iterator..Iterator$GT$4next17hd1a48e7e8cb06acdE', symObjAddr: 0x1D3DC, symBinAddr: 0x2089C, symSize: 0x44 }
  - { offset: 0xFF163, size: 0x8, addend: 0x0, symName: '__ZN5serde2de5impls82_$LT$impl$u20$serde..de..Deserialize$u20$for$u20$core..option..Option$LT$T$GT$$GT$11deserialize17h0535344b695b53ffE', symObjAddr: 0x224B8, symBinAddr: 0x25978, symSize: 0x88 }
  - { offset: 0xFF253, size: 0x8, addend: 0x0, symName: '__ZN5serde2de5impls82_$LT$impl$u20$serde..de..Deserialize$u20$for$u20$core..option..Option$LT$T$GT$$GT$11deserialize17h0b6230ee68328c36E', symObjAddr: 0x22540, symBinAddr: 0x25A00, symSize: 0x6C }
  - { offset: 0xFF332, size: 0x8, addend: 0x0, symName: '__ZN5serde2de5impls82_$LT$impl$u20$serde..de..Deserialize$u20$for$u20$core..option..Option$LT$T$GT$$GT$11deserialize17h14642ccac7b26c24E', symObjAddr: 0x225AC, symBinAddr: 0x25A6C, symSize: 0x25C }
  - { offset: 0xFF64E, size: 0x8, addend: 0x0, symName: '__ZN5serde2de5impls82_$LT$impl$u20$serde..de..Deserialize$u20$for$u20$core..option..Option$LT$T$GT$$GT$11deserialize17h220fe2ba4d998494E', symObjAddr: 0x22808, symBinAddr: 0x25CC8, symSize: 0x78 }
  - { offset: 0xFF784, size: 0x8, addend: 0x0, symName: '__ZN5serde2de5impls82_$LT$impl$u20$serde..de..Deserialize$u20$for$u20$core..option..Option$LT$T$GT$$GT$11deserialize17h27bb80aaef3ead8eE', symObjAddr: 0x22880, symBinAddr: 0x25D40, symSize: 0x10C }
  - { offset: 0xFF9D2, size: 0x8, addend: 0x0, symName: '__ZN5serde2de5impls82_$LT$impl$u20$serde..de..Deserialize$u20$for$u20$core..option..Option$LT$T$GT$$GT$11deserialize17h313d2724ddd2d6a7E', symObjAddr: 0x2298C, symBinAddr: 0x25E4C, symSize: 0x9C }
  - { offset: 0xFFAA4, size: 0x8, addend: 0x0, symName: '__ZN5serde2de5impls82_$LT$impl$u20$serde..de..Deserialize$u20$for$u20$core..option..Option$LT$T$GT$$GT$11deserialize17h7f48fddb2ae4e710E', symObjAddr: 0x22A28, symBinAddr: 0x25EE8, symSize: 0x68 }
  - { offset: 0xFFB7E, size: 0x8, addend: 0x0, symName: '__ZN5serde2de5impls82_$LT$impl$u20$serde..de..Deserialize$u20$for$u20$core..option..Option$LT$T$GT$$GT$11deserialize17h8b86c3797c32b845E', symObjAddr: 0x22A90, symBinAddr: 0x25F50, symSize: 0x1C0 }
  - { offset: 0xFFE4F, size: 0x8, addend: 0x0, symName: '__ZN5serde2de5impls82_$LT$impl$u20$serde..de..Deserialize$u20$for$u20$core..option..Option$LT$T$GT$$GT$11deserialize17hdf85c149e680c3b6E', symObjAddr: 0x22C50, symBinAddr: 0x26110, symSize: 0x94 }
  - { offset: 0xFFF61, size: 0x8, addend: 0x0, symName: '__ZN5serde2de5impls82_$LT$impl$u20$serde..de..Deserialize$u20$for$u20$core..option..Option$LT$T$GT$$GT$11deserialize17hee3171dc2af68993E', symObjAddr: 0x22CE4, symBinAddr: 0x261A4, symSize: 0x114 }
  - { offset: 0x1007F0, size: 0x8, addend: 0x0, symName: '__ZN5serde2de5impls77_$LT$impl$u20$serde..de..Deserialize$u20$for$u20$alloc..vec..Vec$LT$T$GT$$GT$11deserialize17h138b4fa1b51d0475E', symObjAddr: 0x1D4C4, symBinAddr: 0x20984, symSize: 0x64C }
  - { offset: 0x1011DE, size: 0x8, addend: 0x0, symName: '__ZN5serde2de5impls77_$LT$impl$u20$serde..de..Deserialize$u20$for$u20$alloc..vec..Vec$LT$T$GT$$GT$11deserialize17h1412e280f7623cc7E', symObjAddr: 0x1DB10, symBinAddr: 0x20FD0, symSize: 0x678 }
  - { offset: 0x101AE0, size: 0x8, addend: 0x0, symName: '__ZN5serde2de5impls77_$LT$impl$u20$serde..de..Deserialize$u20$for$u20$alloc..vec..Vec$LT$T$GT$$GT$11deserialize17h1432e628fcdf53f7E', symObjAddr: 0x1E188, symBinAddr: 0x21648, symSize: 0x910 }
  - { offset: 0x102C38, size: 0x8, addend: 0x0, symName: '__ZN5serde2de5impls77_$LT$impl$u20$serde..de..Deserialize$u20$for$u20$alloc..vec..Vec$LT$T$GT$$GT$11deserialize17h1ba15c5e6fe9f7a9E', symObjAddr: 0x1EA98, symBinAddr: 0x21F58, symSize: 0x1AC }
  - { offset: 0x102F23, size: 0x8, addend: 0x0, symName: '__ZN5serde2de5impls77_$LT$impl$u20$serde..de..Deserialize$u20$for$u20$alloc..vec..Vec$LT$T$GT$$GT$11deserialize17h372b4fe81c57ef7dE', symObjAddr: 0x1EC44, symBinAddr: 0x22104, symSize: 0x25C }
  - { offset: 0x103271, size: 0x8, addend: 0x0, symName: '__ZN5serde2de5impls77_$LT$impl$u20$serde..de..Deserialize$u20$for$u20$alloc..vec..Vec$LT$T$GT$$GT$11deserialize17h39e5a8a96ecf0cb6E', symObjAddr: 0x1EEA0, symBinAddr: 0x22360, symSize: 0x130 }
  - { offset: 0x1033C4, size: 0x8, addend: 0x0, symName: '__ZN5serde2de5impls77_$LT$impl$u20$serde..de..Deserialize$u20$for$u20$alloc..vec..Vec$LT$T$GT$$GT$11deserialize17h4e477a29c7abd904E', symObjAddr: 0x1EFD0, symBinAddr: 0x22490, symSize: 0xAE0 }
  - { offset: 0x1046D1, size: 0x8, addend: 0x0, symName: '__ZN5serde2de5impls77_$LT$impl$u20$serde..de..Deserialize$u20$for$u20$alloc..vec..Vec$LT$T$GT$$GT$11deserialize17h5a54189e293f0c8dE', symObjAddr: 0x1FAB0, symBinAddr: 0x22F70, symSize: 0xB38 }
  - { offset: 0x105E57, size: 0x8, addend: 0x0, symName: '__ZN5serde2de5impls77_$LT$impl$u20$serde..de..Deserialize$u20$for$u20$alloc..vec..Vec$LT$T$GT$$GT$11deserialize17h60521eb78736370eE', symObjAddr: 0x205E8, symBinAddr: 0x23AA8, symSize: 0x198 }
  - { offset: 0x1060D0, size: 0x8, addend: 0x0, symName: '__ZN5serde2de5impls77_$LT$impl$u20$serde..de..Deserialize$u20$for$u20$alloc..vec..Vec$LT$T$GT$$GT$11deserialize17h9c2cd4f732be3886E', symObjAddr: 0x20780, symBinAddr: 0x23C40, symSize: 0x760 }
  - { offset: 0x106B18, size: 0x8, addend: 0x0, symName: '__ZN5serde2de5impls77_$LT$impl$u20$serde..de..Deserialize$u20$for$u20$alloc..vec..Vec$LT$T$GT$$GT$11deserialize17hb00117e76647e7b4E', symObjAddr: 0x20EE0, symBinAddr: 0x243A0, symSize: 0xA00 }
  - { offset: 0x107718, size: 0x8, addend: 0x0, symName: '__ZN5serde2de5impls77_$LT$impl$u20$serde..de..Deserialize$u20$for$u20$alloc..vec..Vec$LT$T$GT$$GT$11deserialize17hc166d97fa88e629fE', symObjAddr: 0x218E0, symBinAddr: 0x24DA0, symSize: 0x134 }
  - { offset: 0x10786B, size: 0x8, addend: 0x0, symName: '__ZN5serde2de5impls77_$LT$impl$u20$serde..de..Deserialize$u20$for$u20$alloc..vec..Vec$LT$T$GT$$GT$11deserialize17hdb10707635a593e1E', symObjAddr: 0x21A14, symBinAddr: 0x24ED4, symSize: 0x360 }
  - { offset: 0x107CEA, size: 0x8, addend: 0x0, symName: '__ZN5serde2de5impls77_$LT$impl$u20$serde..de..Deserialize$u20$for$u20$alloc..vec..Vec$LT$T$GT$$GT$11deserialize17hf0e139f6ab9e80aeE', symObjAddr: 0x21D74, symBinAddr: 0x25234, symSize: 0x744 }
  - { offset: 0x109CDC, size: 0x8, addend: 0x0, symName: __ZN5serde9__private2de13missing_field17h4e21c20e75f2ce1fE, symObjAddr: 0x22DF8, symBinAddr: 0x426F0, symSize: 0x2C }
  - { offset: 0x109D95, size: 0x8, addend: 0x0, symName: __ZN5serde9__private2de13missing_field17h71c48cbba7b865e0E, symObjAddr: 0x22E24, symBinAddr: 0x4271C, symSize: 0x24 }
  - { offset: 0x109E48, size: 0x8, addend: 0x0, symName: __ZN5serde9__private2de13missing_field17h7cf18faf6bd0ddcdE, symObjAddr: 0x22E48, symBinAddr: 0x42740, symSize: 0x24 }
  - { offset: 0x109EFB, size: 0x8, addend: 0x0, symName: __ZN5serde9__private2de13missing_field17h88d35dadedf92b31E, symObjAddr: 0x22E6C, symBinAddr: 0x42764, symSize: 0x2C }
  - { offset: 0x109FB4, size: 0x8, addend: 0x0, symName: __ZN5serde9__private2de13missing_field17hfa4b173560f43b0dE, symObjAddr: 0x22E98, symBinAddr: 0x42790, symSize: 0x2C }
  - { offset: 0x10A448, size: 0x8, addend: 0x0, symName: '__ZN70_$LT$alloc..vec..Vec$LT$T$C$A$GT$$u20$as$u20$core..ops..drop..Drop$GT$4drop17h0063dc1e2ead63c2E', symObjAddr: 0x22EC4, symBinAddr: 0x262B8, symSize: 0x80 }
  - { offset: 0x10A5A4, size: 0x8, addend: 0x0, symName: '__ZN70_$LT$alloc..vec..Vec$LT$T$C$A$GT$$u20$as$u20$core..ops..drop..Drop$GT$4drop17h7639d6615cb4d5a2E', symObjAddr: 0x22F44, symBinAddr: 0x26338, symSize: 0x40 }
  - { offset: 0x10A6A3, size: 0x8, addend: 0x0, symName: '__ZN70_$LT$alloc..vec..Vec$LT$T$C$A$GT$$u20$as$u20$core..ops..drop..Drop$GT$4drop17ha220c0aee8554bdcE', symObjAddr: 0x22F84, symBinAddr: 0x26378, symSize: 0x2C }
  - { offset: 0x10A6FB, size: 0x8, addend: 0x0, symName: '__ZN70_$LT$alloc..vec..Vec$LT$T$C$A$GT$$u20$as$u20$core..ops..drop..Drop$GT$4drop17h1c6f678ef43a3967E', symObjAddr: 0x22FB0, symBinAddr: 0x263A4, symSize: 0x34 }
  - { offset: 0x10A753, size: 0x8, addend: 0x0, symName: '__ZN70_$LT$alloc..vec..Vec$LT$T$C$A$GT$$u20$as$u20$core..ops..drop..Drop$GT$4drop17h08a40e72416edd3bE', symObjAddr: 0x22FE4, symBinAddr: 0x263D8, symSize: 0x44 }
  - { offset: 0x10A816, size: 0x8, addend: 0x0, symName: '__ZN70_$LT$alloc..vec..Vec$LT$T$C$A$GT$$u20$as$u20$core..ops..drop..Drop$GT$4drop17h8f03712ea4872c10E', symObjAddr: 0x23054, symBinAddr: 0x26448, symSize: 0x44 }
  - { offset: 0x10A8D7, size: 0x8, addend: 0x0, symName: '__ZN70_$LT$alloc..vec..Vec$LT$T$C$A$GT$$u20$as$u20$core..ops..drop..Drop$GT$4drop17h14f18f0266d76b9bE', symObjAddr: 0x23098, symBinAddr: 0x2648C, symSize: 0x30 }
  - { offset: 0x10A92F, size: 0x8, addend: 0x0, symName: '__ZN70_$LT$alloc..vec..Vec$LT$T$C$A$GT$$u20$as$u20$core..ops..drop..Drop$GT$4drop17h16aa295a18570a70E', symObjAddr: 0x230C8, symBinAddr: 0x264BC, symSize: 0x2C }
  - { offset: 0x10A987, size: 0x8, addend: 0x0, symName: '__ZN70_$LT$alloc..vec..Vec$LT$T$C$A$GT$$u20$as$u20$core..ops..drop..Drop$GT$4drop17h23672b6989fa32e1E', symObjAddr: 0x230F4, symBinAddr: 0x264E8, symSize: 0x3C }
  - { offset: 0x10A9FE, size: 0x8, addend: 0x0, symName: '__ZN70_$LT$alloc..vec..Vec$LT$T$C$A$GT$$u20$as$u20$core..ops..drop..Drop$GT$4drop17h4715004cebc8e3e6E', symObjAddr: 0x23130, symBinAddr: 0x26524, symSize: 0x60 }
  - { offset: 0x10AAB3, size: 0x8, addend: 0x0, symName: '__ZN70_$LT$alloc..vec..Vec$LT$T$C$A$GT$$u20$as$u20$core..ops..drop..Drop$GT$4drop17h501b97ef95cc61e5E', symObjAddr: 0x23190, symBinAddr: 0x26584, symSize: 0x34 }
  - { offset: 0x10AB28, size: 0x8, addend: 0x0, symName: '__ZN70_$LT$alloc..vec..Vec$LT$T$C$A$GT$$u20$as$u20$core..ops..drop..Drop$GT$4drop17h7d8dd0eae45eec5dE', symObjAddr: 0x231C4, symBinAddr: 0x265B8, symSize: 0x44 }
  - { offset: 0x10AC24, size: 0x8, addend: 0x0, symName: '__ZN70_$LT$alloc..vec..Vec$LT$T$C$A$GT$$u20$as$u20$core..ops..drop..Drop$GT$4drop17h85660d8f7ccb5095E', symObjAddr: 0x23208, symBinAddr: 0x265FC, symSize: 0x28 }
  - { offset: 0x10AC7C, size: 0x8, addend: 0x0, symName: '__ZN70_$LT$alloc..vec..Vec$LT$T$C$A$GT$$u20$as$u20$core..ops..drop..Drop$GT$4drop17h85b8319826d19afaE', symObjAddr: 0x23230, symBinAddr: 0x26624, symSize: 0x40 }
  - { offset: 0x10ADEC, size: 0x8, addend: 0x0, symName: '__ZN70_$LT$alloc..vec..Vec$LT$T$C$A$GT$$u20$as$u20$core..ops..drop..Drop$GT$4drop17h87c2a30092ad3639E', symObjAddr: 0x23270, symBinAddr: 0x26664, symSize: 0x30 }
  - { offset: 0x10AE44, size: 0x8, addend: 0x0, symName: '__ZN70_$LT$alloc..vec..Vec$LT$T$C$A$GT$$u20$as$u20$core..ops..drop..Drop$GT$4drop17hfa48abc46deeb8b9E', symObjAddr: 0x23348, symBinAddr: 0x2673C, symSize: 0x30 }
  - { offset: 0x10AF14, size: 0x8, addend: 0x0, symName: '__ZN70_$LT$alloc..vec..Vec$LT$T$C$A$GT$$u20$as$u20$core..ops..drop..Drop$GT$4drop17hec40af0236dd45adE', symObjAddr: 0x23398, symBinAddr: 0x2678C, symSize: 0x30 }
  - { offset: 0x10AFE4, size: 0x8, addend: 0x0, symName: '__ZN70_$LT$alloc..vec..Vec$LT$T$C$A$GT$$u20$as$u20$core..ops..drop..Drop$GT$4drop17hc031f860d520ffbeE', symObjAddr: 0x233C8, symBinAddr: 0x267BC, symSize: 0xC8 }
  - { offset: 0x10B349, size: 0x8, addend: 0x0, symName: '__ZN70_$LT$alloc..vec..Vec$LT$T$C$A$GT$$u20$as$u20$core..ops..drop..Drop$GT$4drop17he5087519c2feb3c3E', symObjAddr: 0x23490, symBinAddr: 0x26884, symSize: 0x40 }
  - { offset: 0x10B3FE, size: 0x8, addend: 0x0, symName: '__ZN70_$LT$alloc..vec..Vec$LT$T$C$A$GT$$u20$as$u20$core..ops..drop..Drop$GT$4drop17hfcedbd3d0d914d9fE', symObjAddr: 0x234D0, symBinAddr: 0x268C4, symSize: 0x38 }
  - { offset: 0x10EFA0, size: 0x8, addend: 0x0, symName: '__ZN5alloc7raw_vec20RawVecInner$LT$A$GT$16with_capacity_in17h8242ac48d042eef7E.1234', symObjAddr: 0x1D420, symBinAddr: 0x208E0, symSize: 0x38 }
  - { offset: 0x10F043, size: 0x8, addend: 0x0, symName: '__ZN5alloc7raw_vec20RawVecInner$LT$A$GT$7reserve17hf429f0202f4d91e1E', symObjAddr: 0x1D458, symBinAddr: 0x20918, symSize: 0x20 }
  - { offset: 0x10F14B, size: 0x8, addend: 0x0, symName: '__ZN5alloc3vec16Vec$LT$T$C$A$GT$7reserve17h23fd185fde580f41E', symObjAddr: 0x1D478, symBinAddr: 0x20938, symSize: 0x10 }
  - { offset: 0x1115E7, size: 0x8, addend: 0x0, symName: _OUTLINED_FUNCTION_26, symObjAddr: 0x3B248, symBinAddr: 0x3D788, symSize: 0x10 }
  - { offset: 0x1115FE, size: 0x8, addend: 0x0, symName: _OUTLINED_FUNCTION_101, symObjAddr: 0x3B860, symBinAddr: 0x3DDA0, symSize: 0xC }
  - { offset: 0x111615, size: 0x8, addend: 0x0, symName: _OUTLINED_FUNCTION_122, symObjAddr: 0x3BA10, symBinAddr: 0x3DF50, symSize: 0x1C }
  - { offset: 0x11162C, size: 0x8, addend: 0x0, symName: _OUTLINED_FUNCTION_126, symObjAddr: 0x3BAA4, symBinAddr: 0x3DFE4, symSize: 0x10 }
  - { offset: 0x111643, size: 0x8, addend: 0x0, symName: _OUTLINED_FUNCTION_163, symObjAddr: 0x3BD44, symBinAddr: 0x3E284, symSize: 0x10 }
  - { offset: 0x11165A, size: 0x8, addend: 0x0, symName: _OUTLINED_FUNCTION_191, symObjAddr: 0x3BF24, symBinAddr: 0x3E464, symSize: 0xC }
  - { offset: 0x111671, size: 0x8, addend: 0x0, symName: _OUTLINED_FUNCTION_192, symObjAddr: 0x3BF30, symBinAddr: 0x3E470, symSize: 0xC }
  - { offset: 0x111688, size: 0x8, addend: 0x0, symName: _OUTLINED_FUNCTION_257, symObjAddr: 0x3C2F8, symBinAddr: 0x3E838, symSize: 0x10 }
  - { offset: 0x11169F, size: 0x8, addend: 0x0, symName: _OUTLINED_FUNCTION_270, symObjAddr: 0x3C39C, symBinAddr: 0x3E8DC, symSize: 0x14 }
  - { offset: 0x1116B6, size: 0x8, addend: 0x0, symName: _OUTLINED_FUNCTION_271, symObjAddr: 0x3C3B0, symBinAddr: 0x3E8F0, symSize: 0x14 }
  - { offset: 0x1116CD, size: 0x8, addend: 0x0, symName: _OUTLINED_FUNCTION_305, symObjAddr: 0x3C58C, symBinAddr: 0x3EACC, symSize: 0xC }
  - { offset: 0x1116E4, size: 0x8, addend: 0x0, symName: _OUTLINED_FUNCTION_307, symObjAddr: 0x3C5A4, symBinAddr: 0x3EAE4, symSize: 0xC }
  - { offset: 0x1116FB, size: 0x8, addend: 0x0, symName: _OUTLINED_FUNCTION_332, symObjAddr: 0x3C6F4, symBinAddr: 0x3EC34, symSize: 0xC }
  - { offset: 0x111712, size: 0x8, addend: 0x0, symName: _OUTLINED_FUNCTION_345, symObjAddr: 0x3C7A4, symBinAddr: 0x3ECE4, symSize: 0x8 }
  - { offset: 0x111729, size: 0x8, addend: 0x0, symName: _OUTLINED_FUNCTION_390, symObjAddr: 0x3CA5C, symBinAddr: 0x3EF9C, symSize: 0x8 }
  - { offset: 0x111740, size: 0x8, addend: 0x0, symName: _OUTLINED_FUNCTION_403, symObjAddr: 0x3CB0C, symBinAddr: 0x3F04C, symSize: 0xC }
  - { offset: 0x111757, size: 0x8, addend: 0x0, symName: _OUTLINED_FUNCTION_412, symObjAddr: 0x3CB78, symBinAddr: 0x3F0B8, symSize: 0x8 }
  - { offset: 0x11176E, size: 0x8, addend: 0x0, symName: _OUTLINED_FUNCTION_416, symObjAddr: 0x3CBB8, symBinAddr: 0x3F0F8, symSize: 0xC }
  - { offset: 0x111785, size: 0x8, addend: 0x0, symName: _OUTLINED_FUNCTION_426, symObjAddr: 0x3CC20, symBinAddr: 0x3F160, symSize: 0x8 }
  - { offset: 0x11179C, size: 0x8, addend: 0x0, symName: _OUTLINED_FUNCTION_428, symObjAddr: 0x3CC30, symBinAddr: 0x3F170, symSize: 0x8 }
  - { offset: 0x1117B3, size: 0x8, addend: 0x0, symName: _OUTLINED_FUNCTION_454, symObjAddr: 0x3CD68, symBinAddr: 0x3F2A8, symSize: 0x1C }
  - { offset: 0x1117CA, size: 0x8, addend: 0x0, symName: _OUTLINED_FUNCTION_474, symObjAddr: 0x3CEA8, symBinAddr: 0x3F3E8, symSize: 0x1C }
  - { offset: 0x1117E1, size: 0x8, addend: 0x0, symName: _OUTLINED_FUNCTION_486, symObjAddr: 0x3CF80, symBinAddr: 0x3F4C0, symSize: 0x1C }
  - { offset: 0x1117F8, size: 0x8, addend: 0x0, symName: _OUTLINED_FUNCTION_496, symObjAddr: 0x3D028, symBinAddr: 0x3F568, symSize: 0x10 }
  - { offset: 0x11180F, size: 0x8, addend: 0x0, symName: _OUTLINED_FUNCTION_502, symObjAddr: 0x3D07C, symBinAddr: 0x3F5BC, symSize: 0xC }
  - { offset: 0x111826, size: 0x8, addend: 0x0, symName: _OUTLINED_FUNCTION_503, symObjAddr: 0x3D088, symBinAddr: 0x3F5C8, symSize: 0xC }
  - { offset: 0x11183D, size: 0x8, addend: 0x0, symName: _OUTLINED_FUNCTION_505, symObjAddr: 0x3D0A0, symBinAddr: 0x3F5E0, symSize: 0xC }
  - { offset: 0x111854, size: 0x8, addend: 0x0, symName: _OUTLINED_FUNCTION_511, symObjAddr: 0x3D0FC, symBinAddr: 0x3F63C, symSize: 0xC }
  - { offset: 0x11186B, size: 0x8, addend: 0x0, symName: _OUTLINED_FUNCTION_516, symObjAddr: 0x3D148, symBinAddr: 0x3F688, symSize: 0x14 }
  - { offset: 0x111882, size: 0x8, addend: 0x0, symName: _OUTLINED_FUNCTION_541, symObjAddr: 0x3D2DC, symBinAddr: 0x3F81C, symSize: 0x8 }
  - { offset: 0x111899, size: 0x8, addend: 0x0, symName: _OUTLINED_FUNCTION_594, symObjAddr: 0x3D574, symBinAddr: 0x3FAB4, symSize: 0x10 }
  - { offset: 0x1118B0, size: 0x8, addend: 0x0, symName: _OUTLINED_FUNCTION_599, symObjAddr: 0x3D5BC, symBinAddr: 0x3FAFC, symSize: 0xC }
  - { offset: 0x1118C7, size: 0x8, addend: 0x0, symName: _OUTLINED_FUNCTION_616, symObjAddr: 0x3D694, symBinAddr: 0x3FBD4, symSize: 0x24 }
  - { offset: 0x1118DE, size: 0x8, addend: 0x0, symName: _OUTLINED_FUNCTION_617, symObjAddr: 0x3D6B8, symBinAddr: 0x3FBF8, symSize: 0xC }
  - { offset: 0x1118F5, size: 0x8, addend: 0x0, symName: _OUTLINED_FUNCTION_622, symObjAddr: 0x3D724, symBinAddr: 0x3FC64, symSize: 0xC }
  - { offset: 0x11190C, size: 0x8, addend: 0x0, symName: _OUTLINED_FUNCTION_628, symObjAddr: 0x3D79C, symBinAddr: 0x3FCDC, symSize: 0xC }
  - { offset: 0x111923, size: 0x8, addend: 0x0, symName: _OUTLINED_FUNCTION_637, symObjAddr: 0x3D820, symBinAddr: 0x3FD60, symSize: 0x24 }
  - { offset: 0x11193A, size: 0x8, addend: 0x0, symName: _OUTLINED_FUNCTION_638, symObjAddr: 0x3D844, symBinAddr: 0x3FD84, symSize: 0xC }
  - { offset: 0x111951, size: 0x8, addend: 0x0, symName: _OUTLINED_FUNCTION_639, symObjAddr: 0x3D850, symBinAddr: 0x3FD90, symSize: 0xC }
  - { offset: 0x111968, size: 0x8, addend: 0x0, symName: _OUTLINED_FUNCTION_645, symObjAddr: 0x3D8A8, symBinAddr: 0x3FDE8, symSize: 0x8 }
  - { offset: 0x11197F, size: 0x8, addend: 0x0, symName: _OUTLINED_FUNCTION_651, symObjAddr: 0x3D8F0, symBinAddr: 0x3FE30, symSize: 0x14 }
  - { offset: 0x111996, size: 0x8, addend: 0x0, symName: _OUTLINED_FUNCTION_686, symObjAddr: 0x3DAEC, symBinAddr: 0x4002C, symSize: 0xC }
  - { offset: 0x1119AD, size: 0x8, addend: 0x0, symName: _OUTLINED_FUNCTION_706, symObjAddr: 0x3DC3C, symBinAddr: 0x4017C, symSize: 0x1C }
  - { offset: 0x1119C4, size: 0x8, addend: 0x0, symName: _OUTLINED_FUNCTION_709, symObjAddr: 0x3DC80, symBinAddr: 0x401C0, symSize: 0x8 }
  - { offset: 0x1119DB, size: 0x8, addend: 0x0, symName: _OUTLINED_FUNCTION_710, symObjAddr: 0x3DC88, symBinAddr: 0x401C8, symSize: 0x8 }
  - { offset: 0x1119F2, size: 0x8, addend: 0x0, symName: _OUTLINED_FUNCTION_727, symObjAddr: 0x3DD48, symBinAddr: 0x40288, symSize: 0xC }
  - { offset: 0x111A09, size: 0x8, addend: 0x0, symName: _OUTLINED_FUNCTION_732, symObjAddr: 0x3DD80, symBinAddr: 0x402C0, symSize: 0x8 }
  - { offset: 0x111A20, size: 0x8, addend: 0x0, symName: _OUTLINED_FUNCTION_752, symObjAddr: 0x3DE98, symBinAddr: 0x403D8, symSize: 0x8 }
  - { offset: 0x111A37, size: 0x8, addend: 0x0, symName: _OUTLINED_FUNCTION_794, symObjAddr: 0x3E0A0, symBinAddr: 0x405E0, symSize: 0xC }
  - { offset: 0x111A4E, size: 0x8, addend: 0x0, symName: _OUTLINED_FUNCTION_795, symObjAddr: 0x3E0AC, symBinAddr: 0x405EC, symSize: 0x1C }
  - { offset: 0x111A65, size: 0x8, addend: 0x0, symName: _OUTLINED_FUNCTION_823, symObjAddr: 0x3E20C, symBinAddr: 0x4074C, symSize: 0x8 }
  - { offset: 0x111A7C, size: 0x8, addend: 0x0, symName: _OUTLINED_FUNCTION_847, symObjAddr: 0x3E37C, symBinAddr: 0x408BC, symSize: 0x10 }
  - { offset: 0x111A93, size: 0x8, addend: 0x0, symName: _OUTLINED_FUNCTION_862, symObjAddr: 0x3E46C, symBinAddr: 0x409AC, symSize: 0x10 }
  - { offset: 0x111AAA, size: 0x8, addend: 0x0, symName: _OUTLINED_FUNCTION_867, symObjAddr: 0x3E4C8, symBinAddr: 0x40A08, symSize: 0x18 }
  - { offset: 0x111AC1, size: 0x8, addend: 0x0, symName: _OUTLINED_FUNCTION_868, symObjAddr: 0x3E4E0, symBinAddr: 0x40A20, symSize: 0xC }
  - { offset: 0x111AD8, size: 0x8, addend: 0x0, symName: _OUTLINED_FUNCTION_874, symObjAddr: 0x3E558, symBinAddr: 0x40A98, symSize: 0xC }
  - { offset: 0x111AEF, size: 0x8, addend: 0x0, symName: _OUTLINED_FUNCTION_888, symObjAddr: 0x3E618, symBinAddr: 0x40B58, symSize: 0x18 }
  - { offset: 0x111B06, size: 0x8, addend: 0x0, symName: _OUTLINED_FUNCTION_891, symObjAddr: 0x3E648, symBinAddr: 0x40B88, symSize: 0x18 }
  - { offset: 0x111B1D, size: 0x8, addend: 0x0, symName: _OUTLINED_FUNCTION_896, symObjAddr: 0x3E6B4, symBinAddr: 0x40BF4, symSize: 0xC }
  - { offset: 0x111B34, size: 0x8, addend: 0x0, symName: _OUTLINED_FUNCTION_904, symObjAddr: 0x3E738, symBinAddr: 0x40C78, symSize: 0xC }
  - { offset: 0x111B4B, size: 0x8, addend: 0x0, symName: _OUTLINED_FUNCTION_927, symObjAddr: 0x3E858, symBinAddr: 0x40D98, symSize: 0x18 }
  - { offset: 0x111B62, size: 0x8, addend: 0x0, symName: _OUTLINED_FUNCTION_931, symObjAddr: 0x3E890, symBinAddr: 0x40DD0, symSize: 0xC }
  - { offset: 0x111B79, size: 0x8, addend: 0x0, symName: _OUTLINED_FUNCTION_991, symObjAddr: 0x3EB1C, symBinAddr: 0x4105C, symSize: 0xC }
  - { offset: 0x111B90, size: 0x8, addend: 0x0, symName: _OUTLINED_FUNCTION_1000, symObjAddr: 0x3EB6C, symBinAddr: 0x410AC, symSize: 0x8 }
  - { offset: 0x111BA7, size: 0x8, addend: 0x0, symName: _OUTLINED_FUNCTION_1008, symObjAddr: 0x3EBB8, symBinAddr: 0x410F8, symSize: 0xC }
  - { offset: 0x111BBE, size: 0x8, addend: 0x0, symName: _OUTLINED_FUNCTION_1012, symObjAddr: 0x3EBE0, symBinAddr: 0x41120, symSize: 0xC }
  - { offset: 0x111BD5, size: 0x8, addend: 0x0, symName: _OUTLINED_FUNCTION_1032, symObjAddr: 0x3ECA8, symBinAddr: 0x411E8, symSize: 0xC }
  - { offset: 0x111BEC, size: 0x8, addend: 0x0, symName: _OUTLINED_FUNCTION_1037, symObjAddr: 0x3ECDC, symBinAddr: 0x4121C, symSize: 0x8 }
  - { offset: 0x111C03, size: 0x8, addend: 0x0, symName: _OUTLINED_FUNCTION_1040, symObjAddr: 0x3ECF4, symBinAddr: 0x41234, symSize: 0xC }
  - { offset: 0x111C1A, size: 0x8, addend: 0x0, symName: _OUTLINED_FUNCTION_1045, symObjAddr: 0x3ED28, symBinAddr: 0x41268, symSize: 0xC }
  - { offset: 0x111C31, size: 0x8, addend: 0x0, symName: _OUTLINED_FUNCTION_1080, symObjAddr: 0x3EE74, symBinAddr: 0x413B4, symSize: 0x8 }
  - { offset: 0x111C48, size: 0x8, addend: 0x0, symName: _OUTLINED_FUNCTION_1089, symObjAddr: 0x3EEC4, symBinAddr: 0x41404, symSize: 0xC }
  - { offset: 0x111C5F, size: 0x8, addend: 0x0, symName: _OUTLINED_FUNCTION_1093, symObjAddr: 0x3EEF4, symBinAddr: 0x41434, symSize: 0xC }
  - { offset: 0x111C76, size: 0x8, addend: 0x0, symName: _OUTLINED_FUNCTION_1114, symObjAddr: 0x3F00C, symBinAddr: 0x4154C, symSize: 0xC }
  - { offset: 0x111C8D, size: 0x8, addend: 0x0, symName: _OUTLINED_FUNCTION_1118, symObjAddr: 0x3F04C, symBinAddr: 0x4158C, symSize: 0xC }
  - { offset: 0x111CA4, size: 0x8, addend: 0x0, symName: _OUTLINED_FUNCTION_1147, symObjAddr: 0x3F200, symBinAddr: 0x41740, symSize: 0xC }
  - { offset: 0x111CBB, size: 0x8, addend: 0x0, symName: _OUTLINED_FUNCTION_1148, symObjAddr: 0x3F20C, symBinAddr: 0x4174C, symSize: 0xC }
  - { offset: 0x111CD2, size: 0x8, addend: 0x0, symName: _OUTLINED_FUNCTION_1155, symObjAddr: 0x3F270, symBinAddr: 0x417B0, symSize: 0xC }
  - { offset: 0x111CE9, size: 0x8, addend: 0x0, symName: _OUTLINED_FUNCTION_1156, symObjAddr: 0x3F27C, symBinAddr: 0x417BC, symSize: 0xC }
  - { offset: 0x111D00, size: 0x8, addend: 0x0, symName: _OUTLINED_FUNCTION_1165, symObjAddr: 0x3F300, symBinAddr: 0x41840, symSize: 0x14 }
  - { offset: 0x111D17, size: 0x8, addend: 0x0, symName: _OUTLINED_FUNCTION_1172, symObjAddr: 0x3F374, symBinAddr: 0x418B4, symSize: 0x14 }
  - { offset: 0x111D2E, size: 0x8, addend: 0x0, symName: _OUTLINED_FUNCTION_1174, symObjAddr: 0x3F394, symBinAddr: 0x418D4, symSize: 0xC }
  - { offset: 0x111D45, size: 0x8, addend: 0x0, symName: _OUTLINED_FUNCTION_1178, symObjAddr: 0x3F3D4, symBinAddr: 0x41914, symSize: 0xC }
  - { offset: 0x111D5C, size: 0x8, addend: 0x0, symName: _OUTLINED_FUNCTION_1181, symObjAddr: 0x3F3F8, symBinAddr: 0x41938, symSize: 0xC }
  - { offset: 0x111D73, size: 0x8, addend: 0x0, symName: _OUTLINED_FUNCTION_1183, symObjAddr: 0x3F418, symBinAddr: 0x41958, symSize: 0x14 }
  - { offset: 0x111D8A, size: 0x8, addend: 0x0, symName: _OUTLINED_FUNCTION_1185, symObjAddr: 0x3F440, symBinAddr: 0x41980, symSize: 0xC }
  - { offset: 0x111DA1, size: 0x8, addend: 0x0, symName: _OUTLINED_FUNCTION_1190, symObjAddr: 0x3F47C, symBinAddr: 0x419BC, symSize: 0xC }
  - { offset: 0x111DB8, size: 0x8, addend: 0x0, symName: _OUTLINED_FUNCTION_1191, symObjAddr: 0x3F488, symBinAddr: 0x419C8, symSize: 0xC }
  - { offset: 0x111DCF, size: 0x8, addend: 0x0, symName: _OUTLINED_FUNCTION_1193, symObjAddr: 0x3F4A0, symBinAddr: 0x419E0, symSize: 0xC }
  - { offset: 0x111DE6, size: 0x8, addend: 0x0, symName: _OUTLINED_FUNCTION_1201, symObjAddr: 0x3F508, symBinAddr: 0x41A48, symSize: 0xC }
  - { offset: 0x111DFD, size: 0x8, addend: 0x0, symName: _OUTLINED_FUNCTION_1207, symObjAddr: 0x3F580, symBinAddr: 0x41AC0, symSize: 0x1C }
  - { offset: 0x111E14, size: 0x8, addend: 0x0, symName: _OUTLINED_FUNCTION_1208, symObjAddr: 0x3F59C, symBinAddr: 0x41ADC, symSize: 0x1C }
  - { offset: 0x111E2B, size: 0x8, addend: 0x0, symName: _OUTLINED_FUNCTION_1210, symObjAddr: 0x3F5D4, symBinAddr: 0x41B14, symSize: 0x1C }
  - { offset: 0x4CDA5, size: 0x8, addend: 0x0, symName: __ZN5serde2de12Deserializer21__deserialize_content17h594db9c7f9484d51E, symObjAddr: 0x73A4, symBinAddr: 0xB290, symSize: 0x544 }
  - { offset: 0x4D539, size: 0x8, addend: 0x0, symName: '__ZN81_$LT$core..marker..PhantomData$LT$T$GT$$u20$as$u20$serde..de..DeserializeSeed$GT$11deserialize17h731dd09e06af5aafE', symObjAddr: 0x7A38, symBinAddr: 0xB924, symSize: 0x34 }
  - { offset: 0x54F97, size: 0x8, addend: 0x0, symName: '__ZN93_$LT$$RF$mut$u20$serde_json..de..Deserializer$LT$R$GT$$u20$as$u20$serde..de..Deserializer$GT$15deserialize_str17h75b87ef68c5c0cd4E', symObjAddr: 0x7FDC, symBinAddr: 0xBEC8, symSize: 0x114 }
  - { offset: 0x55147, size: 0x8, addend: 0x0, symName: '__ZN93_$LT$$RF$mut$u20$serde_json..de..Deserializer$LT$R$GT$$u20$as$u20$serde..de..Deserializer$GT$15deserialize_str17hfad47dac66bfffdbE', symObjAddr: 0x80F0, symBinAddr: 0xBFDC, symSize: 0xD8 }
  - { offset: 0x5527F, size: 0x8, addend: 0x0, symName: '__ZN93_$LT$$RF$mut$u20$serde_json..de..Deserializer$LT$R$GT$$u20$as$u20$serde..de..Deserializer$GT$15deserialize_str17h0a6008f858380f24E', symObjAddr: 0x81C8, symBinAddr: 0xC0B4, symSize: 0xD8 }
  - { offset: 0x5588A, size: 0x8, addend: 0x0, symName: '__ZN93_$LT$$RF$mut$u20$serde_json..de..Deserializer$LT$R$GT$$u20$as$u20$serde..de..Deserializer$GT$15deserialize_map17ha3caa7f2ea28449dE', symObjAddr: 0x8454, symBinAddr: 0xC30C, symSize: 0x1B60 }
  - { offset: 0x58173, size: 0x8, addend: 0x0, symName: '__ZN93_$LT$$RF$mut$u20$serde_json..de..Deserializer$LT$R$GT$$u20$as$u20$serde..de..Deserializer$GT$15deserialize_str17h0af6c2c8076b4a64E', symObjAddr: 0xA044, symBinAddr: 0xDEFC, symSize: 0xD4 }
  - { offset: 0x5A7C1, size: 0x8, addend: 0x0, symName: '__ZN75_$LT$serde_json..de..MapAccess$LT$R$GT$$u20$as$u20$serde..de..MapAccess$GT$15next_value_seed17h058c20f838eed768E', symObjAddr: 0x7978, symBinAddr: 0xB864, symSize: 0x30 }
  - { offset: 0x5A829, size: 0x8, addend: 0x0, symName: '__ZN75_$LT$serde_json..de..MapAccess$LT$R$GT$$u20$as$u20$serde..de..MapAccess$GT$15next_value_seed17h32e236768d5b1971E', symObjAddr: 0x79A8, symBinAddr: 0xB894, symSize: 0x30 }
  - { offset: 0x5A891, size: 0x8, addend: 0x0, symName: '__ZN75_$LT$serde_json..de..MapAccess$LT$R$GT$$u20$as$u20$serde..de..MapAccess$GT$15next_value_seed17h3ff5d3e91a83d37aE', symObjAddr: 0x79D8, symBinAddr: 0xB8C4, symSize: 0x30 }
  - { offset: 0x5A8F9, size: 0x8, addend: 0x0, symName: '__ZN75_$LT$serde_json..de..MapAccess$LT$R$GT$$u20$as$u20$serde..de..MapAccess$GT$15next_value_seed17h565a737c12cca63dE', symObjAddr: 0x7A08, symBinAddr: 0xB8F4, symSize: 0x30 }
  - { offset: 0x5A942, size: 0x8, addend: 0x0, symName: '__ZN75_$LT$serde_json..de..MapAccess$LT$R$GT$$u20$as$u20$serde..de..MapAccess$GT$15next_value_seed17h7dfd6dbba7a3546fE', symObjAddr: 0x7A6C, symBinAddr: 0xB958, symSize: 0x34 }
  - { offset: 0x5A9C7, size: 0x8, addend: 0x0, symName: '__ZN75_$LT$serde_json..de..MapAccess$LT$R$GT$$u20$as$u20$serde..de..MapAccess$GT$15next_value_seed17ha3c95f630eef705aE', symObjAddr: 0x7AA0, symBinAddr: 0xB98C, symSize: 0x30 }
  - { offset: 0x5AA2F, size: 0x8, addend: 0x0, symName: '__ZN75_$LT$serde_json..de..MapAccess$LT$R$GT$$u20$as$u20$serde..de..MapAccess$GT$15next_value_seed17ha96a2b33fa9eefa8E', symObjAddr: 0x7AD0, symBinAddr: 0xB9BC, symSize: 0x30 }
  - { offset: 0x5AA97, size: 0x8, addend: 0x0, symName: '__ZN75_$LT$serde_json..de..MapAccess$LT$R$GT$$u20$as$u20$serde..de..MapAccess$GT$15next_value_seed17ha9c72c855572ca56E', symObjAddr: 0x7B00, symBinAddr: 0xB9EC, symSize: 0x30 }
  - { offset: 0x5AB3C, size: 0x8, addend: 0x0, symName: '__ZN75_$LT$serde_json..de..MapAccess$LT$R$GT$$u20$as$u20$serde..de..MapAccess$GT$15next_value_seed17hb5fc4b9b909a5411E', symObjAddr: 0x7B30, symBinAddr: 0xBA1C, symSize: 0x30 }
  - { offset: 0x5ABA4, size: 0x8, addend: 0x0, symName: '__ZN75_$LT$serde_json..de..MapAccess$LT$R$GT$$u20$as$u20$serde..de..MapAccess$GT$15next_value_seed17hbfcf02ecc624e7a2E', symObjAddr: 0x7B60, symBinAddr: 0xBA4C, symSize: 0x40 }
  - { offset: 0x5AC4C, size: 0x8, addend: 0x0, symName: '__ZN75_$LT$serde_json..de..MapAccess$LT$R$GT$$u20$as$u20$serde..de..MapAccess$GT$15next_value_seed17hc078994399287415E', symObjAddr: 0x7BA0, symBinAddr: 0xBA8C, symSize: 0x30 }
  - { offset: 0x5D0E1, size: 0x8, addend: 0x0, symName: '__ZN75_$LT$serde_json..de..SeqAccess$LT$R$GT$$u20$as$u20$serde..de..SeqAccess$GT$17next_element_seed17h03027387fd2e3d55E', symObjAddr: 0x7BD0, symBinAddr: 0xBABC, symSize: 0x64 }
  - { offset: 0x5D143, size: 0x8, addend: 0x0, symName: '__ZN75_$LT$serde_json..de..SeqAccess$LT$R$GT$$u20$as$u20$serde..de..SeqAccess$GT$17next_element_seed17h2172f934b8f30c01E', symObjAddr: 0x7C34, symBinAddr: 0xBB20, symSize: 0x64 }
  - { offset: 0x5D190, size: 0x8, addend: 0x0, symName: '__ZN75_$LT$serde_json..de..SeqAccess$LT$R$GT$$u20$as$u20$serde..de..SeqAccess$GT$17next_element_seed17h26decff349856f86E', symObjAddr: 0x7C98, symBinAddr: 0xBB84, symSize: 0x58 }
  - { offset: 0x5D1F2, size: 0x8, addend: 0x0, symName: '__ZN75_$LT$serde_json..de..SeqAccess$LT$R$GT$$u20$as$u20$serde..de..SeqAccess$GT$17next_element_seed17h6e15fb6832d49fc0E', symObjAddr: 0x7CF0, symBinAddr: 0xBBDC, symSize: 0x58 }
  - { offset: 0x5D254, size: 0x8, addend: 0x0, symName: '__ZN75_$LT$serde_json..de..SeqAccess$LT$R$GT$$u20$as$u20$serde..de..SeqAccess$GT$17next_element_seed17h9eb87976d3ca5b4eE', symObjAddr: 0x7D48, symBinAddr: 0xBC34, symSize: 0x64 }
  - { offset: 0x5D2B6, size: 0x8, addend: 0x0, symName: '__ZN75_$LT$serde_json..de..SeqAccess$LT$R$GT$$u20$as$u20$serde..de..SeqAccess$GT$17next_element_seed17hb155336e73e14b47E', symObjAddr: 0x7DAC, symBinAddr: 0xBC98, symSize: 0x68 }
  - { offset: 0x5D318, size: 0x8, addend: 0x0, symName: '__ZN75_$LT$serde_json..de..SeqAccess$LT$R$GT$$u20$as$u20$serde..de..SeqAccess$GT$17next_element_seed17hbe4dcbfbeedb7a8aE', symObjAddr: 0x7E14, symBinAddr: 0xBD00, symSize: 0x54 }
  - { offset: 0x5D37A, size: 0x8, addend: 0x0, symName: '__ZN75_$LT$serde_json..de..SeqAccess$LT$R$GT$$u20$as$u20$serde..de..SeqAccess$GT$17next_element_seed17hc127abf7048be39eE', symObjAddr: 0x7E68, symBinAddr: 0xBD54, symSize: 0x64 }
  - { offset: 0x5D3DC, size: 0x8, addend: 0x0, symName: '__ZN75_$LT$serde_json..de..SeqAccess$LT$R$GT$$u20$as$u20$serde..de..SeqAccess$GT$17next_element_seed17he6f64009966dcba8E', symObjAddr: 0x7ECC, symBinAddr: 0xBDB8, symSize: 0x60 }
  - { offset: 0x5D43E, size: 0x8, addend: 0x0, symName: '__ZN75_$LT$serde_json..de..SeqAccess$LT$R$GT$$u20$as$u20$serde..de..SeqAccess$GT$17next_element_seed17heacf5595fadcd3d6E', symObjAddr: 0x7F2C, symBinAddr: 0xBE18, symSize: 0x54 }
  - { offset: 0x5E628, size: 0x8, addend: 0x0, symName: '__ZN80_$LT$serde_json..de..VariantAccess$LT$R$GT$$u20$as$u20$serde..de..EnumAccess$GT$12variant_seed17h8eb9a560f5b3c807E', symObjAddr: 0x7F80, symBinAddr: 0xBE6C, symSize: 0x5C }
  - { offset: 0x5E876, size: 0x8, addend: 0x0, symName: '__ZN83_$LT$serde_json..de..VariantAccess$LT$R$GT$$u20$as$u20$serde..de..VariantAccess$GT$12unit_variant17h8b18867a9ad5aaacE', symObjAddr: 0x82A0, symBinAddr: 0xC18C, symSize: 0x80 }
  - { offset: 0x5E8FA, size: 0x8, addend: 0x0, symName: '__ZN83_$LT$serde_json..de..VariantAccess$LT$R$GT$$u20$as$u20$serde..de..VariantAccess$GT$20newtype_variant_seed17he630b1c788f55dc0E', symObjAddr: 0x8320, symBinAddr: 0xC20C, symSize: 0xC4 }
  - { offset: 0x5EC67, size: 0x8, addend: 0x0, symName: '__ZN84_$LT$serde_json..de..UnitVariantAccess$LT$R$GT$$u20$as$u20$serde..de..EnumAccess$GT$12variant_seed17h38dfe660aba0be8eE', symObjAddr: 0x83E4, symBinAddr: 0xC2D0, symSize: 0x3C }
  - { offset: 0x5EE2A, size: 0x8, addend: 0x0, symName: '__ZN87_$LT$serde_json..de..UnitVariantAccess$LT$R$GT$$u20$as$u20$serde..de..VariantAccess$GT$20newtype_variant_seed17h8f8c207bb9a32c40E', symObjAddr: 0x8420, symBinAddr: 0x41CC4, symSize: 0x34 }
  - { offset: 0x5FED6, size: 0x8, addend: 0x0, symName: '__ZN4core3ptr59drop_in_place$LT$powersync_core..sync..line..Checkpoint$GT$17h8eb2e58c2e536c72E', symObjAddr: 0x6CBC, symBinAddr: 0xABA8, symSize: 0x20 }
  - { offset: 0x5FF26, size: 0x8, addend: 0x0, symName: '__ZN4core3ptr86drop_in_place$LT$alloc..vec..Vec$LT$powersync_core..sync..line..BucketChecksum$GT$$GT$17hfc9dd5694b69801eE', symObjAddr: 0x6CDC, symBinAddr: 0xABC8, symSize: 0x20 }
  - { offset: 0x5FF93, size: 0x8, addend: 0x0, symName: '__ZN4core3ptr89drop_in_place$LT$alloc..vec..Vec$LT$powersync_core..sync..line..StreamDescription$GT$$GT$17h1ebc1a2a9995798aE', symObjAddr: 0x6CFC, symBinAddr: 0xABE8, symSize: 0x20 }
  - { offset: 0x5FFE1, size: 0x8, addend: 0x0, symName: '__ZN4core3ptr111drop_in_place$LT$alloc..rc..Rc$LT$alloc..vec..Vec$LT$powersync_core..sync..subscriptions..StreamKey$GT$$GT$$GT$17h1bfeb1a1a6cf5004E', symObjAddr: 0x6D1C, symBinAddr: 0xAC08, symSize: 0x18 }
  - { offset: 0x60014, size: 0x8, addend: 0x0, symName: '__ZN4core3ptr111drop_in_place$LT$alloc..rc..Rc$LT$alloc..vec..Vec$LT$powersync_core..sync..subscriptions..StreamKey$GT$$GT$$GT$17h1bfeb1a1a6cf5004E', symObjAddr: 0x6D1C, symBinAddr: 0xAC08, symSize: 0x18 }
  - { offset: 0x60030, size: 0x8, addend: 0x0, symName: '__ZN4core3ptr111drop_in_place$LT$alloc..rc..Rc$LT$alloc..vec..Vec$LT$powersync_core..sync..subscriptions..StreamKey$GT$$GT$$GT$17h1bfeb1a1a6cf5004E', symObjAddr: 0x6D1C, symBinAddr: 0xAC08, symSize: 0x18 }
  - { offset: 0x6004C, size: 0x8, addend: 0x0, symName: '__ZN4core3ptr111drop_in_place$LT$alloc..rc..Rc$LT$alloc..vec..Vec$LT$powersync_core..sync..subscriptions..StreamKey$GT$$GT$$GT$17h1bfeb1a1a6cf5004E', symObjAddr: 0x6D1C, symBinAddr: 0xAC08, symSize: 0x18 }
  - { offset: 0x600DE, size: 0x8, addend: 0x0, symName: '__ZN4core3ptr67drop_in_place$LT$powersync_core..sync..subscriptions..StreamKey$GT$17hb9e1e6ca2fefaefaE', symObjAddr: 0x6D34, symBinAddr: 0xAC20, symSize: 0x20 }
  - { offset: 0x6010F, size: 0x8, addend: 0x0, symName: '__ZN4core3ptr69drop_in_place$LT$powersync_core..sync..interface..StartSyncStream$GT$17h8d35426246482025E', symObjAddr: 0x6D54, symBinAddr: 0xAC40, symSize: 0x2C }
  - { offset: 0x6017E, size: 0x8, addend: 0x0, symName: '__ZN4core3ptr125drop_in_place$LT$core..option..Option$LT$serde_json..map..Map$LT$alloc..string..String$C$serde_json..value..Value$GT$$GT$$GT$17h12c5dfa7dbf44f1eE', symObjAddr: 0x6D80, symBinAddr: 0xAC6C, symSize: 0x14 }
  - { offset: 0x601DA, size: 0x8, addend: 0x0, symName: '__ZN4core3ptr51drop_in_place$LT$powersync_core..schema..Schema$GT$17h918ca6c450a2e57aE', symObjAddr: 0x6D94, symBinAddr: 0xAC80, symSize: 0x24 }
  - { offset: 0x6022A, size: 0x8, addend: 0x0, symName: '__ZN4core3ptr85drop_in_place$LT$alloc..vec..Vec$LT$powersync_core..schema..table_info..Table$GT$$GT$17h4519fec96871e2edE', symObjAddr: 0x6DB8, symBinAddr: 0xACA4, symSize: 0x24 }
  - { offset: 0x60299, size: 0x8, addend: 0x0, symName: '__ZN4core3ptr88drop_in_place$LT$alloc..vec..Vec$LT$powersync_core..schema..table_info..RawTable$GT$$GT$17h872e23a8e3254ddaE', symObjAddr: 0x6DDC, symBinAddr: 0xACC8, symSize: 0x20 }
  - { offset: 0x602E7, size: 0x8, addend: 0x0, symName: '__ZN4core3ptr63drop_in_place$LT$powersync_core..sync..line..CheckpointDiff$GT$17h1e9e38f1e2e52782E', symObjAddr: 0x6DFC, symBinAddr: 0xACE8, symSize: 0x20 }
  - { offset: 0x60318, size: 0x8, addend: 0x0, symName: '__ZN4core3ptr57drop_in_place$LT$powersync_core..sync..line..DataLine$GT$17h5d1f182cf4e6da03E', symObjAddr: 0x6E1C, symBinAddr: 0xAD08, symSize: 0x24 }
  - { offset: 0x603A6, size: 0x8, addend: 0x0, symName: '__ZN4core3ptr50drop_in_place$LT$alloc..borrow..Cow$LT$str$GT$$GT$17h26b2eb237bcfdbcaE', symObjAddr: 0x6E40, symBinAddr: 0xAD2C, symSize: 0x14 }
  - { offset: 0x60432, size: 0x8, addend: 0x0, symName: '__ZN4core3ptr82drop_in_place$LT$alloc..vec..Vec$LT$powersync_core..sync..line..OplogEntry$GT$$GT$17h3ccef19e9af8c687E', symObjAddr: 0x6E54, symBinAddr: 0xAD40, symSize: 0x20 }
  - { offset: 0x6049F, size: 0x8, addend: 0x0, symName: '__ZN4core3ptr73drop_in_place$LT$alloc..vec..Vec$LT$alloc..borrow..Cow$LT$str$GT$$GT$$GT$17h42769bdc7faa815eE', symObjAddr: 0x6E74, symBinAddr: 0xAD60, symSize: 0x20 }
  - { offset: 0x604ED, size: 0x8, addend: 0x0, symName: '__ZN4core3ptr62drop_in_place$LT$powersync_core..schema..table_info..Table$GT$17h1f0958f7d7d67c82E', symObjAddr: 0x6E94, symBinAddr: 0xAD80, symSize: 0x38 }
  - { offset: 0x6053D, size: 0x8, addend: 0x0, symName: '__ZN4core3ptr86drop_in_place$LT$alloc..vec..Vec$LT$powersync_core..schema..table_info..Column$GT$$GT$17h1372a270d86f5d74E', symObjAddr: 0x6ECC, symBinAddr: 0xADB8, symSize: 0x20 }
  - { offset: 0x605AA, size: 0x8, addend: 0x0, symName: '__ZN4core3ptr85drop_in_place$LT$alloc..vec..Vec$LT$powersync_core..schema..table_info..Index$GT$$GT$17h7d10a809d2fbb090E', symObjAddr: 0x6EEC, symBinAddr: 0xADD8, symSize: 0x20 }
  - { offset: 0x60617, size: 0x8, addend: 0x0, symName: '__ZN4core3ptr99drop_in_place$LT$core..option..Option$LT$powersync_core..schema..table_info..DiffIncludeOld$GT$$GT$17ha040ff5ac7e1e551E', symObjAddr: 0x6F0C, symBinAddr: 0xADF8, symSize: 0x1C }
  - { offset: 0x60679, size: 0x8, addend: 0x0, symName: '__ZN4core3ptr65drop_in_place$LT$alloc..vec..Vec$LT$alloc..string..String$GT$$GT$17hc479e231edacd59bE', symObjAddr: 0x6F28, symBinAddr: 0xAE14, symSize: 0x20 }
  - { offset: 0x60743, size: 0x8, addend: 0x0, symName: '__ZN4core3ptr59drop_in_place$LT$serde..__private..de..content..Content$GT$17ha04eeb5331f27e5fE', symObjAddr: 0x78E8, symBinAddr: 0xB7D4, symSize: 0x70 }
  - { offset: 0x607CA, size: 0x8, addend: 0x0, symName: '__ZN4core3ptr84drop_in_place$LT$alloc..boxed..Box$LT$serde..__private..de..content..Content$GT$$GT$17he4be82e6358ff631E', symObjAddr: 0x7958, symBinAddr: 0xB844, symSize: 0x20 }
  - { offset: 0x60976, size: 0x8, addend: 0x0, symName: '__ZN4core3ptr159drop_in_place$LT$alloc..vec..Vec$LT$core..option..Option$LT$$LP$serde..__private..de..content..Content$C$serde..__private..de..content..Content$RP$$GT$$GT$$GT$17h34fbc82672ae3bdbE', symObjAddr: 0x9FB4, symBinAddr: 0xDE6C, symSize: 0x4C }
  - { offset: 0x60A2D, size: 0x8, addend: 0x0, symName: '__ZN4core3ptr93drop_in_place$LT$alloc..vec..Vec$LT$powersync_core..schema..table_info..IndexedColumn$GT$$GT$17h844aad4ad5000f4dE', symObjAddr: 0xA000, symBinAddr: 0xDEB8, symSize: 0x24 }
  - { offset: 0x60A9C, size: 0x8, addend: 0x0, symName: '__ZN4core3ptr101drop_in_place$LT$alloc..vec..Vec$LT$powersync_core..schema..table_info..PendingStatementValue$GT$$GT$17hf272600cb67727e1E', symObjAddr: 0xA024, symBinAddr: 0xDEDC, symSize: 0x20 }
  - { offset: 0x60AEA, size: 0x8, addend: 0x0, symName: '__ZN4core3ptr153drop_in_place$LT$core..option..Option$LT$core..option..Option$LT$serde_json..map..Map$LT$alloc..string..String$C$serde_json..value..Value$GT$$GT$$GT$$GT$17hbf707b0542b2102cE', symObjAddr: 0xA118, symBinAddr: 0xDFD0, symSize: 0x14 }
  - { offset: 0x60B18, size: 0x8, addend: 0x0, symName: '__ZN4core3ptr79drop_in_place$LT$core..option..Option$LT$powersync_core..schema..Schema$GT$$GT$17h04ae8ce8c50297f8E', symObjAddr: 0xA12C, symBinAddr: 0xDFE4, symSize: 0x1C }
  - { offset: 0x60B46, size: 0x8, addend: 0x0, symName: '__ZN4core3ptr139drop_in_place$LT$core..option..Option$LT$alloc..rc..Rc$LT$alloc..vec..Vec$LT$powersync_core..sync..subscriptions..StreamKey$GT$$GT$$GT$$GT$17he816dd60e7a6d54eE', symObjAddr: 0xA148, symBinAddr: 0xE000, symSize: 0xC }
  - { offset: 0x60B72, size: 0x8, addend: 0x0, symName: '__ZN4core3ptr62drop_in_place$LT$powersync_core..schema..table_info..Index$GT$17h4b7bf003543f4c4dE', symObjAddr: 0xA154, symBinAddr: 0xE00C, symSize: 0x20 }
  - { offset: 0x60BA3, size: 0x8, addend: 0x0, symName: '__ZN4core3ptr78drop_in_place$LT$core..option..Option$LT$alloc..borrow..Cow$LT$str$GT$$GT$$GT$17h82041a2f27f03871E', symObjAddr: 0xA174, symBinAddr: 0xE02C, symSize: 0x18 }
  - { offset: 0x60BCF, size: 0x8, addend: 0x0, symName: '__ZN4core3ptr59drop_in_place$LT$powersync_core..sync..line..OplogEntry$GT$17h9480d45dc68a5c57E', symObjAddr: 0xA18C, symBinAddr: 0xE044, symSize: 0x24 }
  - { offset: 0x60C00, size: 0x8, addend: 0x0, symName: '__ZN4core3ptr106drop_in_place$LT$core..option..Option$LT$core..option..Option$LT$alloc..borrow..Cow$LT$str$GT$$GT$$GT$$GT$17hfd92bd04694cfab3E', symObjAddr: 0xA1B0, symBinAddr: 0xE068, symSize: 0x1C }
  - { offset: 0x60C2C, size: 0x8, addend: 0x0, symName: '__ZN4core3ptr127drop_in_place$LT$core..option..Option$LT$core..option..Option$LT$alloc..boxed..Box$LT$serde_json..raw..RawValue$GT$$GT$$GT$$GT$17h071a06faa2482345E', symObjAddr: 0xA1CC, symBinAddr: 0xE084, symSize: 0x18 }
  - { offset: 0x60C5D, size: 0x8, addend: 0x0, symName: '__ZN4core3ptr66drop_in_place$LT$powersync_core..sync..line..StreamDescription$GT$17hec3ee1c45c267733E', symObjAddr: 0xA1E4, symBinAddr: 0xE09C, symSize: 0x24 }
  - { offset: 0x60C8E, size: 0x8, addend: 0x0, symName: '__ZN4core3ptr116drop_in_place$LT$alloc..rc..Rc$LT$alloc..vec..Vec$LT$powersync_core..sync..line..StreamSubscriptionError$GT$$GT$$GT$17h84fa5fd96ccd9c06E', symObjAddr: 0xA208, symBinAddr: 0xE0C0, symSize: 0x18 }
  - { offset: 0x60CC1, size: 0x8, addend: 0x0, symName: '__ZN4core3ptr116drop_in_place$LT$alloc..rc..Rc$LT$alloc..vec..Vec$LT$powersync_core..sync..line..StreamSubscriptionError$GT$$GT$$GT$17h84fa5fd96ccd9c06E', symObjAddr: 0xA208, symBinAddr: 0xE0C0, symSize: 0x18 }
  - { offset: 0x60CDD, size: 0x8, addend: 0x0, symName: '__ZN4core3ptr116drop_in_place$LT$alloc..rc..Rc$LT$alloc..vec..Vec$LT$powersync_core..sync..line..StreamSubscriptionError$GT$$GT$$GT$17h84fa5fd96ccd9c06E', symObjAddr: 0xA208, symBinAddr: 0xE0C0, symSize: 0x18 }
  - { offset: 0x60CF9, size: 0x8, addend: 0x0, symName: '__ZN4core3ptr116drop_in_place$LT$alloc..rc..Rc$LT$alloc..vec..Vec$LT$powersync_core..sync..line..StreamSubscriptionError$GT$$GT$$GT$17h84fa5fd96ccd9c06E', symObjAddr: 0xA208, symBinAddr: 0xE0C0, symSize: 0x18 }
  - { offset: 0x60D8B, size: 0x8, addend: 0x0, symName: '__ZN4core3ptr114drop_in_place$LT$core..option..Option$LT$alloc..vec..Vec$LT$powersync_core..sync..line..BucketChecksum$GT$$GT$$GT$17hf419417545140984E', symObjAddr: 0xA220, symBinAddr: 0xE0D8, symSize: 0x1C }
  - { offset: 0x60DB9, size: 0x8, addend: 0x0, symName: '__ZN4core3ptr117drop_in_place$LT$core..option..Option$LT$alloc..vec..Vec$LT$powersync_core..sync..line..StreamDescription$GT$$GT$$GT$17heca6fcd9e97a4e84E', symObjAddr: 0xA23C, symBinAddr: 0xE0F4, symSize: 0x1C }
  - { offset: 0x60DE7, size: 0x8, addend: 0x0, symName: '__ZN4core3ptr73drop_in_place$LT$powersync_core..schema..table_info..PendingStatement$GT$17he475c2bcf7a06b02E', symObjAddr: 0xA258, symBinAddr: 0xE110, symSize: 0x20 }
  - { offset: 0x60E18, size: 0x8, addend: 0x0, symName: '__ZN4core3ptr65drop_in_place$LT$powersync_core..schema..table_info..RawTable$GT$17hb3c3d4426f6b9309E', symObjAddr: 0xA278, symBinAddr: 0xE130, symSize: 0x28 }
  - { offset: 0x60E49, size: 0x8, addend: 0x0, symName: '__ZN4core3ptr101drop_in_place$LT$core..option..Option$LT$powersync_core..schema..table_info..PendingStatement$GT$$GT$17he3a5f5bc99aacf9bE', symObjAddr: 0xA2A0, symBinAddr: 0xE158, symSize: 0x1C }
  - { offset: 0x60E77, size: 0x8, addend: 0x0, symName: '__ZN4core3ptr63drop_in_place$LT$powersync_core..schema..table_info..Column$GT$17hc541c20b93eed4d2E', symObjAddr: 0xA2BC, symBinAddr: 0xE174, symSize: 0x1C }
  - { offset: 0x60EF2, size: 0x8, addend: 0x0, symName: '__ZN4core3ptr116drop_in_place$LT$core..option..Option$LT$alloc..vec..Vec$LT$powersync_core..schema..table_info..RawTable$GT$$GT$$GT$17h1f9664dbea7d5a74E', symObjAddr: 0xA2D8, symBinAddr: 0xE190, symSize: 0x1C }
  - { offset: 0x60F20, size: 0x8, addend: 0x0, symName: '__ZN4core3ptr63drop_in_place$LT$powersync_core..sync..line..BucketChecksum$GT$17h743428c1c2985eb1E', symObjAddr: 0xA318, symBinAddr: 0xE1D0, symSize: 0x24 }
  - { offset: 0x60F51, size: 0x8, addend: 0x0, symName: '__ZN4core3ptr145drop_in_place$LT$core..option..Option$LT$alloc..rc..Rc$LT$alloc..vec..Vec$LT$powersync_core..sync..line..BucketSubscriptionReason$GT$$GT$$GT$$GT$17h3ac1fe7c9d57b51eE', symObjAddr: 0xA33C, symBinAddr: 0xE1F4, symSize: 0xC }
  - { offset: 0x60F7D, size: 0x8, addend: 0x0, symName: '__ZN4core3ptr117drop_in_place$LT$alloc..rc..Rc$LT$alloc..vec..Vec$LT$powersync_core..sync..line..BucketSubscriptionReason$GT$$GT$$GT$17hc31d927d5bbc1e55E', symObjAddr: 0xA348, symBinAddr: 0xE200, symSize: 0x18 }
  - { offset: 0x60FB0, size: 0x8, addend: 0x0, symName: '__ZN4core3ptr117drop_in_place$LT$alloc..rc..Rc$LT$alloc..vec..Vec$LT$powersync_core..sync..line..BucketSubscriptionReason$GT$$GT$$GT$17hc31d927d5bbc1e55E', symObjAddr: 0xA348, symBinAddr: 0xE200, symSize: 0x18 }
  - { offset: 0x60FCC, size: 0x8, addend: 0x0, symName: '__ZN4core3ptr117drop_in_place$LT$alloc..rc..Rc$LT$alloc..vec..Vec$LT$powersync_core..sync..line..BucketSubscriptionReason$GT$$GT$$GT$17hc31d927d5bbc1e55E', symObjAddr: 0xA348, symBinAddr: 0xE200, symSize: 0x18 }
  - { offset: 0x60FE8, size: 0x8, addend: 0x0, symName: '__ZN4core3ptr117drop_in_place$LT$alloc..rc..Rc$LT$alloc..vec..Vec$LT$powersync_core..sync..line..BucketSubscriptionReason$GT$$GT$$GT$17hc31d927d5bbc1e55E', symObjAddr: 0xA348, symBinAddr: 0xE200, symSize: 0x18 }
  - { offset: 0x6107A, size: 0x8, addend: 0x0, symName: '__ZN4core3ptr70drop_in_place$LT$powersync_core..schema..table_info..IndexedColumn$GT$17h81c97bd6c49b8fecE', symObjAddr: 0xA360, symBinAddr: 0xE218, symSize: 0x1C }
  - { offset: 0x6C437, size: 0x8, addend: 0x0, symName: '__ZN65_$LT$alloc..rc..Rc$LT$T$GT$$u20$as$u20$core..default..Default$GT$7default17hf0ce21e221e889b2E', symObjAddr: 0xA2F4, symBinAddr: 0xE1AC, symSize: 0x24 }
  - { offset: 0x6C97B, size: 0x8, addend: 0x0, symName: __ZN10serde_json2de12ParserNumber5visit17h2ebfe29b790d2442E, symObjAddr: 0x6F48, symBinAddr: 0xAE34, symSize: 0x78 }
  - { offset: 0x6CA29, size: 0x8, addend: 0x0, symName: __ZN10serde_json2de12ParserNumber5visit17h45367f6e97e813ddE, symObjAddr: 0x6FC0, symBinAddr: 0xAEAC, symSize: 0xD4 }
  - { offset: 0x6CB72, size: 0x8, addend: 0x0, symName: __ZN10serde_json2de12ParserNumber5visit17h4d530d6021f6c139E, symObjAddr: 0x7094, symBinAddr: 0xAF80, symSize: 0x8C }
  - { offset: 0x6CC21, size: 0x8, addend: 0x0, symName: __ZN10serde_json2de12ParserNumber5visit17h8410a3fbf6736729E, symObjAddr: 0x7120, symBinAddr: 0xB00C, symSize: 0x74 }
  - { offset: 0x6CD14, size: 0x8, addend: 0x0, symName: __ZN10serde_json2de12ParserNumber5visit17h9a87377b389b8665E, symObjAddr: 0x7194, symBinAddr: 0xB080, symSize: 0x6C }
  - { offset: 0x6CE14, size: 0x8, addend: 0x0, symName: __ZN10serde_json2de12ParserNumber5visit17hb7bf8c3db0f9ee7fE, symObjAddr: 0x7200, symBinAddr: 0xB0EC, symSize: 0xA8 }
  - { offset: 0x6CEF7, size: 0x8, addend: 0x0, symName: __ZN10serde_json2de12ParserNumber5visit17hda6ef8ed5c739480E, symObjAddr: 0x72A8, symBinAddr: 0xB194, symSize: 0x84 }
  - { offset: 0x6D00A, size: 0x8, addend: 0x0, symName: __ZN10serde_json2de12ParserNumber5visit17he8a5ec9e290fc1d0E, symObjAddr: 0x732C, symBinAddr: 0xB218, symSize: 0x78 }
  - { offset: 0x6DD00, size: 0x8, addend: 0x0, symName: _OUTLINED_FUNCTION_2, symObjAddr: 0x3B098, symBinAddr: 0x3D5D8, symSize: 0x14 }
  - { offset: 0x6DD17, size: 0x8, addend: 0x0, symName: _OUTLINED_FUNCTION_3, symObjAddr: 0x3B0AC, symBinAddr: 0x3D5EC, symSize: 0x14 }
  - { offset: 0x6DD2E, size: 0x8, addend: 0x0, symName: _OUTLINED_FUNCTION_5, symObjAddr: 0x3B0D4, symBinAddr: 0x3D614, symSize: 0x14 }
  - { offset: 0x6DD45, size: 0x8, addend: 0x0, symName: _OUTLINED_FUNCTION_7, symObjAddr: 0x3B0FC, symBinAddr: 0x3D63C, symSize: 0x14 }
  - { offset: 0x6DD5C, size: 0x8, addend: 0x0, symName: _OUTLINED_FUNCTION_18, symObjAddr: 0x3B1B8, symBinAddr: 0x3D6F8, symSize: 0x10 }
  - { offset: 0x6DD73, size: 0x8, addend: 0x0, symName: _OUTLINED_FUNCTION_21, symObjAddr: 0x3B1E8, symBinAddr: 0x3D728, symSize: 0x10 }
  - { offset: 0x6DD8A, size: 0x8, addend: 0x0, symName: _OUTLINED_FUNCTION_22, symObjAddr: 0x3B1F8, symBinAddr: 0x3D738, symSize: 0x10 }
  - { offset: 0x6DDA1, size: 0x8, addend: 0x0, symName: _OUTLINED_FUNCTION_25, symObjAddr: 0x3B230, symBinAddr: 0x3D770, symSize: 0x18 }
  - { offset: 0x6DDB8, size: 0x8, addend: 0x0, symName: _OUTLINED_FUNCTION_35, symObjAddr: 0x3B31C, symBinAddr: 0x3D85C, symSize: 0x10 }
  - { offset: 0x6DDCF, size: 0x8, addend: 0x0, symName: _OUTLINED_FUNCTION_36, symObjAddr: 0x3B32C, symBinAddr: 0x3D86C, symSize: 0xC }
  - { offset: 0x6DDE6, size: 0x8, addend: 0x0, symName: _OUTLINED_FUNCTION_37, symObjAddr: 0x3B338, symBinAddr: 0x3D878, symSize: 0x10 }
  - { offset: 0x6DDFD, size: 0x8, addend: 0x0, symName: _OUTLINED_FUNCTION_43, symObjAddr: 0x3B3C4, symBinAddr: 0x3D904, symSize: 0x10 }
  - { offset: 0x6DE14, size: 0x8, addend: 0x0, symName: _OUTLINED_FUNCTION_47, symObjAddr: 0x3B410, symBinAddr: 0x3D950, symSize: 0x14 }
  - { offset: 0x6DE2B, size: 0x8, addend: 0x0, symName: _OUTLINED_FUNCTION_48, symObjAddr: 0x3B424, symBinAddr: 0x3D964, symSize: 0xC }
  - { offset: 0x6DE42, size: 0x8, addend: 0x0, symName: _OUTLINED_FUNCTION_49, symObjAddr: 0x3B430, symBinAddr: 0x3D970, symSize: 0xC }
  - { offset: 0x6DE59, size: 0x8, addend: 0x0, symName: _OUTLINED_FUNCTION_54, symObjAddr: 0x3B494, symBinAddr: 0x3D9D4, symSize: 0x10 }
  - { offset: 0x6DE70, size: 0x8, addend: 0x0, symName: _OUTLINED_FUNCTION_56, symObjAddr: 0x3B4B4, symBinAddr: 0x3D9F4, symSize: 0x10 }
  - { offset: 0x6DE87, size: 0x8, addend: 0x0, symName: _OUTLINED_FUNCTION_57, symObjAddr: 0x3B4C4, symBinAddr: 0x3DA04, symSize: 0x10 }
  - { offset: 0x6DE9E, size: 0x8, addend: 0x0, symName: _OUTLINED_FUNCTION_58, symObjAddr: 0x3B4D4, symBinAddr: 0x3DA14, symSize: 0x1C }
  - { offset: 0x6DEB5, size: 0x8, addend: 0x0, symName: _OUTLINED_FUNCTION_60, symObjAddr: 0x3B4FC, symBinAddr: 0x3DA3C, symSize: 0x10 }
  - { offset: 0x6DECC, size: 0x8, addend: 0x0, symName: _OUTLINED_FUNCTION_61, symObjAddr: 0x3B50C, symBinAddr: 0x3DA4C, symSize: 0x10 }
  - { offset: 0x6DEE3, size: 0x8, addend: 0x0, symName: _OUTLINED_FUNCTION_66, symObjAddr: 0x3B564, symBinAddr: 0x3DAA4, symSize: 0x10 }
  - { offset: 0x6DEFA, size: 0x8, addend: 0x0, symName: _OUTLINED_FUNCTION_72, symObjAddr: 0x3B618, symBinAddr: 0x3DB58, symSize: 0x14 }
  - { offset: 0x6DF11, size: 0x8, addend: 0x0, symName: _OUTLINED_FUNCTION_88, symObjAddr: 0x3B76C, symBinAddr: 0x3DCAC, symSize: 0x10 }
  - { offset: 0x6DF28, size: 0x8, addend: 0x0, symName: _OUTLINED_FUNCTION_89, symObjAddr: 0x3B77C, symBinAddr: 0x3DCBC, symSize: 0x14 }
  - { offset: 0x6DF3F, size: 0x8, addend: 0x0, symName: _OUTLINED_FUNCTION_93, symObjAddr: 0x3B7C4, symBinAddr: 0x3DD04, symSize: 0x10 }
  - { offset: 0x6DF56, size: 0x8, addend: 0x0, symName: _OUTLINED_FUNCTION_100, symObjAddr: 0x3B854, symBinAddr: 0x3DD94, symSize: 0xC }
  - { offset: 0x6DF6D, size: 0x8, addend: 0x0, symName: _OUTLINED_FUNCTION_111, symObjAddr: 0x3B928, symBinAddr: 0x3DE68, symSize: 0xC }
  - { offset: 0x6DF84, size: 0x8, addend: 0x0, symName: _OUTLINED_FUNCTION_120, symObjAddr: 0x3B9F8, symBinAddr: 0x3DF38, symSize: 0xC }
  - { offset: 0x6DF9B, size: 0x8, addend: 0x0, symName: _OUTLINED_FUNCTION_147, symObjAddr: 0x3BC1C, symBinAddr: 0x3E15C, symSize: 0x14 }
  - { offset: 0x6DFB2, size: 0x8, addend: 0x0, symName: _OUTLINED_FUNCTION_150, symObjAddr: 0x3BC60, symBinAddr: 0x3E1A0, symSize: 0x14 }
  - { offset: 0x6DFC9, size: 0x8, addend: 0x0, symName: _OUTLINED_FUNCTION_166, symObjAddr: 0x3BD80, symBinAddr: 0x3E2C0, symSize: 0x8 }
  - { offset: 0x6DFE0, size: 0x8, addend: 0x0, symName: _OUTLINED_FUNCTION_178, symObjAddr: 0x3BE30, symBinAddr: 0x3E370, symSize: 0x10 }
  - { offset: 0x6DFF7, size: 0x8, addend: 0x0, symName: _OUTLINED_FUNCTION_179, symObjAddr: 0x3BE40, symBinAddr: 0x3E380, symSize: 0x10 }
  - { offset: 0x6E00E, size: 0x8, addend: 0x0, symName: _OUTLINED_FUNCTION_193, symObjAddr: 0x3BF3C, symBinAddr: 0x3E47C, symSize: 0x8 }
  - { offset: 0x6E025, size: 0x8, addend: 0x0, symName: _OUTLINED_FUNCTION_194, symObjAddr: 0x3BF44, symBinAddr: 0x3E484, symSize: 0xC }
  - { offset: 0x6E03C, size: 0x8, addend: 0x0, symName: _OUTLINED_FUNCTION_208, symObjAddr: 0x3C04C, symBinAddr: 0x3E58C, symSize: 0x10 }
  - { offset: 0x6E053, size: 0x8, addend: 0x0, symName: _OUTLINED_FUNCTION_210, symObjAddr: 0x3C068, symBinAddr: 0x3E5A8, symSize: 0xC }
  - { offset: 0x6E06A, size: 0x8, addend: 0x0, symName: _OUTLINED_FUNCTION_213, symObjAddr: 0x3C08C, symBinAddr: 0x3E5CC, symSize: 0x8 }
  - { offset: 0x6E081, size: 0x8, addend: 0x0, symName: _OUTLINED_FUNCTION_215, symObjAddr: 0x3C09C, symBinAddr: 0x3E5DC, symSize: 0x8 }
  - { offset: 0x6E098, size: 0x8, addend: 0x0, symName: _OUTLINED_FUNCTION_217, symObjAddr: 0x3C0AC, symBinAddr: 0x3E5EC, symSize: 0x8 }
  - { offset: 0x6E0AF, size: 0x8, addend: 0x0, symName: _OUTLINED_FUNCTION_219, symObjAddr: 0x3C0C0, symBinAddr: 0x3E600, symSize: 0x8 }
  - { offset: 0x6E0C6, size: 0x8, addend: 0x0, symName: _OUTLINED_FUNCTION_220, symObjAddr: 0x3C0C8, symBinAddr: 0x3E608, symSize: 0x8 }
  - { offset: 0x6E0DD, size: 0x8, addend: 0x0, symName: _OUTLINED_FUNCTION_221, symObjAddr: 0x3C0D0, symBinAddr: 0x3E610, symSize: 0x8 }
  - { offset: 0x6E0F4, size: 0x8, addend: 0x0, symName: _OUTLINED_FUNCTION_223, symObjAddr: 0x3C0E4, symBinAddr: 0x3E624, symSize: 0xC }
  - { offset: 0x6E10B, size: 0x8, addend: 0x0, symName: _OUTLINED_FUNCTION_226, symObjAddr: 0x3C108, symBinAddr: 0x3E648, symSize: 0xC }
  - { offset: 0x6E122, size: 0x8, addend: 0x0, symName: _OUTLINED_FUNCTION_230, symObjAddr: 0x3C134, symBinAddr: 0x3E674, symSize: 0x18 }
  - { offset: 0x6E139, size: 0x8, addend: 0x0, symName: _OUTLINED_FUNCTION_231, symObjAddr: 0x3C14C, symBinAddr: 0x3E68C, symSize: 0x10 }
  - { offset: 0x6E150, size: 0x8, addend: 0x0, symName: _OUTLINED_FUNCTION_244, symObjAddr: 0x3C234, symBinAddr: 0x3E774, symSize: 0x10 }
  - { offset: 0x6E167, size: 0x8, addend: 0x0, symName: _OUTLINED_FUNCTION_245, symObjAddr: 0x3C244, symBinAddr: 0x3E784, symSize: 0x10 }
  - { offset: 0x6E17E, size: 0x8, addend: 0x0, symName: _OUTLINED_FUNCTION_248, symObjAddr: 0x3C28C, symBinAddr: 0x3E7CC, symSize: 0x10 }
  - { offset: 0x6E195, size: 0x8, addend: 0x0, symName: _OUTLINED_FUNCTION_256, symObjAddr: 0x3C2F0, symBinAddr: 0x3E830, symSize: 0x8 }
  - { offset: 0x6E1AC, size: 0x8, addend: 0x0, symName: _OUTLINED_FUNCTION_262, symObjAddr: 0x3C34C, symBinAddr: 0x3E88C, symSize: 0x8 }
  - { offset: 0x6E1C3, size: 0x8, addend: 0x0, symName: _OUTLINED_FUNCTION_267, symObjAddr: 0x3C37C, symBinAddr: 0x3E8BC, symSize: 0x8 }
  - { offset: 0x6E1DA, size: 0x8, addend: 0x0, symName: _OUTLINED_FUNCTION_268, symObjAddr: 0x3C384, symBinAddr: 0x3E8C4, symSize: 0xC }
  - { offset: 0x6E1F1, size: 0x8, addend: 0x0, symName: _OUTLINED_FUNCTION_279, symObjAddr: 0x3C440, symBinAddr: 0x3E980, symSize: 0x14 }
  - { offset: 0x6E208, size: 0x8, addend: 0x0, symName: _OUTLINED_FUNCTION_281, symObjAddr: 0x3C468, symBinAddr: 0x3E9A8, symSize: 0x14 }
  - { offset: 0x6E21F, size: 0x8, addend: 0x0, symName: _OUTLINED_FUNCTION_283, symObjAddr: 0x3C488, symBinAddr: 0x3E9C8, symSize: 0x8 }
  - { offset: 0x6E236, size: 0x8, addend: 0x0, symName: _OUTLINED_FUNCTION_287, symObjAddr: 0x3C4B0, symBinAddr: 0x3E9F0, symSize: 0x8 }
  - { offset: 0x6E24D, size: 0x8, addend: 0x0, symName: _OUTLINED_FUNCTION_290, symObjAddr: 0x3C4E4, symBinAddr: 0x3EA24, symSize: 0xC }
  - { offset: 0x6E264, size: 0x8, addend: 0x0, symName: _OUTLINED_FUNCTION_292, symObjAddr: 0x3C4F8, symBinAddr: 0x3EA38, symSize: 0x8 }
  - { offset: 0x6E27B, size: 0x8, addend: 0x0, symName: _OUTLINED_FUNCTION_293, symObjAddr: 0x3C500, symBinAddr: 0x3EA40, symSize: 0xC }
  - { offset: 0x6E292, size: 0x8, addend: 0x0, symName: _OUTLINED_FUNCTION_294, symObjAddr: 0x3C50C, symBinAddr: 0x3EA4C, symSize: 0xC }
  - { offset: 0x6E2A9, size: 0x8, addend: 0x0, symName: _OUTLINED_FUNCTION_295, symObjAddr: 0x3C518, symBinAddr: 0x3EA58, symSize: 0xC }
  - { offset: 0x6E2C0, size: 0x8, addend: 0x0, symName: _OUTLINED_FUNCTION_300, symObjAddr: 0x3C54C, symBinAddr: 0x3EA8C, symSize: 0xC }
  - { offset: 0x6E2D7, size: 0x8, addend: 0x0, symName: _OUTLINED_FUNCTION_308, symObjAddr: 0x3C5B0, symBinAddr: 0x3EAF0, symSize: 0x18 }
  - { offset: 0x6E2EE, size: 0x8, addend: 0x0, symName: _OUTLINED_FUNCTION_312, symObjAddr: 0x3C5F4, symBinAddr: 0x3EB34, symSize: 0xC }
  - { offset: 0x6E305, size: 0x8, addend: 0x0, symName: _OUTLINED_FUNCTION_319, symObjAddr: 0x3C648, symBinAddr: 0x3EB88, symSize: 0x8 }
  - { offset: 0x6E31C, size: 0x8, addend: 0x0, symName: _OUTLINED_FUNCTION_329, symObjAddr: 0x3C6CC, symBinAddr: 0x3EC0C, symSize: 0x8 }
  - { offset: 0x6E333, size: 0x8, addend: 0x0, symName: _OUTLINED_FUNCTION_357, symObjAddr: 0x3C844, symBinAddr: 0x3ED84, symSize: 0xC }
  - { offset: 0x6E34A, size: 0x8, addend: 0x0, symName: _OUTLINED_FUNCTION_363, symObjAddr: 0x3C884, symBinAddr: 0x3EDC4, symSize: 0x8 }
  - { offset: 0x6E361, size: 0x8, addend: 0x0, symName: _OUTLINED_FUNCTION_370, symObjAddr: 0x3C90C, symBinAddr: 0x3EE4C, symSize: 0xC }
  - { offset: 0x6E378, size: 0x8, addend: 0x0, symName: _OUTLINED_FUNCTION_372, symObjAddr: 0x3C920, symBinAddr: 0x3EE60, symSize: 0xC }
  - { offset: 0x6E38F, size: 0x8, addend: 0x0, symName: _OUTLINED_FUNCTION_375, symObjAddr: 0x3C954, symBinAddr: 0x3EE94, symSize: 0xC }
  - { offset: 0x6E3A6, size: 0x8, addend: 0x0, symName: _OUTLINED_FUNCTION_380, symObjAddr: 0x3C9B0, symBinAddr: 0x3EEF0, symSize: 0x10 }
  - { offset: 0x6E3BD, size: 0x8, addend: 0x0, symName: _OUTLINED_FUNCTION_387, symObjAddr: 0x3CA1C, symBinAddr: 0x3EF5C, symSize: 0x10 }
  - { offset: 0x6E3D4, size: 0x8, addend: 0x0, symName: _OUTLINED_FUNCTION_393, symObjAddr: 0x3CA88, symBinAddr: 0x3EFC8, symSize: 0x8 }
  - { offset: 0x6E3EB, size: 0x8, addend: 0x0, symName: _OUTLINED_FUNCTION_396, symObjAddr: 0x3CAB4, symBinAddr: 0x3EFF4, symSize: 0x10 }
  - { offset: 0x6E402, size: 0x8, addend: 0x0, symName: _OUTLINED_FUNCTION_400, symObjAddr: 0x3CAE8, symBinAddr: 0x3F028, symSize: 0xC }
  - { offset: 0x6E419, size: 0x8, addend: 0x0, symName: _OUTLINED_FUNCTION_402, symObjAddr: 0x3CB00, symBinAddr: 0x3F040, symSize: 0xC }
  - { offset: 0x6E430, size: 0x8, addend: 0x0, symName: _OUTLINED_FUNCTION_408, symObjAddr: 0x3CB58, symBinAddr: 0x3F098, symSize: 0x8 }
  - { offset: 0x6E447, size: 0x8, addend: 0x0, symName: _OUTLINED_FUNCTION_419, symObjAddr: 0x3CBDC, symBinAddr: 0x3F11C, symSize: 0xC }
  - { offset: 0x6E45E, size: 0x8, addend: 0x0, symName: _OUTLINED_FUNCTION_423, symObjAddr: 0x3CC04, symBinAddr: 0x3F144, symSize: 0x8 }
  - { offset: 0x6E475, size: 0x8, addend: 0x0, symName: _OUTLINED_FUNCTION_427, symObjAddr: 0x3CC28, symBinAddr: 0x3F168, symSize: 0x8 }
  - { offset: 0x6E48C, size: 0x8, addend: 0x0, symName: _OUTLINED_FUNCTION_430, symObjAddr: 0x3CC40, symBinAddr: 0x3F180, symSize: 0x8 }
  - { offset: 0x6E4A3, size: 0x8, addend: 0x0, symName: _OUTLINED_FUNCTION_436, symObjAddr: 0x3CC74, symBinAddr: 0x3F1B4, symSize: 0x8 }
  - { offset: 0x6E4BA, size: 0x8, addend: 0x0, symName: _OUTLINED_FUNCTION_437, symObjAddr: 0x3CC7C, symBinAddr: 0x3F1BC, symSize: 0x8 }
  - { offset: 0x6E4D1, size: 0x8, addend: 0x0, symName: _OUTLINED_FUNCTION_444, symObjAddr: 0x3CCE4, symBinAddr: 0x3F224, symSize: 0xC }
  - { offset: 0x6E4E8, size: 0x8, addend: 0x0, symName: _OUTLINED_FUNCTION_471, symObjAddr: 0x3CE90, symBinAddr: 0x3F3D0, symSize: 0x8 }
  - { offset: 0x6E4FF, size: 0x8, addend: 0x0, symName: _OUTLINED_FUNCTION_472, symObjAddr: 0x3CE98, symBinAddr: 0x3F3D8, symSize: 0x8 }
  - { offset: 0x6E516, size: 0x8, addend: 0x0, symName: _OUTLINED_FUNCTION_473, symObjAddr: 0x3CEA0, symBinAddr: 0x3F3E0, symSize: 0x8 }
  - { offset: 0x6E52D, size: 0x8, addend: 0x0, symName: _OUTLINED_FUNCTION_479, symObjAddr: 0x3CF20, symBinAddr: 0x3F460, symSize: 0x8 }
  - { offset: 0x6E544, size: 0x8, addend: 0x0, symName: _OUTLINED_FUNCTION_480, symObjAddr: 0x3CF28, symBinAddr: 0x3F468, symSize: 0x8 }
  - { offset: 0x6E55B, size: 0x8, addend: 0x0, symName: _OUTLINED_FUNCTION_481, symObjAddr: 0x3CF30, symBinAddr: 0x3F470, symSize: 0x8 }
  - { offset: 0x6E572, size: 0x8, addend: 0x0, symName: _OUTLINED_FUNCTION_484, symObjAddr: 0x3CF48, symBinAddr: 0x3F488, symSize: 0x1C }
  - { offset: 0x6E589, size: 0x8, addend: 0x0, symName: _OUTLINED_FUNCTION_494, symObjAddr: 0x3D010, symBinAddr: 0x3F550, symSize: 0xC }
  - { offset: 0x6E5A0, size: 0x8, addend: 0x0, symName: _OUTLINED_FUNCTION_522, symObjAddr: 0x3D1AC, symBinAddr: 0x3F6EC, symSize: 0x8 }
  - { offset: 0x6E5B7, size: 0x8, addend: 0x0, symName: _OUTLINED_FUNCTION_543, symObjAddr: 0x3D2F0, symBinAddr: 0x3F830, symSize: 0x8 }
  - { offset: 0x6E5CE, size: 0x8, addend: 0x0, symName: _OUTLINED_FUNCTION_546, symObjAddr: 0x3D308, symBinAddr: 0x3F848, symSize: 0x8 }
  - { offset: 0x6E5E5, size: 0x8, addend: 0x0, symName: _OUTLINED_FUNCTION_547, symObjAddr: 0x3D310, symBinAddr: 0x3F850, symSize: 0xC }
  - { offset: 0x6E5FC, size: 0x8, addend: 0x0, symName: _OUTLINED_FUNCTION_556, symObjAddr: 0x3D384, symBinAddr: 0x3F8C4, symSize: 0x8 }
  - { offset: 0x6E613, size: 0x8, addend: 0x0, symName: _OUTLINED_FUNCTION_576, symObjAddr: 0x3D480, symBinAddr: 0x3F9C0, symSize: 0xC }
  - { offset: 0x6E62A, size: 0x8, addend: 0x0, symName: _OUTLINED_FUNCTION_578, symObjAddr: 0x3D494, symBinAddr: 0x3F9D4, symSize: 0xC }
  - { offset: 0x6E641, size: 0x8, addend: 0x0, symName: _OUTLINED_FUNCTION_587, symObjAddr: 0x3D520, symBinAddr: 0x3FA60, symSize: 0xC }
  - { offset: 0x6E658, size: 0x8, addend: 0x0, symName: _OUTLINED_FUNCTION_589, symObjAddr: 0x3D538, symBinAddr: 0x3FA78, symSize: 0x8 }
  - { offset: 0x6E66F, size: 0x8, addend: 0x0, symName: _OUTLINED_FUNCTION_590, symObjAddr: 0x3D540, symBinAddr: 0x3FA80, symSize: 0x14 }
  - { offset: 0x6E686, size: 0x8, addend: 0x0, symName: _OUTLINED_FUNCTION_591, symObjAddr: 0x3D554, symBinAddr: 0x3FA94, symSize: 0xC }
  - { offset: 0x6E69D, size: 0x8, addend: 0x0, symName: _OUTLINED_FUNCTION_593, symObjAddr: 0x3D568, symBinAddr: 0x3FAA8, symSize: 0xC }
  - { offset: 0x6E6B4, size: 0x8, addend: 0x0, symName: _OUTLINED_FUNCTION_595, symObjAddr: 0x3D584, symBinAddr: 0x3FAC4, symSize: 0xC }
  - { offset: 0x6E6CB, size: 0x8, addend: 0x0, symName: _OUTLINED_FUNCTION_603, symObjAddr: 0x3D5EC, symBinAddr: 0x3FB2C, symSize: 0x8 }
  - { offset: 0x6E6E2, size: 0x8, addend: 0x0, symName: _OUTLINED_FUNCTION_606, symObjAddr: 0x3D604, symBinAddr: 0x3FB44, symSize: 0x8 }
  - { offset: 0x6E6F9, size: 0x8, addend: 0x0, symName: _OUTLINED_FUNCTION_607, symObjAddr: 0x3D60C, symBinAddr: 0x3FB4C, symSize: 0x8 }
  - { offset: 0x6E710, size: 0x8, addend: 0x0, symName: _OUTLINED_FUNCTION_612, symObjAddr: 0x3D644, symBinAddr: 0x3FB84, symSize: 0xC }
  - { offset: 0x6E727, size: 0x8, addend: 0x0, symName: _OUTLINED_FUNCTION_613, symObjAddr: 0x3D650, symBinAddr: 0x3FB90, symSize: 0x10 }
  - { offset: 0x6E73E, size: 0x8, addend: 0x0, symName: _OUTLINED_FUNCTION_615, symObjAddr: 0x3D688, symBinAddr: 0x3FBC8, symSize: 0xC }
  - { offset: 0x6E755, size: 0x8, addend: 0x0, symName: _OUTLINED_FUNCTION_627, symObjAddr: 0x3D790, symBinAddr: 0x3FCD0, symSize: 0xC }
  - { offset: 0x6E76C, size: 0x8, addend: 0x0, symName: _OUTLINED_FUNCTION_636, symObjAddr: 0x3D814, symBinAddr: 0x3FD54, symSize: 0xC }
  - { offset: 0x6E783, size: 0x8, addend: 0x0, symName: _OUTLINED_FUNCTION_658, symObjAddr: 0x3D94C, symBinAddr: 0x3FE8C, symSize: 0x8 }
  - { offset: 0x6E79A, size: 0x8, addend: 0x0, symName: _OUTLINED_FUNCTION_662, symObjAddr: 0x3D978, symBinAddr: 0x3FEB8, symSize: 0x8 }
  - { offset: 0x6E7B1, size: 0x8, addend: 0x0, symName: _OUTLINED_FUNCTION_664, symObjAddr: 0x3D988, symBinAddr: 0x3FEC8, symSize: 0x8 }
  - { offset: 0x6E7C8, size: 0x8, addend: 0x0, symName: _OUTLINED_FUNCTION_665, symObjAddr: 0x3D990, symBinAddr: 0x3FED0, symSize: 0x8 }
  - { offset: 0x6E7DF, size: 0x8, addend: 0x0, symName: _OUTLINED_FUNCTION_672, symObjAddr: 0x3D9E0, symBinAddr: 0x3FF20, symSize: 0xC }
  - { offset: 0x6E7F6, size: 0x8, addend: 0x0, symName: _OUTLINED_FUNCTION_675, symObjAddr: 0x3DA2C, symBinAddr: 0x3FF6C, symSize: 0x20 }
  - { offset: 0x6E80D, size: 0x8, addend: 0x0, symName: _OUTLINED_FUNCTION_676, symObjAddr: 0x3DA4C, symBinAddr: 0x3FF8C, symSize: 0x20 }
  - { offset: 0x6E824, size: 0x8, addend: 0x0, symName: _OUTLINED_FUNCTION_683, symObjAddr: 0x3DAC8, symBinAddr: 0x40008, symSize: 0xC }
  - { offset: 0x6E83B, size: 0x8, addend: 0x0, symName: _OUTLINED_FUNCTION_693, symObjAddr: 0x3DB54, symBinAddr: 0x40094, symSize: 0xC }
  - { offset: 0x6E852, size: 0x8, addend: 0x0, symName: _OUTLINED_FUNCTION_694, symObjAddr: 0x3DB60, symBinAddr: 0x400A0, symSize: 0xC }
  - { offset: 0x6E869, size: 0x8, addend: 0x0, symName: _OUTLINED_FUNCTION_696, symObjAddr: 0x3DB78, symBinAddr: 0x400B8, symSize: 0xC }
  - { offset: 0x6E880, size: 0x8, addend: 0x0, symName: _OUTLINED_FUNCTION_697, symObjAddr: 0x3DB84, symBinAddr: 0x400C4, symSize: 0xC }
  - { offset: 0x6E897, size: 0x8, addend: 0x0, symName: _OUTLINED_FUNCTION_700, symObjAddr: 0x3DBA8, symBinAddr: 0x400E8, symSize: 0xC }
  - { offset: 0x6E8AE, size: 0x8, addend: 0x0, symName: _OUTLINED_FUNCTION_701, symObjAddr: 0x3DBB4, symBinAddr: 0x400F4, symSize: 0x18 }
  - { offset: 0x6E8C5, size: 0x8, addend: 0x0, symName: _OUTLINED_FUNCTION_753, symObjAddr: 0x3DEA0, symBinAddr: 0x403E0, symSize: 0x8 }
  - { offset: 0x6E8DC, size: 0x8, addend: 0x0, symName: _OUTLINED_FUNCTION_786, symObjAddr: 0x3E04C, symBinAddr: 0x4058C, symSize: 0x8 }
  - { offset: 0x6E8F3, size: 0x8, addend: 0x0, symName: _OUTLINED_FUNCTION_789, symObjAddr: 0x3E06C, symBinAddr: 0x405AC, symSize: 0x8 }
  - { offset: 0x6E90A, size: 0x8, addend: 0x0, symName: _OUTLINED_FUNCTION_790, symObjAddr: 0x3E074, symBinAddr: 0x405B4, symSize: 0x8 }
  - { offset: 0x6E921, size: 0x8, addend: 0x0, symName: _OUTLINED_FUNCTION_797, symObjAddr: 0x3E0D0, symBinAddr: 0x40610, symSize: 0x8 }
  - { offset: 0x6E938, size: 0x8, addend: 0x0, symName: _OUTLINED_FUNCTION_800, symObjAddr: 0x3E0F0, symBinAddr: 0x40630, symSize: 0xC }
  - { offset: 0x6E94F, size: 0x8, addend: 0x0, symName: _OUTLINED_FUNCTION_801, symObjAddr: 0x3E0FC, symBinAddr: 0x4063C, symSize: 0xC }
  - { offset: 0x6E966, size: 0x8, addend: 0x0, symName: _OUTLINED_FUNCTION_803, symObjAddr: 0x3E114, symBinAddr: 0x40654, symSize: 0x8 }
  - { offset: 0x6E97D, size: 0x8, addend: 0x0, symName: _OUTLINED_FUNCTION_808, symObjAddr: 0x3E144, symBinAddr: 0x40684, symSize: 0x8 }
  - { offset: 0x6E994, size: 0x8, addend: 0x0, symName: _OUTLINED_FUNCTION_819, symObjAddr: 0x3E1EC, symBinAddr: 0x4072C, symSize: 0x8 }
  - { offset: 0x6E9AB, size: 0x8, addend: 0x0, symName: _OUTLINED_FUNCTION_829, symObjAddr: 0x3E25C, symBinAddr: 0x4079C, symSize: 0x10 }
  - { offset: 0x6E9C2, size: 0x8, addend: 0x0, symName: _OUTLINED_FUNCTION_833, symObjAddr: 0x3E29C, symBinAddr: 0x407DC, symSize: 0x10 }
  - { offset: 0x6E9D9, size: 0x8, addend: 0x0, symName: _OUTLINED_FUNCTION_861, symObjAddr: 0x3E45C, symBinAddr: 0x4099C, symSize: 0x10 }
  - { offset: 0x6E9F0, size: 0x8, addend: 0x0, symName: _OUTLINED_FUNCTION_865, symObjAddr: 0x3E49C, symBinAddr: 0x409DC, symSize: 0x10 }
  - { offset: 0x6EA07, size: 0x8, addend: 0x0, symName: _OUTLINED_FUNCTION_871, symObjAddr: 0x3E51C, symBinAddr: 0x40A5C, symSize: 0xC }
  - { offset: 0x6EA1E, size: 0x8, addend: 0x0, symName: _OUTLINED_FUNCTION_900, symObjAddr: 0x3E6FC, symBinAddr: 0x40C3C, symSize: 0x18 }
  - { offset: 0x6EA35, size: 0x8, addend: 0x0, symName: _OUTLINED_FUNCTION_907, symObjAddr: 0x3E75C, symBinAddr: 0x40C9C, symSize: 0xC }
  - { offset: 0x6EA4C, size: 0x8, addend: 0x0, symName: _OUTLINED_FUNCTION_911, symObjAddr: 0x3E798, symBinAddr: 0x40CD8, symSize: 0xC }
  - { offset: 0x6EA63, size: 0x8, addend: 0x0, symName: _OUTLINED_FUNCTION_912, symObjAddr: 0x3E7A4, symBinAddr: 0x40CE4, symSize: 0xC }
  - { offset: 0x6EA7A, size: 0x8, addend: 0x0, symName: _OUTLINED_FUNCTION_913, symObjAddr: 0x3E7B0, symBinAddr: 0x40CF0, symSize: 0xC }
  - { offset: 0x6EA91, size: 0x8, addend: 0x0, symName: _OUTLINED_FUNCTION_914, symObjAddr: 0x3E7BC, symBinAddr: 0x40CFC, symSize: 0xC }
  - { offset: 0x6EAA8, size: 0x8, addend: 0x0, symName: _OUTLINED_FUNCTION_915, symObjAddr: 0x3E7C8, symBinAddr: 0x40D08, symSize: 0xC }
  - { offset: 0x6EABF, size: 0x8, addend: 0x0, symName: _OUTLINED_FUNCTION_917, symObjAddr: 0x3E7E0, symBinAddr: 0x40D20, symSize: 0xC }
  - { offset: 0x6EAD6, size: 0x8, addend: 0x0, symName: _OUTLINED_FUNCTION_919, symObjAddr: 0x3E7F8, symBinAddr: 0x40D38, symSize: 0xC }
  - { offset: 0x6EAED, size: 0x8, addend: 0x0, symName: _OUTLINED_FUNCTION_954, symObjAddr: 0x3E99C, symBinAddr: 0x40EDC, symSize: 0xC }
  - { offset: 0x6EB04, size: 0x8, addend: 0x0, symName: _OUTLINED_FUNCTION_987, symObjAddr: 0x3EAF0, symBinAddr: 0x41030, symSize: 0x8 }
  - { offset: 0x6EB1B, size: 0x8, addend: 0x0, symName: _OUTLINED_FUNCTION_1001, symObjAddr: 0x3EB74, symBinAddr: 0x410B4, symSize: 0x8 }
  - { offset: 0x6EB32, size: 0x8, addend: 0x0, symName: _OUTLINED_FUNCTION_1010, symObjAddr: 0x3EBD0, symBinAddr: 0x41110, symSize: 0x8 }
  - { offset: 0x6EB49, size: 0x8, addend: 0x0, symName: _OUTLINED_FUNCTION_1015, symObjAddr: 0x3EC04, symBinAddr: 0x41144, symSize: 0x8 }
  - { offset: 0x6EB60, size: 0x8, addend: 0x0, symName: _OUTLINED_FUNCTION_1017, symObjAddr: 0x3EC14, symBinAddr: 0x41154, symSize: 0x8 }
  - { offset: 0x6EB77, size: 0x8, addend: 0x0, symName: _OUTLINED_FUNCTION_1046, symObjAddr: 0x3ED34, symBinAddr: 0x41274, symSize: 0x8 }
  - { offset: 0x6EB8E, size: 0x8, addend: 0x0, symName: _OUTLINED_FUNCTION_1053, symObjAddr: 0x3ED74, symBinAddr: 0x412B4, symSize: 0x8 }
  - { offset: 0x6EBA5, size: 0x8, addend: 0x0, symName: _OUTLINED_FUNCTION_1055, symObjAddr: 0x3ED84, symBinAddr: 0x412C4, symSize: 0x8 }
  - { offset: 0x6EBBC, size: 0x8, addend: 0x0, symName: _OUTLINED_FUNCTION_1062, symObjAddr: 0x3EDCC, symBinAddr: 0x4130C, symSize: 0x8 }
  - { offset: 0x6EBD3, size: 0x8, addend: 0x0, symName: _OUTLINED_FUNCTION_1065, symObjAddr: 0x3EDEC, symBinAddr: 0x4132C, symSize: 0x8 }
  - { offset: 0x6EBEA, size: 0x8, addend: 0x0, symName: _OUTLINED_FUNCTION_1070, symObjAddr: 0x3EE18, symBinAddr: 0x41358, symSize: 0xC }
  - { offset: 0x6EC01, size: 0x8, addend: 0x0, symName: _OUTLINED_FUNCTION_1091, symObjAddr: 0x3EEDC, symBinAddr: 0x4141C, symSize: 0xC }
  - { offset: 0x6EC18, size: 0x8, addend: 0x0, symName: _OUTLINED_FUNCTION_1098, symObjAddr: 0x3EF20, symBinAddr: 0x41460, symSize: 0xC }
  - { offset: 0x6EC2F, size: 0x8, addend: 0x0, symName: _OUTLINED_FUNCTION_1168, symObjAddr: 0x3F334, symBinAddr: 0x41874, symSize: 0x14 }
  - { offset: 0x6EC46, size: 0x8, addend: 0x0, symName: _OUTLINED_FUNCTION_1176, symObjAddr: 0x3F3AC, symBinAddr: 0x418EC, symSize: 0x14 }
  - { offset: 0x6EC5D, size: 0x8, addend: 0x0, symName: _OUTLINED_FUNCTION_1177, symObjAddr: 0x3F3C0, symBinAddr: 0x41900, symSize: 0x14 }
  - { offset: 0x6EC74, size: 0x8, addend: 0x0, symName: _OUTLINED_FUNCTION_1187, symObjAddr: 0x3F458, symBinAddr: 0x41998, symSize: 0xC }
  - { offset: 0x6EC8B, size: 0x8, addend: 0x0, symName: _OUTLINED_FUNCTION_1194, symObjAddr: 0x3F4AC, symBinAddr: 0x419EC, symSize: 0x14 }
  - { offset: 0x6ECA2, size: 0x8, addend: 0x0, symName: _OUTLINED_FUNCTION_1199, symObjAddr: 0x3F4F0, symBinAddr: 0x41A30, symSize: 0xC }
  - { offset: 0x6ECB9, size: 0x8, addend: 0x0, symName: _OUTLINED_FUNCTION_1200, symObjAddr: 0x3F4FC, symBinAddr: 0x41A3C, symSize: 0xC }
  - { offset: 0x6ECD0, size: 0x8, addend: 0x0, symName: _OUTLINED_FUNCTION_1205, symObjAddr: 0x3F548, symBinAddr: 0x41A88, symSize: 0x1C }
  - { offset: 0x6ECE7, size: 0x8, addend: 0x0, symName: _OUTLINED_FUNCTION_1212, symObjAddr: 0x3F608, symBinAddr: 0x41B48, symSize: 0x1C }
  - { offset: 0x6ECFE, size: 0x8, addend: 0x0, symName: _OUTLINED_FUNCTION_1215, symObjAddr: 0x3F65C, symBinAddr: 0x41B9C, symSize: 0x14 }
  - { offset: 0x19A898, size: 0x8, addend: 0x0, symName: '__ZN128_$LT$$LT$serde..de..WithDecimalPoint$u20$as$u20$core..fmt..Display$GT$..fmt..LookForDecimalPoint$u20$as$u20$core..fmt..Write$GT$9write_str17ha2ec03d73d1e15a0E', symObjAddr: 0x35810, symBinAddr: 0x38304, symSize: 0x74 }
  - { offset: 0x19A9DA, size: 0x8, addend: 0x0, symName: '__ZN128_$LT$$LT$serde..de..WithDecimalPoint$u20$as$u20$core..fmt..Display$GT$..fmt..LookForDecimalPoint$u20$as$u20$core..fmt..Write$GT$10write_char17h052ce87fc3538c27E', symObjAddr: 0x35884, symBinAddr: 0x38378, symSize: 0x1C }
  - { offset: 0x19AA18, size: 0x8, addend: 0x0, symName: '__ZN66_$LT$serde..de..WithDecimalPoint$u20$as$u20$core..fmt..Display$GT$3fmt17h6b45e8f075f13ad1E', symObjAddr: 0x35B30, symBinAddr: 0x38624, symSize: 0xBC }
  - { offset: 0x19AE66, size: 0x8, addend: 0x0, symName: '__ZN60_$LT$serde..de..Unexpected$u20$as$u20$core..fmt..Display$GT$3fmt17h6103ab45a0bf5437E', symObjAddr: 0x358EC, symBinAddr: 0x383E0, symSize: 0x244 }
  - { offset: 0x19B1B2, size: 0x8, addend: 0x0, symName: '__ZN47_$LT$$RF$str$u20$as$u20$serde..de..Expected$GT$3fmt17he34ac8784d02e914E', symObjAddr: 0x35BEC, symBinAddr: 0x386E0, symSize: 0x8 }
  - { offset: 0x19B1F3, size: 0x8, addend: 0x0, symName: '__ZN55_$LT$serde..de..OneOf$u20$as$u20$core..fmt..Display$GT$3fmt17he9859b4d2a928613E', symObjAddr: 0x35BF4, symBinAddr: 0x386E8, symSize: 0x164 }
  - { offset: 0x19B82F, size: 0x8, addend: 0x0, symName: '__ZN44_$LT$$RF$T$u20$as$u20$core..fmt..Display$GT$3fmt17h4e17c20547fd0632E', symObjAddr: 0x3578C, symBinAddr: 0x38280, symSize: 0x8 }
  - { offset: 0x19B8C6, size: 0x8, addend: 0x0, symName: __ZN4core3fmt5Write9write_fmt17h805c1f4cd672188cE, symObjAddr: 0x35794, symBinAddr: 0x38288, symSize: 0x48 }
  - { offset: 0x19CE1D, size: 0x8, addend: 0x0, symName: __ZN4core3fmt9Arguments23as_statically_known_str17h7de002da68fe91adE.2757, symObjAddr: 0x357DC, symBinAddr: 0x382D0, symSize: 0x34 }
  - { offset: 0x19CE42, size: 0x8, addend: 0x0, symName: __ZN4core3fmt9Arguments23as_statically_known_str17h7de002da68fe91adE.2757, symObjAddr: 0x357DC, symBinAddr: 0x382D0, symSize: 0x34 }
  - { offset: 0x19CE9C, size: 0x8, addend: 0x0, symName: __ZN4core3fmt9Formatter9write_fmt17h1d854119291a54b3E.2760, symObjAddr: 0x358A0, symBinAddr: 0x38394, symSize: 0x4C }
  - { offset: 0x19D027, size: 0x8, addend: 0x0, symName: _OUTLINED_FUNCTION_275, symObjAddr: 0x3C3F0, symBinAddr: 0x3E930, symSize: 0x14 }
  - { offset: 0x19D03E, size: 0x8, addend: 0x0, symName: _OUTLINED_FUNCTION_884, symObjAddr: 0x3E5E8, symBinAddr: 0x40B28, symSize: 0xC }
  - { offset: 0x1C16B5, size: 0x8, addend: 0x0, symName: '__ZN44_$LT$$RF$T$u20$as$u20$core..fmt..Display$GT$3fmt17hc5addc2207f0c88cE', symObjAddr: 0x3A094, symBinAddr: 0x3C5E0, symSize: 0x10 }
  - { offset: 0x1C2276, size: 0x8, addend: 0x0, symName: '__ZN44_$LT$$RF$T$u20$as$u20$core..fmt..Display$GT$3fmt17hc5addc2207f0c88cE', symObjAddr: 0x3A094, symBinAddr: 0x3C5E0, symSize: 0x10 }
  - { offset: 0x1C238B, size: 0x8, addend: 0x0, symName: '__ZN4core5slice29_$LT$impl$u20$$u5b$T$u5d$$GT$11starts_with17h050c169fe380031fE', symObjAddr: 0x3A0D4, symBinAddr: 0x3C620, symSize: 0x20 }
  - { offset: 0x1C23C9, size: 0x8, addend: 0x0, symName: '__ZN4core5slice29_$LT$impl$u20$$u5b$T$u5d$$GT$11starts_with17h050c169fe380031fE', symObjAddr: 0x3A0D4, symBinAddr: 0x3C620, symSize: 0x20 }
  - { offset: 0x1C2A76, size: 0x8, addend: 0x0, symName: '__ZN65_$LT$serde_json..io..imp..Error$u20$as$u20$core..fmt..Display$GT$3fmt17h8f851c8e2fcbc218E', symObjAddr: 0x3A128, symBinAddr: 0x43664, symSize: 0xC }
  - { offset: 0x1C2CBC, size: 0x8, addend: 0x0, symName: '__ZN63_$LT$alloc..alloc..Global$u20$as$u20$core..alloc..Allocator$GT$8allocate17h69aae233b6820a24E.3083', symObjAddr: 0x3A0F4, symBinAddr: 0x3C640, symSize: 0x4 }
  - { offset: 0x1C2F30, size: 0x8, addend: 0x0, symName: '__ZN70_$LT$alloc..vec..Vec$LT$T$C$A$GT$$u20$as$u20$core..ops..drop..Drop$GT$4drop17hd5f2b646e52d6048E', symObjAddr: 0x3A0A4, symBinAddr: 0x3C5F0, symSize: 0x30 }
  - { offset: 0x1C398E, size: 0x8, addend: 0x0, symName: '__ZN5alloc7raw_vec19RawVec$LT$T$C$A$GT$8grow_one17h12b6ea114fd2e20dE', symObjAddr: 0x3A0F8, symBinAddr: 0x3C644, symSize: 0x30 }
  - { offset: 0x141E0A, size: 0x8, addend: 0x0, symName: '__ZN45_$LT$T$u20$as$u20$alloc..string..ToString$GT$9to_string17h85f7cb809adbc350E.2256', symObjAddr: 0x29170, symBinAddr: 0x2BD08, symSize: 0x48 }
  - { offset: 0x141EAB, size: 0x8, addend: 0x0, symName: '__ZN45_$LT$T$u20$as$u20$alloc..string..ToString$GT$9to_string17h5985116aaef2e832E', symObjAddr: 0x29338, symBinAddr: 0x2BED0, symSize: 0x70 }
  - { offset: 0x14205E, size: 0x8, addend: 0x0, symName: '__ZN58_$LT$alloc..string..String$u20$as$u20$core..fmt..Write$GT$10write_char17h0d136672011f763fE.2265', symObjAddr: 0x292D0, symBinAddr: 0x2BE68, symSize: 0x68 }
  - { offset: 0x1426C9, size: 0x8, addend: 0x0, symName: '__ZN63_$LT$alloc..alloc..Global$u20$as$u20$core..alloc..Allocator$GT$8allocate17h69aae233b6820a24E.2198', symObjAddr: 0x274AC, symBinAddr: 0x2A2E4, symSize: 0x10 }
  - { offset: 0x142705, size: 0x8, addend: 0x0, symName: '__ZN63_$LT$alloc..alloc..Global$u20$as$u20$core..alloc..Allocator$GT$8allocate17h69aae233b6820a24E.2198', symObjAddr: 0x274AC, symBinAddr: 0x2A2E4, symSize: 0x10 }
  - { offset: 0x14275D, size: 0x8, addend: 0x0, symName: __ZN5alloc5alloc15exchange_malloc17h8bc033b4f6887839E.2201, symObjAddr: 0x274BC, symBinAddr: 0x2A2F4, symSize: 0x1C }
  - { offset: 0x144476, size: 0x8, addend: 0x0, symName: '__ZN4core3ptr58drop_in_place$LT$powersync_core..error..PowerSyncError$GT$17h13b64e1f68ee6928E.2257', symObjAddr: 0x291B8, symBinAddr: 0x2BD50, symSize: 0x80 }
  - { offset: 0x1445C3, size: 0x8, addend: 0x0, symName: '__ZN4core3ptr50drop_in_place$LT$alloc..borrow..Cow$LT$str$GT$$GT$17h26b2eb237bcfdbcaE.2259', symObjAddr: 0x29238, symBinAddr: 0x2BDD0, symSize: 0x1C }
  - { offset: 0x144708, size: 0x8, addend: 0x0, symName: '__ZN4core3ptr63drop_in_place$LT$powersync_core..error..PowerSyncErrorCause$GT$17hcedd51e9f783dca8E.2260', symObjAddr: 0x29254, symBinAddr: 0x2BDEC, symSize: 0x64 }
  - { offset: 0x144B37, size: 0x8, addend: 0x0, symName: '__ZN4core3ptr62drop_in_place$LT$powersync_core..schema..table_info..Table$GT$17h1f0958f7d7d67c82E.2307', symObjAddr: 0x2AAF4, symBinAddr: 0x2D66C, symSize: 0x6C }
  - { offset: 0x14513A, size: 0x8, addend: 0x0, symName: '__ZN44_$LT$$RF$T$u20$as$u20$core..fmt..Display$GT$3fmt17h842f3c114e0933f5E', symObjAddr: 0x2723C, symBinAddr: 0x2A074, symSize: 0x130 }
  - { offset: 0x145294, size: 0x8, addend: 0x0, symName: '__ZN44_$LT$$RF$T$u20$as$u20$core..fmt..Display$GT$3fmt17hbb2f1e1313cded71E', symObjAddr: 0x27398, symBinAddr: 0x2A1D0, symSize: 0x114 }
  - { offset: 0x145414, size: 0x8, addend: 0x0, symName: '__ZN115_$LT$core..iter..adapters..filter_map..FilterMap$LT$I$C$F$GT$$u20$as$u20$core..iter..traits..iterator..Iterator$GT$4next17h12ab2bc158ab70edE', symObjAddr: 0x2AB60, symBinAddr: 0x2D6D8, symSize: 0xB0 }
  - { offset: 0x145944, size: 0x8, addend: 0x0, symName: '__ZN91_$LT$core..slice..iter..Iter$LT$T$GT$$u20$as$u20$core..iter..traits..iterator..Iterator$GT$4next17hfef5500d75f90a49E', symObjAddr: 0x2AC38, symBinAddr: 0x2D7B0, symSize: 0x28 }
  - { offset: 0x147C89, size: 0x8, addend: 0x0, symName: __ZN14powersync_core5views18powersync_view_sql17ha93c0b6c62bb2ddaE, symObjAddr: 0x298E8, symBinAddr: 0x2C460, symSize: 0x2DC }
  - { offset: 0x14858C, size: 0x8, addend: 0x0, symName: __ZN14powersync_core5views28powersync_trigger_delete_sql17h9a7f94f4d6497348E, symObjAddr: 0x29BC4, symBinAddr: 0x2C73C, symSize: 0x3E0 }
  - { offset: 0x1491D4, size: 0x8, addend: 0x0, symName: __ZN14powersync_core5views28powersync_trigger_insert_sql17h3494c7e06bb0fca3E, symObjAddr: 0x29FA4, symBinAddr: 0x2CB1C, symSize: 0x298 }
  - { offset: 0x149923, size: 0x8, addend: 0x0, symName: __ZN14powersync_core5views28powersync_trigger_update_sql17h3dfb47468682c88dE, symObjAddr: 0x2A23C, symBinAddr: 0x2CDB4, symSize: 0x658 }
  - { offset: 0x14A6F6, size: 0x8, addend: 0x0, symName: __ZN14powersync_core5views20json_object_fragment17hf17a2e09e3498c3eE, symObjAddr: 0x2A8D8, symBinAddr: 0x2D450, symSize: 0x21C }
  - { offset: 0x14B1DD, size: 0x8, addend: 0x0, symName: '__ZN75_$LT$powersync_core..bson..error..BsonError$u20$as$u20$serde..de..Error$GT$6custom17ha6d52befef32e586E', symObjAddr: 0x27710, symBinAddr: 0x2A500, symSize: 0x28 }
  - { offset: 0x14B24D, size: 0x8, addend: 0x0, symName: '__ZN75_$LT$powersync_core..bson..error..BsonError$u20$as$u20$serde..de..Error$GT$6custom17hc0667cabf237eedbE', symObjAddr: 0x29534, symBinAddr: 0x2C0AC, symSize: 0x30 }
  - { offset: 0x14B3A8, size: 0x8, addend: 0x0, symName: '__ZN77_$LT$powersync_core..bson..error..ErrorKind$u20$as$u20$core..fmt..Display$GT$3fmt17h4428b4427253f530E', symObjAddr: 0x293C8, symBinAddr: 0x2BF40, symSize: 0x16C }
  - { offset: 0x14BDD0, size: 0x8, addend: 0x0, symName: '__ZN76_$LT$powersync_core..error..PowerSyncError$u20$as$u20$core..fmt..Display$GT$3fmt17ha3e9e2532e61b1d1E', symObjAddr: 0x298AC, symBinAddr: 0x2C424, symSize: 0x10 }
  - { offset: 0x14BDFC, size: 0x8, addend: 0x0, symName: '__ZN125_$LT$powersync_core..error..PowerSyncError$u20$as$u20$core..convert..From$LT$powersync_core..error..RawPowerSyncError$GT$$GT$4from17h9e18d020cf0844e4E', symObjAddr: 0x29600, symBinAddr: 0x2C178, symSize: 0x38 }
  - { offset: 0x14BE4C, size: 0x8, addend: 0x0, symName: '__ZN116_$LT$powersync_core..error..PowerSyncError$u20$as$u20$core..convert..From$LT$sqlite_nostd..nostd..ResultCode$GT$$GT$4from17h2fd396e5cd487245E', symObjAddr: 0x298BC, symBinAddr: 0x2C434, symSize: 0x2C }
  - { offset: 0x14C546, size: 0x8, addend: 0x0, symName: '__ZN62_$LT$serde_json..error..Error$u20$as$u20$serde..ser..Error$GT$6custom17hf71f54f4c01f2cd8E', symObjAddr: 0x293A8, symBinAddr: 0x43018, symSize: 0x20 }
  - { offset: 0x14CBD7, size: 0x8, addend: 0x0, symName: '__ZN5serde2de5impls75_$LT$impl$u20$serde..de..Deserialize$u20$for$u20$alloc..rc..Rc$LT$T$GT$$GT$11deserialize17h02de9714a2789302E', symObjAddr: 0x279C8, symBinAddr: 0x2A560, symSize: 0x7E8 }
  - { offset: 0x14DB65, size: 0x8, addend: 0x0, symName: '__ZN5serde2de5impls75_$LT$impl$u20$serde..de..Deserialize$u20$for$u20$alloc..rc..Rc$LT$T$GT$$GT$11deserialize17h1c4075e71ffc5499E', symObjAddr: 0x281B0, symBinAddr: 0x2AD48, symSize: 0x474 }
  - { offset: 0x14E295, size: 0x8, addend: 0x0, symName: '__ZN5serde2de5impls75_$LT$impl$u20$serde..de..Deserialize$u20$for$u20$alloc..rc..Rc$LT$T$GT$$GT$11deserialize17h70857e17b9d20ab1E', symObjAddr: 0x2864C, symBinAddr: 0x2B1E4, symSize: 0x1F4 }
  - { offset: 0x14E90C, size: 0x8, addend: 0x0, symName: '__ZN5serde2de5impls75_$LT$impl$u20$serde..de..Deserialize$u20$for$u20$alloc..rc..Rc$LT$T$GT$$GT$11deserialize17h7b73a45c5f29fca0E', symObjAddr: 0x28840, symBinAddr: 0x2B3D8, symSize: 0x354 }
  - { offset: 0x14EE6B, size: 0x8, addend: 0x0, symName: '__ZN5serde2de5impls75_$LT$impl$u20$serde..de..Deserialize$u20$for$u20$alloc..rc..Rc$LT$T$GT$$GT$11deserialize17h8ce408dd61ad042dE', symObjAddr: 0x28B94, symBinAddr: 0x2B72C, symSize: 0x5DC }
  - { offset: 0x14F94C, size: 0x8, addend: 0x0, symName: __ZN5serde2de5Error12invalid_type17ha245eb9625e4534dE, symObjAddr: 0x276C8, symBinAddr: 0x42D78, symSize: 0x48 }
  - { offset: 0x14F9B8, size: 0x8, addend: 0x0, symName: __ZN5serde2de5Error13invalid_value17h249f61a8674d843bE, symObjAddr: 0x27770, symBinAddr: 0x42DC0, symSize: 0x48 }
  - { offset: 0x14FA23, size: 0x8, addend: 0x0, symName: __ZN5serde2de5Error13missing_field17hdadbaa7a0a16caf5E, symObjAddr: 0x277B8, symBinAddr: 0x42E08, symSize: 0x34 }
  - { offset: 0x14FA82, size: 0x8, addend: 0x0, symName: __ZN5serde2de5Error13missing_field17he679aa33f37e6db6E, symObjAddr: 0x277EC, symBinAddr: 0x42E3C, symSize: 0x34 }
  - { offset: 0x14FAE2, size: 0x8, addend: 0x0, symName: __ZN5serde2de5Error14invalid_length17h12335b98e68a70d2E, symObjAddr: 0x27820, symBinAddr: 0x42E70, symSize: 0x50 }
  - { offset: 0x14FB4E, size: 0x8, addend: 0x0, symName: __ZN5serde2de5Error14invalid_length17hd584507e4b77e8f3E, symObjAddr: 0x27870, symBinAddr: 0x42EC0, symSize: 0x50 }
  - { offset: 0x14FBB9, size: 0x8, addend: 0x0, symName: __ZN5serde2de5Error15duplicate_field17h0a4f86894b238295E, symObjAddr: 0x278C0, symBinAddr: 0x42F10, symSize: 0x34 }
  - { offset: 0x14FC18, size: 0x8, addend: 0x0, symName: __ZN5serde2de5Error15duplicate_field17hcff280f209baf2f7E, symObjAddr: 0x278F4, symBinAddr: 0x42F44, symSize: 0x34 }
  - { offset: 0x14FC78, size: 0x8, addend: 0x0, symName: __ZN5serde2de5Error15unknown_variant17ha62adca728960425E, symObjAddr: 0x27928, symBinAddr: 0x42F78, symSize: 0x50 }
  - { offset: 0x14FCE4, size: 0x8, addend: 0x0, symName: __ZN5serde2de5Error15unknown_variant17he6f8bed38efdec9bE, symObjAddr: 0x27978, symBinAddr: 0x42FC8, symSize: 0x50 }
  - { offset: 0x1500CF, size: 0x8, addend: 0x0, symName: __ZN4core3fmt9Formatter9write_fmt17h1d854119291a54b3E.2196, symObjAddr: 0x2736C, symBinAddr: 0x2A1A4, symSize: 0x2C }
  - { offset: 0x1503D0, size: 0x8, addend: 0x0, symName: '__ZN5alloc2rc15Rc$LT$T$C$A$GT$11from_box_in17h25e4ae37fb14763eE', symObjAddr: 0x274D8, symBinAddr: 0x2A310, symSize: 0x48 }
  - { offset: 0x15069C, size: 0x8, addend: 0x0, symName: '__ZN5alloc2rc15Rc$LT$T$C$A$GT$9drop_slow17h5f9ec6fee1c95facE', symObjAddr: 0x27520, symBinAddr: 0x2A358, symSize: 0x64 }
  - { offset: 0x15097F, size: 0x8, addend: 0x0, symName: '__ZN5alloc2rc15Rc$LT$T$C$A$GT$9drop_slow17h69939ead94d87e59E', symObjAddr: 0x27584, symBinAddr: 0x2A3BC, symSize: 0x44 }
  - { offset: 0x150BA2, size: 0x8, addend: 0x0, symName: '__ZN5alloc2rc15Rc$LT$T$C$A$GT$9drop_slow17h788147a6cab6ddd6E', symObjAddr: 0x275C8, symBinAddr: 0x2A400, symSize: 0x44 }
  - { offset: 0x150D9E, size: 0x8, addend: 0x0, symName: '__ZN5alloc2rc15Rc$LT$T$C$A$GT$9drop_slow17h9414f8160bc4bee1E', symObjAddr: 0x2760C, symBinAddr: 0x2A444, symSize: 0x3C }
  - { offset: 0x150F83, size: 0x8, addend: 0x0, symName: '__ZN5alloc2rc15Rc$LT$T$C$A$GT$9drop_slow17hb240df459837c9ccE', symObjAddr: 0x27648, symBinAddr: 0x2A480, symSize: 0x3C }
  - { offset: 0x151175, size: 0x8, addend: 0x0, symName: '__ZN5alloc2rc15Rc$LT$T$C$A$GT$9drop_slow17hcbca606ac0791abdE', symObjAddr: 0x27684, symBinAddr: 0x2A4BC, symSize: 0x44 }
  - { offset: 0x151339, size: 0x8, addend: 0x0, symName: __ZN14powersync_core4bson5error9BsonError3new17h3ae92222c23fdc3cE, symObjAddr: 0x27738, symBinAddr: 0x2A528, symSize: 0x38 }
  - { offset: 0x1513B4, size: 0x8, addend: 0x0, symName: '__ZN4core6result19Result$LT$T$C$E$GT$3map17h90f1a78e18e6fa2cE', symObjAddr: 0x28624, symBinAddr: 0x2B1BC, symSize: 0x28 }
  - { offset: 0x15196E, size: 0x8, addend: 0x0, symName: '__ZN4core6result19Result$LT$T$C$E$GT$6expect17hd30f16fa9cbd61eaE.2262', symObjAddr: 0x292B8, symBinAddr: 0x2BE50, symSize: 0x18 }
  - { offset: 0x151C0F, size: 0x8, addend: 0x0, symName: __ZN14powersync_core5error14PowerSyncError6errstr17ha42e8bc208f318dfE, symObjAddr: 0x29564, symBinAddr: 0x2C0DC, symSize: 0x9C }
  - { offset: 0x151F90, size: 0x8, addend: 0x0, symName: __ZN14powersync_core5error14PowerSyncError14argument_error17h2f9707371c9e55b8E, symObjAddr: 0x29638, symBinAddr: 0x2C1B0, symSize: 0x30 }
  - { offset: 0x151FBC, size: 0x8, addend: 0x0, symName: __ZN14powersync_core5error14PowerSyncError17as_argument_error17h6beb9d951c2fd1a1E, symObjAddr: 0x29668, symBinAddr: 0x2C1E0, symSize: 0x30 }
  - { offset: 0x151FE8, size: 0x8, addend: 0x0, symName: __ZN14powersync_core5error14PowerSyncError11state_error17hafd868d3fd8ea335E, symObjAddr: 0x29698, symBinAddr: 0x2C210, symSize: 0x24 }
  - { offset: 0x15200B, size: 0x8, addend: 0x0, symName: __ZN14powersync_core5error14PowerSyncError19sync_protocol_error17heedb1666989b30ddE, symObjAddr: 0x296BC, symBinAddr: 0x2C234, symSize: 0x28 }
  - { offset: 0x152061, size: 0x8, addend: 0x0, symName: __ZN14powersync_core5error14PowerSyncError16unknown_internal17hc95ed0c3a30467ebE, symObjAddr: 0x296E4, symBinAddr: 0x2C25C, symSize: 0x24 }
  - { offset: 0x152093, size: 0x8, addend: 0x0, symName: __ZN14powersync_core5error14PowerSyncError8internal17hcd862b97e64a4d7cE, symObjAddr: 0x29708, symBinAddr: 0x2C280, symSize: 0x24 }
  - { offset: 0x1520D9, size: 0x8, addend: 0x0, symName: __ZN14powersync_core5error14PowerSyncError12apply_to_ctx17h34ce9b6ae170ad09E, symObjAddr: 0x2972C, symBinAddr: 0x2C2A4, symSize: 0x98 }
  - { offset: 0x15229F, size: 0x8, addend: 0x0, symName: __ZN5alloc6string6String10insert_str17ha593c6d5293a9973E, symObjAddr: 0x297C4, symBinAddr: 0x2C33C, symSize: 0x8C }
  - { offset: 0x1524E5, size: 0x8, addend: 0x0, symName: __ZN14powersync_core5error14PowerSyncError17sqlite_error_code17ha85ee094d438e385E, symObjAddr: 0x29850, symBinAddr: 0x2C3C8, symSize: 0x5C }
  - { offset: 0x152BB6, size: 0x8, addend: 0x0, symName: '__ZN4core6result19Result$LT$T$C$E$GT$7map_err17hd3894dffa9e92440E', symObjAddr: 0x2A894, symBinAddr: 0x2D40C, symSize: 0x44 }
  - { offset: 0x152D38, size: 0x8, addend: 0x0, symName: '__ZN5alloc3vec16Vec$LT$T$C$A$GT$4push17h53ba69066ac7d7ccE.2310', symObjAddr: 0x2AC10, symBinAddr: 0x2D788, symSize: 0x28 }
  - { offset: 0x152E8E, size: 0x8, addend: 0x0, symName: _OUTLINED_FUNCTION_73, symObjAddr: 0x3B62C, symBinAddr: 0x3DB6C, symSize: 0x20 }
  - { offset: 0x152EA5, size: 0x8, addend: 0x0, symName: _OUTLINED_FUNCTION_197, symObjAddr: 0x3BF70, symBinAddr: 0x3E4B0, symSize: 0x14 }
  - { offset: 0x152EBC, size: 0x8, addend: 0x0, symName: _OUTLINED_FUNCTION_259, symObjAddr: 0x3C324, symBinAddr: 0x3E864, symSize: 0x10 }
  - { offset: 0x152ED3, size: 0x8, addend: 0x0, symName: _OUTLINED_FUNCTION_302, symObjAddr: 0x3C564, symBinAddr: 0x3EAA4, symSize: 0xC }
  - { offset: 0x152EEA, size: 0x8, addend: 0x0, symName: _OUTLINED_FUNCTION_306, symObjAddr: 0x3C598, symBinAddr: 0x3EAD8, symSize: 0xC }
  - { offset: 0x152F01, size: 0x8, addend: 0x0, symName: _OUTLINED_FUNCTION_311, symObjAddr: 0x3C5E8, symBinAddr: 0x3EB28, symSize: 0xC }
  - { offset: 0x152F18, size: 0x8, addend: 0x0, symName: _OUTLINED_FUNCTION_314, symObjAddr: 0x3C60C, symBinAddr: 0x3EB4C, symSize: 0xC }
  - { offset: 0x152F2F, size: 0x8, addend: 0x0, symName: _OUTLINED_FUNCTION_348, symObjAddr: 0x3C7C4, symBinAddr: 0x3ED04, symSize: 0xC }
  - { offset: 0x152F46, size: 0x8, addend: 0x0, symName: _OUTLINED_FUNCTION_398, symObjAddr: 0x3CAD0, symBinAddr: 0x3F010, symSize: 0xC }
  - { offset: 0x152F5D, size: 0x8, addend: 0x0, symName: _OUTLINED_FUNCTION_413, symObjAddr: 0x3CB80, symBinAddr: 0x3F0C0, symSize: 0x24 }
  - { offset: 0x152F74, size: 0x8, addend: 0x0, symName: _OUTLINED_FUNCTION_461, symObjAddr: 0x3CDF0, symBinAddr: 0x3F330, symSize: 0x8 }
  - { offset: 0x152F8B, size: 0x8, addend: 0x0, symName: _OUTLINED_FUNCTION_499, symObjAddr: 0x3D04C, symBinAddr: 0x3F58C, symSize: 0xC }
  - { offset: 0x152FA2, size: 0x8, addend: 0x0, symName: _OUTLINED_FUNCTION_500, symObjAddr: 0x3D058, symBinAddr: 0x3F598, symSize: 0xC }
  - { offset: 0x152FB9, size: 0x8, addend: 0x0, symName: _OUTLINED_FUNCTION_504, symObjAddr: 0x3D094, symBinAddr: 0x3F5D4, symSize: 0xC }
  - { offset: 0x152FD0, size: 0x8, addend: 0x0, symName: _OUTLINED_FUNCTION_515, symObjAddr: 0x3D134, symBinAddr: 0x3F674, symSize: 0x14 }
  - { offset: 0x152FE7, size: 0x8, addend: 0x0, symName: _OUTLINED_FUNCTION_586, symObjAddr: 0x3D518, symBinAddr: 0x3FA58, symSize: 0x8 }
  - { offset: 0x152FFE, size: 0x8, addend: 0x0, symName: _OUTLINED_FUNCTION_619, symObjAddr: 0x3D6D0, symBinAddr: 0x3FC10, symSize: 0x24 }
  - { offset: 0x153015, size: 0x8, addend: 0x0, symName: _OUTLINED_FUNCTION_674, symObjAddr: 0x3DA0C, symBinAddr: 0x3FF4C, symSize: 0x20 }
  - { offset: 0x15302C, size: 0x8, addend: 0x0, symName: _OUTLINED_FUNCTION_711, symObjAddr: 0x3DC90, symBinAddr: 0x401D0, symSize: 0x8 }
  - { offset: 0x153043, size: 0x8, addend: 0x0, symName: _OUTLINED_FUNCTION_714, symObjAddr: 0x3DCB4, symBinAddr: 0x401F4, symSize: 0x1C }
  - { offset: 0x15305A, size: 0x8, addend: 0x0, symName: _OUTLINED_FUNCTION_754, symObjAddr: 0x3DEA8, symBinAddr: 0x403E8, symSize: 0xC }
  - { offset: 0x153071, size: 0x8, addend: 0x0, symName: _OUTLINED_FUNCTION_762, symObjAddr: 0x3DF28, symBinAddr: 0x40468, symSize: 0x10 }
  - { offset: 0x153088, size: 0x8, addend: 0x0, symName: _OUTLINED_FUNCTION_792, symObjAddr: 0x3E084, symBinAddr: 0x405C4, symSize: 0x10 }
  - { offset: 0x15309F, size: 0x8, addend: 0x0, symName: _OUTLINED_FUNCTION_796, symObjAddr: 0x3E0C8, symBinAddr: 0x40608, symSize: 0x8 }
  - { offset: 0x1530B6, size: 0x8, addend: 0x0, symName: _OUTLINED_FUNCTION_812, symObjAddr: 0x3E17C, symBinAddr: 0x406BC, symSize: 0x1C }
  - { offset: 0x1530CD, size: 0x8, addend: 0x0, symName: _OUTLINED_FUNCTION_834, symObjAddr: 0x3E2AC, symBinAddr: 0x407EC, symSize: 0x10 }
  - { offset: 0x1530E4, size: 0x8, addend: 0x0, symName: _OUTLINED_FUNCTION_851, symObjAddr: 0x3E3BC, symBinAddr: 0x408FC, symSize: 0x10 }
  - { offset: 0x1530FB, size: 0x8, addend: 0x0, symName: _OUTLINED_FUNCTION_869, symObjAddr: 0x3E4EC, symBinAddr: 0x40A2C, symSize: 0x18 }
  - { offset: 0x153112, size: 0x8, addend: 0x0, symName: _OUTLINED_FUNCTION_870, symObjAddr: 0x3E504, symBinAddr: 0x40A44, symSize: 0x18 }
  - { offset: 0x153129, size: 0x8, addend: 0x0, symName: _OUTLINED_FUNCTION_924, symObjAddr: 0x3E834, symBinAddr: 0x40D74, symSize: 0xC }
  - { offset: 0x153140, size: 0x8, addend: 0x0, symName: _OUTLINED_FUNCTION_926, symObjAddr: 0x3E84C, symBinAddr: 0x40D8C, symSize: 0xC }
  - { offset: 0x153157, size: 0x8, addend: 0x0, symName: _OUTLINED_FUNCTION_930, symObjAddr: 0x3E884, symBinAddr: 0x40DC4, symSize: 0xC }
  - { offset: 0x15316E, size: 0x8, addend: 0x0, symName: _OUTLINED_FUNCTION_934, symObjAddr: 0x3E8B0, symBinAddr: 0x40DF0, symSize: 0xC }
  - { offset: 0x153185, size: 0x8, addend: 0x0, symName: _OUTLINED_FUNCTION_935, symObjAddr: 0x3E8BC, symBinAddr: 0x40DFC, symSize: 0xC }
  - { offset: 0x15319C, size: 0x8, addend: 0x0, symName: _OUTLINED_FUNCTION_939, symObjAddr: 0x3E8E4, symBinAddr: 0x40E24, symSize: 0x8 }
  - { offset: 0x1531B3, size: 0x8, addend: 0x0, symName: _OUTLINED_FUNCTION_948, symObjAddr: 0x3E954, symBinAddr: 0x40E94, symSize: 0xC }
  - { offset: 0x1531CA, size: 0x8, addend: 0x0, symName: _OUTLINED_FUNCTION_1009, symObjAddr: 0x3EBC4, symBinAddr: 0x41104, symSize: 0xC }
  - { offset: 0x1531E1, size: 0x8, addend: 0x0, symName: _OUTLINED_FUNCTION_1034, symObjAddr: 0x3ECBC, symBinAddr: 0x411FC, symSize: 0x8 }
  - { offset: 0x1531F8, size: 0x8, addend: 0x0, symName: _OUTLINED_FUNCTION_1039, symObjAddr: 0x3ECEC, symBinAddr: 0x4122C, symSize: 0x8 }
  - { offset: 0x15320F, size: 0x8, addend: 0x0, symName: _OUTLINED_FUNCTION_1067, symObjAddr: 0x3EDFC, symBinAddr: 0x4133C, symSize: 0x8 }
  - { offset: 0x153226, size: 0x8, addend: 0x0, symName: _OUTLINED_FUNCTION_1090, symObjAddr: 0x3EED0, symBinAddr: 0x41410, symSize: 0xC }
  - { offset: 0x15323D, size: 0x8, addend: 0x0, symName: _OUTLINED_FUNCTION_1107, symObjAddr: 0x3EFA0, symBinAddr: 0x414E0, symSize: 0x14 }
  - { offset: 0x153254, size: 0x8, addend: 0x0, symName: _OUTLINED_FUNCTION_1121, symObjAddr: 0x3F070, symBinAddr: 0x415B0, symSize: 0xC }
  - { offset: 0x15326B, size: 0x8, addend: 0x0, symName: _OUTLINED_FUNCTION_1125, symObjAddr: 0x3F0B8, symBinAddr: 0x415F8, symSize: 0x14 }
  - { offset: 0x153282, size: 0x8, addend: 0x0, symName: _OUTLINED_FUNCTION_1142, symObjAddr: 0x3F1BC, symBinAddr: 0x416FC, symSize: 0xC }
  - { offset: 0x153299, size: 0x8, addend: 0x0, symName: _OUTLINED_FUNCTION_1146, symObjAddr: 0x3F1EC, symBinAddr: 0x4172C, symSize: 0x14 }
  - { offset: 0x1CE047, size: 0x8, addend: 0x0, symName: '__ZN42_$LT$$RF$T$u20$as$u20$core..fmt..Debug$GT$3fmt17h2e608f925bc6dfbcE', symObjAddr: 0x3A450, symBinAddr: 0x3C990, symSize: 0x7B8 }
  - { offset: 0x1CEBAA, size: 0x8, addend: 0x0, symName: '__ZN4core3ptr47drop_in_place$LT$alloc..ffi..c_str..CString$GT$17h03a63c827b8ee6a1E', symObjAddr: 0x3AC58, symBinAddr: 0x3D198, symSize: 0x10 }
  - { offset: 0x1CEBD0, size: 0x8, addend: 0x0, symName: '__ZN4core3ptr47drop_in_place$LT$alloc..ffi..c_str..CString$GT$17h03a63c827b8ee6a1E', symObjAddr: 0x3AC58, symBinAddr: 0x3D198, symSize: 0x10 }
  - { offset: 0x1CED10, size: 0x8, addend: 0x0, symName: '__ZN4core3ptr105drop_in_place$LT$core..result..Result$LT$alloc..ffi..c_str..CString$C$alloc..ffi..c_str..NulError$GT$$GT$17h9343762e7d75911eE', symObjAddr: 0x3AD84, symBinAddr: 0x3D2C4, symSize: 0x28 }
  - { offset: 0x1CF1E8, size: 0x8, addend: 0x0, symName: '__ZN42_$LT$$RF$T$u20$as$u20$core..fmt..Debug$GT$3fmt17h2e608f925bc6dfbcE', symObjAddr: 0x3A450, symBinAddr: 0x3C990, symSize: 0x7B8 }
  - { offset: 0x1CF53C, size: 0x8, addend: 0x0, symName: '__ZN95_$LT$$BP$mut$u20$sqlite3_capi..bindings..sqlite3$u20$as$u20$sqlite_nostd..nostd..Connection$GT$11commit_hook17hd27fef582c952aa4E', symObjAddr: 0x3AC68, symBinAddr: 0x3D1A8, symSize: 0x20 }
  - { offset: 0x1CF58A, size: 0x8, addend: 0x0, symName: '__ZN95_$LT$$BP$mut$u20$sqlite3_capi..bindings..sqlite3$u20$as$u20$sqlite_nostd..nostd..Connection$GT$11commit_hook17hd27fef582c952aa4E', symObjAddr: 0x3AC68, symBinAddr: 0x3D1A8, symSize: 0x20 }
  - { offset: 0x1CF5C9, size: 0x8, addend: 0x0, symName: '__ZN95_$LT$$BP$mut$u20$sqlite3_capi..bindings..sqlite3$u20$as$u20$sqlite_nostd..nostd..Connection$GT$18create_function_v217hc516a3dc87003db3E', symObjAddr: 0x3AC88, symBinAddr: 0x3D1C8, symSize: 0xCC }
  - { offset: 0x1CF741, size: 0x8, addend: 0x0, symName: '__ZN95_$LT$$BP$mut$u20$sqlite3_capi..bindings..sqlite3$u20$as$u20$sqlite_nostd..nostd..Connection$GT$13rollback_hook17h7791ce33fea5d36fE', symObjAddr: 0x3ADAC, symBinAddr: 0x3D2EC, symSize: 0x20 }
  - { offset: 0x1CF78F, size: 0x8, addend: 0x0, symName: '__ZN95_$LT$$BP$mut$u20$sqlite3_capi..bindings..sqlite3$u20$as$u20$sqlite_nostd..nostd..Connection$GT$13rollback_hook17h7791ce33fea5d36fE', symObjAddr: 0x3ADAC, symBinAddr: 0x3D2EC, symSize: 0x20 }
  - { offset: 0x1CF7CE, size: 0x8, addend: 0x0, symName: '__ZN95_$LT$$BP$mut$u20$sqlite3_capi..bindings..sqlite3$u20$as$u20$sqlite_nostd..nostd..Connection$GT$11update_hook17h703d67747d00cb8aE', symObjAddr: 0x3ADCC, symBinAddr: 0x3D30C, symSize: 0x20 }
  - { offset: 0x1CF81C, size: 0x8, addend: 0x0, symName: '__ZN95_$LT$$BP$mut$u20$sqlite3_capi..bindings..sqlite3$u20$as$u20$sqlite_nostd..nostd..Connection$GT$11update_hook17h703d67747d00cb8aE', symObjAddr: 0x3ADCC, symBinAddr: 0x3D30C, symSize: 0x20 }
  - { offset: 0x1CF85A, size: 0x8, addend: 0x0, symName: '__ZN95_$LT$$BP$mut$u20$sqlite3_capi..bindings..sqlite3$u20$as$u20$sqlite_nostd..nostd..Connection$GT$6errmsg17h286e5d43a4f872e6E', symObjAddr: 0x3ADEC, symBinAddr: 0x3D32C, symSize: 0xCC }
  - { offset: 0x1CFB23, size: 0x8, addend: 0x0, symName: '__ZN95_$LT$$BP$mut$u20$sqlite3_capi..bindings..sqlite3$u20$as$u20$sqlite_nostd..nostd..Connection$GT$14get_autocommit17h1c203c6a3720614bE', symObjAddr: 0x3AEB8, symBinAddr: 0x3D3F8, symSize: 0x30 }
  - { offset: 0x1CFBAE, size: 0x8, addend: 0x0, symName: '__ZN70_$LT$sqlite_nostd..nostd..ResultCode$u20$as$u20$core..fmt..Display$GT$3fmt17h94ce189842ef78e8E', symObjAddr: 0x3AC08, symBinAddr: 0x3D148, symSize: 0x50 }
  - { offset: 0x1CFC80, size: 0x8, addend: 0x0, symName: __ZN12sqlite_nostd5nostd10convert_rc17h265fc421bc97400dE, symObjAddr: 0x3AD54, symBinAddr: 0x3D294, symSize: 0x30 }
  - { offset: 0x1CFD7E, size: 0x8, addend: 0x0, symName: '__ZN74_$LT$sqlite_nostd..nostd..ManagedStmt$u20$as$u20$core..ops..drop..Drop$GT$4drop17h2f701646a5f36fe0E', symObjAddr: 0x3AF64, symBinAddr: 0x3D4A4, symSize: 0x20 }
  - { offset: 0x1CFDA8, size: 0x8, addend: 0x0, symName: '__ZN74_$LT$sqlite_nostd..nostd..ManagedStmt$u20$as$u20$core..ops..drop..Drop$GT$4drop17h2f701646a5f36fe0E', symObjAddr: 0x3AF64, symBinAddr: 0x3D4A4, symSize: 0x20 }
  - { offset: 0x1CFDDF, size: 0x8, addend: 0x0, symName: '__ZN94_$LT$$BP$mut$u20$sqlite3_capi..bindings..sqlite3_vtab$u20$as$u20$sqlite_nostd..nostd..VTab$GT$7set_err17hfd7e48c02f1f0bf6E', symObjAddr: 0x3AF84, symBinAddr: 0x3D4C4, symSize: 0x48 }
  - { offset: 0x1CFE4B, size: 0x8, addend: 0x0, symName: __ZN12sqlite_nostd5nostd12declare_vtab17h08f7bc868c444956E, symObjAddr: 0x3AFCC, symBinAddr: 0x3D50C, symSize: 0x74 }
  - { offset: 0x1CFF15, size: 0x8, addend: 0x0, symName: __ZN12sqlite_nostd5nostd11vtab_config17h733e97fc9b58714cE, symObjAddr: 0x3B040, symBinAddr: 0x3D580, symSize: 0x24 }
  - { offset: 0x1CFF56, size: 0x8, addend: 0x0, symName: __ZN12sqlite_nostd5nostd11vtab_config17h733e97fc9b58714cE, symObjAddr: 0x3B040, symBinAddr: 0x3D580, symSize: 0x24 }
  - { offset: 0x1D0B15, size: 0x8, addend: 0x0, symName: __ZN12sqlite_nostd5nostd11ManagedStmt5reset17h1f651c7e1384ba9eE, symObjAddr: 0x3AEE8, symBinAddr: 0x3D428, symSize: 0x28 }
  - { offset: 0x1D0BD1, size: 0x8, addend: 0x0, symName: __ZN12sqlite_nostd5nostd11ManagedStmt4step17h71a1421d671e6b72E, symObjAddr: 0x3AF10, symBinAddr: 0x3D450, symSize: 0x54 }
  - { offset: 0x13A5A, size: 0x8, addend: 0x0, symName: __ZN4core3num7dec2flt5float8RawFloat14integer_decode17ha75ea1caaf109c39E, symObjAddr: 0x31E0, symBinAddr: 0x70F0, symSize: 0x3C }
  - { offset: 0x13AED, size: 0x8, addend: 0x0, symName: __ZN4core3num7dec2flt5float8RawFloat14integer_decode17ha75ea1caaf109c39E, symObjAddr: 0x31E0, symBinAddr: 0x70F0, symSize: 0x3C }
  - { offset: 0x13B1D, size: 0x8, addend: 0x0, symName: __ZN4core3num7dec2flt5float8RawFloat14integer_decode17ha75ea1caaf109c39E, symObjAddr: 0x31E0, symBinAddr: 0x70F0, symSize: 0x3C }
  - { offset: 0x13B3A, size: 0x8, addend: 0x0, symName: __ZN4core3num7dec2flt5float8RawFloat14integer_decode17ha75ea1caaf109c39E, symObjAddr: 0x31E0, symBinAddr: 0x70F0, symSize: 0x3C }
  - { offset: 0x13C0E, size: 0x8, addend: 0x0, symName: __ZN4core3num14overflow_panic3add17h15ba88dd39b4b2b2E, symObjAddr: 0x321C, symBinAddr: 0x41CA0, symSize: 0xC }
  - { offset: 0x13E79, size: 0x8, addend: 0x0, symName: __ZN4core3num6bignum8Big32x4010mul_digits9mul_inner17hbbab61c156f3ff86E, symObjAddr: 0x35EC, symBinAddr: 0x74F0, symSize: 0xB4 }
  - { offset: 0x141DE, size: 0x8, addend: 0x0, symName: '__ZN62_$LT$core..num..bignum..Big32x40$u20$as$u20$core..cmp..Ord$GT$3cmp17h3ec29d085166bf6cE', symObjAddr: 0x36F8, symBinAddr: 0x75FC, symSize: 0x7C }
  - { offset: 0x1501B, size: 0x8, addend: 0x0, symName: '__ZN4core5array85_$LT$impl$u20$core..ops..index..Index$LT$I$GT$$u20$for$u20$$u5b$T$u3b$$u20$N$u5d$$GT$5index17h4416b11dedd48ed6E', symObjAddr: 0x3288, symBinAddr: 0x718C, symSize: 0x1C }
  - { offset: 0x150E0, size: 0x8, addend: 0x0, symName: '__ZN4core5array88_$LT$impl$u20$core..ops..index..IndexMut$LT$I$GT$$u20$for$u20$$u5b$T$u3b$$u20$N$u5d$$GT$9index_mut17h00e75f321b57d3f9E', symObjAddr: 0x332C, symBinAddr: 0x7230, symSize: 0x1C }
  - { offset: 0x15A31, size: 0x8, addend: 0x0, symName: __ZN4core3num6bignum8Big32x408from_u6417ha0433ecbc993c329E, symObjAddr: 0x3228, symBinAddr: 0x712C, symSize: 0x58 }
  - { offset: 0x15AA4, size: 0x8, addend: 0x0, symName: __ZN4core3num6bignum8Big32x406digits17h0a953b1c9afa2e63E, symObjAddr: 0x3280, symBinAddr: 0x7184, symSize: 0x8 }
  - { offset: 0x15B1B, size: 0x8, addend: 0x0, symName: __ZN4core3num6bignum8Big32x403add17ha7a53536b9935cfbE, symObjAddr: 0x32A4, symBinAddr: 0x71A8, symSize: 0x88 }
  - { offset: 0x15D00, size: 0x8, addend: 0x0, symName: __ZN4core3num6bignum8Big32x403sub17h8b1a4bf02c6c8878E, symObjAddr: 0x3348, symBinAddr: 0x724C, symSize: 0x78 }
  - { offset: 0x15EF2, size: 0x8, addend: 0x0, symName: __ZN4core3num6bignum8Big32x409mul_small17h6ff96b65130a945eE, symObjAddr: 0x33C0, symBinAddr: 0x72C4, symSize: 0x78 }
  - { offset: 0x1601A, size: 0x8, addend: 0x0, symName: __ZN4core3num6bignum8Big32x408mul_pow217h25a68dcc256cf523E, symObjAddr: 0x3438, symBinAddr: 0x733C, symSize: 0x138 }
  - { offset: 0x16223, size: 0x8, addend: 0x0, symName: __ZN4core3num6bignum8Big32x4010mul_digits17hf9d905d9a6cc99b5E, symObjAddr: 0x3570, symBinAddr: 0x7474, symSize: 0x7C }
  - { offset: 0x1632D, size: 0x8, addend: 0x0, symName: __ZN4core3num6bignum8Big32x4013div_rem_small17h571c30c5b53eeb1fE, symObjAddr: 0x36A0, symBinAddr: 0x75A4, symSize: 0x58 }
  - { offset: 0x164BC, size: 0x8, addend: 0x0, symName: _OUTLINED_FUNCTION_187, symObjAddr: 0x3BEFC, symBinAddr: 0x3E43C, symSize: 0xC }
  - { offset: 0x164D3, size: 0x8, addend: 0x0, symName: _OUTLINED_FUNCTION_304, symObjAddr: 0x3C57C, symBinAddr: 0x3EABC, symSize: 0x10 }
  - { offset: 0x164EA, size: 0x8, addend: 0x0, symName: _OUTLINED_FUNCTION_373, symObjAddr: 0x3C92C, symBinAddr: 0x3EE6C, symSize: 0x18 }
  - { offset: 0x16501, size: 0x8, addend: 0x0, symName: _OUTLINED_FUNCTION_431, symObjAddr: 0x3CC48, symBinAddr: 0x3F188, symSize: 0xC }
  - { offset: 0x16518, size: 0x8, addend: 0x0, symName: _OUTLINED_FUNCTION_455, symObjAddr: 0x3CD84, symBinAddr: 0x3F2C4, symSize: 0x8 }
  - { offset: 0x1652F, size: 0x8, addend: 0x0, symName: _OUTLINED_FUNCTION_667, symObjAddr: 0x3D9A0, symBinAddr: 0x3FEE0, symSize: 0x14 }
  - { offset: 0x16546, size: 0x8, addend: 0x0, symName: _OUTLINED_FUNCTION_668, symObjAddr: 0x3D9B4, symBinAddr: 0x3FEF4, symSize: 0x8 }
  - { offset: 0x1655D, size: 0x8, addend: 0x0, symName: _OUTLINED_FUNCTION_713, symObjAddr: 0x3DCA4, symBinAddr: 0x401E4, symSize: 0x10 }
  - { offset: 0x16574, size: 0x8, addend: 0x0, symName: _OUTLINED_FUNCTION_1081, symObjAddr: 0x3EE7C, symBinAddr: 0x413BC, symSize: 0xC }
  - { offset: 0x8A55, size: 0x8, addend: 0x0, symName: __ZN4core3fmt5write17h070c5907b763711aE, symObjAddr: 0x9A8, symBinAddr: 0x490C, symSize: 0x190 }
  - { offset: 0x8FDD, size: 0x8, addend: 0x0, symName: __ZN4core3fmt9Formatter12pad_integral12write_prefix17h294b0f8af650d752E, symObjAddr: 0xE84, symBinAddr: 0x4DE8, symSize: 0x68 }
  - { offset: 0x909D, size: 0x8, addend: 0x0, symName: '__ZN43_$LT$bool$u20$as$u20$core..fmt..Display$GT$3fmt17h47e386c638ede3cbE', symObjAddr: 0x146C, symBinAddr: 0x53D0, symSize: 0x2C }
  - { offset: 0x90E1, size: 0x8, addend: 0x0, symName: '__ZN43_$LT$char$u20$as$u20$core..fmt..Display$GT$3fmt17hbf5bdf9b37098166E', symObjAddr: 0x16DC, symBinAddr: 0x5640, symSize: 0xE0 }
  - { offset: 0x91E9, size: 0x8, addend: 0x0, symName: '__ZN44_$LT$$RF$T$u20$as$u20$core..fmt..Display$GT$3fmt17hda82ae60b70875dbE', symObjAddr: 0x17BC, symBinAddr: 0x5720, symSize: 0xC }
  - { offset: 0x9882, size: 0x8, addend: 0x0, symName: '__ZN81_$LT$core..str..iter..Chars$u20$as$u20$core..iter..traits..iterator..Iterator$GT$5count17h4bb33472f08fcfacE', symObjAddr: 0xD2C, symBinAddr: 0x4C90, symSize: 0x158 }
  - { offset: 0x98B2, size: 0x8, addend: 0x0, symName: '__ZN81_$LT$core..str..iter..Chars$u20$as$u20$core..iter..traits..iterator..Iterator$GT$5count17h4bb33472f08fcfacE', symObjAddr: 0xD2C, symBinAddr: 0x4C90, symSize: 0x158 }
  - { offset: 0x98C6, size: 0x8, addend: 0x0, symName: '__ZN81_$LT$core..str..iter..Chars$u20$as$u20$core..iter..traits..iterator..Iterator$GT$5count17h4bb33472f08fcfacE', symObjAddr: 0xD2C, symBinAddr: 0x4C90, symSize: 0x158 }
  - { offset: 0x98DA, size: 0x8, addend: 0x0, symName: '__ZN81_$LT$core..str..iter..Chars$u20$as$u20$core..iter..traits..iterator..Iterator$GT$5count17h4bb33472f08fcfacE', symObjAddr: 0xD2C, symBinAddr: 0x4C90, symSize: 0x158 }
  - { offset: 0x98EA, size: 0x8, addend: 0x0, symName: '__ZN81_$LT$core..str..iter..Chars$u20$as$u20$core..iter..traits..iterator..Iterator$GT$5count17h4bb33472f08fcfacE', symObjAddr: 0xD2C, symBinAddr: 0x4C90, symSize: 0x158 }
  - { offset: 0x9902, size: 0x8, addend: 0x0, symName: '__ZN81_$LT$core..str..iter..Chars$u20$as$u20$core..iter..traits..iterator..Iterator$GT$5count17h4bb33472f08fcfacE', symObjAddr: 0xD2C, symBinAddr: 0x4C90, symSize: 0x158 }
  - { offset: 0x9924, size: 0x8, addend: 0x0, symName: '__ZN81_$LT$core..str..iter..Chars$u20$as$u20$core..iter..traits..iterator..Iterator$GT$5count17h4bb33472f08fcfacE', symObjAddr: 0xD2C, symBinAddr: 0x4C90, symSize: 0x158 }
  - { offset: 0x9947, size: 0x8, addend: 0x0, symName: '__ZN81_$LT$core..str..iter..Chars$u20$as$u20$core..iter..traits..iterator..Iterator$GT$5count17h4bb33472f08fcfacE', symObjAddr: 0xD2C, symBinAddr: 0x4C90, symSize: 0x158 }
  - { offset: 0x9966, size: 0x8, addend: 0x0, symName: '__ZN81_$LT$core..str..iter..Chars$u20$as$u20$core..iter..traits..iterator..Iterator$GT$5count17h4bb33472f08fcfacE', symObjAddr: 0xD2C, symBinAddr: 0x4C90, symSize: 0x158 }
  - { offset: 0xA0E7, size: 0x8, addend: 0x0, symName: '__ZN81_$LT$core..str..iter..Chars$u20$as$u20$core..iter..traits..iterator..Iterator$GT$4next17h8d069dcbeb439cddE.151', symObjAddr: 0x10F0, symBinAddr: 0x5054, symSize: 0x94 }
  - { offset: 0xA467, size: 0x8, addend: 0x0, symName: '__ZN4core3str6traits66_$LT$impl$u20$core..ops..index..Index$LT$I$GT$$u20$for$u20$str$GT$5index17h9e44dc722102a27fE', symObjAddr: 0x1498, symBinAddr: 0x53FC, symSize: 0x54 }
  - { offset: 0xA4A7, size: 0x8, addend: 0x0, symName: '__ZN4core3str6traits66_$LT$impl$u20$core..ops..index..Index$LT$I$GT$$u20$for$u20$str$GT$5index17h9e44dc722102a27fE', symObjAddr: 0x1498, symBinAddr: 0x53FC, symSize: 0x54 }
  - { offset: 0xA4C9, size: 0x8, addend: 0x0, symName: '__ZN4core3str6traits66_$LT$impl$u20$core..ops..index..Index$LT$I$GT$$u20$for$u20$str$GT$5index17h9e44dc722102a27fE', symObjAddr: 0x1498, symBinAddr: 0x53FC, symSize: 0x54 }
  - { offset: 0xAEE1, size: 0x8, addend: 0x0, symName: '__ZN4core4char7methods22_$LT$impl$u20$char$GT$16escape_debug_ext17h7e1b3dca71519704E', symObjAddr: 0x14EC, symBinAddr: 0x5450, symSize: 0x1F0 }
  - { offset: 0xC199, size: 0x8, addend: 0x0, symName: __ZN4core3fmt11PostPadding5write17he091acc61777362cE, symObjAddr: 0xB38, symBinAddr: 0x4A9C, symSize: 0x58 }
  - { offset: 0xC300, size: 0x8, addend: 0x0, symName: __ZN4core3fmt9Formatter12pad_integral17h8923fd20dc708986E, symObjAddr: 0xB90, symBinAddr: 0x4AF4, symSize: 0x19C }
  - { offset: 0xC576, size: 0x8, addend: 0x0, symName: __ZN4core3fmt9Formatter7padding17h5d7c92df53017becE, symObjAddr: 0xEEC, symBinAddr: 0x4E50, symSize: 0xA8 }
  - { offset: 0xC75E, size: 0x8, addend: 0x0, symName: __ZN4core3fmt9Formatter3pad17h85a5f16fc0f44d6aE, symObjAddr: 0xF94, symBinAddr: 0x4EF8, symSize: 0x15C }
  - { offset: 0xCB7A, size: 0x8, addend: 0x0, symName: __ZN4core3fmt9Formatter19pad_formatted_parts17h3944e1147768d18cE, symObjAddr: 0x1184, symBinAddr: 0x50E8, symSize: 0x194 }
  - { offset: 0xCE2E, size: 0x8, addend: 0x0, symName: __ZN4core3fmt9Formatter21write_formatted_parts17h3720fb202f867caaE, symObjAddr: 0x1318, symBinAddr: 0x527C, symSize: 0x154 }
  - { offset: 0xD158, size: 0x8, addend: 0x0, symName: _OUTLINED_FUNCTION_167, symObjAddr: 0x3BD88, symBinAddr: 0x3E2C8, symSize: 0x8 }
  - { offset: 0xD16F, size: 0x8, addend: 0x0, symName: _OUTLINED_FUNCTION_189, symObjAddr: 0x3BF10, symBinAddr: 0x3E450, symSize: 0xC }
  - { offset: 0xD186, size: 0x8, addend: 0x0, symName: _OUTLINED_FUNCTION_222, symObjAddr: 0x3C0D8, symBinAddr: 0x3E618, symSize: 0xC }
  - { offset: 0xD19D, size: 0x8, addend: 0x0, symName: _OUTLINED_FUNCTION_324, symObjAddr: 0x3C68C, symBinAddr: 0x3EBCC, symSize: 0xC }
  - { offset: 0xD1B4, size: 0x8, addend: 0x0, symName: _OUTLINED_FUNCTION_330, symObjAddr: 0x3C6D4, symBinAddr: 0x3EC14, symSize: 0x10 }
  - { offset: 0xD1CB, size: 0x8, addend: 0x0, symName: _OUTLINED_FUNCTION_342, symObjAddr: 0x3C774, symBinAddr: 0x3ECB4, symSize: 0x10 }
  - { offset: 0xD1E2, size: 0x8, addend: 0x0, symName: _OUTLINED_FUNCTION_469, symObjAddr: 0x3CE58, symBinAddr: 0x3F398, symSize: 0x1C }
  - { offset: 0xD1F9, size: 0x8, addend: 0x0, symName: _OUTLINED_FUNCTION_470, symObjAddr: 0x3CE74, symBinAddr: 0x3F3B4, symSize: 0x1C }
  - { offset: 0xD210, size: 0x8, addend: 0x0, symName: _OUTLINED_FUNCTION_485, symObjAddr: 0x3CF64, symBinAddr: 0x3F4A4, symSize: 0x1C }
  - { offset: 0xD227, size: 0x8, addend: 0x0, symName: _OUTLINED_FUNCTION_491, symObjAddr: 0x3CFEC, symBinAddr: 0x3F52C, symSize: 0xC }
  - { offset: 0xD23E, size: 0x8, addend: 0x0, symName: _OUTLINED_FUNCTION_544, symObjAddr: 0x3D2F8, symBinAddr: 0x3F838, symSize: 0x8 }
  - { offset: 0xD255, size: 0x8, addend: 0x0, symName: _OUTLINED_FUNCTION_565, symObjAddr: 0x3D3E4, symBinAddr: 0x3F924, symSize: 0x8 }
  - { offset: 0xD26C, size: 0x8, addend: 0x0, symName: _OUTLINED_FUNCTION_601, symObjAddr: 0x3D5D4, symBinAddr: 0x3FB14, symSize: 0xC }
  - { offset: 0xD283, size: 0x8, addend: 0x0, symName: _OUTLINED_FUNCTION_643, symObjAddr: 0x3D880, symBinAddr: 0x3FDC0, symSize: 0x1C }
  - { offset: 0xD29A, size: 0x8, addend: 0x0, symName: _OUTLINED_FUNCTION_661, symObjAddr: 0x3D964, symBinAddr: 0x3FEA4, symSize: 0x14 }
  - { offset: 0xD2B1, size: 0x8, addend: 0x0, symName: _OUTLINED_FUNCTION_685, symObjAddr: 0x3DAE0, symBinAddr: 0x40020, symSize: 0xC }
  - { offset: 0xD2C8, size: 0x8, addend: 0x0, symName: _OUTLINED_FUNCTION_688, symObjAddr: 0x3DB04, symBinAddr: 0x40044, symSize: 0xC }
  - { offset: 0xD2DF, size: 0x8, addend: 0x0, symName: _OUTLINED_FUNCTION_788, symObjAddr: 0x3E060, symBinAddr: 0x405A0, symSize: 0xC }
  - { offset: 0xD2F6, size: 0x8, addend: 0x0, symName: _OUTLINED_FUNCTION_805, symObjAddr: 0x3E124, symBinAddr: 0x40664, symSize: 0x10 }
  - { offset: 0xD30D, size: 0x8, addend: 0x0, symName: _OUTLINED_FUNCTION_886, symObjAddr: 0x3E600, symBinAddr: 0x40B40, symSize: 0xC }
  - { offset: 0xD324, size: 0x8, addend: 0x0, symName: _OUTLINED_FUNCTION_910, symObjAddr: 0x3E78C, symBinAddr: 0x40CCC, symSize: 0xC }
  - { offset: 0xD33B, size: 0x8, addend: 0x0, symName: _OUTLINED_FUNCTION_992, symObjAddr: 0x3EB28, symBinAddr: 0x41068, symSize: 0x8 }
  - { offset: 0xD352, size: 0x8, addend: 0x0, symName: _OUTLINED_FUNCTION_996, symObjAddr: 0x3EB48, symBinAddr: 0x41088, symSize: 0xC }
  - { offset: 0xD369, size: 0x8, addend: 0x0, symName: _OUTLINED_FUNCTION_1087, symObjAddr: 0x3EEB4, symBinAddr: 0x413F4, symSize: 0x8 }
  - { offset: 0x4E47, size: 0x8, addend: 0x0, symName: __ZN5alloc7raw_vec12handle_error17hc08280c408c2f14eE, symObjAddr: 0x570, symBinAddr: 0x41BB0, symSize: 0x14 }
  - { offset: 0x4EE8, size: 0x8, addend: 0x0, symName: __ZN5alloc7raw_vec11finish_grow17h3ae4902f4f1f03a4E, symObjAddr: 0x584, symBinAddr: 0x41BC4, symSize: 0x68 }
  - { offset: 0x5078, size: 0x8, addend: 0x0, symName: '__ZN77_$LT$alloc..raw_vec..RawVec$LT$T$C$A$GT$$u20$as$u20$core..ops..drop..Drop$GT$4drop17h39bf6ce49eab6749E', symObjAddr: 0x61C, symBinAddr: 0x45A0, symSize: 0xC }
  - { offset: 0x50BC, size: 0x8, addend: 0x0, symName: '__ZN5alloc7raw_vec20RawVecInner$LT$A$GT$7reserve21do_reserve_and_handle17hcf4bc537e4fad684E', symObjAddr: 0x6FC, symBinAddr: 0x41C2C, symSize: 0x20 }
  - { offset: 0x5562, size: 0x8, addend: 0x0, symName: '__ZN5alloc7raw_vec19RawVec$LT$T$C$A$GT$8grow_one17h83c60147648f934bE', symObjAddr: 0x464, symBinAddr: 0x4464, symSize: 0x30 }
  - { offset: 0x57AF, size: 0x8, addend: 0x0, symName: '__ZN5alloc7raw_vec20RawVecInner$LT$A$GT$14grow_amortized17h318c48889dd403ffE', symObjAddr: 0x494, symBinAddr: 0x4494, symSize: 0xDC }
  - { offset: 0x5C73, size: 0x8, addend: 0x0, symName: __ZN5alloc5alloc6Global10alloc_impl17h3c97a8d1f67a9bb4E, symObjAddr: 0x5EC, symBinAddr: 0x4570, symSize: 0x30 }
  - { offset: 0x5D05, size: 0x8, addend: 0x0, symName: '__ZN5alloc7raw_vec20RawVecInner$LT$A$GT$10deallocate17hdafdebc417980b8cE', symObjAddr: 0x628, symBinAddr: 0x45AC, symSize: 0x48 }
  - { offset: 0x5E33, size: 0x8, addend: 0x0, symName: '__ZN5alloc7raw_vec20RawVecInner$LT$A$GT$15try_allocate_in17h760f9d2624c902c7E', symObjAddr: 0x670, symBinAddr: 0x45F4, symSize: 0x8C }
  - { offset: 0x61A9, size: 0x8, addend: 0x0, symName: _OUTLINED_FUNCTION_224, symObjAddr: 0x3C0F0, symBinAddr: 0x3E630, symSize: 0xC }
  - { offset: 0x61C0, size: 0x8, addend: 0x0, symName: _OUTLINED_FUNCTION_282, symObjAddr: 0x3C47C, symBinAddr: 0x3E9BC, symSize: 0xC }
  - { offset: 0x61D7, size: 0x8, addend: 0x0, symName: _OUTLINED_FUNCTION_341, symObjAddr: 0x3C768, symBinAddr: 0x3ECA8, symSize: 0xC }
  - { offset: 0x61EE, size: 0x8, addend: 0x0, symName: _OUTLINED_FUNCTION_663, symObjAddr: 0x3D980, symBinAddr: 0x3FEC0, symSize: 0x8 }
  - { offset: 0x6205, size: 0x8, addend: 0x0, symName: _OUTLINED_FUNCTION_923, symObjAddr: 0x3E828, symBinAddr: 0x40D68, symSize: 0xC }
  - { offset: 0x621C, size: 0x8, addend: 0x0, symName: _OUTLINED_FUNCTION_928, symObjAddr: 0x3E870, symBinAddr: 0x40DB0, symSize: 0xC }
  - { offset: 0x10C94, size: 0x8, addend: 0x0, symName: '__ZN4core6escape24EscapeIterInner$LT$_$GT$7unicode17had206c9efad0d20fE', symObjAddr: 0x2280, symBinAddr: 0x61E4, symSize: 0xBC }
  - { offset: 0x10ED4, size: 0x8, addend: 0x0, symName: '__ZN4core5slice29_$LT$impl$u20$$u5b$T$u5d$$GT$15copy_from_slice17len_mismatch_fail17h5ab200922c521f70E', symObjAddr: 0x2370, symBinAddr: 0x41C4C, symSize: 0xC }
  - { offset: 0x116CF, size: 0x8, addend: 0x0, symName: __ZN4core4iter6traits8iterator8Iterator3sum17h1306b5c93e2d050eE, symObjAddr: 0x233C, symBinAddr: 0x62A0, symSize: 0x34 }
  - { offset: 0x11701, size: 0x8, addend: 0x0, symName: __ZN4core4iter6traits8iterator8Iterator3sum17h1306b5c93e2d050eE, symObjAddr: 0x233C, symBinAddr: 0x62A0, symSize: 0x34 }
  - { offset: 0x1171F, size: 0x8, addend: 0x0, symName: __ZN4core4iter6traits8iterator8Iterator3sum17h1306b5c93e2d050eE, symObjAddr: 0x233C, symBinAddr: 0x62A0, symSize: 0x34 }
  - { offset: 0x11742, size: 0x8, addend: 0x0, symName: __ZN4core4iter6traits8iterator8Iterator3sum17h1306b5c93e2d050eE, symObjAddr: 0x233C, symBinAddr: 0x62A0, symSize: 0x34 }
  - { offset: 0x11A58, size: 0x8, addend: 0x0, symName: '__ZN4core6escape24EscapeIterInner$LT$_$GT$7unicode17had206c9efad0d20fE', symObjAddr: 0x2280, symBinAddr: 0x61E4, symSize: 0xBC }
  - { offset: 0x16C561, size: 0x8, addend: 0x0, symName: '__ZN14powersync_core4sync14streaming_sync22StreamingSyncIteration3run28_$u7b$$u7b$closure$u7d$$u7d$17he3e7def145b1aec3E', symObjAddr: 0x2D6CC, symBinAddr: 0x30244, symSize: 0x329C }
  - { offset: 0x173A5E, size: 0x8, addend: 0x0, symName: '__ZN105_$LT$powersync_core..sync..streaming_sync..RequestedStreamSubscriptions$u20$as$u20$core..clone..Clone$GT$5clone17hcaebc0fcd45c9137E', symObjAddr: 0x30D30, symBinAddr: 0x338A8, symSize: 0x28 }
  - { offset: 0x173A8C, size: 0x8, addend: 0x0, symName: '__ZN105_$LT$powersync_core..sync..streaming_sync..RequestedStreamSubscriptions$u20$as$u20$core..clone..Clone$GT$5clone17hcaebc0fcd45c9137E', symObjAddr: 0x30D30, symBinAddr: 0x338A8, symSize: 0x28 }
  - { offset: 0x173AA1, size: 0x8, addend: 0x0, symName: '__ZN105_$LT$powersync_core..sync..streaming_sync..RequestedStreamSubscriptions$u20$as$u20$core..clone..Clone$GT$5clone17hcaebc0fcd45c9137E', symObjAddr: 0x30D30, symBinAddr: 0x338A8, symSize: 0x28 }
  - { offset: 0x173ABD, size: 0x8, addend: 0x0, symName: '__ZN105_$LT$powersync_core..sync..streaming_sync..RequestedStreamSubscriptions$u20$as$u20$core..clone..Clone$GT$5clone17hcaebc0fcd45c9137E', symObjAddr: 0x30D30, symBinAddr: 0x338A8, symSize: 0x28 }
  - { offset: 0x173AD9, size: 0x8, addend: 0x0, symName: '__ZN105_$LT$powersync_core..sync..streaming_sync..RequestedStreamSubscriptions$u20$as$u20$core..clone..Clone$GT$5clone17hcaebc0fcd45c9137E', symObjAddr: 0x30D30, symBinAddr: 0x338A8, symSize: 0x28 }
  - { offset: 0x173CDF, size: 0x8, addend: 0x0, symName: '__ZN92_$LT$powersync_core..sync..streaming_sync..OwnedCheckpoint$u20$as$u20$core..clone..Clone$GT$5clone17h663fc38c7383de7aE', symObjAddr: 0x31FBC, symBinAddr: 0x34B34, symSize: 0x5C }
  - { offset: 0x177B9B, size: 0x8, addend: 0x0, symName: '__ZN67_$LT$alloc..rc..Rc$LT$T$C$A$GT$$u20$as$u20$core..cmp..PartialEq$GT$2ne17h9615facc170786a7E', symObjAddr: 0x30B18, symBinAddr: 0x33690, symSize: 0xF8 }
  - { offset: 0x177BD5, size: 0x8, addend: 0x0, symName: '__ZN67_$LT$alloc..rc..Rc$LT$T$C$A$GT$$u20$as$u20$core..cmp..PartialEq$GT$2ne17h9615facc170786a7E', symObjAddr: 0x30B18, symBinAddr: 0x33690, symSize: 0xF8 }
  - { offset: 0x177BEA, size: 0x8, addend: 0x0, symName: '__ZN67_$LT$alloc..rc..Rc$LT$T$C$A$GT$$u20$as$u20$core..cmp..PartialEq$GT$2ne17h9615facc170786a7E', symObjAddr: 0x30B18, symBinAddr: 0x33690, symSize: 0xF8 }
  - { offset: 0x177C11, size: 0x8, addend: 0x0, symName: '__ZN67_$LT$alloc..rc..Rc$LT$T$C$A$GT$$u20$as$u20$core..cmp..PartialEq$GT$2ne17h9615facc170786a7E', symObjAddr: 0x30B18, symBinAddr: 0x33690, symSize: 0xF8 }
  - { offset: 0x178F00, size: 0x8, addend: 0x0, symName: '__ZN4core3ptr115drop_in_place$LT$powersync_core..sync..streaming_sync..StreamingSyncIteration..run..$u7b$$u7b$closure$u7d$$u7d$$GT$17h966b7b2e43d20584E', symObjAddr: 0x2D680, symBinAddr: 0x301F8, symSize: 0x4C }
  - { offset: 0x179013, size: 0x8, addend: 0x0, symName: '__ZN4core3ptr87drop_in_place$LT$powersync_core..sync..streaming_sync..RequestedStreamSubscriptions$GT$17hc9bd9075a29e68eaE', symObjAddr: 0x30968, symBinAddr: 0x334E0, symSize: 0x4C }
  - { offset: 0x179333, size: 0x8, addend: 0x0, symName: '__ZN4core3ptr69drop_in_place$LT$powersync_core..sync..streaming_sync..SyncTarget$GT$17h7cfc41b801ae14ebE', symObjAddr: 0x309F4, symBinAddr: 0x3356C, symSize: 0x40 }
  - { offset: 0x179490, size: 0x8, addend: 0x0, symName: '__ZN4core3ptr57drop_in_place$LT$powersync_core..sync..line..SyncLine$GT$17hc40b21794f2b2bf2E.2537', symObjAddr: 0x30A34, symBinAddr: 0x335AC, symSize: 0x78 }
  - { offset: 0x179692, size: 0x8, addend: 0x0, symName: '__ZN4core3ptr86drop_in_place$LT$core..option..Option$LT$powersync_core..error..PowerSyncError$GT$$GT$17h1cd43913701a86d4E', symObjAddr: 0x30AAC, symBinAddr: 0x33624, symSize: 0x6C }
  - { offset: 0x17987E, size: 0x8, addend: 0x0, symName: '__ZN4core3ptr81drop_in_place$LT$powersync_core..sync..streaming_sync..StreamingSyncIteration$GT$17hfd1f83a1483d0137E', symObjAddr: 0x30C10, symBinAddr: 0x33788, symSize: 0x68 }
  - { offset: 0x179BAA, size: 0x8, addend: 0x0, symName: '__ZN4core3ptr69drop_in_place$LT$powersync_core..sync..interface..StartSyncStream$GT$17h8d35426246482025E.2540', symObjAddr: 0x30C78, symBinAddr: 0x337F0, symSize: 0x5C }
  - { offset: 0x179CFE, size: 0x8, addend: 0x0, symName: '__ZN4core3ptr102drop_in_place$LT$core..option..Option$LT$powersync_core..sync..streaming_sync..OwnedCheckpoint$GT$$GT$17h437add6471261fb6E', symObjAddr: 0x30CD4, symBinAddr: 0x3384C, symSize: 0x18 }
  - { offset: 0x179DFE, size: 0x8, addend: 0x0, symName: '__ZN4core3ptr102drop_in_place$LT$core..option..Option$LT$powersync_core..sync..checkpoint..OwnedBucketChecksum$GT$$GT$17h02a339430d556f46E', symObjAddr: 0x30CEC, symBinAddr: 0x33864, symSize: 0x44 }
  - { offset: 0x17A0C5, size: 0x8, addend: 0x0, symName: '__ZN4core3ptr76drop_in_place$LT$powersync_core..sync..streaming_sync..TrackedCheckpoint$GT$17hc121f1586f57a6d0E', symObjAddr: 0x32018, symBinAddr: 0x34B90, symSize: 0x68 }
  - { offset: 0x17A291, size: 0x8, addend: 0x0, symName: '__ZN4core3ptr76drop_in_place$LT$powersync_core..sync..storage_adapter..CheckpointResult$GT$17hebff0a653816cb60E', symObjAddr: 0x33000, symBinAddr: 0x35B78, symSize: 0x20 }
  - { offset: 0x17A2F5, size: 0x8, addend: 0x0, symName: '__ZN4core3ptr75drop_in_place$LT$powersync_core..sync..storage_adapter..SyncLocalResult$GT$17hde54967411f15701E', symObjAddr: 0x330CC, symBinAddr: 0x35C44, symSize: 0x1C }
  - { offset: 0x17A342, size: 0x8, addend: 0x0, symName: '__ZN4core3ptr70drop_in_place$LT$powersync_core..sync..streaming_sync..ActiveEvent$GT$17h6c51aa5504ca6ffbE', symObjAddr: 0x33270, symBinAddr: 0x35DE8, symSize: 0x2C }
  - { offset: 0x17A373, size: 0x8, addend: 0x0, symName: '__ZN4core3ptr63drop_in_place$LT$powersync_core..sync..interface..SyncEvent$GT$17h416544e6122f3cb8E', symObjAddr: 0x3329C, symBinAddr: 0x35E14, symSize: 0x14 }
  - { offset: 0x17A3DD, size: 0x8, addend: 0x0, symName: '__ZN4core3ptr78drop_in_place$LT$powersync_core..sync..streaming_sync..SyncIterationHandle$GT$17h72fa1875af21fc50E', symObjAddr: 0x332B0, symBinAddr: 0x35E28, symSize: 0x3C }
  - { offset: 0x17A4CF, size: 0x8, addend: 0x0, symName: '__ZN4core3ptr70drop_in_place$LT$powersync_core..sync..streaming_sync..ClientState$GT$17h29ae5c3ec1dcbe6aE', symObjAddr: 0x332EC, symBinAddr: 0x35E64, symSize: 0xC }
  - { offset: 0x17E0C8, size: 0x8, addend: 0x0, symName: __ZN4core3ops8function6FnOnce9call_once17h78a4ea6718eed938E, symObjAddr: 0x332F8, symBinAddr: 0x35E70, symSize: 0x10 }
  - { offset: 0x17E107, size: 0x8, addend: 0x0, symName: __ZN4core3ops8function6FnOnce9call_once17h1676ca941f4e89dbE, symObjAddr: 0x33308, symBinAddr: 0x35E80, symSize: 0x4 }
  - { offset: 0x17F588, size: 0x8, addend: 0x0, symName: '__ZN44_$LT$$RF$T$u20$as$u20$core..fmt..Display$GT$3fmt17hfa0d44206449ebaaE', symObjAddr: 0x330E8, symBinAddr: 0x35C60, symSize: 0x8 }
  - { offset: 0x17F5CF, size: 0x8, addend: 0x0, symName: '__ZN44_$LT$$RF$T$u20$as$u20$core..fmt..Display$GT$3fmt17hfecf65b11f6eb2c5E', symObjAddr: 0x330F0, symBinAddr: 0x35C68, symSize: 0x24 }
  - { offset: 0x1814EF, size: 0x8, addend: 0x0, symName: '__ZN5alloc3vec16Vec$LT$T$C$A$GT$4push17h39fbeb2661b9034aE', symObjAddr: 0x309B4, symBinAddr: 0x3352C, symSize: 0x40 }
  - { offset: 0x18195B, size: 0x8, addend: 0x0, symName: __ZN14powersync_core4sync14streaming_sync22StreamingSyncIteration13load_progress17h4a1faed06467e588E, symObjAddr: 0x30D58, symBinAddr: 0x338D0, symSize: 0x7F0 }
  - { offset: 0x18451A, size: 0x8, addend: 0x0, symName: __ZN14powersync_core4sync14streaming_sync22StreamingSyncIteration26resolve_subscription_state17h28f2794f1bfd5193E, symObjAddr: 0x31548, symBinAddr: 0x340C0, symSize: 0xA74 }
  - { offset: 0x186A5F, size: 0x8, addend: 0x0, symName: __ZN14powersync_core4sync14streaming_sync22StreamingSyncIteration10sync_local17hbdae7e870e39496dE, symObjAddr: 0x32080, symBinAddr: 0x34BF8, symSize: 0xF80 }
  - { offset: 0x188534, size: 0x8, addend: 0x0, symName: __ZN14powersync_core4sync14streaming_sync22StreamingSyncIteration25handle_checkpoint_applied17h22f45a29fdb0c9afE, symObjAddr: 0x33020, symBinAddr: 0x35B98, symSize: 0xAC }
  - { offset: 0x1887D6, size: 0x8, addend: 0x0, symName: __ZN14powersync_core4sync14streaming_sync11ClientState9tear_down17he9b6b0b9b59d0729E, symObjAddr: 0x33114, symBinAddr: 0x35C8C, symSize: 0xB4 }
  - { offset: 0x1888EC, size: 0x8, addend: 0x0, symName: __ZN14powersync_core4sync14streaming_sync19SyncIterationHandle3run17h2feb6f7e9043c719E, symObjAddr: 0x331C8, symBinAddr: 0x35D40, symSize: 0xA8 }
  - { offset: 0x188AF1, size: 0x8, addend: 0x0, symName: _OUTLINED_FUNCTION_28, symObjAddr: 0x3B268, symBinAddr: 0x3D7A8, symSize: 0x10 }
  - { offset: 0x188B08, size: 0x8, addend: 0x0, symName: _OUTLINED_FUNCTION_51, symObjAddr: 0x3B448, symBinAddr: 0x3D988, symSize: 0x14 }
  - { offset: 0x188B1F, size: 0x8, addend: 0x0, symName: _OUTLINED_FUNCTION_137, symObjAddr: 0x3BB60, symBinAddr: 0x3E0A0, symSize: 0x18 }
  - { offset: 0x188B36, size: 0x8, addend: 0x0, symName: _OUTLINED_FUNCTION_143, symObjAddr: 0x3BBE4, symBinAddr: 0x3E124, symSize: 0x10 }
  - { offset: 0x188B4D, size: 0x8, addend: 0x0, symName: _OUTLINED_FUNCTION_145, symObjAddr: 0x3BC04, symBinAddr: 0x3E144, symSize: 0xC }
  - { offset: 0x188B64, size: 0x8, addend: 0x0, symName: _OUTLINED_FUNCTION_196, symObjAddr: 0x3BF5C, symBinAddr: 0x3E49C, symSize: 0x14 }
  - { offset: 0x188B7B, size: 0x8, addend: 0x0, symName: _OUTLINED_FUNCTION_201, symObjAddr: 0x3BFB8, symBinAddr: 0x3E4F8, symSize: 0xC }
  - { offset: 0x188B92, size: 0x8, addend: 0x0, symName: _OUTLINED_FUNCTION_278, symObjAddr: 0x3C42C, symBinAddr: 0x3E96C, symSize: 0x14 }
  - { offset: 0x188BA9, size: 0x8, addend: 0x0, symName: _OUTLINED_FUNCTION_415, symObjAddr: 0x3CBAC, symBinAddr: 0x3F0EC, symSize: 0xC }
  - { offset: 0x188BC0, size: 0x8, addend: 0x0, symName: _OUTLINED_FUNCTION_501, symObjAddr: 0x3D064, symBinAddr: 0x3F5A4, symSize: 0x18 }
  - { offset: 0x188BD7, size: 0x8, addend: 0x0, symName: _OUTLINED_FUNCTION_529, symObjAddr: 0x3D230, symBinAddr: 0x3F770, symSize: 0xC }
  - { offset: 0x188BEE, size: 0x8, addend: 0x0, symName: _OUTLINED_FUNCTION_554, symObjAddr: 0x3D36C, symBinAddr: 0x3F8AC, symSize: 0xC }
  - { offset: 0x188C05, size: 0x8, addend: 0x0, symName: _OUTLINED_FUNCTION_756, symObjAddr: 0x3DEBC, symBinAddr: 0x403FC, symSize: 0x1C }
  - { offset: 0x188C1C, size: 0x8, addend: 0x0, symName: _OUTLINED_FUNCTION_774, symObjAddr: 0x3DFC4, symBinAddr: 0x40504, symSize: 0x1C }
  - { offset: 0x188C33, size: 0x8, addend: 0x0, symName: _OUTLINED_FUNCTION_776, symObjAddr: 0x3DFE8, symBinAddr: 0x40528, symSize: 0x8 }
  - { offset: 0x188C4A, size: 0x8, addend: 0x0, symName: _OUTLINED_FUNCTION_779, symObjAddr: 0x3E00C, symBinAddr: 0x4054C, symSize: 0xC }
  - { offset: 0x188C61, size: 0x8, addend: 0x0, symName: _OUTLINED_FUNCTION_831, symObjAddr: 0x3E27C, symBinAddr: 0x407BC, symSize: 0x10 }
  - { offset: 0x188C78, size: 0x8, addend: 0x0, symName: _OUTLINED_FUNCTION_849, symObjAddr: 0x3E39C, symBinAddr: 0x408DC, symSize: 0x10 }
  - { offset: 0x188C8F, size: 0x8, addend: 0x0, symName: _OUTLINED_FUNCTION_850, symObjAddr: 0x3E3AC, symBinAddr: 0x408EC, symSize: 0x10 }
  - { offset: 0x188CA6, size: 0x8, addend: 0x0, symName: _OUTLINED_FUNCTION_875, symObjAddr: 0x3E564, symBinAddr: 0x40AA4, symSize: 0xC }
  - { offset: 0x188CBD, size: 0x8, addend: 0x0, symName: _OUTLINED_FUNCTION_881, symObjAddr: 0x3E5B8, symBinAddr: 0x40AF8, symSize: 0x18 }
  - { offset: 0x188CD4, size: 0x8, addend: 0x0, symName: _OUTLINED_FUNCTION_882, symObjAddr: 0x3E5D0, symBinAddr: 0x40B10, symSize: 0xC }
  - { offset: 0x188CEB, size: 0x8, addend: 0x0, symName: _OUTLINED_FUNCTION_883, symObjAddr: 0x3E5DC, symBinAddr: 0x40B1C, symSize: 0xC }
  - { offset: 0x188D02, size: 0x8, addend: 0x0, symName: _OUTLINED_FUNCTION_887, symObjAddr: 0x3E60C, symBinAddr: 0x40B4C, symSize: 0xC }
  - { offset: 0x188D19, size: 0x8, addend: 0x0, symName: _OUTLINED_FUNCTION_893, symObjAddr: 0x3E678, symBinAddr: 0x40BB8, symSize: 0xC }
  - { offset: 0x188D30, size: 0x8, addend: 0x0, symName: _OUTLINED_FUNCTION_932, symObjAddr: 0x3E89C, symBinAddr: 0x40DDC, symSize: 0xC }
  - { offset: 0x188D47, size: 0x8, addend: 0x0, symName: _OUTLINED_FUNCTION_933, symObjAddr: 0x3E8A8, symBinAddr: 0x40DE8, symSize: 0x8 }
  - { offset: 0x188D5E, size: 0x8, addend: 0x0, symName: _OUTLINED_FUNCTION_937, symObjAddr: 0x3E8D0, symBinAddr: 0x40E10, symSize: 0x8 }
  - { offset: 0x188D75, size: 0x8, addend: 0x0, symName: _OUTLINED_FUNCTION_953, symObjAddr: 0x3E994, symBinAddr: 0x40ED4, symSize: 0x8 }
  - { offset: 0x188D8C, size: 0x8, addend: 0x0, symName: _OUTLINED_FUNCTION_955, symObjAddr: 0x3E9A8, symBinAddr: 0x40EE8, symSize: 0xC }
  - { offset: 0x188DA3, size: 0x8, addend: 0x0, symName: _OUTLINED_FUNCTION_956, symObjAddr: 0x3E9B4, symBinAddr: 0x40EF4, symSize: 0xC }
  - { offset: 0x188DBA, size: 0x8, addend: 0x0, symName: _OUTLINED_FUNCTION_1003, symObjAddr: 0x3EB84, symBinAddr: 0x410C4, symSize: 0xC }
  - { offset: 0x188DD1, size: 0x8, addend: 0x0, symName: _OUTLINED_FUNCTION_1013, symObjAddr: 0x3EBEC, symBinAddr: 0x4112C, symSize: 0xC }
  - { offset: 0x188DE8, size: 0x8, addend: 0x0, symName: _OUTLINED_FUNCTION_1020, symObjAddr: 0x3EC34, symBinAddr: 0x41174, symSize: 0x8 }
  - { offset: 0x188DFF, size: 0x8, addend: 0x0, symName: _OUTLINED_FUNCTION_1021, symObjAddr: 0x3EC3C, symBinAddr: 0x4117C, symSize: 0xC }
  - { offset: 0x188E16, size: 0x8, addend: 0x0, symName: _OUTLINED_FUNCTION_1033, symObjAddr: 0x3ECB4, symBinAddr: 0x411F4, symSize: 0x8 }
  - { offset: 0x188E2D, size: 0x8, addend: 0x0, symName: _OUTLINED_FUNCTION_1111, symObjAddr: 0x3EFD8, symBinAddr: 0x41518, symSize: 0x14 }
  - { offset: 0x188E44, size: 0x8, addend: 0x0, symName: _OUTLINED_FUNCTION_1116, symObjAddr: 0x3F02C, symBinAddr: 0x4156C, symSize: 0x14 }
  - { offset: 0x188E5B, size: 0x8, addend: 0x0, symName: _OUTLINED_FUNCTION_1123, symObjAddr: 0x3F090, symBinAddr: 0x415D0, symSize: 0x14 }
  - { offset: 0x188E72, size: 0x8, addend: 0x0, symName: _OUTLINED_FUNCTION_1132, symObjAddr: 0x3F12C, symBinAddr: 0x4166C, symSize: 0xC }
  - { offset: 0x188E89, size: 0x8, addend: 0x0, symName: _OUTLINED_FUNCTION_1154, symObjAddr: 0x3F25C, symBinAddr: 0x4179C, symSize: 0x14 }
  - { offset: 0x188EA0, size: 0x8, addend: 0x0, symName: _OUTLINED_FUNCTION_1157, symObjAddr: 0x3F288, symBinAddr: 0x417C8, symSize: 0x14 }
  - { offset: 0x188EB7, size: 0x8, addend: 0x0, symName: _OUTLINED_FUNCTION_1162, symObjAddr: 0x3F2DC, symBinAddr: 0x4181C, symSize: 0xC }
  - { offset: 0x188ECE, size: 0x8, addend: 0x0, symName: _OUTLINED_FUNCTION_1163, symObjAddr: 0x3F2E8, symBinAddr: 0x41828, symSize: 0xC }
  - { offset: 0x188EE5, size: 0x8, addend: 0x0, symName: _OUTLINED_FUNCTION_1171, symObjAddr: 0x3F368, symBinAddr: 0x418A8, symSize: 0xC }
  - { offset: 0x19D0A7, size: 0x8, addend: 0x0, symName: '__ZN5alloc11collections5btree4node21LeafNode$LT$K$C$V$GT$3new17hca4332d80bc55b4fE', symObjAddr: 0x35D58, symBinAddr: 0x3884C, symSize: 0x24 }
  - { offset: 0x19EA25, size: 0x8, addend: 0x0, symName: '__ZN4core5array88_$LT$impl$u20$core..ops..index..IndexMut$LT$I$GT$$u20$for$u20$$u5b$T$u3b$$u20$N$u5d$$GT$9index_mut17h65618769cb663ca7E', symObjAddr: 0x35ED4, symBinAddr: 0x389C8, symSize: 0x18 }
  - { offset: 0x19EA64, size: 0x8, addend: 0x0, symName: '__ZN4core5array88_$LT$impl$u20$core..ops..index..IndexMut$LT$I$GT$$u20$for$u20$$u5b$T$u3b$$u20$N$u5d$$GT$9index_mut17h65618769cb663ca7E', symObjAddr: 0x35ED4, symBinAddr: 0x389C8, symSize: 0x18 }
  - { offset: 0x19EA89, size: 0x8, addend: 0x0, symName: '__ZN4core5array88_$LT$impl$u20$core..ops..index..IndexMut$LT$I$GT$$u20$for$u20$$u5b$T$u3b$$u20$N$u5d$$GT$9index_mut17h65618769cb663ca7E', symObjAddr: 0x35ED4, symBinAddr: 0x389C8, symSize: 0x18 }
  - { offset: 0x19EAAD, size: 0x8, addend: 0x0, symName: '__ZN4core5array88_$LT$impl$u20$core..ops..index..IndexMut$LT$I$GT$$u20$for$u20$$u5b$T$u3b$$u20$N$u5d$$GT$9index_mut17h65618769cb663ca7E', symObjAddr: 0x35ED4, symBinAddr: 0x389C8, symSize: 0x18 }
  - { offset: 0x19EAD0, size: 0x8, addend: 0x0, symName: '__ZN4core5array88_$LT$impl$u20$core..ops..index..IndexMut$LT$I$GT$$u20$for$u20$$u5b$T$u3b$$u20$N$u5d$$GT$9index_mut17h65618769cb663ca7E', symObjAddr: 0x35ED4, symBinAddr: 0x389C8, symSize: 0x18 }
  - { offset: 0x19FB67, size: 0x8, addend: 0x0, symName: __ZN5alloc11collections5btree4node12slice_insert17habe66886e852dc3cE, symObjAddr: 0x35E14, symBinAddr: 0x38908, symSize: 0x5C }
  - { offset: 0x19FC65, size: 0x8, addend: 0x0, symName: __ZN5alloc11collections5btree4node13move_to_slice17h6db34816968f5a8fE, symObjAddr: 0x35E70, symBinAddr: 0x38964, symSize: 0x24 }
  - { offset: 0x19FCD4, size: 0x8, addend: 0x0, symName: __ZN5alloc11collections5btree4node13move_to_slice17h70d2e5ed06c0815bE, symObjAddr: 0x35E94, symBinAddr: 0x38988, symSize: 0x20 }
  - { offset: 0x19FD43, size: 0x8, addend: 0x0, symName: __ZN5alloc11collections5btree4node13move_to_slice17h9d8253d716992f66E, symObjAddr: 0x35EB4, symBinAddr: 0x389A8, symSize: 0x20 }
  - { offset: 0x1A1894, size: 0x8, addend: 0x0, symName: '__ZN5alloc11collections5btree4node21LeafNode$LT$K$C$V$GT$3new17hca4332d80bc55b4fE', symObjAddr: 0x35D58, symBinAddr: 0x3884C, symSize: 0x24 }
  - { offset: 0x1A1A6C, size: 0x8, addend: 0x0, symName: '__ZN5alloc11collections5btree4node119NodeRef$LT$alloc..collections..btree..node..marker..Mut$C$K$C$V$C$alloc..collections..btree..node..marker..Internal$GT$30correct_childrens_parent_links17h1a4da53fcd40d314E', symObjAddr: 0x35D7C, symBinAddr: 0x38870, symSize: 0x24 }
  - { offset: 0x1A1A9B, size: 0x8, addend: 0x0, symName: '__ZN5alloc11collections5btree4node119NodeRef$LT$alloc..collections..btree..node..marker..Mut$C$K$C$V$C$alloc..collections..btree..node..marker..Internal$GT$30correct_childrens_parent_links17h1a4da53fcd40d314E', symObjAddr: 0x35D7C, symBinAddr: 0x38870, symSize: 0x24 }
  - { offset: 0x1A1C38, size: 0x8, addend: 0x0, symName: '__ZN5alloc11collections5btree4node25InternalNode$LT$K$C$V$GT$3new17h22cdfdf72cc54453E', symObjAddr: 0x35DA0, symBinAddr: 0x38894, symSize: 0x24 }
  - { offset: 0x1A1DF6, size: 0x8, addend: 0x0, symName: '__ZN5alloc11collections5btree4node121NodeRef$LT$alloc..collections..btree..node..marker..Owned$C$K$C$V$C$alloc..collections..btree..node..marker..Internal$GT$17from_new_internal17hc6d7ee9238115a74E', symObjAddr: 0x35DC4, symBinAddr: 0x388B8, symSize: 0x38 }
  - { offset: 0x1A20DA, size: 0x8, addend: 0x0, symName: '__ZN5alloc11collections5btree4node127NodeRef$LT$alloc..collections..btree..node..marker..Dying$C$K$C$V$C$alloc..collections..btree..node..marker..LeafOrInternal$GT$21deallocate_and_ascend17h3c40802e44b99138E', symObjAddr: 0x35DFC, symBinAddr: 0x388F0, symSize: 0x18 }
  - { offset: 0x1A2109, size: 0x8, addend: 0x0, symName: '__ZN5alloc11collections5btree4node127NodeRef$LT$alloc..collections..btree..node..marker..Dying$C$K$C$V$C$alloc..collections..btree..node..marker..LeafOrInternal$GT$21deallocate_and_ascend17h3c40802e44b99138E', symObjAddr: 0x35DFC, symBinAddr: 0x388F0, symSize: 0x18 }
  - { offset: 0x1A2125, size: 0x8, addend: 0x0, symName: '__ZN5alloc11collections5btree4node127NodeRef$LT$alloc..collections..btree..node..marker..Dying$C$K$C$V$C$alloc..collections..btree..node..marker..LeafOrInternal$GT$21deallocate_and_ascend17h3c40802e44b99138E', symObjAddr: 0x35DFC, symBinAddr: 0x388F0, symSize: 0x18 }
  - { offset: 0x1A2145, size: 0x8, addend: 0x0, symName: '__ZN5alloc11collections5btree4node127NodeRef$LT$alloc..collections..btree..node..marker..Dying$C$K$C$V$C$alloc..collections..btree..node..marker..LeafOrInternal$GT$21deallocate_and_ascend17h3c40802e44b99138E', symObjAddr: 0x35DFC, symBinAddr: 0x388F0, symSize: 0x18 }
  - { offset: 0x1A215F, size: 0x8, addend: 0x0, symName: '__ZN5alloc11collections5btree4node127NodeRef$LT$alloc..collections..btree..node..marker..Dying$C$K$C$V$C$alloc..collections..btree..node..marker..LeafOrInternal$GT$21deallocate_and_ascend17h3c40802e44b99138E', symObjAddr: 0x35DFC, symBinAddr: 0x388F0, symSize: 0x18 }
  - { offset: 0x1A22C7, size: 0x8, addend: 0x0, symName: '__ZN5alloc11collections5btree4node214Handle$LT$alloc..collections..btree..node..NodeRef$LT$alloc..collections..btree..node..marker..Mut$C$K$C$V$C$alloc..collections..btree..node..marker..Internal$GT$$C$alloc..collections..btree..node..marker..Edge$GT$10insert_fit17h5236747e00b18563E', symObjAddr: 0x35EEC, symBinAddr: 0x389E0, symSize: 0xA8 }
  - { offset: 0xF56C, size: 0x8, addend: 0x0, symName: __ZN4core3str7pattern11StrSearcher3new17hce78473773b46571E, symObjAddr: 0x1DEC, symBinAddr: 0x5D50, symSize: 0x14C }
  - { offset: 0xF857, size: 0x8, addend: 0x0, symName: __ZN4core3str7pattern14TwoWaySearcher14maximal_suffix17h1c4cf52ee72da914E, symObjAddr: 0x1F38, symBinAddr: 0x5E9C, symSize: 0xA4 }
  - { offset: 0xF919, size: 0x8, addend: 0x0, symName: __ZN4core3str7pattern14TwoWaySearcher22reverse_maximal_suffix17hd9882e5848487641E, symObjAddr: 0x1FDC, symBinAddr: 0x5F40, symSize: 0xD8 }
  - { offset: 0xFAB3, size: 0x8, addend: 0x0, symName: _OUTLINED_FUNCTION_11, symObjAddr: 0x3B144, symBinAddr: 0x3D684, symSize: 0x14 }
  - { offset: 0xFACA, size: 0x8, addend: 0x0, symName: _OUTLINED_FUNCTION_242, symObjAddr: 0x3C21C, symBinAddr: 0x3E75C, symSize: 0xC }
  - { offset: 0xFAE1, size: 0x8, addend: 0x0, symName: _OUTLINED_FUNCTION_285, symObjAddr: 0x3C498, symBinAddr: 0x3E9D8, symSize: 0xC }
  - { offset: 0xFAF8, size: 0x8, addend: 0x0, symName: _OUTLINED_FUNCTION_1100, symObjAddr: 0x3EF34, symBinAddr: 0x41474, symSize: 0x14 }
  - { offset: 0xFB0F, size: 0x8, addend: 0x0, symName: _OUTLINED_FUNCTION_1128, symObjAddr: 0x3F0E4, symBinAddr: 0x41624, symSize: 0xC }
  - { offset: 0x1AE0, size: 0x8, addend: 0x0, symName: '__ZN42_$LT$$RF$T$u20$as$u20$core..fmt..Debug$GT$3fmt17hd33c44b6d2d3f226E', symObjAddr: 0xEC, symBinAddr: 0x40EC, symSize: 0x194 }
  - { offset: 0x2A1D, size: 0x8, addend: 0x0, symName: '__ZN132_$LT$alloc..vec..Vec$LT$T$C$A$GT$$u20$as$u20$alloc..vec..spec_extend..SpecExtend$LT$$RF$T$C$core..slice..iter..Iter$LT$T$GT$$GT$$GT$11spec_extend17hb560633f4627a6e0E', symObjAddr: 0x34C, symBinAddr: 0x434C, symSize: 0x44 }
  - { offset: 0x2FC1, size: 0x8, addend: 0x0, symName: __ZN5alloc3fmt6format12format_inner17hb569b604549e298cE, symObjAddr: 0x280, symBinAddr: 0x4280, symSize: 0x94 }
  - { offset: 0x3273, size: 0x8, addend: 0x0, symName: '__ZN5alloc5slice29_$LT$impl$u20$$u5b$T$u5d$$GT$9to_vec_in17hd403e5ea4092bf7eE', symObjAddr: 0x3B8, symBinAddr: 0x43B8, symSize: 0x44 }
  - { offset: 0x36C3, size: 0x8, addend: 0x0, symName: '__ZN5alloc3vec16Vec$LT$T$C$A$GT$16with_capacity_in17h5ee85218d879a769E', symObjAddr: 0x314, symBinAddr: 0x4314, symSize: 0x38 }
  - { offset: 0x3952, size: 0x8, addend: 0x0, symName: '__ZN5alloc3vec16Vec$LT$T$C$A$GT$7reserve17h95a0dff442c4dc70E', symObjAddr: 0x390, symBinAddr: 0x4390, symSize: 0x28 }
  - { offset: 0x3BD5, size: 0x8, addend: 0x0, symName: '__ZN5alloc3vec16Vec$LT$T$C$A$GT$16into_boxed_slice17hf9634a45093c1fbfE', symObjAddr: 0x3FC, symBinAddr: 0x43FC, symSize: 0x68 }
  - { offset: 0x3EAE, size: 0x8, addend: 0x0, symName: _OUTLINED_FUNCTION_13, symObjAddr: 0x3B170, symBinAddr: 0x3D6B0, symSize: 0xC }
  - { offset: 0x3EC5, size: 0x8, addend: 0x0, symName: _OUTLINED_FUNCTION_16, symObjAddr: 0x3B198, symBinAddr: 0x3D6D8, symSize: 0xC }
  - { offset: 0x3EDC, size: 0x8, addend: 0x0, symName: _OUTLINED_FUNCTION_31, symObjAddr: 0x3B298, symBinAddr: 0x3D7D8, symSize: 0x14 }
  - { offset: 0x3EF3, size: 0x8, addend: 0x0, symName: _OUTLINED_FUNCTION_95, symObjAddr: 0x3B7E4, symBinAddr: 0x3DD24, symSize: 0x10 }
  - { offset: 0x3F0A, size: 0x8, addend: 0x0, symName: _OUTLINED_FUNCTION_97, symObjAddr: 0x3B824, symBinAddr: 0x3DD64, symSize: 0x10 }
  - { offset: 0x3F21, size: 0x8, addend: 0x0, symName: _OUTLINED_FUNCTION_108, symObjAddr: 0x3B8F4, symBinAddr: 0x3DE34, symSize: 0xC }
  - { offset: 0x3F38, size: 0x8, addend: 0x0, symName: _OUTLINED_FUNCTION_168, symObjAddr: 0x3BD90, symBinAddr: 0x3E2D0, symSize: 0xC }
  - { offset: 0x3F4F, size: 0x8, addend: 0x0, symName: _OUTLINED_FUNCTION_170, symObjAddr: 0x3BDA4, symBinAddr: 0x3E2E4, symSize: 0xC }
  - { offset: 0x3F66, size: 0x8, addend: 0x0, symName: _OUTLINED_FUNCTION_211, symObjAddr: 0x3C074, symBinAddr: 0x3E5B4, symSize: 0xC }
  - { offset: 0x3F7D, size: 0x8, addend: 0x0, symName: _OUTLINED_FUNCTION_212, symObjAddr: 0x3C080, symBinAddr: 0x3E5C0, symSize: 0xC }
  - { offset: 0x3F94, size: 0x8, addend: 0x0, symName: _OUTLINED_FUNCTION_218, symObjAddr: 0x3C0B4, symBinAddr: 0x3E5F4, symSize: 0xC }
  - { offset: 0x3FAB, size: 0x8, addend: 0x0, symName: _OUTLINED_FUNCTION_250, symObjAddr: 0x3C2B8, symBinAddr: 0x3E7F8, symSize: 0x10 }
  - { offset: 0x3FC2, size: 0x8, addend: 0x0, symName: _OUTLINED_FUNCTION_364, symObjAddr: 0x3C88C, symBinAddr: 0x3EDCC, symSize: 0xC }
  - { offset: 0x3FD9, size: 0x8, addend: 0x0, symName: _OUTLINED_FUNCTION_418, symObjAddr: 0x3CBD0, symBinAddr: 0x3F110, symSize: 0xC }
  - { offset: 0x3FF0, size: 0x8, addend: 0x0, symName: _OUTLINED_FUNCTION_450, symObjAddr: 0x3CD2C, symBinAddr: 0x3F26C, symSize: 0xC }
  - { offset: 0x4007, size: 0x8, addend: 0x0, symName: _OUTLINED_FUNCTION_475, symObjAddr: 0x3CEC4, symBinAddr: 0x3F404, symSize: 0x8 }
  - { offset: 0x401E, size: 0x8, addend: 0x0, symName: _OUTLINED_FUNCTION_476, symObjAddr: 0x3CECC, symBinAddr: 0x3F40C, symSize: 0x1C }
  - { offset: 0x4035, size: 0x8, addend: 0x0, symName: _OUTLINED_FUNCTION_577, symObjAddr: 0x3D48C, symBinAddr: 0x3F9CC, symSize: 0x8 }
  - { offset: 0x404C, size: 0x8, addend: 0x0, symName: _OUTLINED_FUNCTION_866, symObjAddr: 0x3E4AC, symBinAddr: 0x409EC, symSize: 0x1C }
  - { offset: 0x4063, size: 0x8, addend: 0x0, symName: _OUTLINED_FUNCTION_1075, symObjAddr: 0x3EE44, symBinAddr: 0x41384, symSize: 0xC }
  - { offset: 0x407A, size: 0x8, addend: 0x0, symName: _OUTLINED_FUNCTION_1092, symObjAddr: 0x3EEE8, symBinAddr: 0x41428, symSize: 0xC }
  - { offset: 0x17448, size: 0x8, addend: 0x0, symName: '__ZN87_$LT$core..str..lossy..Utf8Chunks$u20$as$u20$core..iter..traits..iterator..Iterator$GT$4next17hae3cac1e12fa41edE', symObjAddr: 0x3914, symBinAddr: 0x7818, symSize: 0x1C0 }
  - { offset: 0x18684, size: 0x8, addend: 0x0, symName: __ZN4core3num7flt2dec7decoder6decode17h32eb03b6a35e2de6E, symObjAddr: 0x383C, symBinAddr: 0x7740, symSize: 0xD8 }
  - { offset: 0x1884D, size: 0x8, addend: 0x0, symName: __ZN4core4cell22panic_already_borrowed17h1ccae7908bcbf3f9E, symObjAddr: 0x3AD4, symBinAddr: 0x41CAC, symSize: 0xC }
  - { offset: 0x18C85, size: 0x8, addend: 0x0, symName: __ZN4core3ffi5c_str4CStr6to_str17hedceb9adb4087e7dE, symObjAddr: 0x3AE0, symBinAddr: 0x79D8, symSize: 0x8 }
  - { offset: 0x18CAC, size: 0x8, addend: 0x0, symName: __ZN4core3ffi5c_str4CStr6to_str17hedceb9adb4087e7dE, symObjAddr: 0x3AE0, symBinAddr: 0x79D8, symSize: 0x8 }
  - { offset: 0x18CC6, size: 0x8, addend: 0x0, symName: __ZN4core3ffi5c_str4CStr6to_str17hedceb9adb4087e7dE, symObjAddr: 0x3AE0, symBinAddr: 0x79D8, symSize: 0x8 }
  - { offset: 0x18D1F, size: 0x8, addend: 0x0, symName: _OUTLINED_FUNCTION_214, symObjAddr: 0x3C094, symBinAddr: 0x3E5D4, symSize: 0x8 }
  - { offset: 0x18D36, size: 0x8, addend: 0x0, symName: _OUTLINED_FUNCTION_269, symObjAddr: 0x3C390, symBinAddr: 0x3E8D0, symSize: 0xC }
  - { offset: 0x18D4D, size: 0x8, addend: 0x0, symName: _OUTLINED_FUNCTION_1082, symObjAddr: 0x3EE88, symBinAddr: 0x413C8, symSize: 0x8 }
  - { offset: 0x1C3A67, size: 0x8, addend: 0x0, symName: '__ZN99_$LT$sqlite3_allocator..allocator..SQLite3Allocator$u20$as$u20$core..alloc..global..GlobalAlloc$GT$5alloc17h7bd8d7521da75a5cE', symObjAddr: 0x3A134, symBinAddr: 0x3C674, symSize: 0x20 }
  - { offset: 0x1C3CBB, size: 0x8, addend: 0x0, symName: '__ZN99_$LT$sqlite3_allocator..allocator..SQLite3Allocator$u20$as$u20$core..alloc..global..GlobalAlloc$GT$5alloc17h7bd8d7521da75a5cE', symObjAddr: 0x3A134, symBinAddr: 0x3C674, symSize: 0x20 }
  - { offset: 0x1C3CF7, size: 0x8, addend: 0x0, symName: '__ZN99_$LT$sqlite3_allocator..allocator..SQLite3Allocator$u20$as$u20$core..alloc..global..GlobalAlloc$GT$5alloc17h7bd8d7521da75a5cE', symObjAddr: 0x3A134, symBinAddr: 0x3C674, symSize: 0x20 }
  - { offset: 0x1C3D27, size: 0x8, addend: 0x0, symName: '__ZN99_$LT$sqlite3_allocator..allocator..SQLite3Allocator$u20$as$u20$core..alloc..global..GlobalAlloc$GT$7dealloc17h88125ab145da7506E', symObjAddr: 0x3A154, symBinAddr: 0x3C694, symSize: 0x20 }
  - { offset: 0x1C3D6A, size: 0x8, addend: 0x0, symName: '__ZN99_$LT$sqlite3_allocator..allocator..SQLite3Allocator$u20$as$u20$core..alloc..global..GlobalAlloc$GT$7dealloc17h88125ab145da7506E', symObjAddr: 0x3A154, symBinAddr: 0x3C694, symSize: 0x20 }
  - { offset: 0x9EA9D, size: 0x8, addend: 0x0, symName: '__ZN60_$LT$alloc..string..String$u20$as$u20$core..fmt..Display$GT$3fmt17hec79e234cd9e00c1E', symObjAddr: 0x13AB8, symBinAddr: 0x1710C, symSize: 0xC }
  - { offset: 0xA0707, size: 0x8, addend: 0x0, symName: '__ZN5alloc3str21_$LT$impl$u20$str$GT$7replace17hcddab62bdd567f65E', symObjAddr: 0x13884, symBinAddr: 0x16ED8, symSize: 0x234 }
  - { offset: 0xA0E95, size: 0x8, addend: 0x0, symName: __ZN5alloc3fmt6format17h4ffda33657175125E, symObjAddr: 0x134E8, symBinAddr: 0x16B3C, symSize: 0x38 }
  - { offset: 0xA1459, size: 0x8, addend: 0x0, symName: '__ZN4core3ptr104drop_in_place$LT$core..option..Option$LT$powersync_core..sync..sync_status..SyncDownloadProgress$GT$$GT$17hc4022de34f40b2c9E', symObjAddr: 0x12328, symBinAddr: 0x1597C, symSize: 0x14 }
  - { offset: 0xA157F, size: 0x8, addend: 0x0, symName: '__ZN4core3ptr103drop_in_place$LT$alloc..vec..Vec$LT$powersync_core..sync..sync_status..ActiveStreamSubscription$GT$$GT$17ha466689a5e00ae10E', symObjAddr: 0x134C8, symBinAddr: 0x16B1C, symSize: 0x20 }
  - { offset: 0xA1ED9, size: 0x8, addend: 0x0, symName: '__ZN4core4hash5impls50_$LT$impl$u20$core..hash..Hash$u20$for$u20$str$GT$4hash17h35a7b4eaebbba643E', symObjAddr: 0x11574, symBinAddr: 0x14BC8, symSize: 0xFC }
  - { offset: 0xA2ED4, size: 0x8, addend: 0x0, symName: '__ZN110_$LT$core..ops..range..RangeFrom$LT$usize$GT$$u20$as$u20$core..slice..index..SliceIndex$LT$$u5b$T$u5d$$GT$$GT$5index17hb7fc7aeca38a44c4E', symObjAddr: 0x11670, symBinAddr: 0x14CC4, symSize: 0x1C }
  - { offset: 0xA3021, size: 0x8, addend: 0x0, symName: '__ZN110_$LT$core..ops..range..RangeFrom$LT$usize$GT$$u20$as$u20$core..slice..index..SliceIndex$LT$$u5b$T$u5d$$GT$$GT$9index_mut17h904d80f18d61d3ecE.947', symObjAddr: 0x11918, symBinAddr: 0x14F6C, symSize: 0x1C }
  - { offset: 0xA324A, size: 0x8, addend: 0x0, symName: '__ZN4core5slice4sort6stable9quicksort9quicksort28_$u7b$$u7b$closure$u7d$$u7d$17h280c7e74b0bb0f84E', symObjAddr: 0x1168C, symBinAddr: 0x14CE0, symSize: 0x1C }
  - { offset: 0xA359B, size: 0x8, addend: 0x0, symName: __ZN4core5slice4sort6stable9quicksort9quicksort17h28b91c519109c199E, symObjAddr: 0x116A8, symBinAddr: 0x14CFC, symSize: 0x270 }
  - { offset: 0xA3F47, size: 0x8, addend: 0x0, symName: __ZN4core5slice4sort6stable9quicksort9quicksort17h495886519e21e1f8E, symObjAddr: 0x11934, symBinAddr: 0x14F88, symSize: 0x270 }
  - { offset: 0xA4980, size: 0x8, addend: 0x0, symName: __ZN4core5slice4sort6stable9quicksort9quicksort17he406c145c1f2f034E, symObjAddr: 0x11BA4, symBinAddr: 0x151F8, symSize: 0x514 }
  - { offset: 0xA5D00, size: 0x8, addend: 0x0, symName: __ZN4core5slice4sort6stable9quicksort9quicksort17he4173c002d2da55cE, symObjAddr: 0x120B8, symBinAddr: 0x1570C, symSize: 0x270 }
  - { offset: 0xA94E3, size: 0x8, addend: 0x0, symName: '__ZN86_$LT$serde_json..ser..Compound$LT$W$C$F$GT$$u20$as$u20$serde..ser..SerializeStruct$GT$15serialize_field17h15b913b9736d4d8cE', symObjAddr: 0x130F4, symBinAddr: 0x16748, symSize: 0x40 }
  - { offset: 0xA95CC, size: 0x8, addend: 0x0, symName: '__ZN86_$LT$serde_json..ser..Compound$LT$W$C$F$GT$$u20$as$u20$serde..ser..SerializeStruct$GT$3end17h967f4a37ae9ecc61E', symObjAddr: 0x13134, symBinAddr: 0x16788, symSize: 0x10 }
  - { offset: 0xA960D, size: 0x8, addend: 0x0, symName: '__ZN86_$LT$serde_json..ser..Compound$LT$W$C$F$GT$$u20$as$u20$serde..ser..SerializeStruct$GT$15serialize_field17h082ffc9942838b80E', symObjAddr: 0x13CC8, symBinAddr: 0x1731C, symSize: 0x90 }
  - { offset: 0xA97D4, size: 0x8, addend: 0x0, symName: '__ZN86_$LT$serde_json..ser..Compound$LT$W$C$F$GT$$u20$as$u20$serde..ser..SerializeStruct$GT$15serialize_field17hbf7d29a98a8131beE', symObjAddr: 0x13D58, symBinAddr: 0x173AC, symSize: 0x30 }
  - { offset: 0xA9899, size: 0x8, addend: 0x0, symName: __ZN10serde_json3ser9Formatter10end_object17h6cf3b080481494bfE, symObjAddr: 0x13178, symBinAddr: 0x167CC, symSize: 0xC }
  - { offset: 0xA98D4, size: 0x8, addend: 0x0, symName: __ZN10serde_json3ser9Formatter10end_object17h6cf3b080481494bfE, symObjAddr: 0x13178, symBinAddr: 0x167CC, symSize: 0xC }
  - { offset: 0xA98F2, size: 0x8, addend: 0x0, symName: __ZN10serde_json3ser9Formatter10end_object17h6cf3b080481494bfE, symObjAddr: 0x13178, symBinAddr: 0x167CC, symSize: 0xC }
  - { offset: 0xA9916, size: 0x8, addend: 0x0, symName: __ZN10serde_json3ser9Formatter10end_object17h6cf3b080481494bfE, symObjAddr: 0x13178, symBinAddr: 0x167CC, symSize: 0xC }
  - { offset: 0xA9A32, size: 0x8, addend: 0x0, symName: '__ZN95_$LT$$RF$mut$u20$serde_json..ser..Serializer$LT$W$C$F$GT$$u20$as$u20$serde..ser..Serializer$GT$16serialize_struct17hb90045e82c335b4fE', symObjAddr: 0x13098, symBinAddr: 0x166EC, symSize: 0x5C }
  - { offset: 0xA9AD0, size: 0x8, addend: 0x0, symName: '__ZN95_$LT$$RF$mut$u20$serde_json..ser..Serializer$LT$W$C$F$GT$$u20$as$u20$serde..ser..Serializer$GT$13serialize_map17h9f1933b19a5b763cE', symObjAddr: 0x13184, symBinAddr: 0x167D8, symSize: 0x4C }
  - { offset: 0xA9C39, size: 0x8, addend: 0x0, symName: '__ZN83_$LT$serde_json..ser..Compound$LT$W$C$F$GT$$u20$as$u20$serde..ser..SerializeMap$GT$3end17h0c3c93c540e7d643E', symObjAddr: 0x13144, symBinAddr: 0x16798, symSize: 0x34 }
  - { offset: 0xAAE20, size: 0x8, addend: 0x0, symName: '__ZN95_$LT$powersync_core..sync..sync_status..DownloadSyncStatus$u20$as$u20$serde..ser..Serialize$GT$9serialize17h524cb7fc82bc2b0eE', symObjAddr: 0x1233C, symBinAddr: 0x15990, symSize: 0xD5C }
  - { offset: 0xAE7B9, size: 0x8, addend: 0x0, symName: __ZN14powersync_core4util12quote_string17h5819a003b9acc0baE, symObjAddr: 0x135A4, symBinAddr: 0x16BF8, symSize: 0x68 }
  - { offset: 0xAE895, size: 0x8, addend: 0x0, symName: '__ZN73_$LT$powersync_core..util..QuotedString$u20$as$u20$core..fmt..Display$GT$3fmt17h76274524824401a0E', symObjAddr: 0x1360C, symBinAddr: 0x16C60, symSize: 0x1B8 }
  - { offset: 0xAEB42, size: 0x8, addend: 0x0, symName: __ZN14powersync_core4util15quote_json_path17h72a3a2bc2fa6fac2E, symObjAddr: 0x137C4, symBinAddr: 0x16E18, symSize: 0x68 }
  - { offset: 0xAEC6E, size: 0x8, addend: 0x0, symName: __ZN14powersync_core4util16quote_identifier17h0a0aeca3738d7cc2E, symObjAddr: 0x1382C, symBinAddr: 0x16E80, symSize: 0x58 }
  - { offset: 0xAECC2, size: 0x8, addend: 0x0, symName: __ZN14powersync_core4util19quote_internal_name17h1ec0161515732c24E, symObjAddr: 0x13C10, symBinAddr: 0x17264, symSize: 0x34 }
  - { offset: 0xAECFF, size: 0x8, addend: 0x0, symName: __ZN14powersync_core4util25quote_identifier_prefixed17h0f36e3e0b8ee0411E, symObjAddr: 0x13C44, symBinAddr: 0x17298, symSize: 0x84 }
  - { offset: 0xB02D8, size: 0x8, addend: 0x0, symName: __ZN14powersync_core4sync11sync_status19SyncStatusContainer12emit_changes17hb40520a3755b3d2fE, symObjAddr: 0x131D0, symBinAddr: 0x16824, symSize: 0x2F8 }
  - { offset: 0xB22C3, size: 0x8, addend: 0x0, symName: __ZN14powersync_core4sync11sync_status24ActiveStreamSubscription10from_local17hd02059a939c7ade3E, symObjAddr: 0x13520, symBinAddr: 0x16B74, symSize: 0x84 }
  - { offset: 0xB2727, size: 0x8, addend: 0x0, symName: __ZN4core3str7pattern14TwoWaySearcher4next17haeda7e810e05e0aaE, symObjAddr: 0x13AC4, symBinAddr: 0x17118, symSize: 0x14C }
  - { offset: 0xB3468, size: 0x8, addend: 0x0, symName: _OUTLINED_FUNCTION_17, symObjAddr: 0x3B1A4, symBinAddr: 0x3D6E4, symSize: 0x14 }
  - { offset: 0xB347F, size: 0x8, addend: 0x0, symName: _OUTLINED_FUNCTION_24, symObjAddr: 0x3B21C, symBinAddr: 0x3D75C, symSize: 0x14 }
  - { offset: 0xB3496, size: 0x8, addend: 0x0, symName: _OUTLINED_FUNCTION_53, symObjAddr: 0x3B480, symBinAddr: 0x3D9C0, symSize: 0x14 }
  - { offset: 0xB34AD, size: 0x8, addend: 0x0, symName: _OUTLINED_FUNCTION_63, symObjAddr: 0x3B52C, symBinAddr: 0x3DA6C, symSize: 0x18 }
  - { offset: 0xB34C4, size: 0x8, addend: 0x0, symName: _OUTLINED_FUNCTION_65, symObjAddr: 0x3B554, symBinAddr: 0x3DA94, symSize: 0x10 }
  - { offset: 0xB34DB, size: 0x8, addend: 0x0, symName: _OUTLINED_FUNCTION_70, symObjAddr: 0x3B5A8, symBinAddr: 0x3DAE8, symSize: 0x64 }
  - { offset: 0xB34F2, size: 0x8, addend: 0x0, symName: _OUTLINED_FUNCTION_82, symObjAddr: 0x3B6CC, symBinAddr: 0x3DC0C, symSize: 0x24 }
  - { offset: 0xB3509, size: 0x8, addend: 0x0, symName: _OUTLINED_FUNCTION_83, symObjAddr: 0x3B6F0, symBinAddr: 0x3DC30, symSize: 0xC }
  - { offset: 0xB3520, size: 0x8, addend: 0x0, symName: _OUTLINED_FUNCTION_84, symObjAddr: 0x3B6FC, symBinAddr: 0x3DC3C, symSize: 0xC }
  - { offset: 0xB3537, size: 0x8, addend: 0x0, symName: _OUTLINED_FUNCTION_102, symObjAddr: 0x3B86C, symBinAddr: 0x3DDAC, symSize: 0x14 }
  - { offset: 0xB354E, size: 0x8, addend: 0x0, symName: _OUTLINED_FUNCTION_106, symObjAddr: 0x3B8CC, symBinAddr: 0x3DE0C, symSize: 0x14 }
  - { offset: 0xB3565, size: 0x8, addend: 0x0, symName: _OUTLINED_FUNCTION_110, symObjAddr: 0x3B914, symBinAddr: 0x3DE54, symSize: 0x14 }
  - { offset: 0xB357C, size: 0x8, addend: 0x0, symName: _OUTLINED_FUNCTION_117, symObjAddr: 0x3B9C4, symBinAddr: 0x3DF04, symSize: 0x1C }
  - { offset: 0xB3593, size: 0x8, addend: 0x0, symName: _OUTLINED_FUNCTION_138, symObjAddr: 0x3BB78, symBinAddr: 0x3E0B8, symSize: 0x18 }
  - { offset: 0xB35AA, size: 0x8, addend: 0x0, symName: _OUTLINED_FUNCTION_141, symObjAddr: 0x3BBCC, symBinAddr: 0x3E10C, symSize: 0xC }
  - { offset: 0xB35C1, size: 0x8, addend: 0x0, symName: _OUTLINED_FUNCTION_149, symObjAddr: 0x3BC3C, symBinAddr: 0x3E17C, symSize: 0x24 }
  - { offset: 0xB35D8, size: 0x8, addend: 0x0, symName: _OUTLINED_FUNCTION_151, symObjAddr: 0x3BC74, symBinAddr: 0x3E1B4, symSize: 0x24 }
  - { offset: 0xB35EF, size: 0x8, addend: 0x0, symName: _OUTLINED_FUNCTION_180, symObjAddr: 0x3BE50, symBinAddr: 0x3E390, symSize: 0x20 }
  - { offset: 0xB3606, size: 0x8, addend: 0x0, symName: _OUTLINED_FUNCTION_182, symObjAddr: 0x3BE80, symBinAddr: 0x3E3C0, symSize: 0x20 }
  - { offset: 0xB361D, size: 0x8, addend: 0x0, symName: _OUTLINED_FUNCTION_198, symObjAddr: 0x3BF84, symBinAddr: 0x3E4C4, symSize: 0x14 }
  - { offset: 0xB3634, size: 0x8, addend: 0x0, symName: _OUTLINED_FUNCTION_202, symObjAddr: 0x3BFC4, symBinAddr: 0x3E504, symSize: 0x14 }
  - { offset: 0xB364B, size: 0x8, addend: 0x0, symName: _OUTLINED_FUNCTION_204, symObjAddr: 0x3BFE4, symBinAddr: 0x3E524, symSize: 0x14 }
  - { offset: 0xB3662, size: 0x8, addend: 0x0, symName: _OUTLINED_FUNCTION_206, symObjAddr: 0x3C00C, symBinAddr: 0x3E54C, symSize: 0x34 }
  - { offset: 0xB3679, size: 0x8, addend: 0x0, symName: _OUTLINED_FUNCTION_240, symObjAddr: 0x3C1FC, symBinAddr: 0x3E73C, symSize: 0x10 }
  - { offset: 0xB3690, size: 0x8, addend: 0x0, symName: _OUTLINED_FUNCTION_246, symObjAddr: 0x3C254, symBinAddr: 0x3E794, symSize: 0x1C }
  - { offset: 0xB36A7, size: 0x8, addend: 0x0, symName: _OUTLINED_FUNCTION_247, symObjAddr: 0x3C270, symBinAddr: 0x3E7B0, symSize: 0x1C }
  - { offset: 0xB36BE, size: 0x8, addend: 0x0, symName: _OUTLINED_FUNCTION_249, symObjAddr: 0x3C29C, symBinAddr: 0x3E7DC, symSize: 0x1C }
  - { offset: 0xB36D5, size: 0x8, addend: 0x0, symName: _OUTLINED_FUNCTION_280, symObjAddr: 0x3C454, symBinAddr: 0x3E994, symSize: 0x14 }
  - { offset: 0xB36EC, size: 0x8, addend: 0x0, symName: _OUTLINED_FUNCTION_318, symObjAddr: 0x3C63C, symBinAddr: 0x3EB7C, symSize: 0xC }
  - { offset: 0xB3703, size: 0x8, addend: 0x0, symName: _OUTLINED_FUNCTION_331, symObjAddr: 0x3C6E4, symBinAddr: 0x3EC24, symSize: 0x10 }
  - { offset: 0xB371A, size: 0x8, addend: 0x0, symName: _OUTLINED_FUNCTION_335, symObjAddr: 0x3C720, symBinAddr: 0x3EC60, symSize: 0x10 }
  - { offset: 0xB3731, size: 0x8, addend: 0x0, symName: _OUTLINED_FUNCTION_339, symObjAddr: 0x3C758, symBinAddr: 0x3EC98, symSize: 0x8 }
  - { offset: 0xB3748, size: 0x8, addend: 0x0, symName: _OUTLINED_FUNCTION_353, symObjAddr: 0x3C808, symBinAddr: 0x3ED48, symSize: 0x10 }
  - { offset: 0xB375F, size: 0x8, addend: 0x0, symName: _OUTLINED_FUNCTION_355, symObjAddr: 0x3C824, symBinAddr: 0x3ED64, symSize: 0x10 }
  - { offset: 0xB3776, size: 0x8, addend: 0x0, symName: _OUTLINED_FUNCTION_356, symObjAddr: 0x3C834, symBinAddr: 0x3ED74, symSize: 0x10 }
  - { offset: 0xB378D, size: 0x8, addend: 0x0, symName: _OUTLINED_FUNCTION_369, symObjAddr: 0x3C8C8, symBinAddr: 0x3EE08, symSize: 0x44 }
  - { offset: 0xB37A4, size: 0x8, addend: 0x0, symName: _OUTLINED_FUNCTION_379, symObjAddr: 0x3C998, symBinAddr: 0x3EED8, symSize: 0x18 }
  - { offset: 0xB37BB, size: 0x8, addend: 0x0, symName: _OUTLINED_FUNCTION_384, symObjAddr: 0x3C9E0, symBinAddr: 0x3EF20, symSize: 0x18 }
  - { offset: 0xB37D2, size: 0x8, addend: 0x0, symName: _OUTLINED_FUNCTION_385, symObjAddr: 0x3C9F8, symBinAddr: 0x3EF38, symSize: 0x18 }
  - { offset: 0xB37E9, size: 0x8, addend: 0x0, symName: _OUTLINED_FUNCTION_388, symObjAddr: 0x3CA2C, symBinAddr: 0x3EF6C, symSize: 0x18 }
  - { offset: 0xB3800, size: 0x8, addend: 0x0, symName: _OUTLINED_FUNCTION_389, symObjAddr: 0x3CA44, symBinAddr: 0x3EF84, symSize: 0x18 }
  - { offset: 0xB3817, size: 0x8, addend: 0x0, symName: _OUTLINED_FUNCTION_395, symObjAddr: 0x3CA9C, symBinAddr: 0x3EFDC, symSize: 0x18 }
  - { offset: 0xB382E, size: 0x8, addend: 0x0, symName: _OUTLINED_FUNCTION_409, symObjAddr: 0x3CB60, symBinAddr: 0x3F0A0, symSize: 0x8 }
  - { offset: 0xB3845, size: 0x8, addend: 0x0, symName: _OUTLINED_FUNCTION_410, symObjAddr: 0x3CB68, symBinAddr: 0x3F0A8, symSize: 0x8 }
  - { offset: 0xB385C, size: 0x8, addend: 0x0, symName: _OUTLINED_FUNCTION_432, symObjAddr: 0x3CC54, symBinAddr: 0x3F194, symSize: 0x8 }
  - { offset: 0xB3873, size: 0x8, addend: 0x0, symName: _OUTLINED_FUNCTION_462, symObjAddr: 0x3CDF8, symBinAddr: 0x3F338, symSize: 0x1C }
  - { offset: 0xB388A, size: 0x8, addend: 0x0, symName: _OUTLINED_FUNCTION_509, symObjAddr: 0x3D0E0, symBinAddr: 0x3F620, symSize: 0x10 }
  - { offset: 0xB38A1, size: 0x8, addend: 0x0, symName: _OUTLINED_FUNCTION_538, symObjAddr: 0x3D2B8, symBinAddr: 0x3F7F8, symSize: 0x8 }
  - { offset: 0xB38B8, size: 0x8, addend: 0x0, symName: _OUTLINED_FUNCTION_539, symObjAddr: 0x3D2C0, symBinAddr: 0x3F800, symSize: 0x8 }
  - { offset: 0xB38CF, size: 0x8, addend: 0x0, symName: _OUTLINED_FUNCTION_550, symObjAddr: 0x3D338, symBinAddr: 0x3F878, symSize: 0x8 }
  - { offset: 0xB38E6, size: 0x8, addend: 0x0, symName: _OUTLINED_FUNCTION_564, symObjAddr: 0x3D3D0, symBinAddr: 0x3F910, symSize: 0x14 }
  - { offset: 0xB38FD, size: 0x8, addend: 0x0, symName: _OUTLINED_FUNCTION_568, symObjAddr: 0x3D400, symBinAddr: 0x3F940, symSize: 0xC }
  - { offset: 0xB3914, size: 0x8, addend: 0x0, symName: _OUTLINED_FUNCTION_569, symObjAddr: 0x3D40C, symBinAddr: 0x3F94C, symSize: 0x14 }
  - { offset: 0xB392B, size: 0x8, addend: 0x0, symName: _OUTLINED_FUNCTION_572, symObjAddr: 0x3D440, symBinAddr: 0x3F980, symSize: 0x14 }
  - { offset: 0xB3942, size: 0x8, addend: 0x0, symName: _OUTLINED_FUNCTION_575, symObjAddr: 0x3D46C, symBinAddr: 0x3F9AC, symSize: 0x14 }
  - { offset: 0xB3959, size: 0x8, addend: 0x0, symName: _OUTLINED_FUNCTION_581, symObjAddr: 0x3D4C0, symBinAddr: 0x3FA00, symSize: 0xC }
  - { offset: 0xB3970, size: 0x8, addend: 0x0, symName: _OUTLINED_FUNCTION_585, symObjAddr: 0x3D4F0, symBinAddr: 0x3FA30, symSize: 0x28 }
  - { offset: 0xB3987, size: 0x8, addend: 0x0, symName: _OUTLINED_FUNCTION_634, symObjAddr: 0x3D7E4, symBinAddr: 0x3FD24, symSize: 0x24 }
  - { offset: 0xB399E, size: 0x8, addend: 0x0, symName: _OUTLINED_FUNCTION_657, symObjAddr: 0x3D944, symBinAddr: 0x3FE84, symSize: 0x8 }
  - { offset: 0xB39B5, size: 0x8, addend: 0x0, symName: _OUTLINED_FUNCTION_659, symObjAddr: 0x3D954, symBinAddr: 0x3FE94, symSize: 0x8 }
  - { offset: 0xB39CC, size: 0x8, addend: 0x0, symName: _OUTLINED_FUNCTION_724, symObjAddr: 0x3DD2C, symBinAddr: 0x4026C, symSize: 0x8 }
  - { offset: 0xB39E3, size: 0x8, addend: 0x0, symName: _OUTLINED_FUNCTION_739, symObjAddr: 0x3DDC8, symBinAddr: 0x40308, symSize: 0x8 }
  - { offset: 0xB39FA, size: 0x8, addend: 0x0, symName: _OUTLINED_FUNCTION_747, symObjAddr: 0x3DE40, symBinAddr: 0x40380, symSize: 0xC }
  - { offset: 0xB3A11, size: 0x8, addend: 0x0, symName: _OUTLINED_FUNCTION_766, symObjAddr: 0x3DF60, symBinAddr: 0x404A0, symSize: 0x10 }
  - { offset: 0xB3A28, size: 0x8, addend: 0x0, symName: _OUTLINED_FUNCTION_772, symObjAddr: 0x3DFA8, symBinAddr: 0x404E8, symSize: 0x10 }
  - { offset: 0xB3A3F, size: 0x8, addend: 0x0, symName: _OUTLINED_FUNCTION_775, symObjAddr: 0x3DFE0, symBinAddr: 0x40520, symSize: 0x8 }
  - { offset: 0xB3A56, size: 0x8, addend: 0x0, symName: _OUTLINED_FUNCTION_780, symObjAddr: 0x3E018, symBinAddr: 0x40558, symSize: 0x8 }
  - { offset: 0xB3A6D, size: 0x8, addend: 0x0, symName: _OUTLINED_FUNCTION_781, symObjAddr: 0x3E020, symBinAddr: 0x40560, symSize: 0x8 }
  - { offset: 0xB3A84, size: 0x8, addend: 0x0, symName: _OUTLINED_FUNCTION_783, symObjAddr: 0x3E030, symBinAddr: 0x40570, symSize: 0xC }
  - { offset: 0xB3A9B, size: 0x8, addend: 0x0, symName: _OUTLINED_FUNCTION_813, symObjAddr: 0x3E198, symBinAddr: 0x406D8, symSize: 0x1C }
  - { offset: 0xB3AB2, size: 0x8, addend: 0x0, symName: _OUTLINED_FUNCTION_845, symObjAddr: 0x3E35C, symBinAddr: 0x4089C, symSize: 0x10 }
  - { offset: 0xB3AC9, size: 0x8, addend: 0x0, symName: _OUTLINED_FUNCTION_853, symObjAddr: 0x3E3DC, symBinAddr: 0x4091C, symSize: 0x10 }
  - { offset: 0xB3AE0, size: 0x8, addend: 0x0, symName: _OUTLINED_FUNCTION_858, symObjAddr: 0x3E42C, symBinAddr: 0x4096C, symSize: 0x10 }
  - { offset: 0xB3AF7, size: 0x8, addend: 0x0, symName: _OUTLINED_FUNCTION_859, symObjAddr: 0x3E43C, symBinAddr: 0x4097C, symSize: 0x10 }
  - { offset: 0xB3B0E, size: 0x8, addend: 0x0, symName: _OUTLINED_FUNCTION_860, symObjAddr: 0x3E44C, symBinAddr: 0x4098C, symSize: 0x10 }
  - { offset: 0xB3B25, size: 0x8, addend: 0x0, symName: _OUTLINED_FUNCTION_864, symObjAddr: 0x3E48C, symBinAddr: 0x409CC, symSize: 0x10 }
  - { offset: 0xB3B3C, size: 0x8, addend: 0x0, symName: _OUTLINED_FUNCTION_908, symObjAddr: 0x3E768, symBinAddr: 0x40CA8, symSize: 0x18 }
  - { offset: 0xB3B53, size: 0x8, addend: 0x0, symName: _OUTLINED_FUNCTION_971, symObjAddr: 0x3EA54, symBinAddr: 0x40F94, symSize: 0x8 }
  - { offset: 0xB3B6A, size: 0x8, addend: 0x0, symName: _OUTLINED_FUNCTION_973, symObjAddr: 0x3EA68, symBinAddr: 0x40FA8, symSize: 0x8 }
  - { offset: 0xB3B81, size: 0x8, addend: 0x0, symName: _OUTLINED_FUNCTION_983, symObjAddr: 0x3EAC8, symBinAddr: 0x41008, symSize: 0xC }
  - { offset: 0xB3B98, size: 0x8, addend: 0x0, symName: _OUTLINED_FUNCTION_986, symObjAddr: 0x3EAE8, symBinAddr: 0x41028, symSize: 0x8 }
  - { offset: 0xB3BAF, size: 0x8, addend: 0x0, symName: _OUTLINED_FUNCTION_1004, symObjAddr: 0x3EB90, symBinAddr: 0x410D0, symSize: 0xC }
  - { offset: 0xB3BC6, size: 0x8, addend: 0x0, symName: _OUTLINED_FUNCTION_1041, symObjAddr: 0x3ED00, symBinAddr: 0x41240, symSize: 0x8 }
  - { offset: 0xB3BDD, size: 0x8, addend: 0x0, symName: _OUTLINED_FUNCTION_1061, symObjAddr: 0x3EDC0, symBinAddr: 0x41300, symSize: 0xC }
  - { offset: 0xB3BF4, size: 0x8, addend: 0x0, symName: _OUTLINED_FUNCTION_1071, symObjAddr: 0x3EE24, symBinAddr: 0x41364, symSize: 0x8 }
  - { offset: 0xB3C0B, size: 0x8, addend: 0x0, symName: _OUTLINED_FUNCTION_1073, symObjAddr: 0x3EE34, symBinAddr: 0x41374, symSize: 0x8 }
  - { offset: 0xB3C22, size: 0x8, addend: 0x0, symName: _OUTLINED_FUNCTION_1099, symObjAddr: 0x3EF2C, symBinAddr: 0x4146C, symSize: 0x8 }
  - { offset: 0xB3C39, size: 0x8, addend: 0x0, symName: _OUTLINED_FUNCTION_1119, symObjAddr: 0x3F058, symBinAddr: 0x41598, symSize: 0xC }
  - { offset: 0xB3C50, size: 0x8, addend: 0x0, symName: _OUTLINED_FUNCTION_1126, symObjAddr: 0x3F0CC, symBinAddr: 0x4160C, symSize: 0xC }
  - { offset: 0xB3C67, size: 0x8, addend: 0x0, symName: _OUTLINED_FUNCTION_1144, symObjAddr: 0x3F1D4, symBinAddr: 0x41714, symSize: 0xC }
  - { offset: 0xB3C7E, size: 0x8, addend: 0x0, symName: _OUTLINED_FUNCTION_1151, symObjAddr: 0x3F238, symBinAddr: 0x41778, symSize: 0xC }
  - { offset: 0xB3C95, size: 0x8, addend: 0x0, symName: _OUTLINED_FUNCTION_1159, symObjAddr: 0x3F2B0, symBinAddr: 0x417F0, symSize: 0xC }
  - { offset: 0xB3CAC, size: 0x8, addend: 0x0, symName: _OUTLINED_FUNCTION_1161, symObjAddr: 0x3F2C8, symBinAddr: 0x41808, symSize: 0x14 }
  - { offset: 0xB3CC3, size: 0x8, addend: 0x0, symName: _OUTLINED_FUNCTION_1164, symObjAddr: 0x3F2F4, symBinAddr: 0x41834, symSize: 0xC }
  - { offset: 0xB3CDA, size: 0x8, addend: 0x0, symName: _OUTLINED_FUNCTION_1169, symObjAddr: 0x3F348, symBinAddr: 0x41888, symSize: 0x14 }
  - { offset: 0xB3CF1, size: 0x8, addend: 0x0, symName: _OUTLINED_FUNCTION_1182, symObjAddr: 0x3F404, symBinAddr: 0x41944, symSize: 0x14 }
  - { offset: 0xB3D08, size: 0x8, addend: 0x0, symName: _OUTLINED_FUNCTION_1184, symObjAddr: 0x3F42C, symBinAddr: 0x4196C, symSize: 0x14 }
  - { offset: 0xB3D1F, size: 0x8, addend: 0x0, symName: _OUTLINED_FUNCTION_1186, symObjAddr: 0x3F44C, symBinAddr: 0x4198C, symSize: 0xC }
  - { offset: 0xB3D36, size: 0x8, addend: 0x0, symName: _OUTLINED_FUNCTION_1198, symObjAddr: 0x3F4E4, symBinAddr: 0x41A24, symSize: 0xC }
  - { offset: 0xB3D4D, size: 0x8, addend: 0x0, symName: _OUTLINED_FUNCTION_1204, symObjAddr: 0x3F52C, symBinAddr: 0x41A6C, symSize: 0x1C }
  - { offset: 0xB3D64, size: 0x8, addend: 0x0, symName: _OUTLINED_FUNCTION_1214, symObjAddr: 0x3F640, symBinAddr: 0x41B80, symSize: 0x1C }
  - { offset: 0x18E2A, size: 0x8, addend: 0x0, symName: __ZN4core7unicode9printable5check17hf639d529b6172a24E, symObjAddr: 0x3D9C, symBinAddr: 0x7C88, symSize: 0xF8 }
  - { offset: 0x19627, size: 0x8, addend: 0x0, symName: __ZN4core5slice6memchr14memchr_aligned17h695baf142795d184E, symObjAddr: 0x3AE8, symBinAddr: 0x79E0, symSize: 0xC8 }
  - { offset: 0x198EE, size: 0x8, addend: 0x0, symName: __ZN4core5slice6memchr12memchr_naive17h509ce02279eecbf3E, symObjAddr: 0x3BB0, symBinAddr: 0x7AA8, symSize: 0x3C }
  - { offset: 0x1A096, size: 0x8, addend: 0x0, symName: __ZN4core3str16slice_error_fail17h8e23bb283b8330b7E, symObjAddr: 0x3BEC, symBinAddr: 0x41CB8, symSize: 0xC }
  - { offset: 0x1A141, size: 0x8, addend: 0x0, symName: '__ZN4core3str21_$LT$impl$u20$str$GT$19floor_char_boundary17h0747bb93bd8e275cE', symObjAddr: 0x3D2C, symBinAddr: 0x7C18, symSize: 0x54 }
  - { offset: 0x1A2E3, size: 0x8, addend: 0x0, symName: '__ZN4core3str21_$LT$impl$u20$str$GT$9ends_with17h90d64e5b9c90bf88E', symObjAddr: 0x3D80, symBinAddr: 0x7C6C, symSize: 0x1C }
  - { offset: 0x1A324, size: 0x8, addend: 0x0, symName: '__ZN4core3str21_$LT$impl$u20$str$GT$9ends_with17h90d64e5b9c90bf88E', symObjAddr: 0x3D80, symBinAddr: 0x7C6C, symSize: 0x1C }
  - { offset: 0x1A349, size: 0x8, addend: 0x0, symName: '__ZN4core3str21_$LT$impl$u20$str$GT$9ends_with17h90d64e5b9c90bf88E', symObjAddr: 0x3D80, symBinAddr: 0x7C6C, symSize: 0x1C }
  - { offset: 0x1A370, size: 0x8, addend: 0x0, symName: '__ZN4core3str21_$LT$impl$u20$str$GT$9ends_with17h90d64e5b9c90bf88E', symObjAddr: 0x3D80, symBinAddr: 0x7C6C, symSize: 0x1C }
  - { offset: 0x1A393, size: 0x8, addend: 0x0, symName: '__ZN4core3str21_$LT$impl$u20$str$GT$9ends_with17h90d64e5b9c90bf88E', symObjAddr: 0x3D80, symBinAddr: 0x7C6C, symSize: 0x1C }
  - { offset: 0x1A7E6, size: 0x8, addend: 0x0, symName: __ZN4core3str19slice_error_fail_rt17hac26db905319e2d9E, symObjAddr: 0x3BF8, symBinAddr: 0x7AE4, symSize: 0x134 }
  - { offset: 0x1AFBC, size: 0x8, addend: 0x0, symName: _OUTLINED_FUNCTION_397, symObjAddr: 0x3CAC4, symBinAddr: 0x3F004, symSize: 0xC }
  - { offset: 0x1AFD3, size: 0x8, addend: 0x0, symName: _OUTLINED_FUNCTION_602, symObjAddr: 0x3D5E0, symBinAddr: 0x3FB20, symSize: 0xC }
  - { offset: 0x1AFEA, size: 0x8, addend: 0x0, symName: _OUTLINED_FUNCTION_1084, symObjAddr: 0x3EE9C, symBinAddr: 0x413DC, symSize: 0x8 }
  - { offset: 0x1B001, size: 0x8, addend: 0x0, symName: _OUTLINED_FUNCTION_1086, symObjAddr: 0x3EEAC, symBinAddr: 0x413EC, symSize: 0x8 }
  - { offset: 0xB3EDC, size: 0x8, addend: 0x0, symName: '__ZN99_$LT$core..array..iter..IntoIter$LT$T$C$_$GT$$u20$as$u20$core..iter..traits..iterator..Iterator$GT$4next17hc0e5f2e50bd9f364E', symObjAddr: 0x146C4, symBinAddr: 0x17D18, symSize: 0x24 }
  - { offset: 0xB3F0A, size: 0x8, addend: 0x0, symName: '__ZN99_$LT$core..array..iter..IntoIter$LT$T$C$_$GT$$u20$as$u20$core..iter..traits..iterator..Iterator$GT$4next17hc0e5f2e50bd9f364E', symObjAddr: 0x146C4, symBinAddr: 0x17D18, symSize: 0x24 }
  - { offset: 0xB3F27, size: 0x8, addend: 0x0, symName: '__ZN99_$LT$core..array..iter..IntoIter$LT$T$C$_$GT$$u20$as$u20$core..iter..traits..iterator..Iterator$GT$4next17hc0e5f2e50bd9f364E', symObjAddr: 0x146C4, symBinAddr: 0x17D18, symSize: 0x24 }
  - { offset: 0xB3F44, size: 0x8, addend: 0x0, symName: '__ZN99_$LT$core..array..iter..IntoIter$LT$T$C$_$GT$$u20$as$u20$core..iter..traits..iterator..Iterator$GT$4next17hc0e5f2e50bd9f364E', symObjAddr: 0x146C4, symBinAddr: 0x17D18, symSize: 0x24 }
  - { offset: 0xB3F58, size: 0x8, addend: 0x0, symName: '__ZN99_$LT$core..array..iter..IntoIter$LT$T$C$_$GT$$u20$as$u20$core..iter..traits..iterator..Iterator$GT$4next17hc0e5f2e50bd9f364E', symObjAddr: 0x146C4, symBinAddr: 0x17D18, symSize: 0x24 }
  - { offset: 0xB3F73, size: 0x8, addend: 0x0, symName: '__ZN99_$LT$core..array..iter..IntoIter$LT$T$C$_$GT$$u20$as$u20$core..iter..traits..iterator..Iterator$GT$4next17hc0e5f2e50bd9f364E', symObjAddr: 0x146C4, symBinAddr: 0x17D18, symSize: 0x24 }
  - { offset: 0xB4339, size: 0x8, addend: 0x0, symName: __ZN4core3cmp9PartialEq2ne17hd77715e6d5e8bb8aE, symObjAddr: 0x14144, symBinAddr: 0x17798, symSize: 0x18 }
  - { offset: 0xB8234, size: 0x8, addend: 0x0, symName: '__ZN110_$LT$core..ops..range..RangeFrom$LT$usize$GT$$u20$as$u20$core..slice..index..SliceIndex$LT$$u5b$T$u5d$$GT$$GT$5index17hb7fc7aeca38a44c4E.1016', symObjAddr: 0x152AC, symBinAddr: 0x18900, symSize: 0x1C }
  - { offset: 0xB8A41, size: 0x8, addend: 0x0, symName: __ZN4core5slice4sort6shared9smallsort11insert_tail17h10e17d4bb3b09faaE, symObjAddr: 0x14314, symBinAddr: 0x17968, symSize: 0x50 }
  - { offset: 0xB8B66, size: 0x8, addend: 0x0, symName: __ZN4core5slice4sort6shared9smallsort11insert_tail17h391d9b7f25becb0eE, symObjAddr: 0x14364, symBinAddr: 0x179B8, symSize: 0x74 }
  - { offset: 0xB8CCC, size: 0x8, addend: 0x0, symName: __ZN4core5slice4sort6shared9smallsort12sort4_stable17h97716bec2931a419E, symObjAddr: 0x143EC, symBinAddr: 0x17A40, symSize: 0xC8 }
  - { offset: 0xB9039, size: 0x8, addend: 0x0, symName: __ZN4core5slice4sort6shared9smallsort12sort4_stable17hc62a319c99b128ecE, symObjAddr: 0x144B4, symBinAddr: 0x17B08, symSize: 0xF4 }
  - { offset: 0xB94B4, size: 0x8, addend: 0x0, symName: __ZN4core5slice4sort6shared9smallsort12sort8_stable17h859541951686d27cE, symObjAddr: 0x145A8, symBinAddr: 0x17BFC, symSize: 0x44 }
  - { offset: 0xB9647, size: 0x8, addend: 0x0, symName: __ZN4core5slice4sort6shared9smallsort19bidirectional_merge17h65b97f8e7ab4a159E, symObjAddr: 0x145EC, symBinAddr: 0x17C40, symSize: 0xD8 }
  - { offset: 0xBB112, size: 0x8, addend: 0x0, symName: '__ZN4core4hash5impls52_$LT$impl$u20$core..hash..Hash$u20$for$u20$$RF$T$GT$4hash17h7ec82a8e40ac01f4E', symObjAddr: 0x151B0, symBinAddr: 0x18804, symSize: 0xFC }
  - { offset: 0xBBF23, size: 0x8, addend: 0x0, symName: '__ZN92_$LT$powersync_core..sync..checkpoint..OwnedBucketChecksum$u20$as$u20$core..clone..Clone$GT$5clone17h5cd18e3e870a8131E', symObjAddr: 0x15424, symBinAddr: 0x18A78, symSize: 0x60 }
  - { offset: 0xBD54C, size: 0x8, addend: 0x0, symName: '__ZN110_$LT$alloc..collections..btree..map..Values$LT$K$C$V$GT$$u20$as$u20$core..iter..traits..iterator..Iterator$GT$4next17h9547b87d3723278dE', symObjAddr: 0x13FE4, symBinAddr: 0x17638, symSize: 0x1C }
  - { offset: 0xBDE35, size: 0x8, addend: 0x0, symName: '__ZN108_$LT$alloc..collections..btree..map..Iter$LT$K$C$V$GT$$u20$as$u20$core..iter..traits..iterator..Iterator$GT$4next17h235116c2a94ce2d6E', symObjAddr: 0x13D88, symBinAddr: 0x173DC, symSize: 0xC4 }
  - { offset: 0xBE2DC, size: 0x8, addend: 0x0, symName: '__ZN108_$LT$alloc..collections..btree..map..Iter$LT$K$C$V$GT$$u20$as$u20$core..iter..traits..iterator..Iterator$GT$4next17h8c7f116e4c3d98e8E', symObjAddr: 0x13E4C, symBinAddr: 0x174A0, symSize: 0xD0 }
  - { offset: 0xBE80C, size: 0x8, addend: 0x0, symName: '__ZN108_$LT$alloc..collections..btree..map..Iter$LT$K$C$V$GT$$u20$as$u20$core..iter..traits..iterator..Iterator$GT$4next17hdb92f083f85771a8E', symObjAddr: 0x13F1C, symBinAddr: 0x17570, symSize: 0xC8 }
  - { offset: 0xBF159, size: 0x8, addend: 0x0, symName: '__ZN99_$LT$alloc..collections..btree..map..BTreeMap$LT$K$C$V$C$A$GT$$u20$as$u20$core..ops..drop..Drop$GT$4drop17hcd5818dd0548e2ecE', symObjAddr: 0x14724, symBinAddr: 0x17D78, symSize: 0x38 }
  - { offset: 0xBF22B, size: 0x8, addend: 0x0, symName: '__ZN99_$LT$alloc..collections..btree..map..BTreeMap$LT$K$C$V$C$A$GT$$u20$as$u20$core..ops..drop..Drop$GT$4drop17h1324be707d2a5f71E', symObjAddr: 0x15484, symBinAddr: 0x18AD8, symSize: 0x100 }
  - { offset: 0xBF729, size: 0x8, addend: 0x0, symName: '__ZN99_$LT$alloc..collections..btree..map..BTreeMap$LT$K$C$V$C$A$GT$$u20$as$u20$core..ops..drop..Drop$GT$4drop17h173193f6f96dad50E', symObjAddr: 0x15584, symBinAddr: 0x18BD8, symSize: 0x114 }
  - { offset: 0xBFBD7, size: 0x8, addend: 0x0, symName: '__ZN99_$LT$alloc..collections..btree..map..BTreeMap$LT$K$C$V$C$A$GT$$u20$as$u20$core..ops..drop..Drop$GT$4drop17h767aab4fc9782c83E', symObjAddr: 0x15698, symBinAddr: 0x18CEC, symSize: 0x10C }
  - { offset: 0xC004C, size: 0x8, addend: 0x0, symName: '__ZN99_$LT$alloc..collections..btree..map..BTreeMap$LT$K$C$V$C$A$GT$$u20$as$u20$core..ops..drop..Drop$GT$4drop17h9707def4e353d2c8E', symObjAddr: 0x157A4, symBinAddr: 0x18DF8, symSize: 0x124 }
  - { offset: 0xC04F7, size: 0x8, addend: 0x0, symName: '__ZN99_$LT$alloc..collections..btree..map..IntoIter$LT$K$C$V$C$A$GT$$u20$as$u20$core..ops..drop..Drop$GT$4drop17h4f6ee819a26be3b8E', symObjAddr: 0x1475C, symBinAddr: 0x17DB0, symSize: 0x44 }
  - { offset: 0xC0C2A, size: 0x8, addend: 0x0, symName: '__ZN96_$LT$alloc..collections..btree..map..BTreeMap$LT$K$C$V$C$A$GT$$u20$as$u20$core..clone..Clone$GT$5clone13clone_subtree17h20acf0fb547de1eeE', symObjAddr: 0x152C8, symBinAddr: 0x1891C, symSize: 0x15C }
  - { offset: 0xC3FE9, size: 0x8, addend: 0x0, symName: '__ZN5alloc5slice29_$LT$impl$u20$$u5b$T$u5d$$GT$11sort_by_key28_$u7b$$u7b$closure$u7d$$u7d$17h26d1e41c23ec6b7eE.984', symObjAddr: 0x143D8, symBinAddr: 0x17A2C, symSize: 0x14 }
  - { offset: 0xC4617, size: 0x8, addend: 0x0, symName: '__ZN65_$LT$serde_json..value..Value$u20$as$u20$core..cmp..PartialEq$GT$2eq17hda3d7c9da5d2545dE', symObjAddr: 0x1415C, symBinAddr: 0x177B0, symSize: 0x1B8 }
  - { offset: 0xC6098, size: 0x8, addend: 0x0, symName: '__ZN5alloc11collections5btree3map25IntoIter$LT$K$C$V$C$A$GT$10dying_next17hda4f45a9054ad2a0E', symObjAddr: 0x14000, symBinAddr: 0x17654, symSize: 0x144 }
  - { offset: 0xC6974, size: 0x8, addend: 0x0, symName: '__ZN5alloc11collections5btree3map25BTreeMap$LT$K$C$V$C$A$GT$16extract_if_inner17hc5ed0373825adbedE', symObjAddr: 0x146E8, symBinAddr: 0x17D3C, symSize: 0x3C }
  - { offset: 0xC6995, size: 0x8, addend: 0x0, symName: '__ZN5alloc11collections5btree3map25BTreeMap$LT$K$C$V$C$A$GT$16extract_if_inner17hc5ed0373825adbedE', symObjAddr: 0x146E8, symBinAddr: 0x17D3C, symSize: 0x3C }
  - { offset: 0xC69B3, size: 0x8, addend: 0x0, symName: '__ZN5alloc11collections5btree3map25BTreeMap$LT$K$C$V$C$A$GT$16extract_if_inner17hc5ed0373825adbedE', symObjAddr: 0x146E8, symBinAddr: 0x17D3C, symSize: 0x3C }
  - { offset: 0xC6D51, size: 0x8, addend: 0x0, symName: '__ZN5alloc11collections5btree3map25BTreeMap$LT$K$C$V$C$A$GT$6insert17h661f73d1b35bfbeaE', symObjAddr: 0x147A0, symBinAddr: 0x17DF4, symSize: 0x490 }
  - { offset: 0xC7D80, size: 0x8, addend: 0x0, symName: '__ZN5alloc11collections5btree3map25BTreeMap$LT$K$C$V$C$A$GT$6insert17h9216f8968018dafbE', symObjAddr: 0x14C30, symBinAddr: 0x18284, symSize: 0x4F4 }
  - { offset: 0xC8FCA, size: 0x8, addend: 0x0, symName: '__ZN5alloc11collections5btree3map25BTreeMap$LT$K$C$V$C$A$GT$7get_mut17ha45869adce5ea6baE', symObjAddr: 0x15124, symBinAddr: 0x18778, symSize: 0x8C }
  - { offset: 0xC9AEC, size: 0x8, addend: 0x0, symName: __ZN14powersync_core4bson6parser6Parser5error17ha92606ea91904afaE, symObjAddr: 0x158C8, symBinAddr: 0x4255C, symSize: 0x14 }
  - { offset: 0xC9C62, size: 0x8, addend: 0x0, symName: __ZN14powersync_core4bson6parser6Parser10read_int3217h8686495552b5737bE, symObjAddr: 0x158DC, symBinAddr: 0x18F1C, symSize: 0x58 }
  - { offset: 0xC9DC1, size: 0x8, addend: 0x0, symName: __ZN14powersync_core4bson6parser6Parser15advance_checked17h23468e63111b504aE, symObjAddr: 0x15934, symBinAddr: 0x18F74, symSize: 0x58 }
  - { offset: 0xC9F15, size: 0x8, addend: 0x0, symName: __ZN14powersync_core4bson6parser6Parser10read_int6417h50b03a30d899f071E, symObjAddr: 0x1598C, symBinAddr: 0x18FCC, symSize: 0x28 }
  - { offset: 0xC9FD6, size: 0x8, addend: 0x0, symName: __ZN14powersync_core4bson6parser6Parser13advance_bytes17hb4edeb56793d8cd4E, symObjAddr: 0x159B4, symBinAddr: 0x18FF4, symSize: 0x50 }
  - { offset: 0xCA087, size: 0x8, addend: 0x0, symName: __ZN14powersync_core4bson6parser6Parser11read_double17hed48ef7b539cc6d8E, symObjAddr: 0x15A04, symBinAddr: 0x19044, symSize: 0x3C }
  - { offset: 0xCA136, size: 0x8, addend: 0x0, symName: __ZN14powersync_core4bson6parser6Parser9read_bool17hc0d32a889526569cE, symObjAddr: 0x15A40, symBinAddr: 0x19080, symSize: 0x48 }
  - { offset: 0xCA1B8, size: 0x8, addend: 0x0, symName: __ZN14powersync_core4bson6parser6Parser12advance_byte17h8ce3d4ca98538a2cE, symObjAddr: 0x15A88, symBinAddr: 0x190C8, symSize: 0x50 }
  - { offset: 0xCA248, size: 0x8, addend: 0x0, symName: __ZN14powersync_core4bson6parser6Parser14read_object_id17hbaf7d3779336addcE, symObjAddr: 0x15AD8, symBinAddr: 0x19118, symSize: 0x8 }
  - { offset: 0xCA2CA, size: 0x8, addend: 0x0, symName: __ZN14powersync_core4bson6parser6Parser11read_string17hcc12ae778dd17362E, symObjAddr: 0x15AE0, symBinAddr: 0x19120, symSize: 0xA0 }
  - { offset: 0xCA4DD, size: 0x8, addend: 0x0, symName: __ZN14powersync_core4bson6parser6Parser11read_length17hd5081679d799992aE, symObjAddr: 0x15B80, symBinAddr: 0x191C0, symSize: 0x5C }
  - { offset: 0xCA570, size: 0x8, addend: 0x0, symName: __ZN14powersync_core4bson6parser6Parser11read_binary17h757016849cf39cc6E, symObjAddr: 0x15BDC, symBinAddr: 0x1921C, symSize: 0x7C }
  - { offset: 0xCA6C4, size: 0x8, addend: 0x0, symName: __ZN14powersync_core4bson6parser6Parser9subreader17hbfe8459f8a573c75E, symObjAddr: 0x15C58, symBinAddr: 0x19298, symSize: 0x38 }
  - { offset: 0xCA7AE, size: 0x8, addend: 0x0, symName: __ZN14powersync_core4bson6parser6Parser13skip_document17h9166ca8f9722d498E, symObjAddr: 0x15C90, symBinAddr: 0x192D0, symSize: 0x74 }
  - { offset: 0xCB4A4, size: 0x8, addend: 0x0, symName: _OUTLINED_FUNCTION_44, symObjAddr: 0x3B3D4, symBinAddr: 0x3D914, symSize: 0x18 }
  - { offset: 0xCB4BB, size: 0x8, addend: 0x0, symName: _OUTLINED_FUNCTION_116, symObjAddr: 0x3B9A8, symBinAddr: 0x3DEE8, symSize: 0x1C }
  - { offset: 0xCB4D2, size: 0x8, addend: 0x0, symName: _OUTLINED_FUNCTION_265, symObjAddr: 0x3C368, symBinAddr: 0x3E8A8, symSize: 0xC }
  - { offset: 0xCB4E9, size: 0x8, addend: 0x0, symName: _OUTLINED_FUNCTION_291, symObjAddr: 0x3C4F0, symBinAddr: 0x3EA30, symSize: 0x8 }
  - { offset: 0xCB500, size: 0x8, addend: 0x0, symName: _OUTLINED_FUNCTION_328, symObjAddr: 0x3C6BC, symBinAddr: 0x3EBFC, symSize: 0x10 }
  - { offset: 0xCB517, size: 0x8, addend: 0x0, symName: _OUTLINED_FUNCTION_334, symObjAddr: 0x3C710, symBinAddr: 0x3EC50, symSize: 0x10 }
  - { offset: 0xCB52E, size: 0x8, addend: 0x0, symName: _OUTLINED_FUNCTION_376, symObjAddr: 0x3C960, symBinAddr: 0x3EEA0, symSize: 0x10 }
  - { offset: 0xCB545, size: 0x8, addend: 0x0, symName: _OUTLINED_FUNCTION_420, symObjAddr: 0x3CBE8, symBinAddr: 0x3F128, symSize: 0x8 }
  - { offset: 0xCB55C, size: 0x8, addend: 0x0, symName: _OUTLINED_FUNCTION_446, symObjAddr: 0x3CCFC, symBinAddr: 0x3F23C, symSize: 0xC }
  - { offset: 0xCB573, size: 0x8, addend: 0x0, symName: _OUTLINED_FUNCTION_464, symObjAddr: 0x3CE1C, symBinAddr: 0x3F35C, symSize: 0x8 }
  - { offset: 0xCB58A, size: 0x8, addend: 0x0, symName: _OUTLINED_FUNCTION_487, symObjAddr: 0x3CF9C, symBinAddr: 0x3F4DC, symSize: 0xC }
  - { offset: 0xCB5A1, size: 0x8, addend: 0x0, symName: _OUTLINED_FUNCTION_506, symObjAddr: 0x3D0AC, symBinAddr: 0x3F5EC, symSize: 0x18 }
  - { offset: 0xCB5B8, size: 0x8, addend: 0x0, symName: _OUTLINED_FUNCTION_507, symObjAddr: 0x3D0C4, symBinAddr: 0x3F604, symSize: 0xC }
  - { offset: 0xCB5CF, size: 0x8, addend: 0x0, symName: _OUTLINED_FUNCTION_508, symObjAddr: 0x3D0D0, symBinAddr: 0x3F610, symSize: 0x10 }
  - { offset: 0xCB5E6, size: 0x8, addend: 0x0, symName: _OUTLINED_FUNCTION_520, symObjAddr: 0x3D188, symBinAddr: 0x3F6C8, symSize: 0x8 }
  - { offset: 0xCB5FD, size: 0x8, addend: 0x0, symName: _OUTLINED_FUNCTION_525, symObjAddr: 0x3D1DC, symBinAddr: 0x3F71C, symSize: 0xC }
  - { offset: 0xCB614, size: 0x8, addend: 0x0, symName: _OUTLINED_FUNCTION_526, symObjAddr: 0x3D1E8, symBinAddr: 0x3F728, symSize: 0x14 }
  - { offset: 0xCB62B, size: 0x8, addend: 0x0, symName: _OUTLINED_FUNCTION_570, symObjAddr: 0x3D420, symBinAddr: 0x3F960, symSize: 0x14 }
  - { offset: 0xCB642, size: 0x8, addend: 0x0, symName: _OUTLINED_FUNCTION_621, symObjAddr: 0x3D700, symBinAddr: 0x3FC40, symSize: 0x24 }
  - { offset: 0xCB659, size: 0x8, addend: 0x0, symName: _OUTLINED_FUNCTION_723, symObjAddr: 0x3DD1C, symBinAddr: 0x4025C, symSize: 0x10 }
  - { offset: 0xCB670, size: 0x8, addend: 0x0, symName: _OUTLINED_FUNCTION_740, symObjAddr: 0x3DDD0, symBinAddr: 0x40310, symSize: 0x1C }
  - { offset: 0xCB687, size: 0x8, addend: 0x0, symName: _OUTLINED_FUNCTION_745, symObjAddr: 0x3DE20, symBinAddr: 0x40360, symSize: 0x10 }
  - { offset: 0xCB69E, size: 0x8, addend: 0x0, symName: _OUTLINED_FUNCTION_767, symObjAddr: 0x3DF70, symBinAddr: 0x404B0, symSize: 0x8 }
  - { offset: 0xCB6B5, size: 0x8, addend: 0x0, symName: _OUTLINED_FUNCTION_782, symObjAddr: 0x3E028, symBinAddr: 0x40568, symSize: 0x8 }
  - { offset: 0xCB6CC, size: 0x8, addend: 0x0, symName: _OUTLINED_FUNCTION_873, symObjAddr: 0x3E540, symBinAddr: 0x40A80, symSize: 0x18 }
  - { offset: 0xCB6E3, size: 0x8, addend: 0x0, symName: _OUTLINED_FUNCTION_879, symObjAddr: 0x3E5A0, symBinAddr: 0x40AE0, symSize: 0xC }
  - { offset: 0xCB6FA, size: 0x8, addend: 0x0, symName: _OUTLINED_FUNCTION_899, symObjAddr: 0x3E6E4, symBinAddr: 0x40C24, symSize: 0x18 }
  - { offset: 0xCB711, size: 0x8, addend: 0x0, symName: _OUTLINED_FUNCTION_905, symObjAddr: 0x3E744, symBinAddr: 0x40C84, symSize: 0xC }
  - { offset: 0xCB728, size: 0x8, addend: 0x0, symName: _OUTLINED_FUNCTION_946, symObjAddr: 0x3E930, symBinAddr: 0x40E70, symSize: 0x18 }
  - { offset: 0xCB73F, size: 0x8, addend: 0x0, symName: _OUTLINED_FUNCTION_949, symObjAddr: 0x3E960, symBinAddr: 0x40EA0, symSize: 0x18 }
  - { offset: 0xCB756, size: 0x8, addend: 0x0, symName: _OUTLINED_FUNCTION_958, symObjAddr: 0x3E9CC, symBinAddr: 0x40F0C, symSize: 0xC }
  - { offset: 0xCB76D, size: 0x8, addend: 0x0, symName: _OUTLINED_FUNCTION_975, symObjAddr: 0x3EA7C, symBinAddr: 0x40FBC, symSize: 0xC }
  - { offset: 0xCB784, size: 0x8, addend: 0x0, symName: _OUTLINED_FUNCTION_1072, symObjAddr: 0x3EE2C, symBinAddr: 0x4136C, symSize: 0x8 }
  - { offset: 0xCB79B, size: 0x8, addend: 0x0, symName: _OUTLINED_FUNCTION_1109, symObjAddr: 0x3EFC0, symBinAddr: 0x41500, symSize: 0xC }
  - { offset: 0xCB7B2, size: 0x8, addend: 0x0, symName: _OUTLINED_FUNCTION_1110, symObjAddr: 0x3EFCC, symBinAddr: 0x4150C, symSize: 0xC }
  - { offset: 0xCB7C9, size: 0x8, addend: 0x0, symName: _OUTLINED_FUNCTION_1143, symObjAddr: 0x3F1C8, symBinAddr: 0x41708, symSize: 0xC }
  - { offset: 0xCB7E0, size: 0x8, addend: 0x0, symName: _OUTLINED_FUNCTION_1206, symObjAddr: 0x3F564, symBinAddr: 0x41AA4, symSize: 0x1C }
  - { offset: 0x1326A6, size: 0x8, addend: 0x0, symName: '__ZN67_$LT$serde_json..raw..RawValue$u20$as$u20$serde..ser..Serialize$GT$9serialize17h6450a1a76328da76E', symObjAddr: 0x27050, symBinAddr: 0x29E98, symSize: 0x20 }
  - { offset: 0x1332AF, size: 0x8, addend: 0x0, symName: '__ZN83_$LT$serde_json..ser..Compound$LT$W$C$F$GT$$u20$as$u20$serde..ser..SerializeMap$GT$13serialize_key17h57b9f4fbe26887a0E', symObjAddr: 0x26E64, symBinAddr: 0x29CAC, symSize: 0x48 }
  - { offset: 0x133428, size: 0x8, addend: 0x0, symName: '__ZN83_$LT$serde_json..ser..Compound$LT$W$C$F$GT$$u20$as$u20$serde..ser..SerializeMap$GT$13serialize_key17h00fea68955010961E', symObjAddr: 0x27008, symBinAddr: 0x29E50, symSize: 0x48 }
  - { offset: 0x133D45, size: 0x8, addend: 0x0, symName: '__ZN83_$LT$serde_json..ser..Compound$LT$W$C$F$GT$$u20$as$u20$serde..ser..SerializeSeq$GT$3end17h48b8ffed64b50213E', symObjAddr: 0x26B70, symBinAddr: 0x299B8, symSize: 0x34 }
  - { offset: 0x133E4D, size: 0x8, addend: 0x0, symName: '__ZN83_$LT$serde_json..ser..Compound$LT$W$C$F$GT$$u20$as$u20$serde..ser..SerializeSeq$GT$17serialize_element17h1d49d82dd1d38992E', symObjAddr: 0x26ECC, symBinAddr: 0x29D14, symSize: 0x48 }
  - { offset: 0x13413A, size: 0x8, addend: 0x0, symName: '__ZN95_$LT$$RF$mut$u20$serde_json..ser..Serializer$LT$W$C$F$GT$$u20$as$u20$serde..ser..Serializer$GT$13serialize_seq17hb6ef37ce01ac85e3E', symObjAddr: 0x26B1C, symBinAddr: 0x29964, symSize: 0x54 }
  - { offset: 0x134230, size: 0x8, addend: 0x0, symName: '__ZN95_$LT$$RF$mut$u20$serde_json..ser..Serializer$LT$W$C$F$GT$$u20$as$u20$serde..ser..Serializer$GT$14serialize_unit17h3b2e68356b538392E', symObjAddr: 0x26DEC, symBinAddr: 0x29C34, symSize: 0x10 }
  - { offset: 0x13425D, size: 0x8, addend: 0x0, symName: '__ZN95_$LT$$RF$mut$u20$serde_json..ser..Serializer$LT$W$C$F$GT$$u20$as$u20$serde..ser..Serializer$GT$14serialize_unit17h3b2e68356b538392E', symObjAddr: 0x26DEC, symBinAddr: 0x29C34, symSize: 0x10 }
  - { offset: 0x134271, size: 0x8, addend: 0x0, symName: '__ZN95_$LT$$RF$mut$u20$serde_json..ser..Serializer$LT$W$C$F$GT$$u20$as$u20$serde..ser..Serializer$GT$14serialize_unit17h3b2e68356b538392E', symObjAddr: 0x26DEC, symBinAddr: 0x29C34, symSize: 0x10 }
  - { offset: 0x13428F, size: 0x8, addend: 0x0, symName: '__ZN95_$LT$$RF$mut$u20$serde_json..ser..Serializer$LT$W$C$F$GT$$u20$as$u20$serde..ser..Serializer$GT$14serialize_unit17h3b2e68356b538392E', symObjAddr: 0x26DEC, symBinAddr: 0x29C34, symSize: 0x10 }
  - { offset: 0x1342B3, size: 0x8, addend: 0x0, symName: '__ZN95_$LT$$RF$mut$u20$serde_json..ser..Serializer$LT$W$C$F$GT$$u20$as$u20$serde..ser..Serializer$GT$14serialize_unit17h3b2e68356b538392E', symObjAddr: 0x26DEC, symBinAddr: 0x29C34, symSize: 0x10 }
  - { offset: 0x1342EB, size: 0x8, addend: 0x0, symName: '__ZN95_$LT$$RF$mut$u20$serde_json..ser..Serializer$LT$W$C$F$GT$$u20$as$u20$serde..ser..Serializer$GT$14serialize_bool17h5bb81638fa2611abE', symObjAddr: 0x26DFC, symBinAddr: 0x29C44, symSize: 0x28 }
  - { offset: 0x134327, size: 0x8, addend: 0x0, symName: '__ZN95_$LT$$RF$mut$u20$serde_json..ser..Serializer$LT$W$C$F$GT$$u20$as$u20$serde..ser..Serializer$GT$14serialize_bool17h5bb81638fa2611abE', symObjAddr: 0x26DFC, symBinAddr: 0x29C44, symSize: 0x28 }
  - { offset: 0x134796, size: 0x8, addend: 0x0, symName: __ZN10serde_json3ser9Formatter9end_array17hf6090921847dafabE, symObjAddr: 0x26BA4, symBinAddr: 0x299EC, symSize: 0xC }
  - { offset: 0x1347D1, size: 0x8, addend: 0x0, symName: __ZN10serde_json3ser9Formatter9end_array17hf6090921847dafabE, symObjAddr: 0x26BA4, symBinAddr: 0x299EC, symSize: 0xC }
  - { offset: 0x1347EF, size: 0x8, addend: 0x0, symName: __ZN10serde_json3ser9Formatter9end_array17hf6090921847dafabE, symObjAddr: 0x26BA4, symBinAddr: 0x299EC, symSize: 0xC }
  - { offset: 0x134813, size: 0x8, addend: 0x0, symName: __ZN10serde_json3ser9Formatter9end_array17hf6090921847dafabE, symObjAddr: 0x26BA4, symBinAddr: 0x299EC, symSize: 0xC }
  - { offset: 0x1348DD, size: 0x8, addend: 0x0, symName: __ZN10serde_json3ser9Formatter18begin_object_value17h914096b4e9c7377aE.2106, symObjAddr: 0x26EAC, symBinAddr: 0x29CF4, symSize: 0xC }
  - { offset: 0x134918, size: 0x8, addend: 0x0, symName: __ZN10serde_json3ser9Formatter18begin_object_value17h914096b4e9c7377aE.2106, symObjAddr: 0x26EAC, symBinAddr: 0x29CF4, symSize: 0xC }
  - { offset: 0x134936, size: 0x8, addend: 0x0, symName: __ZN10serde_json3ser9Formatter18begin_object_value17h914096b4e9c7377aE.2106, symObjAddr: 0x26EAC, symBinAddr: 0x29CF4, symSize: 0xC }
  - { offset: 0x13495A, size: 0x8, addend: 0x0, symName: __ZN10serde_json3ser9Formatter18begin_object_value17h914096b4e9c7377aE.2106, symObjAddr: 0x26EAC, symBinAddr: 0x29CF4, symSize: 0xC }
  - { offset: 0x134991, size: 0x8, addend: 0x0, symName: __ZN10serde_json3ser9Formatter16begin_object_key17h1e33a8d2094bf4efE, symObjAddr: 0x26EB8, symBinAddr: 0x29D00, symSize: 0x14 }
  - { offset: 0x134B2E, size: 0x8, addend: 0x0, symName: '__ZN91_$LT$serde_json..ser..RawValueStrEmitter$LT$W$C$F$GT$$u20$as$u20$serde..ser..Serializer$GT$14serialize_bool17h8c7f6910177a9fdeE', symObjAddr: 0x2722C, symBinAddr: 0x42D68, symSize: 0x10 }
  - { offset: 0x134DE7, size: 0x8, addend: 0x0, symName: __ZN10serde_json3ser18format_escaped_str17had8aed992365fc1dE, symObjAddr: 0x265B8, symBinAddr: 0x29458, symSize: 0x10C }
  - { offset: 0x13596E, size: 0x8, addend: 0x0, symName: '__ZN10serde_json5value3ser76_$LT$impl$u20$serde..ser..Serialize$u20$for$u20$serde_json..value..Value$GT$9serialize17h4b8d75f5968ab11cE', symObjAddr: 0x26BB0, symBinAddr: 0x299F8, symSize: 0x23C }
  - { offset: 0x13622F, size: 0x8, addend: 0x0, symName: '__ZN189_$LT$serde_with..de..impls..$LT$impl$u20$serde_with..de..DeserializeAs$LT$T$GT$$u20$for$u20$serde_with..DisplayFromStr$GT$..deserialize_as..Helper$LT$S$GT$$u20$as$u20$serde..de..Visitor$GT$9visit_str17h4fa849048154a523E', symObjAddr: 0x266E8, symBinAddr: 0x29588, symSize: 0x48 }
  - { offset: 0x138988, size: 0x8, addend: 0x0, symName: '__ZN4core3str21_$LT$impl$u20$str$GT$5parse17hb3fc1a8ee0c90342E', symObjAddr: 0x26730, symBinAddr: 0x295D0, symSize: 0x178 }
  - { offset: 0x1389BA, size: 0x8, addend: 0x0, symName: '__ZN4core3str21_$LT$impl$u20$str$GT$5parse17hb3fc1a8ee0c90342E', symObjAddr: 0x26730, symBinAddr: 0x295D0, symSize: 0x178 }
  - { offset: 0x1389D8, size: 0x8, addend: 0x0, symName: '__ZN4core3str21_$LT$impl$u20$str$GT$5parse17hb3fc1a8ee0c90342E', symObjAddr: 0x26730, symBinAddr: 0x295D0, symSize: 0x178 }
  - { offset: 0x1389FC, size: 0x8, addend: 0x0, symName: '__ZN4core3str21_$LT$impl$u20$str$GT$5parse17hb3fc1a8ee0c90342E', symObjAddr: 0x26730, symBinAddr: 0x295D0, symSize: 0x178 }
  - { offset: 0x13917A, size: 0x8, addend: 0x0, symName: __ZN4core5slice4sort6shared5pivot11median3_rec17h02103077cf6e3b07E, symObjAddr: 0x26948, symBinAddr: 0x297E8, symSize: 0xBC }
  - { offset: 0x1392E0, size: 0x8, addend: 0x0, symName: __ZN4core5slice4sort6shared5pivot11median3_rec17h08ea252dce719149E, symObjAddr: 0x26A04, symBinAddr: 0x298A4, symSize: 0xC0 }
  - { offset: 0x13B8C7, size: 0x8, addend: 0x0, symName: '__ZN44_$LT$$RF$T$u20$as$u20$core..fmt..Display$GT$3fmt17h55873410db1fe062E', symObjAddr: 0x268C0, symBinAddr: 0x29760, symSize: 0x88 }
  - { offset: 0x13CDA2, size: 0x8, addend: 0x0, symName: __ZN5serde2de7Visitor11visit_bytes17h5232f016a0a48bcbE, symObjAddr: 0x26AC4, symBinAddr: 0x42D10, symSize: 0x2C }
  - { offset: 0x13CDF2, size: 0x8, addend: 0x0, symName: __ZN5serde2de7Visitor9visit_i6417h0a8b95d84d875bd9E, symObjAddr: 0x26AF0, symBinAddr: 0x42D3C, symSize: 0x2C }
  - { offset: 0x13CEED, size: 0x8, addend: 0x0, symName: '__ZN41_$LT$T$u20$as$u20$serde..de..Expected$GT$3fmt17h9ac4b3736e0f1c11E', symObjAddr: 0x266C4, symBinAddr: 0x29564, symSize: 0x24 }
  - { offset: 0x13CF67, size: 0x8, addend: 0x0, symName: '__ZN41_$LT$T$u20$as$u20$serde..de..Expected$GT$3fmt17h531a6b59ad8c3ec3E', symObjAddr: 0x268A8, symBinAddr: 0x29748, symSize: 0x18 }
  - { offset: 0x13D76B, size: 0x8, addend: 0x0, symName: __ZN5serde3ser12SerializeMap15serialize_entry17h7b59279712d379abE, symObjAddr: 0x26E24, symBinAddr: 0x29C6C, symSize: 0x40 }
  - { offset: 0x13D7F5, size: 0x8, addend: 0x0, symName: __ZN5serde3ser12SerializeMap15serialize_entry17h024f1e2b3eba1bfbE, symObjAddr: 0x26F9C, symBinAddr: 0x29DE4, symSize: 0x6C }
  - { offset: 0x13DA40, size: 0x8, addend: 0x0, symName: __ZN5serde3ser12SerializeMap15serialize_entry17h2eeb62a0755fba7dE, symObjAddr: 0x27070, symBinAddr: 0x29EB8, symSize: 0x34 }
  - { offset: 0x13DAFB, size: 0x8, addend: 0x0, symName: __ZN5serde3ser12SerializeMap15serialize_entry17h2ef5b8a8350722c9E, symObjAddr: 0x270A4, symBinAddr: 0x29EEC, symSize: 0x3C }
  - { offset: 0x13DB97, size: 0x8, addend: 0x0, symName: __ZN5serde3ser12SerializeMap15serialize_entry17h3db018fb6e398c4aE, symObjAddr: 0x270E0, symBinAddr: 0x29F28, symSize: 0x60 }
  - { offset: 0x13DC65, size: 0x8, addend: 0x0, symName: __ZN5serde3ser12SerializeMap15serialize_entry17h59c88827d1aa3b5aE, symObjAddr: 0x27140, symBinAddr: 0x29F88, symSize: 0x58 }
  - { offset: 0x13DD75, size: 0x8, addend: 0x0, symName: __ZN5serde3ser12SerializeMap15serialize_entry17h78ebcc0223894e89E, symObjAddr: 0x27198, symBinAddr: 0x29FE0, symSize: 0x3C }
  - { offset: 0x13E6B3, size: 0x8, addend: 0x0, symName: __ZN5serde3ser10Serializer11collect_seq17hfae895d8936648e6E, symObjAddr: 0x26F14, symBinAddr: 0x29D5C, symSize: 0x88 }
  - { offset: 0x13F6C0, size: 0x8, addend: 0x0, symName: '__ZN86_$LT$alloc..vec..into_iter..IntoIter$LT$T$C$A$GT$$u20$as$u20$core..ops..drop..Drop$GT$4drop17hac2587ce3af24c1dE', symObjAddr: 0x271D4, symBinAddr: 0x2A01C, symSize: 0x58 }
  - { offset: 0x141BED, size: 0x8, addend: 0x0, symName: _OUTLINED_FUNCTION_136, symObjAddr: 0x3BB54, symBinAddr: 0x3E094, symSize: 0xC }
  - { offset: 0x141C04, size: 0x8, addend: 0x0, symName: _OUTLINED_FUNCTION_352, symObjAddr: 0x3C7FC, symBinAddr: 0x3ED3C, symSize: 0xC }
  - { offset: 0x141C1B, size: 0x8, addend: 0x0, symName: _OUTLINED_FUNCTION_743, symObjAddr: 0x3DE0C, symBinAddr: 0x4034C, symSize: 0xC }
  - { offset: 0x141C32, size: 0x8, addend: 0x0, symName: _OUTLINED_FUNCTION_778, symObjAddr: 0x3DFFC, symBinAddr: 0x4053C, symSize: 0x10 }
  - { offset: 0x141C49, size: 0x8, addend: 0x0, symName: _OUTLINED_FUNCTION_846, symObjAddr: 0x3E36C, symBinAddr: 0x408AC, symSize: 0x10 }
  - { offset: 0x141C60, size: 0x8, addend: 0x0, symName: _OUTLINED_FUNCTION_1023, symObjAddr: 0x3EC50, symBinAddr: 0x41190, symSize: 0x8 }
  - { offset: 0x141C77, size: 0x8, addend: 0x0, symName: _OUTLINED_FUNCTION_1024, symObjAddr: 0x3EC58, symBinAddr: 0x41198, symSize: 0x8 }
  - { offset: 0x141C8E, size: 0x8, addend: 0x0, symName: _OUTLINED_FUNCTION_1028, symObjAddr: 0x3EC78, symBinAddr: 0x411B8, symSize: 0xC }
  - { offset: 0x141CA5, size: 0x8, addend: 0x0, symName: _OUTLINED_FUNCTION_1029, symObjAddr: 0x3EC84, symBinAddr: 0x411C4, symSize: 0xC }
  - { offset: 0x66BC, size: 0x8, addend: 0x0, symName: '__ZN72_$LT$$RF$str$u20$as$u20$alloc..ffi..c_str..CString..new..SpecNewImpl$GT$13spec_new_impl17h4ab91829a205c65aE', symObjAddr: 0x800, symBinAddr: 0x4764, symSize: 0xF0 }
  - { offset: 0x708E, size: 0x8, addend: 0x0, symName: __ZN5alloc3ffi5c_str7CString19_from_vec_unchecked17hd7e9ea8c103a6f47E, symObjAddr: 0x71C, symBinAddr: 0x4680, symSize: 0xE4 }
  - { offset: 0x766D, size: 0x8, addend: 0x0, symName: _OUTLINED_FUNCTION_55, symObjAddr: 0x3B4A4, symBinAddr: 0x3D9E4, symSize: 0x10 }
  - { offset: 0x7684, size: 0x8, addend: 0x0, symName: _OUTLINED_FUNCTION_92, symObjAddr: 0x3B7B4, symBinAddr: 0x3DCF4, symSize: 0x10 }
  - { offset: 0x769B, size: 0x8, addend: 0x0, symName: _OUTLINED_FUNCTION_445, symObjAddr: 0x3CCF0, symBinAddr: 0x3F230, symSize: 0xC }
  - { offset: 0x76B2, size: 0x8, addend: 0x0, symName: _OUTLINED_FUNCTION_596, symObjAddr: 0x3D590, symBinAddr: 0x3FAD0, symSize: 0xC }
  - { offset: 0x76C9, size: 0x8, addend: 0x0, symName: _OUTLINED_FUNCTION_630, symObjAddr: 0x3D7B4, symBinAddr: 0x3FCF4, symSize: 0xC }
  - { offset: 0x6F1ED, size: 0x8, addend: 0x0, symName: '__ZN5serde2de5impls80_$LT$impl$u20$serde..de..Deserialize$u20$for$u20$alloc..borrow..Cow$LT$T$GT$$GT$11deserialize17h4ef1bcc2fb998394E', symObjAddr: 0xB358, symBinAddr: 0xF210, symSize: 0x34 }
  - { offset: 0x6F518, size: 0x8, addend: 0x0, symName: __ZN5serde2de7Visitor20visit_borrowed_bytes17h8de4e453815ae08dE, symObjAddr: 0xA640, symBinAddr: 0xE4F8, symSize: 0xA0 }
  - { offset: 0x6F556, size: 0x8, addend: 0x0, symName: __ZN5serde2de7Visitor20visit_borrowed_bytes17h8de4e453815ae08dE, symObjAddr: 0xA640, symBinAddr: 0xE4F8, symSize: 0xA0 }
  - { offset: 0x6F585, size: 0x8, addend: 0x0, symName: __ZN5serde2de7Visitor20visit_borrowed_bytes17hc6d05f7848505270E, symObjAddr: 0xA6E0, symBinAddr: 0xE598, symSize: 0x280 }
  - { offset: 0x6F5C3, size: 0x8, addend: 0x0, symName: __ZN5serde2de7Visitor20visit_borrowed_bytes17hc6d05f7848505270E, symObjAddr: 0xA6E0, symBinAddr: 0xE598, symSize: 0x280 }
  - { offset: 0x6F5F2, size: 0x8, addend: 0x0, symName: __ZN5serde2de7Visitor20visit_borrowed_bytes17h29bb5473e87637a9E, symObjAddr: 0xAAE0, symBinAddr: 0xE998, symSize: 0x74 }
  - { offset: 0x6F630, size: 0x8, addend: 0x0, symName: __ZN5serde2de7Visitor20visit_borrowed_bytes17h29bb5473e87637a9E, symObjAddr: 0xAAE0, symBinAddr: 0xE998, symSize: 0x74 }
  - { offset: 0x6F65F, size: 0x8, addend: 0x0, symName: __ZN5serde2de7Visitor20visit_borrowed_bytes17h4939e8597365e669E, symObjAddr: 0xAB54, symBinAddr: 0xEA0C, symSize: 0x21C }
  - { offset: 0x6F69D, size: 0x8, addend: 0x0, symName: __ZN5serde2de7Visitor20visit_borrowed_bytes17h4939e8597365e669E, symObjAddr: 0xAB54, symBinAddr: 0xEA0C, symSize: 0x21C }
  - { offset: 0x6F6CC, size: 0x8, addend: 0x0, symName: __ZN5serde2de7Visitor20visit_borrowed_bytes17h4160c34eac27891dE, symObjAddr: 0xADE0, symBinAddr: 0xEC98, symSize: 0x2DC }
  - { offset: 0x6F70A, size: 0x8, addend: 0x0, symName: __ZN5serde2de7Visitor20visit_borrowed_bytes17h4160c34eac27891dE, symObjAddr: 0xADE0, symBinAddr: 0xEC98, symSize: 0x2DC }
  - { offset: 0x6F7B1, size: 0x8, addend: 0x0, symName: __ZN5serde2de7Visitor20visit_borrowed_bytes17hbb5f6654fda3c3ebE, symObjAddr: 0xB24C, symBinAddr: 0xF104, symSize: 0x10C }
  - { offset: 0x6F7EF, size: 0x8, addend: 0x0, symName: __ZN5serde2de7Visitor20visit_borrowed_bytes17hbb5f6654fda3c3ebE, symObjAddr: 0xB24C, symBinAddr: 0xF104, symSize: 0x10C }
  - { offset: 0x6F81E, size: 0x8, addend: 0x0, symName: __ZN5serde2de7Visitor20visit_borrowed_bytes17h54cef0db9250e1feE, symObjAddr: 0xB4C4, symBinAddr: 0xF37C, symSize: 0x230 }
  - { offset: 0x6F85C, size: 0x8, addend: 0x0, symName: __ZN5serde2de7Visitor20visit_borrowed_bytes17h54cef0db9250e1feE, symObjAddr: 0xB4C4, symBinAddr: 0xF37C, symSize: 0x230 }
  - { offset: 0x6F88B, size: 0x8, addend: 0x0, symName: __ZN5serde2de7Visitor20visit_borrowed_bytes17h93ceb5bc6f7cdccdE, symObjAddr: 0xB6F4, symBinAddr: 0xF5AC, symSize: 0x128 }
  - { offset: 0x6F8C9, size: 0x8, addend: 0x0, symName: __ZN5serde2de7Visitor20visit_borrowed_bytes17h93ceb5bc6f7cdccdE, symObjAddr: 0xB6F4, symBinAddr: 0xF5AC, symSize: 0x128 }
  - { offset: 0x735CC, size: 0x8, addend: 0x0, symName: '__ZN79_$LT$powersync_core..bson..de..Deserializer$u20$as$u20$serde..de..SeqAccess$GT$17next_element_seed17hb53dd6e537c0f8d3E', symObjAddr: 0xAD70, symBinAddr: 0xEC28, symSize: 0x70 }
  - { offset: 0x73697, size: 0x8, addend: 0x0, symName: '__ZN79_$LT$powersync_core..bson..de..Deserializer$u20$as$u20$serde..de..SeqAccess$GT$17next_element_seed17hc4d6ed9c8360fe09E', symObjAddr: 0xB3D4, symBinAddr: 0xF28C, symSize: 0x74 }
  - { offset: 0x73762, size: 0x8, addend: 0x0, symName: '__ZN79_$LT$powersync_core..bson..de..Deserializer$u20$as$u20$serde..de..SeqAccess$GT$17next_element_seed17hac64f77f54fb37cbE', symObjAddr: 0xB448, symBinAddr: 0xF300, symSize: 0x7C }
  - { offset: 0x73833, size: 0x8, addend: 0x0, symName: '__ZN79_$LT$powersync_core..bson..de..Deserializer$u20$as$u20$serde..de..SeqAccess$GT$17next_element_seed17h36f42a07586bd1d7E', symObjAddr: 0xB86C, symBinAddr: 0xF724, symSize: 0x7C }
  - { offset: 0x74650, size: 0x8, addend: 0x0, symName: '__ZN94_$LT$$RF$mut$u20$powersync_core..bson..de..Deserializer$u20$as$u20$serde..de..Deserializer$GT$15deserialize_any17h325230dc883c9bf7E', symObjAddr: 0xA960, symBinAddr: 0xE818, symSize: 0x180 }
  - { offset: 0x748E0, size: 0x8, addend: 0x0, symName: '__ZN94_$LT$$RF$mut$u20$powersync_core..bson..de..Deserializer$u20$as$u20$serde..de..Deserializer$GT$15deserialize_any17h11d2f6bee975b59aE', symObjAddr: 0xB0BC, symBinAddr: 0xEF74, symSize: 0x190 }
  - { offset: 0x79258, size: 0x8, addend: 0x0, symName: '__ZN92_$LT$$RF$mut$u20$powersync_core..bson..de..Deserializer$u20$as$u20$serde..de..EnumAccess$GT$12variant_seed17h23987b3903a2037eE', symObjAddr: 0xB8F8, symBinAddr: 0xF7B0, symSize: 0x200 }
  - { offset: 0x79631, size: 0x8, addend: 0x0, symName: '__ZN95_$LT$$RF$mut$u20$powersync_core..bson..de..Deserializer$u20$as$u20$serde..de..VariantAccess$GT$12unit_variant17hb4985a23f3f79b9fE', symObjAddr: 0xBAF8, symBinAddr: 0x41CF8, symSize: 0x24 }
  - { offset: 0x7965C, size: 0x8, addend: 0x0, symName: '__ZN95_$LT$$RF$mut$u20$powersync_core..bson..de..Deserializer$u20$as$u20$serde..de..VariantAccess$GT$20newtype_variant_seed17he04784760e8540cfE', symObjAddr: 0xBB1C, symBinAddr: 0xF9B0, symSize: 0x188 }
  - { offset: 0x81BF8, size: 0x8, addend: 0x0, symName: '__ZN4core3ptr78drop_in_place$LT$core..option..Option$LT$alloc..borrow..Cow$LT$str$GT$$GT$$GT$17h82041a2f27f03871E.391', symObjAddr: 0xB38C, symBinAddr: 0xF244, symSize: 0x18 }
  - { offset: 0x81C43, size: 0x8, addend: 0x0, symName: '__ZN4core3ptr145drop_in_place$LT$core..option..Option$LT$alloc..rc..Rc$LT$alloc..vec..Vec$LT$powersync_core..sync..line..BucketSubscriptionReason$GT$$GT$$GT$$GT$17h3ac1fe7c9d57b51eE.392', symObjAddr: 0xB3A4, symBinAddr: 0xF25C, symSize: 0x1C }
  - { offset: 0x81DAB, size: 0x8, addend: 0x0, symName: '__ZN4core3ptr50drop_in_place$LT$alloc..borrow..Cow$LT$str$GT$$GT$17h26b2eb237bcfdbcaE.393', symObjAddr: 0xB3C0, symBinAddr: 0xF278, symSize: 0x14 }
  - { offset: 0x81E56, size: 0x8, addend: 0x0, symName: '__ZN4core3ptr117drop_in_place$LT$core..option..Option$LT$alloc..vec..Vec$LT$powersync_core..sync..line..StreamDescription$GT$$GT$$GT$17heca6fcd9e97a4e84E.395', symObjAddr: 0xB81C, symBinAddr: 0xF6D4, symSize: 0x34 }
  - { offset: 0x81EBB, size: 0x8, addend: 0x0, symName: '__ZN4core3ptr106drop_in_place$LT$core..option..Option$LT$core..option..Option$LT$alloc..borrow..Cow$LT$str$GT$$GT$$GT$$GT$17hfd92bd04694cfab3E.398', symObjAddr: 0xB850, symBinAddr: 0xF708, symSize: 0x1C }
  - { offset: 0x839BF, size: 0x8, addend: 0x0, symName: '__ZN4core3cmp5impls69_$LT$impl$u20$core..cmp..PartialEq$LT$$RF$B$GT$$u20$for$u20$$RF$A$GT$2eq17he679ee786ce18879E', symObjAddr: 0xB8E8, symBinAddr: 0xF7A0, symSize: 0x10 }
  - { offset: 0x839FA, size: 0x8, addend: 0x0, symName: '__ZN4core3cmp5impls69_$LT$impl$u20$core..cmp..PartialEq$LT$$RF$B$GT$$u20$for$u20$$RF$A$GT$2eq17he679ee786ce18879E', symObjAddr: 0xB8E8, symBinAddr: 0xF7A0, symSize: 0x10 }
  - { offset: 0x83A21, size: 0x8, addend: 0x0, symName: '__ZN4core3cmp5impls69_$LT$impl$u20$core..cmp..PartialEq$LT$$RF$B$GT$$u20$for$u20$$RF$A$GT$2eq17he679ee786ce18879E', symObjAddr: 0xB8E8, symBinAddr: 0xF7A0, symSize: 0x10 }
  - { offset: 0x83F7C, size: 0x8, addend: 0x0, symName: __ZN14powersync_core4bson2de12Deserializer15prepare_to_read17hc4151a8e44b5e7f0E, symObjAddr: 0xA37C, symBinAddr: 0xE234, symSize: 0x14C }
  - { offset: 0x8418E, size: 0x8, addend: 0x0, symName: __ZN14powersync_core4bson2de12Deserializer21prepare_to_read_value17h15d977b8d927602eE, symObjAddr: 0xA4C8, symBinAddr: 0xE380, symSize: 0x54 }
  - { offset: 0x8424F, size: 0x8, addend: 0x0, symName: __ZN14powersync_core4bson2de12Deserializer13object_reader17h69a9bf9786b27f3bE, symObjAddr: 0xA51C, symBinAddr: 0xE3D4, symSize: 0x68 }
  - { offset: 0x842F7, size: 0x8, addend: 0x0, symName: __ZN14powersync_core4bson2de12Deserializer20advance_to_next_name17h6f380f38d2a369bcE, symObjAddr: 0xA584, symBinAddr: 0xE43C, symSize: 0xBC }
  - { offset: 0x848E1, size: 0x8, addend: 0x0, symName: _OUTLINED_FUNCTION_59, symObjAddr: 0x3B4F0, symBinAddr: 0x3DA30, symSize: 0xC }
  - { offset: 0x848F8, size: 0x8, addend: 0x0, symName: _OUTLINED_FUNCTION_68, symObjAddr: 0x3B580, symBinAddr: 0x3DAC0, symSize: 0x10 }
  - { offset: 0x8490F, size: 0x8, addend: 0x0, symName: _OUTLINED_FUNCTION_79, symObjAddr: 0x3B6A4, symBinAddr: 0x3DBE4, symSize: 0xC }
  - { offset: 0x84926, size: 0x8, addend: 0x0, symName: _OUTLINED_FUNCTION_99, symObjAddr: 0x3B844, symBinAddr: 0x3DD84, symSize: 0x10 }
  - { offset: 0x8493D, size: 0x8, addend: 0x0, symName: _OUTLINED_FUNCTION_121, symObjAddr: 0x3BA04, symBinAddr: 0x3DF44, symSize: 0xC }
  - { offset: 0x84954, size: 0x8, addend: 0x0, symName: _OUTLINED_FUNCTION_131, symObjAddr: 0x3BAE8, symBinAddr: 0x3E028, symSize: 0x10 }
  - { offset: 0x8496B, size: 0x8, addend: 0x0, symName: _OUTLINED_FUNCTION_142, symObjAddr: 0x3BBD8, symBinAddr: 0x3E118, symSize: 0xC }
  - { offset: 0x84982, size: 0x8, addend: 0x0, symName: _OUTLINED_FUNCTION_169, symObjAddr: 0x3BD9C, symBinAddr: 0x3E2DC, symSize: 0x8 }
  - { offset: 0x84999, size: 0x8, addend: 0x0, symName: _OUTLINED_FUNCTION_176, symObjAddr: 0x3BE10, symBinAddr: 0x3E350, symSize: 0x10 }
  - { offset: 0x849B0, size: 0x8, addend: 0x0, symName: _OUTLINED_FUNCTION_181, symObjAddr: 0x3BE70, symBinAddr: 0x3E3B0, symSize: 0x10 }
  - { offset: 0x849C7, size: 0x8, addend: 0x0, symName: _OUTLINED_FUNCTION_183, symObjAddr: 0x3BEA0, symBinAddr: 0x3E3E0, symSize: 0x10 }
  - { offset: 0x849DE, size: 0x8, addend: 0x0, symName: _OUTLINED_FUNCTION_188, symObjAddr: 0x3BF08, symBinAddr: 0x3E448, symSize: 0x8 }
  - { offset: 0x849F5, size: 0x8, addend: 0x0, symName: _OUTLINED_FUNCTION_190, symObjAddr: 0x3BF1C, symBinAddr: 0x3E45C, symSize: 0x8 }
  - { offset: 0x84A0C, size: 0x8, addend: 0x0, symName: _OUTLINED_FUNCTION_195, symObjAddr: 0x3BF50, symBinAddr: 0x3E490, symSize: 0xC }
  - { offset: 0x84A23, size: 0x8, addend: 0x0, symName: _OUTLINED_FUNCTION_209, symObjAddr: 0x3C05C, symBinAddr: 0x3E59C, symSize: 0xC }
  - { offset: 0x84A3A, size: 0x8, addend: 0x0, symName: _OUTLINED_FUNCTION_228, symObjAddr: 0x3C120, symBinAddr: 0x3E660, symSize: 0x8 }
  - { offset: 0x84A51, size: 0x8, addend: 0x0, symName: _OUTLINED_FUNCTION_251, symObjAddr: 0x3C2C8, symBinAddr: 0x3E808, symSize: 0x8 }
  - { offset: 0x84A68, size: 0x8, addend: 0x0, symName: _OUTLINED_FUNCTION_252, symObjAddr: 0x3C2D0, symBinAddr: 0x3E810, symSize: 0x8 }
  - { offset: 0x84A7F, size: 0x8, addend: 0x0, symName: _OUTLINED_FUNCTION_253, symObjAddr: 0x3C2D8, symBinAddr: 0x3E818, symSize: 0x8 }
  - { offset: 0x84A96, size: 0x8, addend: 0x0, symName: _OUTLINED_FUNCTION_254, symObjAddr: 0x3C2E0, symBinAddr: 0x3E820, symSize: 0x8 }
  - { offset: 0x84AAD, size: 0x8, addend: 0x0, symName: _OUTLINED_FUNCTION_255, symObjAddr: 0x3C2E8, symBinAddr: 0x3E828, symSize: 0x8 }
  - { offset: 0x84AC4, size: 0x8, addend: 0x0, symName: _OUTLINED_FUNCTION_366, symObjAddr: 0x3C8A4, symBinAddr: 0x3EDE4, symSize: 0xC }
  - { offset: 0x84ADB, size: 0x8, addend: 0x0, symName: _OUTLINED_FUNCTION_414, symObjAddr: 0x3CBA4, symBinAddr: 0x3F0E4, symSize: 0x8 }
  - { offset: 0x84AF2, size: 0x8, addend: 0x0, symName: _OUTLINED_FUNCTION_465, symObjAddr: 0x3CE24, symBinAddr: 0x3F364, symSize: 0x8 }
  - { offset: 0x84B09, size: 0x8, addend: 0x0, symName: _OUTLINED_FUNCTION_495, symObjAddr: 0x3D01C, symBinAddr: 0x3F55C, symSize: 0xC }
  - { offset: 0x84B20, size: 0x8, addend: 0x0, symName: _OUTLINED_FUNCTION_560, symObjAddr: 0x3D3A8, symBinAddr: 0x3F8E8, symSize: 0x8 }
  - { offset: 0x84B37, size: 0x8, addend: 0x0, symName: _OUTLINED_FUNCTION_567, symObjAddr: 0x3D3F4, symBinAddr: 0x3F934, symSize: 0xC }
  - { offset: 0x84B4E, size: 0x8, addend: 0x0, symName: _OUTLINED_FUNCTION_574, symObjAddr: 0x3D460, symBinAddr: 0x3F9A0, symSize: 0xC }
  - { offset: 0x84B65, size: 0x8, addend: 0x0, symName: _OUTLINED_FUNCTION_626, symObjAddr: 0x3D76C, symBinAddr: 0x3FCAC, symSize: 0x24 }
  - { offset: 0x84B7C, size: 0x8, addend: 0x0, symName: _OUTLINED_FUNCTION_669, symObjAddr: 0x3D9BC, symBinAddr: 0x3FEFC, symSize: 0x8 }
  - { offset: 0x84B93, size: 0x8, addend: 0x0, symName: _OUTLINED_FUNCTION_682, symObjAddr: 0x3DABC, symBinAddr: 0x3FFFC, symSize: 0xC }
  - { offset: 0x84BAA, size: 0x8, addend: 0x0, symName: _OUTLINED_FUNCTION_691, symObjAddr: 0x3DB3C, symBinAddr: 0x4007C, symSize: 0xC }
  - { offset: 0x84BC1, size: 0x8, addend: 0x0, symName: _OUTLINED_FUNCTION_695, symObjAddr: 0x3DB6C, symBinAddr: 0x400AC, symSize: 0xC }
  - { offset: 0x84BD8, size: 0x8, addend: 0x0, symName: _OUTLINED_FUNCTION_764, symObjAddr: 0x3DF48, symBinAddr: 0x40488, symSize: 0xC }
  - { offset: 0x84BEF, size: 0x8, addend: 0x0, symName: _OUTLINED_FUNCTION_765, symObjAddr: 0x3DF54, symBinAddr: 0x40494, symSize: 0xC }
  - { offset: 0x84C06, size: 0x8, addend: 0x0, symName: _OUTLINED_FUNCTION_848, symObjAddr: 0x3E38C, symBinAddr: 0x408CC, symSize: 0x10 }
  - { offset: 0x84C1D, size: 0x8, addend: 0x0, symName: _OUTLINED_FUNCTION_854, symObjAddr: 0x3E3EC, symBinAddr: 0x4092C, symSize: 0x10 }
  - { offset: 0x84C34, size: 0x8, addend: 0x0, symName: _OUTLINED_FUNCTION_1047, symObjAddr: 0x3ED3C, symBinAddr: 0x4127C, symSize: 0xC }
  - { offset: 0x84C4B, size: 0x8, addend: 0x0, symName: _OUTLINED_FUNCTION_1068, symObjAddr: 0x3EE04, symBinAddr: 0x41344, symSize: 0xC }
  - { offset: 0x84C62, size: 0x8, addend: 0x0, symName: _OUTLINED_FUNCTION_1079, symObjAddr: 0x3EE6C, symBinAddr: 0x413AC, symSize: 0x8 }
  - { offset: 0x84C79, size: 0x8, addend: 0x0, symName: _OUTLINED_FUNCTION_1120, symObjAddr: 0x3F064, symBinAddr: 0x415A4, symSize: 0xC }
  - { offset: 0x84C90, size: 0x8, addend: 0x0, symName: _OUTLINED_FUNCTION_1145, symObjAddr: 0x3F1E0, symBinAddr: 0x41720, symSize: 0xC }
  - { offset: 0x84CA7, size: 0x8, addend: 0x0, symName: _OUTLINED_FUNCTION_1149, symObjAddr: 0x3F218, symBinAddr: 0x41758, symSize: 0xC }
  - { offset: 0x84CBE, size: 0x8, addend: 0x0, symName: _OUTLINED_FUNCTION_1152, symObjAddr: 0x3F244, symBinAddr: 0x41784, symSize: 0xC }
  - { offset: 0x1BAE0A, size: 0x8, addend: 0x0, symName: __ZN3ryu6buffer6Buffer13format_finite17hb4f0ef0c124b9090E, symObjAddr: 0x397B8, symBinAddr: 0x3BD04, symSize: 0x24 }
  - { offset: 0x1BB312, size: 0x8, addend: 0x0, symName: '__ZN68_$LT$serde_json..number..Number$u20$as$u20$serde..ser..Serialize$GT$9serialize17h5ced010bf1f71312E', symObjAddr: 0x397DC, symBinAddr: 0x3BD28, symSize: 0xB0 }
  - { offset: 0x1BBB57, size: 0x8, addend: 0x0, symName: __ZN3ryu6buffer6Buffer13format_finite17hb4f0ef0c124b9090E, symObjAddr: 0x397B8, symBinAddr: 0x3BD04, symSize: 0x24 }
...
