---
triple:          'x86_64-apple-darwin'
binary-path:     './build/ios-arm64_x86_64-simulator/powersync-sqlite-core.framework/powersync-sqlite-core'
relocations:
  - { offset: 0x1E, size: 0x8, addend: 0x0, symName: _rust_eh_personality, symObjAddr: 0x0, symBinAddr: 0x650, symSize: 0x6 }
  - { offset: 0x30, size: 0x8, addend: 0x0, symName: _rust_eh_personality, symObjAddr: 0x0, symBinAddr: 0x650, symSize: 0x6 }
  - { offset: 0x4E, size: 0x8, addend: 0x0, symName: __RNvCsk8UOdKf0bkt_7___rustc14___rust_realloc, symObjAddr: 0x6, symBinAddr: 0x656, symSize: 0x4D }
  - { offset: 0x13B7D, size: 0x8, addend: 0x0, symName: '__ZN4core3f6421_$LT$impl$u20$f64$GT$8classify17hf9f97754a964aaa9E', symObjAddr: 0x3676, symBinAddr: 0x3BFE, symSize: 0x40 }
  - { offset: 0x13BB1, size: 0x8, addend: 0x0, symName: __ZN4core3num7flt2dec8strategy5grisu12CACHED_POW1017h5dbef7caa9cd4d86E, symObjAddr: 0x52718, symBinAddr: 0x50E40, symSize: 0x0 }
  - { offset: 0x14084, size: 0x8, addend: 0x0, symName: __ZN4core3num7flt2dec8strategy5grisu12cached_power17h004d90ce106cd15dE, symObjAddr: 0x36B6, symBinAddr: 0x3C3E, symSize: 0x4E }
  - { offset: 0x1414D, size: 0x8, addend: 0x0, symName: __ZN4core3num7flt2dec8strategy5grisu22max_pow10_no_more_than17hd89bc75b6b8f19d1E, symObjAddr: 0x37F3, symBinAddr: 0x3D7B, symSize: 0x87 }
  - { offset: 0x1417D, size: 0x8, addend: 0x0, symName: __ZN4core3num7flt2dec8strategy5grisu19format_shortest_opt14round_and_weed17h8b71a182386d0ceaE, symObjAddr: 0x3892, symBinAddr: 0x3E1A, symSize: 0xE9 }
  - { offset: 0x142BF, size: 0x8, addend: 0x0, symName: __ZN4core3num7flt2dec8strategy5grisu16format_exact_opt14possibly_round17h252cb90319a7358fE, symObjAddr: 0x397B, symBinAddr: 0x3F03, symSize: 0xE8 }
  - { offset: 0x1497E, size: 0x8, addend: 0x0, symName: '__ZN108_$LT$core..ops..range..RangeTo$LT$usize$GT$$u20$as$u20$core..slice..index..SliceIndex$LT$$u5b$T$u5d$$GT$$GT$9index_mut17hf9b6ff9ec3bad2bdE.237', symObjAddr: 0x387A, symBinAddr: 0x3E02, symSize: 0x18 }
  - { offset: 0x14B2A, size: 0x8, addend: 0x0, symName: '__ZN4core3f6421_$LT$impl$u20$f64$GT$8classify17hf9f97754a964aaa9E', symObjAddr: 0x3676, symBinAddr: 0x3BFE, symSize: 0x40 }
  - { offset: 0x14D07, size: 0x8, addend: 0x0, symName: __ZN4core3num9diy_float2Fp9normalize17ha98752829ce4b8a5E, symObjAddr: 0x3704, symBinAddr: 0x3C8C, symSize: 0x9B }
  - { offset: 0x14D63, size: 0x8, addend: 0x0, symName: __ZN4core3num9diy_float2Fp3mul17h9793407fb0e8d57eE, symObjAddr: 0x379F, symBinAddr: 0x3D27, symSize: 0x54 }
  - { offset: 0x8DA3C, size: 0x8, addend: 0x0, symName: '__ZN41_$LT$T$u20$as$u20$serde..de..Expected$GT$3fmt17h104720cb1c80287aE', symObjAddr: 0xE880, symBinAddr: 0xED90, symSize: 0x23 }
  - { offset: 0x8DAF9, size: 0x8, addend: 0x0, symName: '__ZN45_$LT$T$u20$as$u20$alloc..string..ToString$GT$9to_string17hb770b9b29690c518E', symObjAddr: 0x11763, symBinAddr: 0x11193, symSize: 0x1F1 }
  - { offset: 0x8E6FC, size: 0x8, addend: 0x0, symName: '__ZN5alloc5slice29_$LT$impl$u20$$u5b$T$u5d$$GT$11sort_by_key28_$u7b$$u7b$closure$u7d$$u7d$17h2dc47acc204630d3E', symObjAddr: 0xEAC7, symBinAddr: 0xEFD7, symSize: 0xA }
  - { offset: 0x8F1A9, size: 0x8, addend: 0x0, symName: '__ZN4core3ptr45drop_in_place$LT$serde_json..value..Value$GT$17hffe13944d8b49ee8E', symObjAddr: 0x116F1, symBinAddr: 0x11121, symSize: 0x5F }
  - { offset: 0x8F24B, size: 0x8, addend: 0x0, symName: '__ZN4core3ptr105drop_in_place$LT$core..option..Option$LT$$LP$alloc..string..String$C$serde_json..value..Value$RP$$GT$$GT$17hee6f84014627b402E', symObjAddr: 0x11750, symBinAddr: 0x11180, symSize: 0x13 }
  - { offset: 0x8F27A, size: 0x8, addend: 0x0, symName: '__ZN4core3ptr77drop_in_place$LT$$LP$alloc..string..String$C$serde_json..value..Value$RP$$GT$17hc398a714119cb2f0E', symObjAddr: 0x11954, symBinAddr: 0x11384, symSize: 0x20 }
  - { offset: 0x8F3C1, size: 0x8, addend: 0x0, symName: '__ZN4core3ptr57drop_in_place$LT$powersync_core..sync..line..SyncLine$GT$17hb0a49fffd0e44f3fE', symObjAddr: 0x11974, symBinAddr: 0x113A4, symSize: 0x9A }
  - { offset: 0x90163, size: 0x8, addend: 0x0, symName: '__ZN4core3cmp5impls70_$LT$impl$u20$core..cmp..PartialOrd$LT$$RF$B$GT$$u20$for$u20$$RF$A$GT$2lt17he70563b3a06e1396E', symObjAddr: 0xEB2B, symBinAddr: 0xF03B, symSize: 0xE }
  - { offset: 0x93B96, size: 0x8, addend: 0x0, symName: '__ZN108_$LT$core..ops..range..RangeTo$LT$usize$GT$$u20$as$u20$core..slice..index..SliceIndex$LT$$u5b$T$u5d$$GT$$GT$9index_mut17hab51168de31ecbb8E', symObjAddr: 0xEAD1, symBinAddr: 0xEFE1, symSize: 0x18 }
  - { offset: 0x93DB9, size: 0x8, addend: 0x0, symName: '__ZN110_$LT$core..ops..range..RangeFrom$LT$usize$GT$$u20$as$u20$core..slice..index..SliceIndex$LT$$u5b$T$u5d$$GT$$GT$9index_mut17hc4e227ed3eb149afE', symObjAddr: 0xF09C, symBinAddr: 0xF5AC, symSize: 0x1C }
  - { offset: 0x93EE4, size: 0x8, addend: 0x0, symName: '__ZN110_$LT$core..ops..range..RangeFrom$LT$usize$GT$$u20$as$u20$core..slice..index..SliceIndex$LT$$u5b$T$u5d$$GT$$GT$9index_mut17h7149af131b1f3bf3E', symObjAddr: 0xFADE, symBinAddr: 0xFFEE, symSize: 0x22 }
  - { offset: 0x94184, size: 0x8, addend: 0x0, symName: '__ZN4core5slice29_$LT$impl$u20$$u5b$T$u5d$$GT$7reverse17hd17fcf2938f7dc67E', symObjAddr: 0xEAE9, symBinAddr: 0xEFF9, symSize: 0x42 }
  - { offset: 0x94395, size: 0x8, addend: 0x0, symName: __ZN4core5slice4sort6stable5drift16stable_quicksort17h41041d3de32fd9e8E, symObjAddr: 0xEB47, symBinAddr: 0xF057, symSize: 0x23 }
  - { offset: 0x94496, size: 0x8, addend: 0x0, symName: __ZN4core5slice4sort6stable5drift16stable_quicksort17h7c40f664ad2049d6E, symObjAddr: 0xEB6A, symBinAddr: 0xF07A, symSize: 0x23 }
  - { offset: 0x94597, size: 0x8, addend: 0x0, symName: __ZN4core5slice4sort6stable5drift16stable_quicksort17h89359868e315a7d4E, symObjAddr: 0xEB8D, symBinAddr: 0xF09D, symSize: 0x23 }
  - { offset: 0x94698, size: 0x8, addend: 0x0, symName: __ZN4core5slice4sort6stable5drift16stable_quicksort17h95bcb92d0dfacc7bE, symObjAddr: 0xEBB0, symBinAddr: 0xF0C0, symSize: 0x23 }
  - { offset: 0x94982, size: 0x8, addend: 0x0, symName: __ZN4core5slice4sort6stable5drift4sort17h0356f5a27867b7cbE, symObjAddr: 0xEBD3, symBinAddr: 0xF0E3, symSize: 0x4C9 }
  - { offset: 0x954E9, size: 0x8, addend: 0x0, symName: __ZN4core5slice4sort6stable5drift4sort17h5e670d8901935908E, symObjAddr: 0xF0B8, symBinAddr: 0xF5C8, symSize: 0x4C9 }
  - { offset: 0x96050, size: 0x8, addend: 0x0, symName: __ZN4core5slice4sort6stable5drift4sort17hcdd581340b88e8deE, symObjAddr: 0xF581, symBinAddr: 0xFA91, symSize: 0x55D }
  - { offset: 0x96EA6, size: 0x8, addend: 0x0, symName: __ZN4core5slice4sort6stable5drift4sort17he5963f540b8963faE, symObjAddr: 0xFB00, symBinAddr: 0x10010, symSize: 0x4C9 }
  - { offset: 0x97B41, size: 0x8, addend: 0x0, symName: __ZN4core3ops8function5FnMut8call_mut17hc5def6d1461d2cd0E, symObjAddr: 0xEB39, symBinAddr: 0xF049, symSize: 0xE }
  - { offset: 0x98B0A, size: 0x8, addend: 0x0, symName: '__ZN189_$LT$powersync_core..sync..line.._..$LT$impl$u20$serde..de..Deserialize$u20$for$u20$powersync_core..sync..line..Checkpoint$GT$..deserialize..__FieldVisitor$u20$as$u20$serde..de..Visitor$GT$9visit_str17h31e87d3ee947a5b1E', symObjAddr: 0x159CE, symBinAddr: 0x153FE, symSize: 0xA1 }
  - { offset: 0x98CE3, size: 0x8, addend: 0x0, symName: '__ZN196_$LT$powersync_core..sync..line.._..$LT$impl$u20$serde..de..Deserialize$u20$for$u20$powersync_core..sync..line..StreamDescription$GT$..deserialize..__FieldVisitor$u20$as$u20$serde..de..Visitor$GT$9visit_str17h2c2801143da16cafE', symObjAddr: 0x15A6F, symBinAddr: 0x1549F, symSize: 0x82 }
  - { offset: 0x98E58, size: 0x8, addend: 0x0, symName: '__ZN202_$LT$powersync_core..sync..line.._..$LT$impl$u20$serde..de..Deserialize$u20$for$u20$powersync_core..sync..line..StreamSubscriptionError$GT$..deserialize..__FieldVisitor$u20$as$u20$serde..de..Visitor$GT$9visit_str17h1ddb7e93aa9da5e8E', symObjAddr: 0x15AF1, symBinAddr: 0x15521, symSize: 0x63 }
  - { offset: 0x98F69, size: 0x8, addend: 0x0, symName: '__ZN193_$LT$powersync_core..sync..line.._..$LT$impl$u20$serde..de..Deserialize$u20$for$u20$powersync_core..sync..line..CheckpointDiff$GT$..deserialize..__FieldVisitor$u20$as$u20$serde..de..Visitor$GT$9visit_str17hbd91ebe7e01b240fE', symObjAddr: 0x15B54, symBinAddr: 0x15584, symSize: 0xA1 }
  - { offset: 0x99142, size: 0x8, addend: 0x0, symName: '__ZN206_$LT$powersync_core..sync..line.._..$LT$impl$u20$serde..de..Deserialize$u20$for$u20$powersync_core..sync..line..CheckpointPartiallyComplete$GT$..deserialize..__FieldVisitor$u20$as$u20$serde..de..Visitor$GT$9visit_str17hfecbc692b102aad7E', symObjAddr: 0x15BF5, symBinAddr: 0x15625, symSize: 0x30 }
  - { offset: 0x991EF, size: 0x8, addend: 0x0, symName: '__ZN193_$LT$powersync_core..sync..line.._..$LT$impl$u20$serde..de..Deserialize$u20$for$u20$powersync_core..sync..line..BucketChecksum$GT$..deserialize..__FieldVisitor$u20$as$u20$serde..de..Visitor$GT$9visit_str17h2e7da9e0eb27ce9cE', symObjAddr: 0x15C25, symBinAddr: 0x15655, symSize: 0xC3 }
  - { offset: 0x99464, size: 0x8, addend: 0x0, symName: '__ZN187_$LT$powersync_core..sync..line.._..$LT$impl$u20$serde..de..Deserialize$u20$for$u20$powersync_core..sync..line..DataLine$GT$..deserialize..__FieldVisitor$u20$as$u20$serde..de..Visitor$GT$9visit_str17h064d7ac773a282d3E', symObjAddr: 0x164CE, symBinAddr: 0x15EFE, symSize: 0x63 }
  - { offset: 0x99577, size: 0x8, addend: 0x0, symName: '__ZN189_$LT$powersync_core..sync..line.._..$LT$impl$u20$serde..de..Deserialize$u20$for$u20$powersync_core..sync..line..OplogEntry$GT$..deserialize..__FieldVisitor$u20$as$u20$serde..de..Visitor$GT$9visit_str17h9f396cfc35a19a93E', symObjAddr: 0x16531, symBinAddr: 0x15F61, symSize: 0x107 }
  - { offset: 0x998C3, size: 0x8, addend: 0x0, symName: '__ZN185_$LT$powersync_core..sync..line.._..$LT$impl$u20$serde..de..Deserialize$u20$for$u20$powersync_core..sync..line..OpType$GT$..deserialize..__FieldVisitor$u20$as$u20$serde..de..Visitor$GT$9visit_str17h10c809b74e317235E', symObjAddr: 0x16ED0, symBinAddr: 0x16900, symSize: 0xB9 }
  - { offset: 0x99AA4, size: 0x8, addend: 0x0, symName: '__ZN185_$LT$powersync_core..sync..line.._..$LT$impl$u20$serde..de..Deserialize$u20$for$u20$powersync_core..sync..line..OpType$GT$..deserialize..__FieldVisitor$u20$as$u20$serde..de..Visitor$GT$11visit_bytes17h36295a0153d1d979E', symObjAddr: 0x16F89, symBinAddr: 0x169B9, symSize: 0x23F }
  - { offset: 0x9AE3F, size: 0x8, addend: 0x0, symName: '__ZN14powersync_core4sync4line1_91_$LT$impl$u20$serde..de..Deserialize$u20$for$u20$powersync_core..sync..line..Checkpoint$GT$11deserialize17h1c4bfb84d1cf1971E', symObjAddr: 0x15108, symBinAddr: 0x14B38, symSize: 0x8C6 }
  - { offset: 0x9B88A, size: 0x8, addend: 0x0, symName: '__ZN14powersync_core4sync4line1_89_$LT$impl$u20$serde..de..Deserialize$u20$for$u20$powersync_core..sync..line..DataLine$GT$11deserialize17hb95daa6b5a7947e6E', symObjAddr: 0x15CE8, symBinAddr: 0x15718, symSize: 0x7E6 }
  - { offset: 0x9BF1F, size: 0x8, addend: 0x0, symName: '__ZN14powersync_core4sync4line1_87_$LT$impl$u20$serde..de..Deserialize$u20$for$u20$powersync_core..sync..line..OpType$GT$11deserialize17ha0f4e1bbf23e0e0fE', symObjAddr: 0x16638, symBinAddr: 0x16068, symSize: 0x200 }
  - { offset: 0x9C1B4, size: 0x8, addend: 0x0, symName: '__ZN14powersync_core4sync4line1_87_$LT$impl$u20$serde..de..Deserialize$u20$for$u20$powersync_core..sync..line..OpType$GT$11deserialize17hb2f404d9603b9fa1E', symObjAddr: 0x16838, symBinAddr: 0x16268, symSize: 0x698 }
  - { offset: 0x9CC53, size: 0x8, addend: 0x0, symName: '__ZN99_$LT$powersync_core..sync..line..StreamSubscriptionErrorCause$u20$as$u20$serde..de..Deserialize$GT$11deserialize17h2769284be3ef0c91E', symObjAddr: 0x14C54, symBinAddr: 0x14684, symSize: 0x28C }
  - { offset: 0x9D06C, size: 0x8, addend: 0x0, symName: '__ZN99_$LT$powersync_core..sync..line..StreamSubscriptionErrorCause$u20$as$u20$serde..de..Deserialize$GT$11deserialize17h31e56fd62b4e7fcbE', symObjAddr: 0x14EE0, symBinAddr: 0x14910, symSize: 0x228 }
  - { offset: 0x9D963, size: 0x8, addend: 0x0, symName: '__ZN147_$LT$$LT$powersync_core..sync..line..SyncLine$u20$as$u20$serde..de..Deserialize$GT$..deserialize..SyncLineVisitor$u20$as$u20$serde..de..Visitor$GT$10visit_enum17he40a40bf5de86f72E', symObjAddr: 0x11A0E, symBinAddr: 0x1143E, symSize: 0x3246 }
  - { offset: 0xA2DBA, size: 0x8, addend: 0x0, symName: __ZN14powersync_core4diff14powersync_diff17hf7cc3d8d28d91593E, symObjAddr: 0x10AA9, symBinAddr: 0x104D9, symSize: 0xC03 }
  - { offset: 0xA486F, size: 0x8, addend: 0x0, symName: __ZN5serde2de7Visitor10visit_bool17h05804c19ce40b9d3E, symObjAddr: 0xFFC9, symBinAddr: 0x4E941, symSize: 0x39 }
  - { offset: 0xA48BF, size: 0x8, addend: 0x0, symName: __ZN5serde2de7Visitor11visit_bytes17h1a1bd964b13452c0E, symObjAddr: 0x10002, symBinAddr: 0x4E97A, symSize: 0x3D }
  - { offset: 0xA490F, size: 0x8, addend: 0x0, symName: __ZN5serde2de7Visitor11visit_bytes17h394000d4118ccc9fE, symObjAddr: 0x1003F, symBinAddr: 0x4E9B7, symSize: 0x3D }
  - { offset: 0xA495F, size: 0x8, addend: 0x0, symName: __ZN5serde2de7Visitor11visit_bytes17h748091a1a7dace15E, symObjAddr: 0x1007C, symBinAddr: 0x4E9F4, symSize: 0x3D }
  - { offset: 0xA49AF, size: 0x8, addend: 0x0, symName: __ZN5serde2de7Visitor11visit_bytes17h79a9226ffd0ec6b3E, symObjAddr: 0x100B9, symBinAddr: 0x4EA31, symSize: 0x3C }
  - { offset: 0xA49FF, size: 0x8, addend: 0x0, symName: __ZN5serde2de7Visitor11visit_bytes17h919d8a9b909a9699E, symObjAddr: 0x100F5, symBinAddr: 0x4EA6D, symSize: 0x3D }
  - { offset: 0xA4A4F, size: 0x8, addend: 0x0, symName: __ZN5serde2de7Visitor11visit_bytes17haca43e010800db7dE, symObjAddr: 0x10132, symBinAddr: 0x4EAAA, symSize: 0x39 }
  - { offset: 0xA4A9F, size: 0x8, addend: 0x0, symName: __ZN5serde2de7Visitor11visit_bytes17had455d2acfc789e3E, symObjAddr: 0x1016B, symBinAddr: 0x4EAE3, symSize: 0x3D }
  - { offset: 0xA4AEF, size: 0x8, addend: 0x0, symName: __ZN5serde2de7Visitor11visit_bytes17haf3cd0e0c7721304E, symObjAddr: 0x101A8, symBinAddr: 0x4EB20, symSize: 0x43 }
  - { offset: 0xA4B3F, size: 0x8, addend: 0x0, symName: __ZN5serde2de7Visitor11visit_bytes17hb2dff7968c65a0acE, symObjAddr: 0x101EB, symBinAddr: 0x4EB63, symSize: 0x3D }
  - { offset: 0xA4B8F, size: 0x8, addend: 0x0, symName: __ZN5serde2de7Visitor11visit_bytes17hc2257747cc5a1a7aE, symObjAddr: 0x10228, symBinAddr: 0x4EBA0, symSize: 0x43 }
  - { offset: 0xA4BDF, size: 0x8, addend: 0x0, symName: __ZN5serde2de7Visitor11visit_bytes17hc75ddef86ac804b0E, symObjAddr: 0x1026B, symBinAddr: 0x4EBE3, symSize: 0x30 }
  - { offset: 0xA4C2F, size: 0x8, addend: 0x0, symName: __ZN5serde2de7Visitor11visit_bytes17hd5190f2f8f251b7bE, symObjAddr: 0x1029B, symBinAddr: 0x4EC13, symSize: 0x3C }
  - { offset: 0xA4C7F, size: 0x8, addend: 0x0, symName: __ZN5serde2de7Visitor11visit_bytes17hd745735926f283fdE, symObjAddr: 0x102D7, symBinAddr: 0x4EC4F, symSize: 0x43 }
  - { offset: 0xA4CCF, size: 0x8, addend: 0x0, symName: __ZN5serde2de7Visitor9visit_i6417he65cfec1dcd64c78E, symObjAddr: 0x1031A, symBinAddr: 0x4EC92, symSize: 0x38 }
  - { offset: 0xA4D1F, size: 0x8, addend: 0x0, symName: __ZN5serde2de7Visitor9visit_i6417hd6fae559824b3dfbE, symObjAddr: 0x10352, symBinAddr: 0x4ECCA, symSize: 0x35 }
  - { offset: 0xA4D6F, size: 0x8, addend: 0x0, symName: __ZN5serde2de7Visitor9visit_i6417hca49577e2a851e52E, symObjAddr: 0x10387, symBinAddr: 0x4ECFF, symSize: 0x39 }
  - { offset: 0xA4DBF, size: 0x8, addend: 0x0, symName: __ZN5serde2de7Visitor9visit_i6417hdb8a972b2e8c3649E, symObjAddr: 0x103C0, symBinAddr: 0x4ED38, symSize: 0x3F }
  - { offset: 0xA4E0F, size: 0x8, addend: 0x0, symName: __ZN5serde2de7Visitor9visit_i6417h5f1ffd9bd66ed9adE, symObjAddr: 0x103FF, symBinAddr: 0x4ED77, symSize: 0x39 }
  - { offset: 0xA4E5F, size: 0x8, addend: 0x0, symName: __ZN5serde2de7Visitor9visit_i6417h19a8944e006fcfb5E, symObjAddr: 0x10438, symBinAddr: 0x4EDB0, symSize: 0x35 }
  - { offset: 0xA4EAF, size: 0x8, addend: 0x0, symName: __ZN5serde2de7Visitor9visit_i6417hc7ff4f2010bced82E, symObjAddr: 0x1046D, symBinAddr: 0x4EDE5, symSize: 0x35 }
  - { offset: 0xA4EFF, size: 0x8, addend: 0x0, symName: __ZN5serde2de7Visitor9visit_i6417h390fdbbacc30879bE, symObjAddr: 0x104A2, symBinAddr: 0x4EE1A, symSize: 0x35 }
  - { offset: 0xA4F4F, size: 0x8, addend: 0x0, symName: __ZN5serde2de7Visitor9visit_i6417h86b29ccde7124524E, symObjAddr: 0x104D7, symBinAddr: 0x4EE4F, symSize: 0x39 }
  - { offset: 0xA4F9F, size: 0x8, addend: 0x0, symName: __ZN5serde2de7Visitor9visit_i6417hcf1c5d328f85ea99E, symObjAddr: 0x10510, symBinAddr: 0x4EE88, symSize: 0x3F }
  - { offset: 0xA4FEF, size: 0x8, addend: 0x0, symName: __ZN5serde2de7Visitor9visit_i6417h093ef63a6d2bfe12E, symObjAddr: 0x1054F, symBinAddr: 0x4EEC7, symSize: 0x35 }
  - { offset: 0xA503F, size: 0x8, addend: 0x0, symName: __ZN5serde2de7Visitor9visit_i6417h7b55f07a88a8b384E, symObjAddr: 0x10584, symBinAddr: 0x4EEFC, symSize: 0x38 }
  - { offset: 0xA508F, size: 0x8, addend: 0x0, symName: __ZN5serde2de7Visitor9visit_i6417h7c7400fd0d6e47c8E, symObjAddr: 0x105BC, symBinAddr: 0x4EF34, symSize: 0x35 }
  - { offset: 0xA50DF, size: 0x8, addend: 0x0, symName: __ZN5serde2de7Visitor9visit_i6417hdc21c6fad4e9ad17E, symObjAddr: 0x105F1, symBinAddr: 0x4EF69, symSize: 0x2C }
  - { offset: 0xA512F, size: 0x8, addend: 0x0, symName: __ZN5serde2de7Visitor9visit_i6417h782a3c53dc650bfdE, symObjAddr: 0x1061D, symBinAddr: 0x4EF95, symSize: 0x35 }
  - { offset: 0xA517F, size: 0x8, addend: 0x0, symName: __ZN5serde2de7Visitor9visit_i6417h35fe2d5a31acc977E, symObjAddr: 0x10652, symBinAddr: 0x4EFCA, symSize: 0x39 }
  - { offset: 0xA51CF, size: 0x8, addend: 0x0, symName: __ZN5serde2de7Visitor9visit_i6417h4d846f21d7542cd2E, symObjAddr: 0x1068B, symBinAddr: 0x4F003, symSize: 0x3F }
  - { offset: 0xA521F, size: 0x8, addend: 0x0, symName: __ZN5serde2de7Visitor9visit_i6417h951b2e7141d5ad00E, symObjAddr: 0x106CA, symBinAddr: 0x4F042, symSize: 0x35 }
  - { offset: 0xA526F, size: 0x8, addend: 0x0, symName: __ZN5serde2de7Visitor9visit_i6417hd56771899ecdfa14E, symObjAddr: 0x106FF, symBinAddr: 0x4F077, symSize: 0x2C }
  - { offset: 0xA52BF, size: 0x8, addend: 0x0, symName: __ZN5serde2de7Visitor9visit_i6417ha624770c13165fceE, symObjAddr: 0x1072B, symBinAddr: 0x4F0A3, symSize: 0x35 }
  - { offset: 0xA530F, size: 0x8, addend: 0x0, symName: __ZN5serde2de7Visitor9visit_i6417hbec758972e57dea1E, symObjAddr: 0x10760, symBinAddr: 0x4F0D8, symSize: 0x39 }
  - { offset: 0xA535F, size: 0x8, addend: 0x0, symName: __ZN5serde2de7Visitor9visit_i6417h221f0abe33f263a9E, symObjAddr: 0x10799, symBinAddr: 0x4F111, symSize: 0x35 }
  - { offset: 0xA53B0, size: 0x8, addend: 0x0, symName: __ZN5serde2de7Visitor9visit_str17h1bf94b01c08750d1E, symObjAddr: 0x107CE, symBinAddr: 0x4F146, symSize: 0x3D }
  - { offset: 0xA5400, size: 0x8, addend: 0x0, symName: __ZN5serde2de7Visitor9visit_str17h2125ea688ae1eeb7E, symObjAddr: 0x1080B, symBinAddr: 0x4F183, symSize: 0x3C }
  - { offset: 0xA5450, size: 0x8, addend: 0x0, symName: __ZN5serde2de7Visitor9visit_str17h3c6995ac260238edE, symObjAddr: 0x10847, symBinAddr: 0x4F1BF, symSize: 0x30 }
  - { offset: 0xA54A0, size: 0x8, addend: 0x0, symName: __ZN5serde2de7Visitor9visit_str17h5cd1020d5725c47cE, symObjAddr: 0x10877, symBinAddr: 0x4F1EF, symSize: 0x43 }
  - { offset: 0xA54F0, size: 0x8, addend: 0x0, symName: __ZN5serde2de7Visitor9visit_str17h65ffc1d7e68b1c3eE, symObjAddr: 0x108BA, symBinAddr: 0x4F232, symSize: 0x43 }
  - { offset: 0xA5540, size: 0x8, addend: 0x0, symName: __ZN5serde2de7Visitor9visit_str17h6797af599dde93a2E, symObjAddr: 0x108FD, symBinAddr: 0x4F275, symSize: 0x3D }
  - { offset: 0xA5590, size: 0x8, addend: 0x0, symName: __ZN5serde2de7Visitor9visit_str17h695631ce7ce6b41bE, symObjAddr: 0x1093A, symBinAddr: 0x4F2B2, symSize: 0x3C }
  - { offset: 0xA55E0, size: 0x8, addend: 0x0, symName: __ZN5serde2de7Visitor9visit_str17h84cd4a5276673c51E, symObjAddr: 0x10976, symBinAddr: 0x4F2EE, symSize: 0x3D }
  - { offset: 0xA5630, size: 0x8, addend: 0x0, symName: __ZN5serde2de7Visitor9visit_str17h85d5d2aefc75f6e9E, symObjAddr: 0x109B3, symBinAddr: 0x4F32B, symSize: 0x3D }
  - { offset: 0xA5680, size: 0x8, addend: 0x0, symName: __ZN5serde2de7Visitor9visit_str17h87a67306a1c5a51dE, symObjAddr: 0x109F0, symBinAddr: 0x4F368, symSize: 0x39 }
  - { offset: 0xA56D0, size: 0x8, addend: 0x0, symName: __ZN5serde2de7Visitor9visit_str17ha29a0b0f7c0a4763E, symObjAddr: 0x10A29, symBinAddr: 0x4F3A1, symSize: 0x3D }
  - { offset: 0xA5720, size: 0x8, addend: 0x0, symName: __ZN5serde2de7Visitor9visit_str17hac634b6a5c92bd70E, symObjAddr: 0x10A66, symBinAddr: 0x4F3DE, symSize: 0x43 }
  - { offset: 0xA74D2, size: 0x8, addend: 0x0, symName: '__ZN41_$LT$T$u20$as$u20$serde..de..Expected$GT$3fmt17h104720cb1c80287aE', symObjAddr: 0xE880, symBinAddr: 0xED90, symSize: 0x23 }
  - { offset: 0xA754B, size: 0x8, addend: 0x0, symName: '__ZN41_$LT$T$u20$as$u20$serde..de..Expected$GT$3fmt17h1ac3a25545bc327fE', symObjAddr: 0xE8A3, symBinAddr: 0xEDB3, symSize: 0x23 }
  - { offset: 0xA75C3, size: 0x8, addend: 0x0, symName: '__ZN41_$LT$T$u20$as$u20$serde..de..Expected$GT$3fmt17h236f76b0b338924aE', symObjAddr: 0xE8C6, symBinAddr: 0xEDD6, symSize: 0x23 }
  - { offset: 0xA763B, size: 0x8, addend: 0x0, symName: '__ZN41_$LT$T$u20$as$u20$serde..de..Expected$GT$3fmt17h2c7e363cf72ba36aE', symObjAddr: 0xE8E9, symBinAddr: 0xEDF9, symSize: 0x23 }
  - { offset: 0xA76B3, size: 0x8, addend: 0x0, symName: '__ZN41_$LT$T$u20$as$u20$serde..de..Expected$GT$3fmt17h3b6aab0b815e5bf1E', symObjAddr: 0xE90C, symBinAddr: 0xEE1C, symSize: 0x23 }
  - { offset: 0xA772C, size: 0x8, addend: 0x0, symName: '__ZN41_$LT$T$u20$as$u20$serde..de..Expected$GT$3fmt17h4b2316c13e96bad3E', symObjAddr: 0xE92F, symBinAddr: 0xEE3F, symSize: 0x42 }
  - { offset: 0xA77A4, size: 0x8, addend: 0x0, symName: '__ZN41_$LT$T$u20$as$u20$serde..de..Expected$GT$3fmt17h9864cb72c777e4f9E', symObjAddr: 0xE971, symBinAddr: 0xEE81, symSize: 0x23 }
  - { offset: 0xA781C, size: 0x8, addend: 0x0, symName: '__ZN41_$LT$T$u20$as$u20$serde..de..Expected$GT$3fmt17had98ec60c9fba382E', symObjAddr: 0xE994, symBinAddr: 0xEEA4, symSize: 0x23 }
  - { offset: 0xA7894, size: 0x8, addend: 0x0, symName: '__ZN41_$LT$T$u20$as$u20$serde..de..Expected$GT$3fmt17hb0cb1192e06a5247E', symObjAddr: 0xE9B7, symBinAddr: 0xEEC7, symSize: 0x23 }
  - { offset: 0xA790C, size: 0x8, addend: 0x0, symName: '__ZN41_$LT$T$u20$as$u20$serde..de..Expected$GT$3fmt17hb6c5446a3e9f86ebE', symObjAddr: 0xE9DA, symBinAddr: 0xEEEA, symSize: 0x42 }
  - { offset: 0xA7984, size: 0x8, addend: 0x0, symName: '__ZN41_$LT$T$u20$as$u20$serde..de..Expected$GT$3fmt17hbbb610053eed7345E', symObjAddr: 0xEA1C, symBinAddr: 0xEF2C, symSize: 0x42 }
  - { offset: 0xA79FC, size: 0x8, addend: 0x0, symName: '__ZN41_$LT$T$u20$as$u20$serde..de..Expected$GT$3fmt17hd0aeb478e97a880fE', symObjAddr: 0xEA5E, symBinAddr: 0xEF6E, symSize: 0x23 }
  - { offset: 0xA7A74, size: 0x8, addend: 0x0, symName: '__ZN41_$LT$T$u20$as$u20$serde..de..Expected$GT$3fmt17he42395303fb2f223E', symObjAddr: 0xEA81, symBinAddr: 0xEF91, symSize: 0x23 }
  - { offset: 0xA7AEC, size: 0x8, addend: 0x0, symName: '__ZN41_$LT$T$u20$as$u20$serde..de..Expected$GT$3fmt17heddbc4b685c78837E', symObjAddr: 0xEAA4, symBinAddr: 0xEFB4, symSize: 0x23 }
  - { offset: 0xA9741, size: 0x8, addend: 0x0, symName: '__ZN4core6result19Result$LT$T$C$E$GT$7map_err17h37d98f89267fcc26E', symObjAddr: 0x116AC, symBinAddr: 0x110DC, symSize: 0x45 }
  - { offset: 0x1B4F9, size: 0x8, addend: 0x0, symName: __ZN4core5slice6memchr14memchr_aligned17h749be353b574de0bE, symObjAddr: 0x4441, symBinAddr: 0x49AD, symSize: 0xB9 }
  - { offset: 0x1B54D, size: 0x8, addend: 0x0, symName: __ZN4core7unicode9printable5check17h38f5df7a50ca5046E, symObjAddr: 0x468A, symBinAddr: 0x4BEE, symSize: 0xCB }
  - { offset: 0x1BF75, size: 0x8, addend: 0x0, symName: __ZN4core5slice6memchr14memchr_aligned17h749be353b574de0bE, symObjAddr: 0x4441, symBinAddr: 0x49AD, symSize: 0xB9 }
  - { offset: 0x1C1C4, size: 0x8, addend: 0x0, symName: __ZN4core5slice6memchr12memchr_naive17h4f83c335f5e01683E, symObjAddr: 0x44FA, symBinAddr: 0x4A66, symSize: 0x29 }
  - { offset: 0x1C585, size: 0x8, addend: 0x0, symName: __ZN4core3str16slice_error_fail17h6e212a5126a18551E, symObjAddr: 0x4523, symBinAddr: 0x4E8DF, symSize: 0x9 }
  - { offset: 0x1C62F, size: 0x8, addend: 0x0, symName: '__ZN4core3str21_$LT$impl$u20$str$GT$19floor_char_boundary17hba30474a66e8068cE', symObjAddr: 0x462B, symBinAddr: 0x4B8F, symSize: 0x49 }
  - { offset: 0x1C820, size: 0x8, addend: 0x0, symName: '__ZN4core3str21_$LT$impl$u20$str$GT$9ends_with17h10f5c4da3406a0ddE', symObjAddr: 0x4674, symBinAddr: 0x4BD8, symSize: 0x16 }
  - { offset: 0x1CC06, size: 0x8, addend: 0x0, symName: __ZN4core3str19slice_error_fail_rt17h40728903d9e9a861E, symObjAddr: 0x452C, symBinAddr: 0x4A90, symSize: 0xFF }
  - { offset: 0x1F33, size: 0x8, addend: 0x0, symName: '__ZN42_$LT$$RF$T$u20$as$u20$core..fmt..Debug$GT$3fmt17h088eb809d2958cb3E', symObjAddr: 0x191, symBinAddr: 0x7E1, symSize: 0x1B6 }
  - { offset: 0x1F57, size: 0x8, addend: 0x0, symName: '__ZN42_$LT$$RF$T$u20$as$u20$core..fmt..Debug$GT$3fmt17h088eb809d2958cb3E', symObjAddr: 0x191, symBinAddr: 0x7E1, symSize: 0x1B6 }
  - { offset: 0x2F86, size: 0x8, addend: 0x0, symName: '__ZN132_$LT$alloc..vec..Vec$LT$T$C$A$GT$$u20$as$u20$alloc..vec..spec_extend..SpecExtend$LT$$RF$T$C$core..slice..iter..Iter$LT$T$GT$$GT$$GT$11spec_extend17h603b0263218721d6E', symObjAddr: 0x439, symBinAddr: 0xA89, symSize: 0x45 }
  - { offset: 0x3525, size: 0x8, addend: 0x0, symName: __ZN5alloc3fmt6format12format_inner17h8394067148ea51baE, symObjAddr: 0x347, symBinAddr: 0x997, symSize: 0xA6 }
  - { offset: 0x37D9, size: 0x8, addend: 0x0, symName: '__ZN5alloc5slice29_$LT$impl$u20$$u5b$T$u5d$$GT$9to_vec_in17h5e695f502620defbE', symObjAddr: 0x4A9, symBinAddr: 0xAF9, symSize: 0x5D }
  - { offset: 0x3C4F, size: 0x8, addend: 0x0, symName: '__ZN5alloc3vec16Vec$LT$T$C$A$GT$16with_capacity_in17hd311713b3a2e8057E', symObjAddr: 0x3ED, symBinAddr: 0xA3D, symSize: 0x4C }
  - { offset: 0x3EF7, size: 0x8, addend: 0x0, symName: '__ZN5alloc3vec16Vec$LT$T$C$A$GT$7reserve17hc0fed1f52c64e981E', symObjAddr: 0x47E, symBinAddr: 0xACE, symSize: 0x2B }
  - { offset: 0x41AB, size: 0x8, addend: 0x0, symName: '__ZN5alloc3vec16Vec$LT$T$C$A$GT$16into_boxed_slice17hc3f6d63923bfb311E', symObjAddr: 0x506, symBinAddr: 0xB56, symSize: 0x5A }
  - { offset: 0x14FD1, size: 0x8, addend: 0x0, symName: '__ZN62_$LT$core..char..EscapeDebug$u20$as$u20$core..fmt..Display$GT$3fmt17he38351b8bc8100feE', symObjAddr: 0x3A63, symBinAddr: 0x3FEB, symSize: 0x3E }
  - { offset: 0x15091, size: 0x8, addend: 0x0, symName: '__ZN62_$LT$core..char..EscapeDebug$u20$as$u20$core..fmt..Display$GT$3fmt17he38351b8bc8100feE', symObjAddr: 0x3A63, symBinAddr: 0x3FEB, symSize: 0x3E }
  - { offset: 0x1572A, size: 0x8, addend: 0x0, symName: __ZN4core5slice4sort6stable5drift11sqrt_approx17h7526c7cec11aaf80E, symObjAddr: 0x3AA1, symBinAddr: 0x4029, symSize: 0x2B }
  - { offset: 0x21056, size: 0x8, addend: 0x0, symName: '__ZN5alloc11collections5btree4node125NodeRef$LT$alloc..collections..btree..node..marker..Mut$C$K$C$V$C$alloc..collections..btree..node..marker..LeafOrInternal$GT$16choose_parent_kv17h58f341010edf2d5cE', symObjAddr: 0x4D28, symBinAddr: 0x5284, symSize: 0x8F }
  - { offset: 0x28FF5, size: 0x8, addend: 0x0, symName: '__ZN4core4iter5range110_$LT$impl$u20$core..iter..traits..iterator..Iterator$u20$for$u20$core..ops..range..RangeInclusive$LT$A$GT$$GT$4next17h9f8ea3da01a9a2f9E', symObjAddr: 0x662F, symBinAddr: 0x6B8B, symSize: 0x32 }
  - { offset: 0x292EF, size: 0x8, addend: 0x0, symName: '__ZN4core5array88_$LT$impl$u20$core..ops..index..IndexMut$LT$I$GT$$u20$for$u20$$u5b$T$u3b$$u20$N$u5d$$GT$9index_mut17h165a2f6eb1bd45baE', symObjAddr: 0x6BF6, symBinAddr: 0x7152, symSize: 0x1F }
  - { offset: 0x293B0, size: 0x8, addend: 0x0, symName: '__ZN4core5array88_$LT$impl$u20$core..ops..index..IndexMut$LT$I$GT$$u20$for$u20$$u5b$T$u3b$$u20$N$u5d$$GT$9index_mut17had11806630ff9d5fE', symObjAddr: 0x6C15, symBinAddr: 0x7171, symSize: 0x1F }
  - { offset: 0x29471, size: 0x8, addend: 0x0, symName: '__ZN4core5array88_$LT$impl$u20$core..ops..index..IndexMut$LT$I$GT$$u20$for$u20$$u5b$T$u3b$$u20$N$u5d$$GT$9index_mut17h15d286798044b410E', symObjAddr: 0x6C34, symBinAddr: 0x7190, symSize: 0x16 }
  - { offset: 0x2952E, size: 0x8, addend: 0x0, symName: '__ZN4core5array88_$LT$impl$u20$core..ops..index..IndexMut$LT$I$GT$$u20$for$u20$$u5b$T$u3b$$u20$N$u5d$$GT$9index_mut17h3868effad609a1dcE', symObjAddr: 0x6C4A, symBinAddr: 0x71A6, symSize: 0x1F }
  - { offset: 0x2B3B7, size: 0x8, addend: 0x0, symName: __ZN5alloc11collections5btree4node13move_to_slice17h7f4798e12821d508E, symObjAddr: 0x52EC, symBinAddr: 0x5848, symSize: 0x12 }
  - { offset: 0x2D68D, size: 0x8, addend: 0x0, symName: __ZN5alloc11collections5btree4node13move_to_slice17h7360be01a61ec494E, symObjAddr: 0x6394, symBinAddr: 0x68F0, symSize: 0x26 }
  - { offset: 0x2D702, size: 0x8, addend: 0x0, symName: __ZN5alloc11collections5btree4node13move_to_slice17h67323505378ab1f6E, symObjAddr: 0x63BA, symBinAddr: 0x6916, symSize: 0x26 }
  - { offset: 0x2F7E1, size: 0x8, addend: 0x0, symName: __ZN5alloc11collections5btree4node12slice_insert17h3f22929121bdf6ccE, symObjAddr: 0x6AA6, symBinAddr: 0x7002, symSize: 0x5C }
  - { offset: 0x2F933, size: 0x8, addend: 0x0, symName: __ZN5alloc11collections5btree4node12slice_insert17h7af4102dc35eddf3E, symObjAddr: 0x6B02, symBinAddr: 0x705E, symSize: 0x5C }
  - { offset: 0x2FA8B, size: 0x8, addend: 0x0, symName: __ZN5alloc11collections5btree4node13move_to_slice17h224c6f4c5890ac00E, symObjAddr: 0x6B5E, symBinAddr: 0x70BA, symSize: 0x26 }
  - { offset: 0x2FAFE, size: 0x8, addend: 0x0, symName: __ZN5alloc11collections5btree4node13move_to_slice17h36646705bc90edb3E, symObjAddr: 0x6B84, symBinAddr: 0x70E0, symSize: 0x26 }
  - { offset: 0x2FB71, size: 0x8, addend: 0x0, symName: __ZN5alloc11collections5btree4node13move_to_slice17h6ffec6067511d956E, symObjAddr: 0x6BAA, symBinAddr: 0x7106, symSize: 0x26 }
  - { offset: 0x2FBE4, size: 0x8, addend: 0x0, symName: __ZN5alloc11collections5btree4node13move_to_slice17hea92d95012b90b1eE, symObjAddr: 0x6BD0, symBinAddr: 0x712C, symSize: 0x26 }
  - { offset: 0x39E19, size: 0x8, addend: 0x0, symName: '__ZN5alloc11collections5btree4node125NodeRef$LT$alloc..collections..btree..node..marker..Mut$C$K$C$V$C$alloc..collections..btree..node..marker..LeafOrInternal$GT$16choose_parent_kv17h58f341010edf2d5cE', symObjAddr: 0x4D28, symBinAddr: 0x5284, symSize: 0x8F }
  - { offset: 0x39E40, size: 0x8, addend: 0x0, symName: '__ZN5alloc11collections5btree4node125NodeRef$LT$alloc..collections..btree..node..marker..Mut$C$K$C$V$C$alloc..collections..btree..node..marker..LeafOrInternal$GT$16choose_parent_kv17h58f341010edf2d5cE', symObjAddr: 0x4D28, symBinAddr: 0x5284, symSize: 0x8F }
  - { offset: 0x39E5A, size: 0x8, addend: 0x0, symName: '__ZN5alloc11collections5btree4node125NodeRef$LT$alloc..collections..btree..node..marker..Mut$C$K$C$V$C$alloc..collections..btree..node..marker..LeafOrInternal$GT$16choose_parent_kv17h58f341010edf2d5cE', symObjAddr: 0x4D28, symBinAddr: 0x5284, symSize: 0x8F }
  - { offset: 0x3A54F, size: 0x8, addend: 0x0, symName: '__ZN5alloc11collections5btree4node29BalancingContext$LT$K$C$V$GT$15bulk_steal_left17h10fdfbcef155c777E', symObjAddr: 0x4DB7, symBinAddr: 0x5313, symSize: 0x1C9 }
  - { offset: 0x3AC67, size: 0x8, addend: 0x0, symName: '__ZN5alloc11collections5btree4node29BalancingContext$LT$K$C$V$GT$8do_merge17h1f670e3d59719cc3E', symObjAddr: 0x4F80, symBinAddr: 0x54DC, symSize: 0x1A3 }
  - { offset: 0x3B31C, size: 0x8, addend: 0x0, symName: '__ZN5alloc11collections5btree4node29BalancingContext$LT$K$C$V$GT$16bulk_steal_right17h056568e38141c40eE', symObjAddr: 0x5123, symBinAddr: 0x567F, symSize: 0x1C9 }
  - { offset: 0x3BA58, size: 0x8, addend: 0x0, symName: '__ZN5alloc11collections5btree4node119NodeRef$LT$alloc..collections..btree..node..marker..Mut$C$K$C$V$C$alloc..collections..btree..node..marker..Internal$GT$30correct_childrens_parent_links17h5570e6089c800a8eE', symObjAddr: 0x52FE, symBinAddr: 0x585A, symSize: 0x22 }
  - { offset: 0x3BF68, size: 0x8, addend: 0x0, symName: '__ZN5alloc11collections5btree4node125NodeRef$LT$alloc..collections..btree..node..marker..Mut$C$K$C$V$C$alloc..collections..btree..node..marker..LeafOrInternal$GT$16choose_parent_kv17h48e8fbff72a5353aE', symObjAddr: 0x5320, symBinAddr: 0x587C, symSize: 0x9E }
  - { offset: 0x3BF8F, size: 0x8, addend: 0x0, symName: '__ZN5alloc11collections5btree4node125NodeRef$LT$alloc..collections..btree..node..marker..Mut$C$K$C$V$C$alloc..collections..btree..node..marker..LeafOrInternal$GT$16choose_parent_kv17h48e8fbff72a5353aE', symObjAddr: 0x5320, symBinAddr: 0x587C, symSize: 0x9E }
  - { offset: 0x3BFA9, size: 0x8, addend: 0x0, symName: '__ZN5alloc11collections5btree4node125NodeRef$LT$alloc..collections..btree..node..marker..Mut$C$K$C$V$C$alloc..collections..btree..node..marker..LeafOrInternal$GT$16choose_parent_kv17h48e8fbff72a5353aE', symObjAddr: 0x5320, symBinAddr: 0x587C, symSize: 0x9E }
  - { offset: 0x3C4E2, size: 0x8, addend: 0x0, symName: '__ZN5alloc11collections5btree4node29BalancingContext$LT$K$C$V$GT$15bulk_steal_left17h5ed59eb3aa06d7daE', symObjAddr: 0x53BE, symBinAddr: 0x591A, symSize: 0x289 }
  - { offset: 0x3CDBF, size: 0x8, addend: 0x0, symName: '__ZN5alloc11collections5btree4node29BalancingContext$LT$K$C$V$GT$8do_merge17h1b4b9e776df56728E', symObjAddr: 0x5647, symBinAddr: 0x5BA3, symSize: 0x24C }
  - { offset: 0x3D773, size: 0x8, addend: 0x0, symName: '__ZN5alloc11collections5btree4node29BalancingContext$LT$K$C$V$GT$16bulk_steal_right17h76f9f864bb88a3bcE', symObjAddr: 0x5893, symBinAddr: 0x5DEF, symSize: 0x272 }
  - { offset: 0x3E0AB, size: 0x8, addend: 0x0, symName: '__ZN5alloc11collections5btree4node171Handle$LT$alloc..collections..btree..node..NodeRef$LT$alloc..collections..btree..node..marker..Mut$C$K$C$V$C$NodeType$GT$$C$alloc..collections..btree..node..marker..KV$GT$10replace_kv17h26939d9da4899a80E', symObjAddr: 0x5B05, symBinAddr: 0x6061, symSize: 0x99 }
  - { offset: 0x3E76A, size: 0x8, addend: 0x0, symName: '__ZN5alloc11collections5btree4node125NodeRef$LT$alloc..collections..btree..node..marker..Mut$C$K$C$V$C$alloc..collections..btree..node..marker..LeafOrInternal$GT$16choose_parent_kv17hc858b9087aedae77E', symObjAddr: 0x5B9E, symBinAddr: 0x60FA, symSize: 0x8F }
  - { offset: 0x3E791, size: 0x8, addend: 0x0, symName: '__ZN5alloc11collections5btree4node125NodeRef$LT$alloc..collections..btree..node..marker..Mut$C$K$C$V$C$alloc..collections..btree..node..marker..LeafOrInternal$GT$16choose_parent_kv17hc858b9087aedae77E', symObjAddr: 0x5B9E, symBinAddr: 0x60FA, symSize: 0x8F }
  - { offset: 0x3E7AB, size: 0x8, addend: 0x0, symName: '__ZN5alloc11collections5btree4node125NodeRef$LT$alloc..collections..btree..node..marker..Mut$C$K$C$V$C$alloc..collections..btree..node..marker..LeafOrInternal$GT$16choose_parent_kv17hc858b9087aedae77E', symObjAddr: 0x5B9E, symBinAddr: 0x60FA, symSize: 0x8F }
  - { offset: 0x3EF8F, size: 0x8, addend: 0x0, symName: '__ZN5alloc11collections5btree4node29BalancingContext$LT$K$C$V$GT$15bulk_steal_left17hd594df72cbd3e087E', symObjAddr: 0x5C2D, symBinAddr: 0x6189, symSize: 0x2AF }
  - { offset: 0x3FACC, size: 0x8, addend: 0x0, symName: '__ZN5alloc11collections5btree4node29BalancingContext$LT$K$C$V$GT$8do_merge17hfdb47ba2811f0aa4E', symObjAddr: 0x5EDC, symBinAddr: 0x6438, symSize: 0x21D }
  - { offset: 0x40479, size: 0x8, addend: 0x0, symName: '__ZN5alloc11collections5btree4node29BalancingContext$LT$K$C$V$GT$16bulk_steal_right17h9e203b4177078efaE', symObjAddr: 0x60F9, symBinAddr: 0x6655, symSize: 0x29B }
  - { offset: 0x40F1D, size: 0x8, addend: 0x0, symName: '__ZN5alloc11collections5btree4node119NodeRef$LT$alloc..collections..btree..node..marker..Mut$C$K$C$V$C$alloc..collections..btree..node..marker..Internal$GT$30correct_childrens_parent_links17hb9c594ef740e4091E', symObjAddr: 0x63E0, symBinAddr: 0x693C, symSize: 0x22 }
  - { offset: 0x4128C, size: 0x8, addend: 0x0, symName: '__ZN5alloc11collections5btree3fix176_$LT$impl$u20$alloc..collections..btree..node..NodeRef$LT$alloc..collections..btree..node..marker..Mut$C$K$C$V$C$alloc..collections..btree..node..marker..LeafOrInternal$GT$$GT$31fix_node_and_affected_ancestors17haae160c8e3921d7fE', symObjAddr: 0x6402, symBinAddr: 0x695E, symSize: 0xB7 }
  - { offset: 0x41440, size: 0x8, addend: 0x0, symName: '__ZN5alloc11collections5btree4node115NodeRef$LT$alloc..collections..btree..node..marker..Mut$C$K$C$V$C$alloc..collections..btree..node..marker..Leaf$GT$16push_with_handle17h5b41f475051b2027E', symObjAddr: 0x64B9, symBinAddr: 0x6A15, symSize: 0x6D }
  - { offset: 0x416ED, size: 0x8, addend: 0x0, symName: '__ZN5alloc11collections5btree4node115NodeRef$LT$alloc..collections..btree..node..marker..Mut$C$K$C$V$C$alloc..collections..btree..node..marker..Leaf$GT$16push_with_handle17he00b4d473078f9d2E', symObjAddr: 0x6526, symBinAddr: 0x6A82, symSize: 0x4F }
  - { offset: 0x418E5, size: 0x8, addend: 0x0, symName: '__ZN5alloc11collections5btree4node21LeafNode$LT$K$C$V$GT$3new17hf687fd11f5b05cefE', symObjAddr: 0x6575, symBinAddr: 0x6AD1, symSize: 0x2A }
  - { offset: 0x41AB0, size: 0x8, addend: 0x0, symName: '__ZN5alloc11collections5btree4node117NodeRef$LT$alloc..collections..btree..node..marker..Owned$C$K$C$V$C$alloc..collections..btree..node..marker..Leaf$GT$8new_leaf17h8f272e3fb849c643E', symObjAddr: 0x659F, symBinAddr: 0x6AFB, symSize: 0xD }
  - { offset: 0x41B28, size: 0x8, addend: 0x0, symName: '__ZN5alloc11collections5btree4node21LeafNode$LT$K$C$V$GT$3new17h413bb5e84fc91209E', symObjAddr: 0x65AC, symBinAddr: 0x6B08, symSize: 0x26 }
  - { offset: 0x41CCF, size: 0x8, addend: 0x0, symName: '__ZN5alloc11collections5btree4node117NodeRef$LT$alloc..collections..btree..node..marker..Owned$C$K$C$V$C$alloc..collections..btree..node..marker..Leaf$GT$8new_leaf17ha1dc3b8b4b82f65cE', symObjAddr: 0x65D2, symBinAddr: 0x6B2E, symSize: 0xD }
  - { offset: 0x41D47, size: 0x8, addend: 0x0, symName: '__ZN5alloc11collections5btree4node21LeafNode$LT$K$C$V$GT$3new17h5d75e19751f5064cE', symObjAddr: 0x65DF, symBinAddr: 0x6B3B, symSize: 0x26 }
  - { offset: 0x41F6D, size: 0x8, addend: 0x0, symName: '__ZN5alloc11collections5btree4node21LeafNode$LT$K$C$V$GT$3new17h02f93738c1231971E', symObjAddr: 0x6605, symBinAddr: 0x6B61, symSize: 0x2A }
  - { offset: 0x421EB, size: 0x8, addend: 0x0, symName: '__ZN5alloc11collections5btree4node119NodeRef$LT$alloc..collections..btree..node..marker..Mut$C$K$C$V$C$alloc..collections..btree..node..marker..Internal$GT$4push17h0c26c3d94afc8967E', symObjAddr: 0x6661, symBinAddr: 0x6BBD, symSize: 0x64 }
  - { offset: 0x424F3, size: 0x8, addend: 0x0, symName: '__ZN5alloc11collections5btree4node119NodeRef$LT$alloc..collections..btree..node..marker..Mut$C$K$C$V$C$alloc..collections..btree..node..marker..Internal$GT$4push17ha69e2df3c43d59a3E', symObjAddr: 0x66C5, symBinAddr: 0x6C21, symSize: 0x81 }
  - { offset: 0x427E5, size: 0x8, addend: 0x0, symName: '__ZN5alloc11collections5btree4node25InternalNode$LT$K$C$V$GT$3new17hb4d079fe9795d971E', symObjAddr: 0x6746, symBinAddr: 0x6CA2, symSize: 0x2A }
  - { offset: 0x42BC7, size: 0x8, addend: 0x0, symName: '__ZN5alloc11collections5btree4node121NodeRef$LT$alloc..collections..btree..node..marker..Owned$C$K$C$V$C$alloc..collections..btree..node..marker..Internal$GT$17from_new_internal17h80a20a7406a452a2E', symObjAddr: 0x6770, symBinAddr: 0x6CCC, symSize: 0x60 }
  - { offset: 0x42E3B, size: 0x8, addend: 0x0, symName: '__ZN5alloc11collections5btree4node25InternalNode$LT$K$C$V$GT$3new17h1d778c08f54096d7E', symObjAddr: 0x67D0, symBinAddr: 0x6D2C, symSize: 0x26 }
  - { offset: 0x4306E, size: 0x8, addend: 0x0, symName: '__ZN5alloc11collections5btree4node121NodeRef$LT$alloc..collections..btree..node..marker..Owned$C$K$C$V$C$alloc..collections..btree..node..marker..Internal$GT$17from_new_internal17h0904d7ac547d65b6E', symObjAddr: 0x67F6, symBinAddr: 0x6D52, symSize: 0x5C }
  - { offset: 0x432E2, size: 0x8, addend: 0x0, symName: '__ZN5alloc11collections5btree4node25InternalNode$LT$K$C$V$GT$3new17h3dcb60e5e12dc4f6E', symObjAddr: 0x6852, symBinAddr: 0x6DAE, symSize: 0x26 }
  - { offset: 0x43515, size: 0x8, addend: 0x0, symName: '__ZN5alloc11collections5btree4node121NodeRef$LT$alloc..collections..btree..node..marker..Owned$C$K$C$V$C$alloc..collections..btree..node..marker..Internal$GT$17from_new_internal17hc96f4050a2c1484fE', symObjAddr: 0x6878, symBinAddr: 0x6DD4, symSize: 0x5C }
  - { offset: 0x43789, size: 0x8, addend: 0x0, symName: '__ZN5alloc11collections5btree4node25InternalNode$LT$K$C$V$GT$3new17heb4d6881e64e2c3bE', symObjAddr: 0x68D4, symBinAddr: 0x6E30, symSize: 0x2A }
  - { offset: 0x43B4D, size: 0x8, addend: 0x0, symName: '__ZN5alloc11collections5btree4node121NodeRef$LT$alloc..collections..btree..node..marker..Owned$C$K$C$V$C$alloc..collections..btree..node..marker..Internal$GT$17from_new_internal17h76da3f7de57db006E', symObjAddr: 0x68FE, symBinAddr: 0x6E5A, symSize: 0x60 }
  - { offset: 0x43EB3, size: 0x8, addend: 0x0, symName: '__ZN5alloc11collections5btree4node127NodeRef$LT$alloc..collections..btree..node..marker..Dying$C$K$C$V$C$alloc..collections..btree..node..marker..LeafOrInternal$GT$21deallocate_and_ascend17h05e2ee0d7f9ce241E', symObjAddr: 0x695E, symBinAddr: 0x6EBA, symSize: 0x2A }
  - { offset: 0x44134, size: 0x8, addend: 0x0, symName: '__ZN5alloc11collections5btree4node127NodeRef$LT$alloc..collections..btree..node..marker..Dying$C$K$C$V$C$alloc..collections..btree..node..marker..LeafOrInternal$GT$21deallocate_and_ascend17haf23767c06e30252E', symObjAddr: 0x6988, symBinAddr: 0x6EE4, symSize: 0x2A }
  - { offset: 0x44407, size: 0x8, addend: 0x0, symName: '__ZN5alloc11collections5btree4node127NodeRef$LT$alloc..collections..btree..node..marker..Dying$C$K$C$V$C$alloc..collections..btree..node..marker..LeafOrInternal$GT$21deallocate_and_ascend17hf21efe763b7929b5E', symObjAddr: 0x69B2, symBinAddr: 0x6F0E, symSize: 0x2E }
  - { offset: 0x4464B, size: 0x8, addend: 0x0, symName: '__ZN5alloc11collections5btree4node127NodeRef$LT$alloc..collections..btree..node..marker..Owned$C$K$C$V$C$alloc..collections..btree..node..marker..LeafOrInternal$GT$18pop_internal_level17hf0da97a8c821a238E', symObjAddr: 0x69E0, symBinAddr: 0x6F3C, symSize: 0x39 }
  - { offset: 0x4488A, size: 0x8, addend: 0x0, symName: '__ZN5alloc11collections5btree4node127NodeRef$LT$alloc..collections..btree..node..marker..Owned$C$K$C$V$C$alloc..collections..btree..node..marker..LeafOrInternal$GT$19push_internal_level17h2c4621cdf64ea949E', symObjAddr: 0x6A19, symBinAddr: 0x6F75, symSize: 0x40 }
  - { offset: 0x44A9E, size: 0x8, addend: 0x0, symName: '__ZN5alloc11collections5btree4node127NodeRef$LT$alloc..collections..btree..node..marker..Owned$C$K$C$V$C$alloc..collections..btree..node..marker..LeafOrInternal$GT$19push_internal_level17hd74a5c81d404e103E', symObjAddr: 0x6A59, symBinAddr: 0x6FB5, symSize: 0x40 }
  - { offset: 0x44C27, size: 0x8, addend: 0x0, symName: '__ZN5alloc11collections5btree4node127NodeRef$LT$alloc..collections..btree..node..marker..Owned$C$K$C$V$C$alloc..collections..btree..node..marker..LeafOrInternal$GT$3new17heedb9cb3a72c800dE', symObjAddr: 0x6A99, symBinAddr: 0x6FF5, symSize: 0xD }
  - { offset: 0x44E8B, size: 0x8, addend: 0x0, symName: '__ZN5alloc11collections5btree4node208Handle$LT$alloc..collections..btree..node..NodeRef$LT$alloc..collections..btree..node..marker..Mut$C$K$C$V$C$alloc..collections..btree..node..marker..Leaf$GT$$C$alloc..collections..btree..node..marker..KV$GT$6remove17hbe9e1638222a514eE', symObjAddr: 0x6C69, symBinAddr: 0x71C5, symSize: 0xE3 }
  - { offset: 0x452EA, size: 0x8, addend: 0x0, symName: '__ZN5alloc11collections5btree4node210Handle$LT$alloc..collections..btree..node..NodeRef$LT$alloc..collections..btree..node..marker..Mut$C$K$C$V$C$alloc..collections..btree..node..marker..Leaf$GT$$C$alloc..collections..btree..node..marker..Edge$GT$10insert_fit17h5dc543525136bc10E', symObjAddr: 0x6D4C, symBinAddr: 0x72A8, symSize: 0x78 }
  - { offset: 0x454BE, size: 0x8, addend: 0x0, symName: '__ZN5alloc11collections5btree4node210Handle$LT$alloc..collections..btree..node..NodeRef$LT$alloc..collections..btree..node..marker..Mut$C$K$C$V$C$alloc..collections..btree..node..marker..Leaf$GT$$C$alloc..collections..btree..node..marker..Edge$GT$10insert_fit17hbe3a93095183dd75E', symObjAddr: 0x6DC4, symBinAddr: 0x7320, symSize: 0x5E }
  - { offset: 0x456A3, size: 0x8, addend: 0x0, symName: '__ZN5alloc11collections5btree4node210Handle$LT$alloc..collections..btree..node..NodeRef$LT$alloc..collections..btree..node..marker..Mut$C$K$C$V$C$alloc..collections..btree..node..marker..Leaf$GT$$C$alloc..collections..btree..node..marker..Edge$GT$10insert_fit17hf1901b7c45220af3E', symObjAddr: 0x6E22, symBinAddr: 0x737E, symSize: 0x97 }
  - { offset: 0x4591A, size: 0x8, addend: 0x0, symName: '__ZN5alloc11collections5btree4node214Handle$LT$alloc..collections..btree..node..NodeRef$LT$alloc..collections..btree..node..marker..Mut$C$K$C$V$C$alloc..collections..btree..node..marker..Internal$GT$$C$alloc..collections..btree..node..marker..Edge$GT$10insert_fit17hfce5a64e74a7cb17E', symObjAddr: 0x6EB9, symBinAddr: 0x7415, symSize: 0xF5 }
  - { offset: 0x45D70, size: 0x8, addend: 0x0, symName: '__ZN5alloc11collections5btree4node214Handle$LT$alloc..collections..btree..node..NodeRef$LT$alloc..collections..btree..node..marker..Mut$C$K$C$V$C$alloc..collections..btree..node..marker..Internal$GT$$C$alloc..collections..btree..node..marker..Edge$GT$10insert_fit17hb4270f88c26cab1aE', symObjAddr: 0x6FAE, symBinAddr: 0x750A, symSize: 0xB9 }
  - { offset: 0x46048, size: 0x8, addend: 0x0, symName: '__ZN5alloc11collections5btree4node214Handle$LT$alloc..collections..btree..node..NodeRef$LT$alloc..collections..btree..node..marker..Mut$C$K$C$V$C$alloc..collections..btree..node..marker..Internal$GT$$C$alloc..collections..btree..node..marker..Edge$GT$10insert_fit17h65064c942c7a2d69E', symObjAddr: 0x7067, symBinAddr: 0x75C3, symSize: 0xC6 }
  - { offset: 0x46696, size: 0x8, addend: 0x0, symName: '__ZN5alloc11collections5btree4node214Handle$LT$alloc..collections..btree..node..NodeRef$LT$alloc..collections..btree..node..marker..Mut$C$K$C$V$C$alloc..collections..btree..node..marker..Internal$GT$$C$alloc..collections..btree..node..marker..Edge$GT$10insert_fit17h7271b44adb234660E', symObjAddr: 0x712D, symBinAddr: 0x7689, symSize: 0xC3 }
  - { offset: 0x46A4F, size: 0x8, addend: 0x0, symName: '__ZN5alloc11collections5btree4node214Handle$LT$alloc..collections..btree..node..NodeRef$LT$alloc..collections..btree..node..marker..Mut$C$K$C$V$C$alloc..collections..btree..node..marker..Internal$GT$$C$alloc..collections..btree..node..marker..Edge$GT$10insert_fit17hc2c76d7168c8b38eE', symObjAddr: 0x71F0, symBinAddr: 0x774C, symSize: 0xA1 }
  - { offset: 0x46C15, size: 0x8, addend: 0x0, symName: '__ZN5alloc11collections5btree4node29BalancingContext$LT$K$C$V$GT$10steal_left17hcbb73a04142c5ac5E', symObjAddr: 0x7291, symBinAddr: 0x77ED, symSize: 0x3F }
  - { offset: 0x46C81, size: 0x8, addend: 0x0, symName: '__ZN5alloc11collections5btree4node29BalancingContext$LT$K$C$V$GT$11steal_right17h124902e31f3a32b4E', symObjAddr: 0x72D0, symBinAddr: 0x782C, symSize: 0x3C }
  - { offset: 0x46CED, size: 0x8, addend: 0x0, symName: '__ZN5alloc11collections5btree4node29BalancingContext$LT$K$C$V$GT$8do_merge17hf082500bb4ffdb01E', symObjAddr: 0x730C, symBinAddr: 0x7868, symSize: 0x221 }
  - { offset: 0x476A0, size: 0x8, addend: 0x0, symName: '__ZN5alloc11collections5btree4node29BalancingContext$LT$K$C$V$GT$8do_merge17h318d1cb8a467b6d5E', symObjAddr: 0x752D, symBinAddr: 0x7A89, symSize: 0x24B }
  - { offset: 0x48055, size: 0x8, addend: 0x0, symName: '__ZN5alloc11collections5btree4node29BalancingContext$LT$K$C$V$GT$8do_merge17hc60f301c46e97de7E', symObjAddr: 0x7778, symBinAddr: 0x7CD4, symSize: 0x1A9 }
  - { offset: 0x48745, size: 0x8, addend: 0x0, symName: '__ZN5alloc11collections5btree4node29BalancingContext$LT$K$C$V$GT$25merge_tracking_child_edge17h4a0db5010924cb9cE', symObjAddr: 0x7921, symBinAddr: 0x7E7D, symSize: 0x6D }
  - { offset: 0x48962, size: 0x8, addend: 0x0, symName: '__ZN5alloc11collections5btree4node29BalancingContext$LT$K$C$V$GT$25merge_tracking_child_edge17h781b922b671f8a94E', symObjAddr: 0x798E, symBinAddr: 0x7EEA, symSize: 0x6D }
  - { offset: 0x48BD1, size: 0x8, addend: 0x0, symName: '__ZN5alloc11collections5btree4node29BalancingContext$LT$K$C$V$GT$25merge_tracking_child_edge17hf37808274953cfd4E', symObjAddr: 0x79FB, symBinAddr: 0x7F57, symSize: 0x6D }
  - { offset: 0x48E92, size: 0x8, addend: 0x0, symName: '__ZN5alloc11collections5btree8navigate142_$LT$impl$u20$alloc..collections..btree..node..NodeRef$LT$BorrowType$C$K$C$V$C$alloc..collections..btree..node..marker..LeafOrInternal$GT$$GT$14last_leaf_edge17hd902d580723af89aE', symObjAddr: 0x7A68, symBinAddr: 0x7FC4, symSize: 0x30 }
  - { offset: 0x4938C, size: 0x8, addend: 0x0, symName: '__ZN5alloc11collections5btree6remove259_$LT$impl$u20$alloc..collections..btree..node..Handle$LT$alloc..collections..btree..node..NodeRef$LT$alloc..collections..btree..node..marker..Mut$C$K$C$V$C$alloc..collections..btree..node..marker..Leaf$GT$$C$alloc..collections..btree..node..marker..KV$GT$$GT$14remove_leaf_kv17h16b6790ba474bd49E', symObjAddr: 0x7A98, symBinAddr: 0x7FF4, symSize: 0x328 }
  - { offset: 0x49A98, size: 0x8, addend: 0x0, symName: '__ZN5alloc11collections5btree6remove259_$LT$impl$u20$alloc..collections..btree..node..Handle$LT$alloc..collections..btree..node..NodeRef$LT$alloc..collections..btree..node..marker..Mut$C$K$C$V$C$alloc..collections..btree..node..marker..Leaf$GT$$C$alloc..collections..btree..node..marker..KV$GT$$GT$14remove_leaf_kv17h1b8282053d3131a5E', symObjAddr: 0x7DC0, symBinAddr: 0x831C, symSize: 0x156 }
  - { offset: 0x49FAA, size: 0x8, addend: 0x0, symName: '__ZN5alloc11collections5btree6remove259_$LT$impl$u20$alloc..collections..btree..node..Handle$LT$alloc..collections..btree..node..NodeRef$LT$alloc..collections..btree..node..marker..Mut$C$K$C$V$C$alloc..collections..btree..node..marker..Leaf$GT$$C$alloc..collections..btree..node..marker..KV$GT$$GT$14remove_leaf_kv17h82bf47c6b4d9c466E', symObjAddr: 0x7F16, symBinAddr: 0x8472, symSize: 0x2FF }
  - { offset: 0x4A533, size: 0x8, addend: 0x0, symName: '__ZN5alloc11collections5btree8navigate142_$LT$impl$u20$alloc..collections..btree..node..NodeRef$LT$BorrowType$C$K$C$V$C$alloc..collections..btree..node..marker..LeafOrInternal$GT$$GT$14last_leaf_edge17h6a8e55885abb9c5bE', symObjAddr: 0x8215, symBinAddr: 0x8771, symSize: 0x30 }
  - { offset: 0x4A76B, size: 0x8, addend: 0x0, symName: '__ZN5alloc11collections5btree8navigate227_$LT$impl$u20$alloc..collections..btree..node..Handle$LT$alloc..collections..btree..node..NodeRef$LT$BorrowType$C$K$C$V$C$alloc..collections..btree..node..marker..Leaf$GT$$C$alloc..collections..btree..node..marker..Edge$GT$$GT$7next_kv17h6a57162906c2cef9E', symObjAddr: 0x8245, symBinAddr: 0x87A1, symSize: 0x51 }
  - { offset: 0x4A9E3, size: 0x8, addend: 0x0, symName: '__ZN5alloc11collections5btree8navigate235_$LT$impl$u20$alloc..collections..btree..node..Handle$LT$alloc..collections..btree..node..NodeRef$LT$BorrowType$C$K$C$V$C$alloc..collections..btree..node..marker..LeafOrInternal$GT$$C$alloc..collections..btree..node..marker..KV$GT$$GT$14next_leaf_edge17h696baefce71b40e2E', symObjAddr: 0x8296, symBinAddr: 0x87F2, symSize: 0x50 }
  - { offset: 0x4AEEE, size: 0x8, addend: 0x0, symName: '__ZN5alloc11collections5btree6search142_$LT$impl$u20$alloc..collections..btree..node..NodeRef$LT$BorrowType$C$K$C$V$C$alloc..collections..btree..node..marker..LeafOrInternal$GT$$GT$11search_tree17hbcc2fa43bc2e1c3bE', symObjAddr: 0x82E6, symBinAddr: 0x8842, symSize: 0xBF }
  - { offset: 0x4B389, size: 0x8, addend: 0x0, symName: '__ZN5alloc11collections5btree6search142_$LT$impl$u20$alloc..collections..btree..node..NodeRef$LT$BorrowType$C$K$C$V$C$alloc..collections..btree..node..marker..LeafOrInternal$GT$$GT$11search_tree17hf4a51bc8460a9b26E', symObjAddr: 0x83A5, symBinAddr: 0x8901, symSize: 0xBF }
  - { offset: 0x1D6492, size: 0x8, addend: 0x0, symName: __ZN4itoa6Buffer6format17hbc659457be76f38eE, symObjAddr: 0x4E214, symBinAddr: 0x4C630, symSize: 0xD5 }
  - { offset: 0x1D694A, size: 0x8, addend: 0x0, symName: __ZN4itoa6Buffer6format17hbc659457be76f38eE, symObjAddr: 0x4E214, symBinAddr: 0x4C630, symSize: 0xD5 }
  - { offset: 0x1D6A7F, size: 0x8, addend: 0x0, symName: __ZN4itoa6Buffer6format17hf3cabc433d7f5b3cE, symObjAddr: 0x4E2E9, symBinAddr: 0x4C705, symSize: 0xBA }
  - { offset: 0x1B538D, size: 0x8, addend: 0x0, symName: __ZN3ryu6pretty8format6417h8d5f32b49bf0065bE, symObjAddr: 0x493A9, symBinAddr: 0x47E91, symSize: 0x606 }
  - { offset: 0x1B53B2, size: 0x8, addend: 0x0, symName: __ZN3ryu14d2s_full_table21DOUBLE_POW5_INV_SPLIT17h79409c5c06af12cfE, symObjAddr: 0x5AC28, symBinAddr: 0x59350, symSize: 0x0 }
  - { offset: 0x1B53CE, size: 0x8, addend: 0x0, symName: __ZN3ryu14d2s_full_table17DOUBLE_POW5_SPLIT17h1d3e69051f5f7ad1E, symObjAddr: 0x5C188, symBinAddr: 0x5A8B0, symSize: 0x0 }
  - { offset: 0x1B57EC, size: 0x8, addend: 0x0, symName: __ZN3ryu14d2s_intrinsics16mul_shift_all_6417h313b94bdf970d980E, symObjAddr: 0x499AF, symBinAddr: 0x48497, symSize: 0xD0 }
  - { offset: 0x1B598D, size: 0x8, addend: 0x0, symName: __ZN3ryu14d2s_intrinsics22multiple_of_power_of_517h189efe2803b9de45E, symObjAddr: 0x49A7F, symBinAddr: 0x48567, symSize: 0x2F }
  - { offset: 0x1B5A2C, size: 0x8, addend: 0x0, symName: __ZN3ryu6pretty8format6417h8d5f32b49bf0065bE, symObjAddr: 0x493A9, symBinAddr: 0x47E91, symSize: 0x606 }
  - { offset: 0x1B6746, size: 0x8, addend: 0x0, symName: __ZN3ryu6pretty8mantissa19write_mantissa_long17h6a7dc7d8ee212fa0E, symObjAddr: 0x49AAE, symBinAddr: 0x48596, symSize: 0x124 }
  - { offset: 0x1B69DE, size: 0x8, addend: 0x0, symName: __ZN3ryu6pretty8exponent15write_exponent317hdc109705b967b77eE, symObjAddr: 0x49BD2, symBinAddr: 0x486BA, symSize: 0x74 }
  - { offset: 0x53787, size: 0x8, addend: 0x0, symName: '__ZN4core3ptr51drop_in_place$LT$powersync_core..schema..Schema$GT$17hda23a8c77fb12e85E', symObjAddr: 0x8464, symBinAddr: 0x89C0, symSize: 0x20 }
  - { offset: 0x53BC6, size: 0x8, addend: 0x0, symName: __ZN5serde2de12Deserializer21__deserialize_content17h19c320922ce8dfdaE, symObjAddr: 0x8BD2, symBinAddr: 0x912E, symSize: 0x849 }
  - { offset: 0x54795, size: 0x8, addend: 0x0, symName: '__ZN81_$LT$core..marker..PhantomData$LT$T$GT$$u20$as$u20$serde..de..DeserializeSeed$GT$11deserialize17h48ccdc65fa26bfd4E', symObjAddr: 0x971D, symBinAddr: 0x9C79, symSize: 0x58 }
  - { offset: 0x5C2BE, size: 0x8, addend: 0x0, symName: '__ZN93_$LT$$RF$mut$u20$serde_json..de..Deserializer$LT$R$GT$$u20$as$u20$serde..de..Deserializer$GT$15deserialize_str17hbd4380c9d1ea9c19E', symObjAddr: 0x9CC6, symBinAddr: 0xA222, symSize: 0x120 }
  - { offset: 0x5C502, size: 0x8, addend: 0x0, symName: '__ZN93_$LT$$RF$mut$u20$serde_json..de..Deserializer$LT$R$GT$$u20$as$u20$serde..de..Deserializer$GT$15deserialize_str17hd6e88d3702b83108E', symObjAddr: 0x9DE6, symBinAddr: 0xA342, symSize: 0x120 }
  - { offset: 0x5C748, size: 0x8, addend: 0x0, symName: '__ZN93_$LT$$RF$mut$u20$serde_json..de..Deserializer$LT$R$GT$$u20$as$u20$serde..de..Deserializer$GT$15deserialize_str17he2643868cfe6ca4bE', symObjAddr: 0x9F06, symBinAddr: 0xA462, symSize: 0x156 }
  - { offset: 0x5CF2D, size: 0x8, addend: 0x0, symName: '__ZN93_$LT$$RF$mut$u20$serde_json..de..Deserializer$LT$R$GT$$u20$as$u20$serde..de..Deserializer$GT$15deserialize_map17h96df6c22c37dd8d0E', symObjAddr: 0xA284, symBinAddr: 0xA7B8, symSize: 0x295C }
  - { offset: 0x60252, size: 0x8, addend: 0x0, symName: '__ZN93_$LT$$RF$mut$u20$serde_json..de..Deserializer$LT$R$GT$$u20$as$u20$serde..de..Deserializer$GT$15deserialize_str17h4d4dabc57fac6664E', symObjAddr: 0xCC78, symBinAddr: 0xD1AC, symSize: 0xE1 }
  - { offset: 0x629D0, size: 0x8, addend: 0x0, symName: '__ZN75_$LT$serde_json..de..MapAccess$LT$R$GT$$u20$as$u20$serde..de..MapAccess$GT$15next_value_seed17h00c429a65f8b8265E', symObjAddr: 0x9544, symBinAddr: 0x9AA0, symSize: 0x3F }
  - { offset: 0x62A57, size: 0x8, addend: 0x0, symName: '__ZN75_$LT$serde_json..de..MapAccess$LT$R$GT$$u20$as$u20$serde..de..MapAccess$GT$15next_value_seed17h13575b409e44bdaeE', symObjAddr: 0x9583, symBinAddr: 0x9ADF, symSize: 0x35 }
  - { offset: 0x62ADC, size: 0x8, addend: 0x0, symName: '__ZN75_$LT$serde_json..de..MapAccess$LT$R$GT$$u20$as$u20$serde..de..MapAccess$GT$15next_value_seed17h2789ebbdc8b417d4E', symObjAddr: 0x95B8, symBinAddr: 0x9B14, symSize: 0x38 }
  - { offset: 0x62B61, size: 0x8, addend: 0x0, symName: '__ZN75_$LT$serde_json..de..MapAccess$LT$R$GT$$u20$as$u20$serde..de..MapAccess$GT$15next_value_seed17h29d86b2d0696334cE', symObjAddr: 0x95F0, symBinAddr: 0x9B4C, symSize: 0x38 }
  - { offset: 0x62BE6, size: 0x8, addend: 0x0, symName: '__ZN75_$LT$serde_json..de..MapAccess$LT$R$GT$$u20$as$u20$serde..de..MapAccess$GT$15next_value_seed17h59a9050b095b6db5E', symObjAddr: 0x9628, symBinAddr: 0x9B84, symSize: 0x3F }
  - { offset: 0x62C6D, size: 0x8, addend: 0x0, symName: '__ZN75_$LT$serde_json..de..MapAccess$LT$R$GT$$u20$as$u20$serde..de..MapAccess$GT$15next_value_seed17h90583264d5dcae53E', symObjAddr: 0x9667, symBinAddr: 0x9BC3, symSize: 0x3F }
  - { offset: 0x62CF4, size: 0x8, addend: 0x0, symName: '__ZN75_$LT$serde_json..de..MapAccess$LT$R$GT$$u20$as$u20$serde..de..MapAccess$GT$15next_value_seed17hafc0b98474984373E', symObjAddr: 0x96A6, symBinAddr: 0x9C02, symSize: 0x38 }
  - { offset: 0x62D79, size: 0x8, addend: 0x0, symName: '__ZN75_$LT$serde_json..de..MapAccess$LT$R$GT$$u20$as$u20$serde..de..MapAccess$GT$15next_value_seed17hc29881d44e831ee0E', symObjAddr: 0x96DE, symBinAddr: 0x9C3A, symSize: 0x3F }
  - { offset: 0x62DE1, size: 0x8, addend: 0x0, symName: '__ZN75_$LT$serde_json..de..MapAccess$LT$R$GT$$u20$as$u20$serde..de..MapAccess$GT$15next_value_seed17hc9aaa04b7d145041E', symObjAddr: 0x9775, symBinAddr: 0x9CD1, symSize: 0x28 }
  - { offset: 0x62E86, size: 0x8, addend: 0x0, symName: '__ZN75_$LT$serde_json..de..MapAccess$LT$R$GT$$u20$as$u20$serde..de..MapAccess$GT$15next_value_seed17hd50af4ddec5de389E', symObjAddr: 0x979D, symBinAddr: 0x9CF9, symSize: 0x35 }
  - { offset: 0x62F2E, size: 0x8, addend: 0x0, symName: '__ZN75_$LT$serde_json..de..MapAccess$LT$R$GT$$u20$as$u20$serde..de..MapAccess$GT$15next_value_seed17hf5e7d7f41db200dcE', symObjAddr: 0x97D2, symBinAddr: 0x9D2E, symSize: 0x3F }
  - { offset: 0x653E2, size: 0x8, addend: 0x0, symName: '__ZN75_$LT$serde_json..de..SeqAccess$LT$R$GT$$u20$as$u20$serde..de..SeqAccess$GT$17next_element_seed17h1b6aea988f25ee8cE', symObjAddr: 0x9811, symBinAddr: 0x9D6D, symSize: 0x76 }
  - { offset: 0x6544C, size: 0x8, addend: 0x0, symName: '__ZN75_$LT$serde_json..de..SeqAccess$LT$R$GT$$u20$as$u20$serde..de..SeqAccess$GT$17next_element_seed17h38bf90fc689ef7abE', symObjAddr: 0x9887, symBinAddr: 0x9DE3, symSize: 0x74 }
  - { offset: 0x654B6, size: 0x8, addend: 0x0, symName: '__ZN75_$LT$serde_json..de..SeqAccess$LT$R$GT$$u20$as$u20$serde..de..SeqAccess$GT$17next_element_seed17h5ac7af9b5eee8d42E', symObjAddr: 0x98FB, symBinAddr: 0x9E57, symSize: 0x76 }
  - { offset: 0x65520, size: 0x8, addend: 0x0, symName: '__ZN75_$LT$serde_json..de..SeqAccess$LT$R$GT$$u20$as$u20$serde..de..SeqAccess$GT$17next_element_seed17h753bb36993f6e080E', symObjAddr: 0x9971, symBinAddr: 0x9ECD, symSize: 0x81 }
  - { offset: 0x6558A, size: 0x8, addend: 0x0, symName: '__ZN75_$LT$serde_json..de..SeqAccess$LT$R$GT$$u20$as$u20$serde..de..SeqAccess$GT$17next_element_seed17h85968cd7f25fdf95E', symObjAddr: 0x99F2, symBinAddr: 0x9F4E, symSize: 0x74 }
  - { offset: 0x655F4, size: 0x8, addend: 0x0, symName: '__ZN75_$LT$serde_json..de..SeqAccess$LT$R$GT$$u20$as$u20$serde..de..SeqAccess$GT$17next_element_seed17ha6cbb0f6c7641535E', symObjAddr: 0x9A66, symBinAddr: 0x9FC2, symSize: 0x81 }
  - { offset: 0x6565E, size: 0x8, addend: 0x0, symName: '__ZN75_$LT$serde_json..de..SeqAccess$LT$R$GT$$u20$as$u20$serde..de..SeqAccess$GT$17next_element_seed17hbfb2a3941a1060daE', symObjAddr: 0x9AE7, symBinAddr: 0xA043, symSize: 0x81 }
  - { offset: 0x656AB, size: 0x8, addend: 0x0, symName: '__ZN75_$LT$serde_json..de..SeqAccess$LT$R$GT$$u20$as$u20$serde..de..SeqAccess$GT$17next_element_seed17hcc25cc5208fe9c66E', symObjAddr: 0x9B68, symBinAddr: 0xA0C4, symSize: 0x81 }
  - { offset: 0x65715, size: 0x8, addend: 0x0, symName: '__ZN75_$LT$serde_json..de..SeqAccess$LT$R$GT$$u20$as$u20$serde..de..SeqAccess$GT$17next_element_seed17heebdf08e65a4503eE', symObjAddr: 0x9BE9, symBinAddr: 0xA145, symSize: 0x75 }
  - { offset: 0x6577F, size: 0x8, addend: 0x0, symName: '__ZN75_$LT$serde_json..de..SeqAccess$LT$R$GT$$u20$as$u20$serde..de..SeqAccess$GT$17next_element_seed17hf1a258d839c25ef9E', symObjAddr: 0x9C5E, symBinAddr: 0xA1BA, symSize: 0x68 }
  - { offset: 0x66971, size: 0x8, addend: 0x0, symName: '__ZN80_$LT$serde_json..de..VariantAccess$LT$R$GT$$u20$as$u20$serde..de..EnumAccess$GT$12variant_seed17hf3f9d333fd988758E', symObjAddr: 0xA05C, symBinAddr: 0xA5B8, symSize: 0x60 }
  - { offset: 0x66B95, size: 0x8, addend: 0x0, symName: '__ZN83_$LT$serde_json..de..VariantAccess$LT$R$GT$$u20$as$u20$serde..de..VariantAccess$GT$12unit_variant17h4ea0dc2a3582a400E', symObjAddr: 0xA0BC, symBinAddr: 0xA618, symSize: 0x8F }
  - { offset: 0x66CB0, size: 0x8, addend: 0x0, symName: '__ZN83_$LT$serde_json..de..VariantAccess$LT$R$GT$$u20$as$u20$serde..de..VariantAccess$GT$20newtype_variant_seed17h8aaa12b3171def94E', symObjAddr: 0xA14B, symBinAddr: 0xA6A7, symSize: 0xCA }
  - { offset: 0x67086, size: 0x8, addend: 0x0, symName: '__ZN84_$LT$serde_json..de..UnitVariantAccess$LT$R$GT$$u20$as$u20$serde..de..EnumAccess$GT$12variant_seed17h86a7761543342349E', symObjAddr: 0xA215, symBinAddr: 0xA771, symSize: 0x47 }
  - { offset: 0x67251, size: 0x8, addend: 0x0, symName: '__ZN87_$LT$serde_json..de..UnitVariantAccess$LT$R$GT$$u20$as$u20$serde..de..VariantAccess$GT$20newtype_variant_seed17h024a858bc4761f71E', symObjAddr: 0xA25C, symBinAddr: 0x4E8F4, symSize: 0x28 }
  - { offset: 0x683D5, size: 0x8, addend: 0x0, symName: '__ZN4core3ptr51drop_in_place$LT$powersync_core..schema..Schema$GT$17hda23a8c77fb12e85E', symObjAddr: 0x8464, symBinAddr: 0x89C0, symSize: 0x20 }
  - { offset: 0x68424, size: 0x8, addend: 0x0, symName: '__ZN4core3ptr85drop_in_place$LT$alloc..vec..Vec$LT$powersync_core..schema..table_info..Table$GT$$GT$17h4e835d9dce8062f2E', symObjAddr: 0x8484, symBinAddr: 0x89E0, symSize: 0x29 }
  - { offset: 0x68492, size: 0x8, addend: 0x0, symName: '__ZN4core3ptr88drop_in_place$LT$alloc..vec..Vec$LT$powersync_core..schema..table_info..RawTable$GT$$GT$17h2167f921923548b7E', symObjAddr: 0x84AD, symBinAddr: 0x8A09, symSize: 0x29 }
  - { offset: 0x6853E, size: 0x8, addend: 0x0, symName: '__ZN4core3ptr67drop_in_place$LT$powersync_core..sync..subscriptions..StreamKey$GT$17h2445df4b01990518E', symObjAddr: 0x84D6, symBinAddr: 0x8A32, symSize: 0x28 }
  - { offset: 0x685B8, size: 0x8, addend: 0x0, symName: '__ZN4core3ptr62drop_in_place$LT$powersync_core..schema..table_info..Table$GT$17h0dc0831112f6af39E', symObjAddr: 0x84FE, symBinAddr: 0x8A5A, symSize: 0x46 }
  - { offset: 0x68651, size: 0x8, addend: 0x0, symName: '__ZN4core3ptr86drop_in_place$LT$alloc..vec..Vec$LT$powersync_core..schema..table_info..Column$GT$$GT$17hc90a377d859f1e45E', symObjAddr: 0x8544, symBinAddr: 0x8AA0, symSize: 0x29 }
  - { offset: 0x686BF, size: 0x8, addend: 0x0, symName: '__ZN4core3ptr85drop_in_place$LT$alloc..vec..Vec$LT$powersync_core..schema..table_info..Index$GT$$GT$17h99494f55517c4145E', symObjAddr: 0x856D, symBinAddr: 0x8AC9, symSize: 0x29 }
  - { offset: 0x6872D, size: 0x8, addend: 0x0, symName: '__ZN4core3ptr99drop_in_place$LT$core..option..Option$LT$powersync_core..schema..table_info..DiffIncludeOld$GT$$GT$17h67ae6f241e652273E', symObjAddr: 0x8596, symBinAddr: 0x8AF2, symSize: 0x1B }
  - { offset: 0x68790, size: 0x8, addend: 0x0, symName: '__ZN4core3ptr65drop_in_place$LT$alloc..vec..Vec$LT$alloc..string..String$GT$$GT$17h782877cbe3834555E', symObjAddr: 0x85B1, symBinAddr: 0x8B0D, symSize: 0x29 }
  - { offset: 0x687DF, size: 0x8, addend: 0x0, symName: '__ZN4core3ptr69drop_in_place$LT$powersync_core..sync..interface..StartSyncStream$GT$17h45aff1294ec841dbE', symObjAddr: 0x85DA, symBinAddr: 0x8B36, symSize: 0x26 }
  - { offset: 0x6884D, size: 0x8, addend: 0x0, symName: '__ZN4core3ptr125drop_in_place$LT$core..option..Option$LT$serde_json..map..Map$LT$alloc..string..String$C$serde_json..value..Value$GT$$GT$$GT$17h5fe0bc6f545577f7E', symObjAddr: 0x8600, symBinAddr: 0x8B5C, symSize: 0x15 }
  - { offset: 0x688B7, size: 0x8, addend: 0x0, symName: '__ZN4core3ptr111drop_in_place$LT$alloc..rc..Rc$LT$alloc..vec..Vec$LT$powersync_core..sync..subscriptions..StreamKey$GT$$GT$$GT$17h3dcab77aa4fcbd92E', symObjAddr: 0x8615, symBinAddr: 0x8B71, symSize: 0x11 }
  - { offset: 0x68965, size: 0x8, addend: 0x0, symName: '__ZN4core3ptr59drop_in_place$LT$powersync_core..sync..line..Checkpoint$GT$17h80067ca947c17decE', symObjAddr: 0x8626, symBinAddr: 0x8B82, symSize: 0x24 }
  - { offset: 0x689B4, size: 0x8, addend: 0x0, symName: '__ZN4core3ptr86drop_in_place$LT$alloc..vec..Vec$LT$powersync_core..sync..line..BucketChecksum$GT$$GT$17h36d3fced9f7f5e89E', symObjAddr: 0x864A, symBinAddr: 0x8BA6, symSize: 0x29 }
  - { offset: 0x68A22, size: 0x8, addend: 0x0, symName: '__ZN4core3ptr89drop_in_place$LT$alloc..vec..Vec$LT$powersync_core..sync..line..StreamDescription$GT$$GT$17h867d90f7a5695854E', symObjAddr: 0x8673, symBinAddr: 0x8BCF, symSize: 0x29 }
  - { offset: 0x68A71, size: 0x8, addend: 0x0, symName: '__ZN4core3ptr63drop_in_place$LT$powersync_core..sync..line..CheckpointDiff$GT$17h0676732255b2be69E', symObjAddr: 0x869C, symBinAddr: 0x8BF8, symSize: 0x24 }
  - { offset: 0x68AA1, size: 0x8, addend: 0x0, symName: '__ZN4core3ptr57drop_in_place$LT$powersync_core..sync..line..DataLine$GT$17h8c7ec317ef649893E', symObjAddr: 0x86C0, symBinAddr: 0x8C1C, symSize: 0x24 }
  - { offset: 0x68AD1, size: 0x8, addend: 0x0, symName: '__ZN4core3ptr50drop_in_place$LT$alloc..borrow..Cow$LT$str$GT$$GT$17he33a250f6e4ad267E', symObjAddr: 0x86E4, symBinAddr: 0x8C40, symSize: 0x14 }
  - { offset: 0x68B5D, size: 0x8, addend: 0x0, symName: '__ZN4core3ptr82drop_in_place$LT$alloc..vec..Vec$LT$powersync_core..sync..line..OplogEntry$GT$$GT$17h717a36d5fb392f3aE', symObjAddr: 0x86F8, symBinAddr: 0x8C54, symSize: 0x29 }
  - { offset: 0x68BCB, size: 0x8, addend: 0x0, symName: '__ZN4core3ptr73drop_in_place$LT$alloc..vec..Vec$LT$alloc..borrow..Cow$LT$str$GT$$GT$$GT$17hb17321b1f71cab63E', symObjAddr: 0x8721, symBinAddr: 0x8C7D, symSize: 0x29 }
  - { offset: 0x68C96, size: 0x8, addend: 0x0, symName: '__ZN4core3ptr59drop_in_place$LT$serde..__private..de..content..Content$GT$17h609d0ebfd4b16eb8E', symObjAddr: 0x941B, symBinAddr: 0x9977, symSize: 0xDD }
  - { offset: 0x68DAA, size: 0x8, addend: 0x0, symName: '__ZN4core3ptr45drop_in_place$LT$serde_json..error..Error$GT$17h4217c4dbc961f280E', symObjAddr: 0x94F8, symBinAddr: 0x9A54, symSize: 0x2D }
  - { offset: 0x68FAC, size: 0x8, addend: 0x0, symName: '__ZN4core3ptr84drop_in_place$LT$alloc..boxed..Box$LT$serde..__private..de..content..Content$GT$$GT$17h8baf47c7305871efE', symObjAddr: 0x9525, symBinAddr: 0x9A81, symSize: 0x1F }
  - { offset: 0x6915F, size: 0x8, addend: 0x0, symName: '__ZN4core3ptr159drop_in_place$LT$alloc..vec..Vec$LT$core..option..Option$LT$$LP$serde..__private..de..content..Content$C$serde..__private..de..content..Content$RP$$GT$$GT$$GT$17hf6731086447d8eabE', symObjAddr: 0xCBE0, symBinAddr: 0xD114, symSize: 0x46 }
  - { offset: 0x69217, size: 0x8, addend: 0x0, symName: '__ZN4core3ptr93drop_in_place$LT$alloc..vec..Vec$LT$powersync_core..schema..table_info..IndexedColumn$GT$$GT$17h8565c3a7f5d977f6E', symObjAddr: 0xCC26, symBinAddr: 0xD15A, symSize: 0x29 }
  - { offset: 0x69285, size: 0x8, addend: 0x0, symName: '__ZN4core3ptr101drop_in_place$LT$alloc..vec..Vec$LT$powersync_core..schema..table_info..PendingStatementValue$GT$$GT$17h5480a95ebfaf9cecE', symObjAddr: 0xCC4F, symBinAddr: 0xD183, symSize: 0x29 }
  - { offset: 0x692D4, size: 0x8, addend: 0x0, symName: '__ZN4core3ptr78drop_in_place$LT$core..option..Option$LT$alloc..borrow..Cow$LT$str$GT$$GT$$GT$17ha72b3194d9c98786E', symObjAddr: 0xCD59, symBinAddr: 0xD28D, symSize: 0x1B }
  - { offset: 0x69300, size: 0x8, addend: 0x0, symName: '__ZN4core3ptr59drop_in_place$LT$powersync_core..sync..line..OplogEntry$GT$17h5c4b9f2d468db23fE', symObjAddr: 0xCD74, symBinAddr: 0xD2A8, symSize: 0x42 }
  - { offset: 0x69330, size: 0x8, addend: 0x0, symName: '__ZN4core3ptr106drop_in_place$LT$core..option..Option$LT$core..option..Option$LT$alloc..borrow..Cow$LT$str$GT$$GT$$GT$$GT$17hb8959dee2b964f0aE', symObjAddr: 0xCDB6, symBinAddr: 0xD2EA, symSize: 0x1B }
  - { offset: 0x6935C, size: 0x8, addend: 0x0, symName: '__ZN4core3ptr63drop_in_place$LT$powersync_core..schema..table_info..Column$GT$17h0862f2a36d157356E', symObjAddr: 0xCDD1, symBinAddr: 0xD305, symSize: 0x28 }
  - { offset: 0x69420, size: 0x8, addend: 0x0, symName: '__ZN4core3ptr116drop_in_place$LT$core..option..Option$LT$alloc..vec..Vec$LT$powersync_core..schema..table_info..RawTable$GT$$GT$$GT$17h6f371d6d0e786cecE', symObjAddr: 0xCDF9, symBinAddr: 0xD32D, symSize: 0x13 }
  - { offset: 0x6944F, size: 0x8, addend: 0x0, symName: '__ZN4core3ptr73drop_in_place$LT$powersync_core..schema..table_info..PendingStatement$GT$17hb5a424f95233ded5E', symObjAddr: 0xCE0C, symBinAddr: 0xD340, symSize: 0x27 }
  - { offset: 0x694C9, size: 0x8, addend: 0x0, symName: '__ZN4core3ptr65drop_in_place$LT$powersync_core..schema..table_info..RawTable$GT$17he8ba4387832428e2E', symObjAddr: 0xCE33, symBinAddr: 0xD367, symSize: 0x30 }
  - { offset: 0x69543, size: 0x8, addend: 0x0, symName: '__ZN4core3ptr101drop_in_place$LT$core..option..Option$LT$powersync_core..schema..table_info..PendingStatement$GT$$GT$17h9eef185ad221cc47E', symObjAddr: 0xCE63, symBinAddr: 0xD397, symSize: 0x13 }
  - { offset: 0x69572, size: 0x8, addend: 0x0, symName: '__ZN4core3ptr66drop_in_place$LT$powersync_core..sync..line..StreamDescription$GT$17h6284334eeb2c6fa2E', symObjAddr: 0xCE76, symBinAddr: 0xD3AA, symSize: 0x24 }
  - { offset: 0x695A2, size: 0x8, addend: 0x0, symName: '__ZN4core3ptr116drop_in_place$LT$alloc..rc..Rc$LT$alloc..vec..Vec$LT$powersync_core..sync..line..StreamSubscriptionError$GT$$GT$$GT$17hf8ce953e8608e106E', symObjAddr: 0xCE9A, symBinAddr: 0xD3CE, symSize: 0x11 }
  - { offset: 0x69650, size: 0x8, addend: 0x0, symName: '__ZN4core3ptr63drop_in_place$LT$powersync_core..sync..line..BucketChecksum$GT$17h10f7f310fffe4e05E', symObjAddr: 0xCEAB, symBinAddr: 0xD3DF, symSize: 0x25 }
  - { offset: 0x69680, size: 0x8, addend: 0x0, symName: '__ZN4core3ptr145drop_in_place$LT$core..option..Option$LT$alloc..rc..Rc$LT$alloc..vec..Vec$LT$powersync_core..sync..line..BucketSubscriptionReason$GT$$GT$$GT$$GT$17h86b41fb9f26efc7eE', symObjAddr: 0xCED0, symBinAddr: 0xD404, symSize: 0x11 }
  - { offset: 0x696AC, size: 0x8, addend: 0x0, symName: '__ZN4core3ptr117drop_in_place$LT$alloc..rc..Rc$LT$alloc..vec..Vec$LT$powersync_core..sync..line..BucketSubscriptionReason$GT$$GT$$GT$17h29190c65894361caE', symObjAddr: 0xCEE1, symBinAddr: 0xD415, symSize: 0x11 }
  - { offset: 0x6975A, size: 0x8, addend: 0x0, symName: '__ZN4core3ptr70drop_in_place$LT$powersync_core..schema..table_info..IndexedColumn$GT$17h78503d12dcd6a3f3E', symObjAddr: 0xCEF2, symBinAddr: 0xD426, symSize: 0x28 }
  - { offset: 0x6981E, size: 0x8, addend: 0x0, symName: '__ZN4core3ptr114drop_in_place$LT$core..option..Option$LT$alloc..vec..Vec$LT$powersync_core..sync..line..BucketChecksum$GT$$GT$$GT$17hf2b8d09a743a1239E', symObjAddr: 0xCF1A, symBinAddr: 0xD44E, symSize: 0x13 }
  - { offset: 0x6984D, size: 0x8, addend: 0x0, symName: '__ZN4core3ptr117drop_in_place$LT$core..option..Option$LT$alloc..vec..Vec$LT$powersync_core..sync..line..StreamDescription$GT$$GT$$GT$17hb1b379a680af4d6aE', symObjAddr: 0xCF2D, symBinAddr: 0xD461, symSize: 0x13 }
  - { offset: 0x6987C, size: 0x8, addend: 0x0, symName: '__ZN4core3ptr153drop_in_place$LT$core..option..Option$LT$core..option..Option$LT$serde_json..map..Map$LT$alloc..string..String$C$serde_json..value..Value$GT$$GT$$GT$$GT$17h5d6239bcc1298c46E', symObjAddr: 0xCF67, symBinAddr: 0xD49B, symSize: 0x11 }
  - { offset: 0x698AB, size: 0x8, addend: 0x0, symName: '__ZN4core3ptr79drop_in_place$LT$core..option..Option$LT$powersync_core..schema..Schema$GT$$GT$17h0e14f6185549690fE', symObjAddr: 0xCF78, symBinAddr: 0xD4AC, symSize: 0x13 }
  - { offset: 0x698DA, size: 0x8, addend: 0x0, symName: '__ZN4core3ptr139drop_in_place$LT$core..option..Option$LT$alloc..rc..Rc$LT$alloc..vec..Vec$LT$powersync_core..sync..subscriptions..StreamKey$GT$$GT$$GT$$GT$17h65ee9b902be87153E', symObjAddr: 0xCF8B, symBinAddr: 0xD4BF, symSize: 0x11 }
  - { offset: 0x69906, size: 0x8, addend: 0x0, symName: '__ZN4core3ptr62drop_in_place$LT$powersync_core..schema..table_info..Index$GT$17h793aa43fbc6a3b5fE', symObjAddr: 0xCF9C, symBinAddr: 0xD4D0, symSize: 0x27 }
  - { offset: 0x69980, size: 0x8, addend: 0x0, symName: '__ZN4core3ptr127drop_in_place$LT$core..option..Option$LT$core..option..Option$LT$alloc..boxed..Box$LT$serde_json..raw..RawValue$GT$$GT$$GT$$GT$17h34c1fb4f481422e8E', symObjAddr: 0xCFC3, symBinAddr: 0xD4F7, symSize: 0x1C }
  - { offset: 0x74FB8, size: 0x8, addend: 0x0, symName: '__ZN65_$LT$alloc..rc..Rc$LT$T$GT$$u20$as$u20$core..default..Default$GT$7default17h33e6bcdde1af1b92E', symObjAddr: 0xCF40, symBinAddr: 0xD474, symSize: 0x27 }
  - { offset: 0x75595, size: 0x8, addend: 0x0, symName: __ZN10serde_json2de12ParserNumber5visit17h3986c637c0f4fa98E, symObjAddr: 0x874A, symBinAddr: 0x8CA6, symSize: 0x73 }
  - { offset: 0x75642, size: 0x8, addend: 0x0, symName: __ZN10serde_json2de12ParserNumber5visit17h57f0561065afea8eE, symObjAddr: 0x87BD, symBinAddr: 0x8D19, symSize: 0x84 }
  - { offset: 0x757F7, size: 0x8, addend: 0x0, symName: __ZN10serde_json2de12ParserNumber5visit17h6cba108598a6fc05E, symObjAddr: 0x8841, symBinAddr: 0x8D9D, symSize: 0x94 }
  - { offset: 0x758E5, size: 0x8, addend: 0x0, symName: __ZN10serde_json2de12ParserNumber5visit17h6ea5a471d340df59E, symObjAddr: 0x88D5, symBinAddr: 0x8E31, symSize: 0x6F }
  - { offset: 0x759D6, size: 0x8, addend: 0x0, symName: __ZN10serde_json2de12ParserNumber5visit17h81b26bdc152857c2E, symObjAddr: 0x8944, symBinAddr: 0x8EA0, symSize: 0x74 }
  - { offset: 0x75ACF, size: 0x8, addend: 0x0, symName: __ZN10serde_json2de12ParserNumber5visit17ha38f52f08e2dc632E, symObjAddr: 0x89B8, symBinAddr: 0x8F14, symSize: 0x132 }
  - { offset: 0x75C7F, size: 0x8, addend: 0x0, symName: __ZN10serde_json2de12ParserNumber5visit17hcdc074f94a29ba43E, symObjAddr: 0x8AEA, symBinAddr: 0x9046, symSize: 0x74 }
  - { offset: 0x75D2B, size: 0x8, addend: 0x0, symName: __ZN10serde_json2de12ParserNumber5visit17hd8f8a4eeaa049089E, symObjAddr: 0x8B5E, symBinAddr: 0x90BA, symSize: 0x74 }
  - { offset: 0x1CD201, size: 0x8, addend: 0x0, symName: __ZN10serde_json3ser9Formatter10end_object17ha2cba088061b4be4E, symObjAddr: 0x4D382, symBinAddr: 0x4B92A, symSize: 0x26 }
  - { offset: 0x1CDC7E, size: 0x8, addend: 0x0, symName: __ZN10serde_json3ser9Formatter10end_object17ha2cba088061b4be4E, symObjAddr: 0x4D382, symBinAddr: 0x4B92A, symSize: 0x26 }
  - { offset: 0x1A5C1, size: 0x8, addend: 0x0, symName: __ZN4core3num7flt2dec7decoder6decode17hcae8b52a6f6e25dcE, symObjAddr: 0x42FE, symBinAddr: 0x487A, symSize: 0xE6 }
  - { offset: 0x1A81F, size: 0x8, addend: 0x0, symName: '__ZN4core5slice29_$LT$impl$u20$$u5b$T$u5d$$GT$15copy_from_slice17len_mismatch_fail17hc2c4b4be8e265176E', symObjAddr: 0x4438, symBinAddr: 0x4E8D4, symSize: 0x9 }
  - { offset: 0x1A93F, size: 0x8, addend: 0x0, symName: '__ZN73_$LT$$u5b$A$u5d$$u20$as$u20$core..slice..cmp..SlicePartialEq$LT$B$GT$$GT$5equal17hfbebb21816485b70E', symObjAddr: 0x4417, symBinAddr: 0x498B, symSize: 0x21 }
  - { offset: 0x1AC74, size: 0x8, addend: 0x0, symName: __ZN4core3num7flt2dec7decoder6decode17hcae8b52a6f6e25dcE, symObjAddr: 0x42FE, symBinAddr: 0x487A, symSize: 0xE6 }
  - { offset: 0x1AE21, size: 0x8, addend: 0x0, symName: __ZN4core3num14overflow_panic3add17hdc5c93878f8fd21fE, symObjAddr: 0x43E4, symBinAddr: 0x4E8C8, symSize: 0x9 }
  - { offset: 0x1B06B, size: 0x8, addend: 0x0, symName: __ZN4core4iter6traits8iterator8Iterator3sum17he72eac3bac0dc8cfE, symObjAddr: 0x43ED, symBinAddr: 0x4961, symSize: 0x2A }
  - { offset: 0x1E29F4, size: 0x8, addend: 0x0, symName: '__ZN99_$LT$sqlite3_allocator..allocator..SQLite3Allocator$u20$as$u20$core..alloc..global..GlobalAlloc$GT$5alloc17h76c5551a8acfc735E', symObjAddr: 0x4F233, symBinAddr: 0x4D643, symSize: 0x1E }
  - { offset: 0x1E2C48, size: 0x8, addend: 0x0, symName: '__ZN99_$LT$sqlite3_allocator..allocator..SQLite3Allocator$u20$as$u20$core..alloc..global..GlobalAlloc$GT$5alloc17h76c5551a8acfc735E', symObjAddr: 0x4F233, symBinAddr: 0x4D643, symSize: 0x1E }
  - { offset: 0x1E2C84, size: 0x8, addend: 0x0, symName: '__ZN99_$LT$sqlite3_allocator..allocator..SQLite3Allocator$u20$as$u20$core..alloc..global..GlobalAlloc$GT$5alloc17h76c5551a8acfc735E', symObjAddr: 0x4F233, symBinAddr: 0x4D643, symSize: 0x1E }
  - { offset: 0x1E2CB4, size: 0x8, addend: 0x0, symName: '__ZN99_$LT$sqlite3_allocator..allocator..SQLite3Allocator$u20$as$u20$core..alloc..global..GlobalAlloc$GT$7dealloc17hbabd342ae3c13ce0E', symObjAddr: 0x4F251, symBinAddr: 0x4D661, symSize: 0x1E }
  - { offset: 0x1E2CF7, size: 0x8, addend: 0x0, symName: '__ZN99_$LT$sqlite3_allocator..allocator..SQLite3Allocator$u20$as$u20$core..alloc..global..GlobalAlloc$GT$7dealloc17hbabd342ae3c13ce0E', symObjAddr: 0x4F251, symBinAddr: 0x4D661, symSize: 0x1E }
  - { offset: 0x1B9974, size: 0x8, addend: 0x0, symName: '__ZN5alloc11collections5btree4node21LeafNode$LT$K$C$V$GT$3new17hbe964572e6a18e57E', symObjAddr: 0x4A320, symBinAddr: 0x48E08, symSize: 0x2A }
  - { offset: 0x1BB9C4, size: 0x8, addend: 0x0, symName: '__ZN4core5array88_$LT$impl$u20$core..ops..index..IndexMut$LT$I$GT$$u20$for$u20$$u5b$T$u3b$$u20$N$u5d$$GT$9index_mut17h45d0ee710e537d3dE', symObjAddr: 0x4A560, symBinAddr: 0x49048, symSize: 0x1F }
  - { offset: 0x1BBA85, size: 0x8, addend: 0x0, symName: '__ZN4core5array88_$LT$impl$u20$core..ops..index..IndexMut$LT$I$GT$$u20$for$u20$$u5b$T$u3b$$u20$N$u5d$$GT$9index_mut17h8e7e147d926a45d4E', symObjAddr: 0x4A57F, symBinAddr: 0x49067, symSize: 0x1F }
  - { offset: 0x1BCE73, size: 0x8, addend: 0x0, symName: __ZN5alloc11collections5btree4node12slice_insert17h5b572c45a7f35706E, symObjAddr: 0x4A414, symBinAddr: 0x48EFC, symSize: 0x73 }
  - { offset: 0x1BCFCA, size: 0x8, addend: 0x0, symName: __ZN5alloc11collections5btree4node12slice_insert17ha63ff09e644d3e13E, symObjAddr: 0x4A487, symBinAddr: 0x48F6F, symSize: 0x67 }
  - { offset: 0x1BD11F, size: 0x8, addend: 0x0, symName: __ZN5alloc11collections5btree4node13move_to_slice17h0d7c61b71ebf7407E, symObjAddr: 0x4A4EE, symBinAddr: 0x48FD6, symSize: 0x26 }
  - { offset: 0x1BD194, size: 0x8, addend: 0x0, symName: __ZN5alloc11collections5btree4node13move_to_slice17h9ea9015fe194767eE, symObjAddr: 0x4A514, symBinAddr: 0x48FFC, symSize: 0x26 }
  - { offset: 0x1BD207, size: 0x8, addend: 0x0, symName: __ZN5alloc11collections5btree4node13move_to_slice17hd18d62c00d1b48d0E, symObjAddr: 0x4A53A, symBinAddr: 0x49022, symSize: 0x26 }
  - { offset: 0x1BF604, size: 0x8, addend: 0x0, symName: '__ZN5alloc11collections5btree4node21LeafNode$LT$K$C$V$GT$3new17hbe964572e6a18e57E', symObjAddr: 0x4A320, symBinAddr: 0x48E08, symSize: 0x2A }
  - { offset: 0x1BF89E, size: 0x8, addend: 0x0, symName: '__ZN5alloc11collections5btree4node119NodeRef$LT$alloc..collections..btree..node..marker..Mut$C$K$C$V$C$alloc..collections..btree..node..marker..Internal$GT$30correct_childrens_parent_links17h116449b594beae9cE', symObjAddr: 0x4A34A, symBinAddr: 0x48E32, symSize: 0x26 }
  - { offset: 0x1BFB22, size: 0x8, addend: 0x0, symName: '__ZN5alloc11collections5btree4node25InternalNode$LT$K$C$V$GT$3new17h03697376723f32daE', symObjAddr: 0x4A370, symBinAddr: 0x48E58, symSize: 0x2A }
  - { offset: 0x1BFDAF, size: 0x8, addend: 0x0, symName: '__ZN5alloc11collections5btree4node121NodeRef$LT$alloc..collections..btree..node..marker..Owned$C$K$C$V$C$alloc..collections..btree..node..marker..Internal$GT$17from_new_internal17ha711b7cde497b1c0E', symObjAddr: 0x4A39A, symBinAddr: 0x48E82, symSize: 0x4C }
  - { offset: 0x1C014C, size: 0x8, addend: 0x0, symName: '__ZN5alloc11collections5btree4node127NodeRef$LT$alloc..collections..btree..node..marker..Dying$C$K$C$V$C$alloc..collections..btree..node..marker..LeafOrInternal$GT$21deallocate_and_ascend17h92de2386ed4584f8E', symObjAddr: 0x4A3E6, symBinAddr: 0x48ECE, symSize: 0x2E }
  - { offset: 0x1C0447, size: 0x8, addend: 0x0, symName: '__ZN5alloc11collections5btree4node210Handle$LT$alloc..collections..btree..node..NodeRef$LT$alloc..collections..btree..node..marker..Mut$C$K$C$V$C$alloc..collections..btree..node..marker..Leaf$GT$$C$alloc..collections..btree..node..marker..Edge$GT$10insert_fit17he518f6f9f1ad0f47E', symObjAddr: 0x4A59E, symBinAddr: 0x49086, symSize: 0x7A }
  - { offset: 0x1C057F, size: 0x8, addend: 0x0, symName: '__ZN5alloc11collections5btree4node214Handle$LT$alloc..collections..btree..node..NodeRef$LT$alloc..collections..btree..node..marker..Mut$C$K$C$V$C$alloc..collections..btree..node..marker..Internal$GT$$C$alloc..collections..btree..node..marker..Edge$GT$10insert_fit17h9449a535a883eedfE', symObjAddr: 0x4A618, symBinAddr: 0x49100, symSize: 0xB8 }
  - { offset: 0x1CF00D, size: 0x8, addend: 0x0, symName: '__ZN70_$LT$serde_json..read..SliceRead$u20$as$u20$serde_json..read..Read$GT$8position17h52a1a5735f3cdb26E', symObjAddr: 0x4D3A8, symBinAddr: 0x4B950, symSize: 0x18 }
  - { offset: 0x1D00E4, size: 0x8, addend: 0x0, symName: __ZN10serde_json4read4HEX017h635df1e8359a8cb7E, symObjAddr: 0x5E2C6, symBinAddr: 0x5C9EE, symSize: 0x0 }
  - { offset: 0x1D0100, size: 0x8, addend: 0x0, symName: __ZN10serde_json4read4HEX117hb28ec1e9995d677dE, symObjAddr: 0x5E4C6, symBinAddr: 0x5CBEE, symSize: 0x0 }
  - { offset: 0x1D014A, size: 0x8, addend: 0x0, symName: '__ZN70_$LT$serde_json..read..SliceRead$u20$as$u20$serde_json..read..Read$GT$8position17h52a1a5735f3cdb26E', symObjAddr: 0x4D3A8, symBinAddr: 0x4B950, symSize: 0x18 }
  - { offset: 0x1D01A6, size: 0x8, addend: 0x0, symName: '__ZN70_$LT$serde_json..read..SliceRead$u20$as$u20$serde_json..read..Read$GT$17decode_hex_escape17hb51f13c11de38f2cE', symObjAddr: 0x4D665, symBinAddr: 0x4BB75, symSize: 0xB3 }
  - { offset: 0x1D0471, size: 0x8, addend: 0x0, symName: '__ZN68_$LT$serde_json..read..StrRead$u20$as$u20$serde_json..read..Read$GT$9parse_str17h2ecb834149c6e837E', symObjAddr: 0x4D8F2, symBinAddr: 0x4BD2A, symSize: 0x356 }
  - { offset: 0x1D0981, size: 0x8, addend: 0x0, symName: '__ZN68_$LT$serde_json..read..StrRead$u20$as$u20$serde_json..read..Read$GT$10ignore_str17haf4a8f04ed4fa4daE', symObjAddr: 0x4DC48, symBinAddr: 0x4C080, symSize: 0x11C }
  - { offset: 0x1D0A48, size: 0x8, addend: 0x0, symName: __ZN10serde_json4read5error17h0549ff2eaf9d9d2eE, symObjAddr: 0x4D552, symBinAddr: 0x508E2, symSize: 0x56 }
  - { offset: 0x1D0B03, size: 0x8, addend: 0x0, symName: __ZN10serde_json4read11next_or_eof17hef87bcae777b9fd1E, symObjAddr: 0x4D5A8, symBinAddr: 0x4BAFC, symSize: 0x3C }
  - { offset: 0x1D0B35, size: 0x8, addend: 0x0, symName: __ZN10serde_json4read11next_or_eof17hef87bcae777b9fd1E, symObjAddr: 0x4D5A8, symBinAddr: 0x4BAFC, symSize: 0x3C }
  - { offset: 0x1D0B8A, size: 0x8, addend: 0x0, symName: __ZN10serde_json4read5error17hfd2d3c68fbc01db7E, symObjAddr: 0x4D5E4, symBinAddr: 0x50938, symSize: 0x46 }
  - { offset: 0x1D0CD2, size: 0x8, addend: 0x0, symName: __ZN10serde_json4read11peek_or_eof17hcfc4c83f3f964534E, symObjAddr: 0x4D718, symBinAddr: 0x4BC28, symSize: 0x35 }
  - { offset: 0x1D0D04, size: 0x8, addend: 0x0, symName: __ZN10serde_json4read11peek_or_eof17hcfc4c83f3f964534E, symObjAddr: 0x4D718, symBinAddr: 0x4BC28, symSize: 0x35 }
  - { offset: 0x1D0D44, size: 0x8, addend: 0x0, symName: __ZN10serde_json4read19push_wtf8_codepoint17hb07809b54f0a8a1eE, symObjAddr: 0x4D74D, symBinAddr: 0x4BC5D, symSize: 0xCA }
  - { offset: 0x1D0FAB, size: 0x8, addend: 0x0, symName: __ZN10serde_json4read5error17hf57a1eb4fe218e32E, symObjAddr: 0x4D817, symBinAddr: 0x5097F, symSize: 0x53 }
  - { offset: 0x1D1066, size: 0x8, addend: 0x0, symName: __ZN10serde_json4read5error17h4b081d5ce78e5c0fE, symObjAddr: 0x4D86A, symBinAddr: 0x509D2, symSize: 0x55 }
  - { offset: 0x1D1B22, size: 0x8, addend: 0x0, symName: __ZN10serde_json4read9SliceRead17position_of_index17hfc1dd98ff7ff6034E, symObjAddr: 0x4D3C0, symBinAddr: 0x4B968, symSize: 0x74 }
  - { offset: 0x1D20CF, size: 0x8, addend: 0x0, symName: __ZN10serde_json4read9SliceRead14skip_to_escape17hccb93e195889c6dfE, symObjAddr: 0x4D434, symBinAddr: 0x4B9DC, symSize: 0x11E }
  - { offset: 0x1D2736, size: 0x8, addend: 0x0, symName: '__ZN5alloc3vec16Vec$LT$T$C$A$GT$4push17h4d821e198a0085f7E', symObjAddr: 0x4D62A, symBinAddr: 0x4BB3A, symSize: 0x3B }
  - { offset: 0x1D28C9, size: 0x8, addend: 0x0, symName: __ZN10serde_json4read9SliceRead19skip_to_escape_slow17hca548b0ba7e96021E, symObjAddr: 0x4D8BF, symBinAddr: 0x50A27, symSize: 0x33 }
  - { offset: 0x7DC2, size: 0x8, addend: 0x0, symName: '__ZN5alloc6borrow12Cow$LT$B$GT$10into_owned17hbc878cc4b270f928E', symObjAddr: 0xA18, symBinAddr: 0xFCC, symSize: 0x34 }
  - { offset: 0x838C, size: 0x8, addend: 0x0, symName: '__ZN5alloc6borrow12Cow$LT$B$GT$10into_owned17hbc878cc4b270f928E', symObjAddr: 0xA18, symBinAddr: 0xFCC, symSize: 0x34 }
  - { offset: 0x190EC2, size: 0x8, addend: 0x0, symName: '__ZN41_$LT$T$u20$as$u20$serde..de..Expected$GT$3fmt17h88ac7041c0baf005E', symObjAddr: 0x41C52, symBinAddr: 0x40BD2, symSize: 0x23 }
  - { offset: 0x190FE1, size: 0x8, addend: 0x0, symName: '__ZN45_$LT$T$u20$as$u20$alloc..string..ToString$GT$9to_string17h1654f5ed8757bb80E.2528', symObjAddr: 0x4463C, symBinAddr: 0x431EC, symSize: 0x5F }
  - { offset: 0x191082, size: 0x8, addend: 0x0, symName: '__ZN45_$LT$T$u20$as$u20$alloc..string..ToString$GT$9to_string17hf2a9aef34ca5bb19E', symObjAddr: 0x448BB, symBinAddr: 0x4346B, symSize: 0x8A }
  - { offset: 0x19124D, size: 0x8, addend: 0x0, symName: '__ZN58_$LT$alloc..string..String$u20$as$u20$core..fmt..Write$GT$10write_char17h99abeeb8cff35533E.2537', symObjAddr: 0x447BA, symBinAddr: 0x4336A, symSize: 0x101 }
  - { offset: 0x191B01, size: 0x8, addend: 0x0, symName: '__ZN63_$LT$alloc..alloc..Global$u20$as$u20$core..alloc..Allocator$GT$8allocate17h7165425281bb57f3E.2468', symObjAddr: 0x41F3A, symBinAddr: 0x40EBA, symSize: 0x21 }
  - { offset: 0x191BFE, size: 0x8, addend: 0x0, symName: __ZN5alloc5alloc15exchange_malloc17h238ed74f6b8dc009E.2471, symObjAddr: 0x41F5B, symBinAddr: 0x40EDB, symSize: 0x15 }
  - { offset: 0x193EC4, size: 0x8, addend: 0x0, symName: '__ZN4core3ptr58drop_in_place$LT$powersync_core..error..PowerSyncError$GT$17h245568b8fe19a9ebE.2529', symObjAddr: 0x4469B, symBinAddr: 0x4324B, symSize: 0xA1 }
  - { offset: 0x19400F, size: 0x8, addend: 0x0, symName: '__ZN4core3ptr50drop_in_place$LT$alloc..borrow..Cow$LT$str$GT$$GT$17he33a250f6e4ad267E.2531', symObjAddr: 0x4473C, symBinAddr: 0x432EC, symSize: 0x13 }
  - { offset: 0x194155, size: 0x8, addend: 0x0, symName: '__ZN4core3ptr63drop_in_place$LT$powersync_core..error..PowerSyncErrorCause$GT$17h995a13d8155e71d8E.2532', symObjAddr: 0x4474F, symBinAddr: 0x432FF, symSize: 0x5A }
  - { offset: 0x1945B1, size: 0x8, addend: 0x0, symName: '__ZN4core3ptr62drop_in_place$LT$powersync_core..schema..table_info..Table$GT$17h0dc0831112f6af39E.2599', symObjAddr: 0x46BD4, symBinAddr: 0x4575C, symSize: 0x75 }
  - { offset: 0x194C84, size: 0x8, addend: 0x0, symName: '__ZN44_$LT$$RF$T$u20$as$u20$core..fmt..Display$GT$3fmt17h053ea2ae4a219e21E', symObjAddr: 0x41C75, symBinAddr: 0x40BF5, symSize: 0x15A }
  - { offset: 0x194DD6, size: 0x8, addend: 0x0, symName: '__ZN44_$LT$$RF$T$u20$as$u20$core..fmt..Display$GT$3fmt17hd16f6fa2d301f6b1E', symObjAddr: 0x41E02, symBinAddr: 0x40D82, symSize: 0x138 }
  - { offset: 0x194F76, size: 0x8, addend: 0x0, symName: '__ZN115_$LT$core..iter..adapters..filter_map..FilterMap$LT$I$C$F$GT$$u20$as$u20$core..iter..traits..iterator..Iterator$GT$4next17h37c872a1edf460bfE', symObjAddr: 0x46C49, symBinAddr: 0x457D1, symSize: 0xEA }
  - { offset: 0x19559E, size: 0x8, addend: 0x0, symName: '__ZN91_$LT$core..slice..iter..Iter$LT$T$GT$$u20$as$u20$core..iter..traits..iterator..Iterator$GT$4next17haf644a3087e73645E', symObjAddr: 0x46D87, symBinAddr: 0x4590F, symSize: 0x1A }
  - { offset: 0x197CB3, size: 0x8, addend: 0x0, symName: __ZN14powersync_core5views18powersync_view_sql17he24e1e02d0233496E, symObjAddr: 0x44F85, symBinAddr: 0x43B0D, symSize: 0x437 }
  - { offset: 0x19861B, size: 0x8, addend: 0x0, symName: __ZN14powersync_core5views28powersync_trigger_delete_sql17h661e2da446dff324E, symObjAddr: 0x453BC, symBinAddr: 0x43F44, symSize: 0x698 }
  - { offset: 0x199258, size: 0x8, addend: 0x0, symName: __ZN14powersync_core5views28powersync_trigger_insert_sql17hc3ef37a5acf5635eE, symObjAddr: 0x45A54, symBinAddr: 0x445DC, symSize: 0x44A }
  - { offset: 0x1999A2, size: 0x8, addend: 0x0, symName: __ZN14powersync_core5views28powersync_trigger_update_sql17h2123ca33a82b8a7aE, symObjAddr: 0x45E9E, symBinAddr: 0x44A26, symSize: 0x9F2 }
  - { offset: 0x19A927, size: 0x8, addend: 0x0, symName: __ZN14powersync_core5views20json_object_fragment17h336ea1e69fb72e33E, symObjAddr: 0x468CC, symBinAddr: 0x45454, symSize: 0x308 }
  - { offset: 0x19B3CE, size: 0x8, addend: 0x0, symName: '__ZN75_$LT$powersync_core..bson..error..BsonError$u20$as$u20$serde..de..Error$GT$6custom17hc7092e67ff9cd4e5E', symObjAddr: 0x421BC, symBinAddr: 0x410DC, symSize: 0x29 }
  - { offset: 0x19B441, size: 0x8, addend: 0x0, symName: '__ZN75_$LT$powersync_core..bson..error..BsonError$u20$as$u20$serde..de..Error$GT$6custom17h357eee7fb5069e77E', symObjAddr: 0x44B3C, symBinAddr: 0x436C4, symSize: 0x30 }
  - { offset: 0x19B59C, size: 0x8, addend: 0x0, symName: '__ZN77_$LT$powersync_core..bson..error..ErrorKind$u20$as$u20$core..fmt..Display$GT$3fmt17h00f1f33b223bae1bE', symObjAddr: 0x4496F, symBinAddr: 0x434F7, symSize: 0x1CD }
  - { offset: 0x19C5C8, size: 0x8, addend: 0x0, symName: '__ZN76_$LT$powersync_core..error..PowerSyncError$u20$as$u20$core..fmt..Display$GT$3fmt17hb2addd4b9fa9fa9bE', symObjAddr: 0x44F3C, symBinAddr: 0x43AC4, symSize: 0x17 }
  - { offset: 0x19C5F4, size: 0x8, addend: 0x0, symName: '__ZN125_$LT$powersync_core..error..PowerSyncError$u20$as$u20$core..convert..From$LT$powersync_core..error..RawPowerSyncError$GT$$GT$4from17h13e0b3b690766597E', symObjAddr: 0x44C41, symBinAddr: 0x437C9, symSize: 0x26 }
  - { offset: 0x19C645, size: 0x8, addend: 0x0, symName: '__ZN116_$LT$powersync_core..error..PowerSyncError$u20$as$u20$core..convert..From$LT$sqlite_nostd..nostd..ResultCode$GT$$GT$4from17hd681e90d511d24d8E', symObjAddr: 0x44F53, symBinAddr: 0x43ADB, symSize: 0x32 }
  - { offset: 0x19CB6F, size: 0x8, addend: 0x0, symName: '__ZN62_$LT$serde_json..error..Error$u20$as$u20$serde..ser..Error$GT$6custom17hf19d4d247b8f88b7E', symObjAddr: 0x44945, symBinAddr: 0x502B9, symSize: 0x2A }
  - { offset: 0x19CFA1, size: 0x8, addend: 0x0, symName: '__ZN5serde2de5impls75_$LT$impl$u20$serde..de..Deserialize$u20$for$u20$alloc..rc..Rc$LT$T$GT$$GT$11deserialize17h7b323997b4953b88E', symObjAddr: 0x4259C, symBinAddr: 0x4114C, symSize: 0x814 }
  - { offset: 0x19DBB5, size: 0x8, addend: 0x0, symName: '__ZN5serde2de5impls75_$LT$impl$u20$serde..de..Deserialize$u20$for$u20$alloc..rc..Rc$LT$T$GT$$GT$11deserialize17h85d2417402ed353dE', symObjAddr: 0x42DB0, symBinAddr: 0x41960, symSize: 0x242 }
  - { offset: 0x19E33A, size: 0x8, addend: 0x0, symName: '__ZN5serde2de5impls75_$LT$impl$u20$serde..de..Deserialize$u20$for$u20$alloc..rc..Rc$LT$T$GT$$GT$11deserialize17hdf5753362e278384E', symObjAddr: 0x43012, symBinAddr: 0x41BC2, symSize: 0x3E7 }
  - { offset: 0x19EA76, size: 0x8, addend: 0x0, symName: '__ZN5serde2de5impls75_$LT$impl$u20$serde..de..Deserialize$u20$for$u20$alloc..rc..Rc$LT$T$GT$$GT$11deserialize17hedc3762b6091403fE', symObjAddr: 0x433F9, symBinAddr: 0x41FA9, symSize: 0x619 }
  - { offset: 0x19F3A3, size: 0x8, addend: 0x0, symName: '__ZN5serde2de5impls75_$LT$impl$u20$serde..de..Deserialize$u20$for$u20$alloc..rc..Rc$LT$T$GT$$GT$11deserialize17heeac37a14097f043E', symObjAddr: 0x43A12, symBinAddr: 0x425C2, symSize: 0xC2A }
  - { offset: 0x1A0575, size: 0x8, addend: 0x0, symName: '__ZN41_$LT$T$u20$as$u20$serde..de..Expected$GT$3fmt17h88ac7041c0baf005E', symObjAddr: 0x41C52, symBinAddr: 0x40BD2, symSize: 0x23 }
  - { offset: 0x1A05F4, size: 0x8, addend: 0x0, symName: __ZN5serde2de5Error12invalid_type17h90730a7374111a09E, symObjAddr: 0x4215B, symBinAddr: 0x4FEE3, symSize: 0x61 }
  - { offset: 0x1A0657, size: 0x8, addend: 0x0, symName: __ZN5serde2de5Error13invalid_value17h57b71d7976b3de9fE, symObjAddr: 0x42229, symBinAddr: 0x4FF45, symSize: 0x61 }
  - { offset: 0x1A06BA, size: 0x8, addend: 0x0, symName: __ZN5serde2de5Error13missing_field17h5732b791b9bea108E, symObjAddr: 0x4228A, symBinAddr: 0x4FFA6, symSize: 0x57 }
  - { offset: 0x1A0711, size: 0x8, addend: 0x0, symName: __ZN5serde2de5Error13missing_field17ha2149374137671acE, symObjAddr: 0x422E1, symBinAddr: 0x4FFFD, symSize: 0x57 }
  - { offset: 0x1A0768, size: 0x8, addend: 0x0, symName: __ZN5serde2de5Error14invalid_length17h35f16928d1d72e73E, symObjAddr: 0x42338, symBinAddr: 0x50054, symSize: 0x6F }
  - { offset: 0x1A07CB, size: 0x8, addend: 0x0, symName: __ZN5serde2de5Error14invalid_length17haa4dc5e822424be6E, symObjAddr: 0x423A7, symBinAddr: 0x500C3, symSize: 0x6F }
  - { offset: 0x1A082E, size: 0x8, addend: 0x0, symName: __ZN5serde2de5Error15duplicate_field17h736589eeb424bca0E, symObjAddr: 0x42416, symBinAddr: 0x50132, symSize: 0x57 }
  - { offset: 0x1A0885, size: 0x8, addend: 0x0, symName: __ZN5serde2de5Error15duplicate_field17heb49b7b7693501eaE, symObjAddr: 0x4246D, symBinAddr: 0x50189, symSize: 0x57 }
  - { offset: 0x1A08DC, size: 0x8, addend: 0x0, symName: __ZN5serde2de5Error15unknown_variant17h8775f3806d3de841E, symObjAddr: 0x424C4, symBinAddr: 0x501E0, symSize: 0x6C }
  - { offset: 0x1A093F, size: 0x8, addend: 0x0, symName: __ZN5serde2de5Error15unknown_variant17h8babdf48796ae1e6E, symObjAddr: 0x42530, symBinAddr: 0x5024C, symSize: 0x6C }
  - { offset: 0x1A129D, size: 0x8, addend: 0x0, symName: __ZN4core3fmt9Formatter9write_fmt17h6547b3ea83dd1893E.2464, symObjAddr: 0x41DCF, symBinAddr: 0x40D4F, symSize: 0x33 }
  - { offset: 0x1A15DF, size: 0x8, addend: 0x0, symName: '__ZN5alloc2rc15Rc$LT$T$C$A$GT$11from_box_in17h577c03d87b9ab553E', symObjAddr: 0x41F70, symBinAddr: 0x40EF0, symSize: 0x50 }
  - { offset: 0x1A1A94, size: 0x8, addend: 0x0, symName: '__ZN5alloc2rc15Rc$LT$T$C$A$GT$9drop_slow17h1e0795b49753a754E', symObjAddr: 0x41FC0, symBinAddr: 0x40F40, symSize: 0x44 }
  - { offset: 0x1A1CF6, size: 0x8, addend: 0x0, symName: '__ZN5alloc2rc15Rc$LT$T$C$A$GT$9drop_slow17h41768dcf9611339dE', symObjAddr: 0x42004, symBinAddr: 0x40F84, symSize: 0x37 }
  - { offset: 0x1A1F72, size: 0x8, addend: 0x0, symName: '__ZN5alloc2rc15Rc$LT$T$C$A$GT$9drop_slow17h5dd433e02a299728E', symObjAddr: 0x4203B, symBinAddr: 0x40FBB, symSize: 0x44 }
  - { offset: 0x1A2200, size: 0x8, addend: 0x0, symName: '__ZN5alloc2rc15Rc$LT$T$C$A$GT$9drop_slow17ha494631a82c68e8dE', symObjAddr: 0x4207F, symBinAddr: 0x40FFF, symSize: 0x37 }
  - { offset: 0x1A24A3, size: 0x8, addend: 0x0, symName: '__ZN5alloc2rc15Rc$LT$T$C$A$GT$9drop_slow17hd25ec22b6986b804E', symObjAddr: 0x420B6, symBinAddr: 0x41036, symSize: 0x44 }
  - { offset: 0x1A277A, size: 0x8, addend: 0x0, symName: '__ZN5alloc2rc15Rc$LT$T$C$A$GT$9drop_slow17hdac7458aaecfe37dE', symObjAddr: 0x420FA, symBinAddr: 0x4107A, symSize: 0x61 }
  - { offset: 0x1A2A50, size: 0x8, addend: 0x0, symName: __ZN14powersync_core4bson5error9BsonError3new17hc02052e1fa0d930cE, symObjAddr: 0x421E5, symBinAddr: 0x41105, symSize: 0x44 }
  - { offset: 0x1A2E46, size: 0x8, addend: 0x0, symName: '__ZN4core6result19Result$LT$T$C$E$GT$3map17h040f73155599eb7dE', symObjAddr: 0x42FF2, symBinAddr: 0x41BA2, symSize: 0x20 }
  - { offset: 0x1A306B, size: 0x8, addend: 0x0, symName: '__ZN4core6result19Result$LT$T$C$E$GT$6expect17h11ee305b4653657eE.2534', symObjAddr: 0x447A9, symBinAddr: 0x43359, symSize: 0x11 }
  - { offset: 0x1A33AA, size: 0x8, addend: 0x0, symName: __ZN14powersync_core5error14PowerSyncError6errstr17he8899c4b43fcb7e4E, symObjAddr: 0x44B6C, symBinAddr: 0x436F4, symSize: 0xD5 }
  - { offset: 0x1A3763, size: 0x8, addend: 0x0, symName: __ZN14powersync_core5error14PowerSyncError14argument_error17h3c1a6df0317f5d43E, symObjAddr: 0x44C67, symBinAddr: 0x437EF, symSize: 0x3E }
  - { offset: 0x1A37AC, size: 0x8, addend: 0x0, symName: __ZN14powersync_core5error14PowerSyncError17as_argument_error17h66969063120cabdaE, symObjAddr: 0x44CA5, symBinAddr: 0x4382D, symSize: 0x44 }
  - { offset: 0x1A37F5, size: 0x8, addend: 0x0, symName: __ZN14powersync_core5error14PowerSyncError11state_error17he9660e568a1198f2E, symObjAddr: 0x44CE9, symBinAddr: 0x43871, symSize: 0x2F }
  - { offset: 0x1A3835, size: 0x8, addend: 0x0, symName: __ZN14powersync_core5error14PowerSyncError19sync_protocol_error17h24962e019e584094E, symObjAddr: 0x44D18, symBinAddr: 0x438A0, symSize: 0x37 }
  - { offset: 0x1A38A8, size: 0x8, addend: 0x0, symName: __ZN14powersync_core5error14PowerSyncError16unknown_internal17hf07c33fc7572e5e1E, symObjAddr: 0x44D4F, symBinAddr: 0x438D7, symSize: 0x2C }
  - { offset: 0x1A38F7, size: 0x8, addend: 0x0, symName: __ZN14powersync_core5error14PowerSyncError8internal17hd10b5d6e94b562f3E, symObjAddr: 0x44D7B, symBinAddr: 0x43903, symSize: 0x30 }
  - { offset: 0x1A395A, size: 0x8, addend: 0x0, symName: __ZN14powersync_core5error14PowerSyncError12apply_to_ctx17h60bbce06aa4acf29E, symObjAddr: 0x44DAB, symBinAddr: 0x43933, symSize: 0x92 }
  - { offset: 0x1A3ACB, size: 0x8, addend: 0x0, symName: __ZN5alloc6string6String10insert_str17hff208cab5e9a0df4E, symObjAddr: 0x44E3D, symBinAddr: 0x439C5, symSize: 0x82 }
  - { offset: 0x1A3CA5, size: 0x8, addend: 0x0, symName: __ZN14powersync_core5error14PowerSyncError17sqlite_error_code17hcbb31fc8bcd20541E, symObjAddr: 0x44EBF, symBinAddr: 0x43A47, symSize: 0x7D }
  - { offset: 0x1A43ED, size: 0x8, addend: 0x0, symName: '__ZN4core6result19Result$LT$T$C$E$GT$7map_err17hde9515bacb7e6529E', symObjAddr: 0x46890, symBinAddr: 0x45418, symSize: 0x3C }
  - { offset: 0x1A4594, size: 0x8, addend: 0x0, symName: '__ZN5alloc3vec16Vec$LT$T$C$A$GT$4push17h16235b1acbbe6c66E.2602', symObjAddr: 0x46D33, symBinAddr: 0x458BB, symSize: 0x54 }
  - { offset: 0x1ED018, size: 0x8, addend: 0x0, symName: '__ZN42_$LT$$RF$T$u20$as$u20$core..fmt..Debug$GT$3fmt17h51238f4ae97a5cc2E', symObjAddr: 0x4F503, symBinAddr: 0x4D913, symSize: 0x9BD }
  - { offset: 0x1EDB7B, size: 0x8, addend: 0x0, symName: '__ZN4core3ptr47drop_in_place$LT$alloc..ffi..c_str..CString$GT$17h79309d05f120c488E', symObjAddr: 0x4FF15, symBinAddr: 0x4E325, symSize: 0x14 }
  - { offset: 0x1EDCE1, size: 0x8, addend: 0x0, symName: '__ZN4core3ptr105drop_in_place$LT$core..result..Result$LT$alloc..ffi..c_str..CString$C$alloc..ffi..c_str..NulError$GT$$GT$17h8a85931fda5c37d1E', symObjAddr: 0x5001F, symBinAddr: 0x4E42F, symSize: 0x2C }
  - { offset: 0x1EE20E, size: 0x8, addend: 0x0, symName: '__ZN42_$LT$$RF$T$u20$as$u20$core..fmt..Debug$GT$3fmt17h51238f4ae97a5cc2E', symObjAddr: 0x4F503, symBinAddr: 0x4D913, symSize: 0x9BD }
  - { offset: 0x1EE584, size: 0x8, addend: 0x0, symName: '__ZN95_$LT$$BP$mut$u20$sqlite3_capi..bindings..sqlite3$u20$as$u20$sqlite_nostd..nostd..Connection$GT$11commit_hook17hc03743c11eb0b2f1E', symObjAddr: 0x4FF29, symBinAddr: 0x4E339, symSize: 0x1E }
  - { offset: 0x1EE5D2, size: 0x8, addend: 0x0, symName: '__ZN95_$LT$$BP$mut$u20$sqlite3_capi..bindings..sqlite3$u20$as$u20$sqlite_nostd..nostd..Connection$GT$11commit_hook17hc03743c11eb0b2f1E', symObjAddr: 0x4FF29, symBinAddr: 0x4E339, symSize: 0x1E }
  - { offset: 0x1EE611, size: 0x8, addend: 0x0, symName: '__ZN95_$LT$$BP$mut$u20$sqlite3_capi..bindings..sqlite3$u20$as$u20$sqlite_nostd..nostd..Connection$GT$18create_function_v217he136efdcd2d13a08E', symObjAddr: 0x4FF47, symBinAddr: 0x4E357, symSize: 0xBB }
  - { offset: 0x1EE776, size: 0x8, addend: 0x0, symName: '__ZN95_$LT$$BP$mut$u20$sqlite3_capi..bindings..sqlite3$u20$as$u20$sqlite_nostd..nostd..Connection$GT$13rollback_hook17h05209590225f021bE', symObjAddr: 0x5004B, symBinAddr: 0x4E45B, symSize: 0x1E }
  - { offset: 0x1EE7C4, size: 0x8, addend: 0x0, symName: '__ZN95_$LT$$BP$mut$u20$sqlite3_capi..bindings..sqlite3$u20$as$u20$sqlite_nostd..nostd..Connection$GT$13rollback_hook17h05209590225f021bE', symObjAddr: 0x5004B, symBinAddr: 0x4E45B, symSize: 0x1E }
  - { offset: 0x1EE803, size: 0x8, addend: 0x0, symName: '__ZN95_$LT$$BP$mut$u20$sqlite3_capi..bindings..sqlite3$u20$as$u20$sqlite_nostd..nostd..Connection$GT$11update_hook17h34da95e8caed859cE', symObjAddr: 0x50069, symBinAddr: 0x4E479, symSize: 0x1E }
  - { offset: 0x1EE851, size: 0x8, addend: 0x0, symName: '__ZN95_$LT$$BP$mut$u20$sqlite3_capi..bindings..sqlite3$u20$as$u20$sqlite_nostd..nostd..Connection$GT$11update_hook17h34da95e8caed859cE', symObjAddr: 0x50069, symBinAddr: 0x4E479, symSize: 0x1E }
  - { offset: 0x1EE88F, size: 0x8, addend: 0x0, symName: '__ZN95_$LT$$BP$mut$u20$sqlite3_capi..bindings..sqlite3$u20$as$u20$sqlite_nostd..nostd..Connection$GT$6errmsg17h3746d2a8dde55072E', symObjAddr: 0x50087, symBinAddr: 0x4E497, symSize: 0xF4 }
  - { offset: 0x1EEB58, size: 0x8, addend: 0x0, symName: '__ZN95_$LT$$BP$mut$u20$sqlite3_capi..bindings..sqlite3$u20$as$u20$sqlite_nostd..nostd..Connection$GT$14get_autocommit17h9e2b06d0004e44cfE', symObjAddr: 0x5017B, symBinAddr: 0x4E58B, symSize: 0x25 }
  - { offset: 0x1EEBE3, size: 0x8, addend: 0x0, symName: '__ZN70_$LT$sqlite_nostd..nostd..ResultCode$u20$as$u20$core..fmt..Display$GT$3fmt17h343fec406e3274c2E', symObjAddr: 0x4FEC0, symBinAddr: 0x4E2D0, symSize: 0x55 }
  - { offset: 0x1EECB6, size: 0x8, addend: 0x0, symName: __ZN12sqlite_nostd5nostd10convert_rc17h5d80d46878c9624fE, symObjAddr: 0x50002, symBinAddr: 0x4E412, symSize: 0x1D }
  - { offset: 0x1EEDB9, size: 0x8, addend: 0x0, symName: '__ZN74_$LT$sqlite_nostd..nostd..ManagedStmt$u20$as$u20$core..ops..drop..Drop$GT$4drop17hbf73ccd1612b5926E', symObjAddr: 0x5020A, symBinAddr: 0x4E61A, symSize: 0x1E }
  - { offset: 0x1EEDE3, size: 0x8, addend: 0x0, symName: '__ZN74_$LT$sqlite_nostd..nostd..ManagedStmt$u20$as$u20$core..ops..drop..Drop$GT$4drop17hbf73ccd1612b5926E', symObjAddr: 0x5020A, symBinAddr: 0x4E61A, symSize: 0x1E }
  - { offset: 0x1EEE1A, size: 0x8, addend: 0x0, symName: '__ZN94_$LT$$BP$mut$u20$sqlite3_capi..bindings..sqlite3_vtab$u20$as$u20$sqlite_nostd..nostd..VTab$GT$7set_err17hf999a6bfb6aabddfE', symObjAddr: 0x50228, symBinAddr: 0x4E638, symSize: 0x45 }
  - { offset: 0x1EEEB2, size: 0x8, addend: 0x0, symName: __ZN12sqlite_nostd5nostd12declare_vtab17h6e1a8fe3affa248aE, symObjAddr: 0x5026D, symBinAddr: 0x4E67D, symSize: 0x90 }
  - { offset: 0x1EF04F, size: 0x8, addend: 0x0, symName: __ZN12sqlite_nostd5nostd11vtab_config17hedee893e710ec129E, symObjAddr: 0x502FD, symBinAddr: 0x4E70D, symSize: 0x22 }
  - { offset: 0x1EF090, size: 0x8, addend: 0x0, symName: __ZN12sqlite_nostd5nostd11vtab_config17hedee893e710ec129E, symObjAddr: 0x502FD, symBinAddr: 0x4E70D, symSize: 0x22 }
  - { offset: 0x1EFC4F, size: 0x8, addend: 0x0, symName: __ZN12sqlite_nostd5nostd11ManagedStmt5reset17h4d40900d21068d6fE, symObjAddr: 0x501A0, symBinAddr: 0x4E5B0, symSize: 0x26 }
  - { offset: 0x1EFD0B, size: 0x8, addend: 0x0, symName: __ZN12sqlite_nostd5nostd11ManagedStmt4step17h88c1c04c4db13435E, symObjAddr: 0x501C6, symBinAddr: 0x4E5D6, symSize: 0x44 }
  - { offset: 0xF216, size: 0x8, addend: 0x0, symName: __ZN4core3str8converts9from_utf817h149b209f85ff1546E, symObjAddr: 0x1AEF, symBinAddr: 0x20A3, symSize: 0x1E6 }
  - { offset: 0xF461, size: 0x8, addend: 0x0, symName: __ZN4core3str8converts9from_utf817h149b209f85ff1546E, symObjAddr: 0x1AEF, symBinAddr: 0x20A3, symSize: 0x1E6 }
  - { offset: 0xF8B6, size: 0x8, addend: 0x0, symName: '__ZN4core3fmt3num3imp51_$LT$impl$u20$core..fmt..Display$u20$for$u20$u8$GT$3fmt17h0f4ab095e608bcfaE', symObjAddr: 0x1CD5, symBinAddr: 0x2289, symSize: 0x15 }
  - { offset: 0xF8F8, size: 0x8, addend: 0x0, symName: '__ZN4core3fmt3num3imp20_$LT$impl$u20$u8$GT$4_fmt17heacbc75ec2bae7f4E', symObjAddr: 0x1CEA, symBinAddr: 0x229E, symSize: 0x80 }
  - { offset: 0xFB51, size: 0x8, addend: 0x0, symName: '__ZN4core3fmt3num3imp52_$LT$impl$u20$core..fmt..Display$u20$for$u20$u32$GT$3fmt17h8284adc56aa117e7E', symObjAddr: 0x1D6A, symBinAddr: 0x231E, symSize: 0x14 }
  - { offset: 0xFB93, size: 0x8, addend: 0x0, symName: '__ZN4core3fmt3num3imp21_$LT$impl$u20$u32$GT$4_fmt17h6d788aa1db8ed4cbE', symObjAddr: 0x1D7E, symBinAddr: 0x2332, symSize: 0xDD }
  - { offset: 0xFE96, size: 0x8, addend: 0x0, symName: '__ZN4core3fmt3num3imp52_$LT$impl$u20$core..fmt..Display$u20$for$u20$i32$GT$3fmt17h9f71328146e169d5E', symObjAddr: 0x1E5B, symBinAddr: 0x240F, symSize: 0x1B }
  - { offset: 0xFF11, size: 0x8, addend: 0x0, symName: '__ZN4core3fmt3num3imp52_$LT$impl$u20$core..fmt..Display$u20$for$u20$u64$GT$3fmt17hb2382c0914b902f9E', symObjAddr: 0x1E76, symBinAddr: 0x242A, symSize: 0x15 }
  - { offset: 0xFF53, size: 0x8, addend: 0x0, symName: '__ZN4core3fmt3num3imp21_$LT$impl$u20$u64$GT$4_fmt17h014cfd7552a0dd7bE', symObjAddr: 0x1E8B, symBinAddr: 0x243F, symSize: 0xFA }
  - { offset: 0x10226, size: 0x8, addend: 0x0, symName: '__ZN4core3fmt3num3imp52_$LT$impl$u20$core..fmt..Display$u20$for$u20$i64$GT$3fmt17hdd61f74a24905419E', symObjAddr: 0x1F85, symBinAddr: 0x2539, symSize: 0x23 }
  - { offset: 0x1037C, size: 0x8, addend: 0x0, symName: '__ZN4core3fmt3num3imp54_$LT$impl$u20$core..fmt..Display$u20$for$u20$usize$GT$3fmt17hea9e630f68a4454fE', symObjAddr: 0x1FA8, symBinAddr: 0x255C, symSize: 0xEB }
  - { offset: 0x1F22B, size: 0x8, addend: 0x0, symName: __ZN6memchr4arch6x86_646memchr11memrchr_raw6detect17h327a51f132c08941E, symObjAddr: 0x494B, symBinAddr: 0x4EA7, symSize: 0x18 }
  - { offset: 0x1F25F, size: 0x8, addend: 0x0, symName: __ZN6memchr4arch6x86_646memchr11memrchr_raw2FN17ha87efd4928a9ac6dE, symObjAddr: 0x5EE30, symBinAddr: 0x60078, symSize: 0x0 }
  - { offset: 0x1F26C, size: 0x8, addend: 0x0, symName: __ZN6memchr4arch6x86_646memchr11memrchr_raw6detect17h327a51f132c08941E, symObjAddr: 0x494B, symBinAddr: 0x4EA7, symSize: 0x18 }
  - { offset: 0x1F318, size: 0x8, addend: 0x0, symName: __ZN6memchr4arch6x86_646memchr11memrchr_raw9find_sse217he2bbd6006c41890fE, symObjAddr: 0x4963, symBinAddr: 0x4EBF, symSize: 0x174 }
  - { offset: 0x1FB57, size: 0x8, addend: 0x0, symName: __ZN6memchr4arch6x86_646memchr9count_raw2FN17h13961da963476f5eE, symObjAddr: 0x5EE38, symBinAddr: 0x60080, symSize: 0x0 }
  - { offset: 0x1FB65, size: 0x8, addend: 0x0, symName: __ZN6memchr4arch6x86_646memchr9count_raw6detect17hc5888124b4946abdE, symObjAddr: 0x4AD7, symBinAddr: 0x5033, symSize: 0x18 }
  - { offset: 0x1FC11, size: 0x8, addend: 0x0, symName: __ZN6memchr4arch6x86_646memchr9count_raw9find_sse217hc823fe3a9206e7cfE, symObjAddr: 0x4AEF, symBinAddr: 0x504B, symSize: 0x239 }
  - { offset: 0x6916, size: 0x8, addend: 0x0, symName: __ZN5alloc3ffi5c_str7CString19_from_vec_unchecked17h4ff0b1b3be4bcd9cE, symObjAddr: 0x815, symBinAddr: 0xDC9, symSize: 0xE8 }
  - { offset: 0x6D74, size: 0x8, addend: 0x0, symName: '__ZN72_$LT$$RF$str$u20$as$u20$alloc..ffi..c_str..CString..new..SpecNewImpl$GT$13spec_new_impl17h8052faafffdb3f39E', symObjAddr: 0x8FD, symBinAddr: 0xEB1, symSize: 0x11B }
  - { offset: 0x7754, size: 0x8, addend: 0x0, symName: __ZN5alloc3ffi5c_str7CString19_from_vec_unchecked17h4ff0b1b3be4bcd9cE, symObjAddr: 0x815, symBinAddr: 0xDC9, symSize: 0xE8 }
  - { offset: 0x1D75B, size: 0x8, addend: 0x0, symName: __ZN4core3num9diy_float2Fp12normalize_to17hc449dbe2ce38b5d8E, symObjAddr: 0x4755, symBinAddr: 0x4CB9, symSize: 0x46 }
  - { offset: 0x1D7A9, size: 0x8, addend: 0x0, symName: '__ZN87_$LT$core..str..lossy..Utf8Chunks$u20$as$u20$core..iter..traits..iterator..Iterator$GT$4next17h969d2f0a44801d57E', symObjAddr: 0x479B, symBinAddr: 0x4CFF, symSize: 0x19A }
  - { offset: 0x1EC3E, size: 0x8, addend: 0x0, symName: __ZN4core4cell22panic_already_borrowed17hc0037bfea0bff746E, symObjAddr: 0x4935, symBinAddr: 0x4E8E9, symSize: 0x9 }
  - { offset: 0x1EFFD, size: 0x8, addend: 0x0, symName: __ZN4core3num9diy_float2Fp12normalize_to17hc449dbe2ce38b5d8E, symObjAddr: 0x4755, symBinAddr: 0x4CB9, symSize: 0x46 }
  - { offset: 0x1F13F, size: 0x8, addend: 0x0, symName: __ZN4core3ffi5c_str4CStr6to_str17hd31c0887b10dc31eE, symObjAddr: 0x493E, symBinAddr: 0x4E9A, symSize: 0xD }
  - { offset: 0xC1C42, size: 0x8, addend: 0x0, symName: '__ZN108_$LT$alloc..collections..btree..map..Iter$LT$K$C$V$GT$$u20$as$u20$core..iter..traits..iterator..Iterator$GT$4next17hdd63d14110fa88edE', symObjAddr: 0x1B050, symBinAddr: 0x1AA80, symSize: 0xE5 }
  - { offset: 0xC1D5E, size: 0x8, addend: 0x0, symName: '__ZN99_$LT$core..array..iter..IntoIter$LT$T$C$_$GT$$u20$as$u20$core..iter..traits..iterator..Iterator$GT$4next17h0bba979d1b60feafE', symObjAddr: 0x1BABC, symBinAddr: 0x1B4EC, symSize: 0x29 }
  - { offset: 0xC220C, size: 0x8, addend: 0x0, symName: __ZN4core3cmp9PartialEq2ne17hda019a7c876d1fdfE, symObjAddr: 0x1B3AE, symBinAddr: 0x1ADDE, symSize: 0xD }
  - { offset: 0xC65BD, size: 0x8, addend: 0x0, symName: '__ZN110_$LT$core..ops..range..RangeFrom$LT$usize$GT$$u20$as$u20$core..slice..index..SliceIndex$LT$$u5b$T$u5d$$GT$$GT$5index17hbdc8652c6d824573E.1025', symObjAddr: 0x1CBE3, symBinAddr: 0x1C613, symSize: 0x1E }
  - { offset: 0xC6E24, size: 0x8, addend: 0x0, symName: __ZN4core5slice4sort6shared9smallsort11insert_tail17h2a55d7991bf8b7ddE, symObjAddr: 0x1B5BC, symBinAddr: 0x1AFEC, symSize: 0x72 }
  - { offset: 0xC6F6C, size: 0x8, addend: 0x0, symName: __ZN4core5slice4sort6shared9smallsort11insert_tail17h9e41b279d763dc02E, symObjAddr: 0x1B649, symBinAddr: 0x1B079, symSize: 0x9F }
  - { offset: 0xC70D1, size: 0x8, addend: 0x0, symName: __ZN4core5slice4sort6shared9smallsort12sort4_stable17h15b04244f6eba715E, symObjAddr: 0x1B6E8, symBinAddr: 0x1B118, symSize: 0x108 }
  - { offset: 0xC73B6, size: 0x8, addend: 0x0, symName: __ZN4core5slice4sort6shared9smallsort12sort4_stable17hcbfd0c715456f72cE, symObjAddr: 0x1B7F0, symBinAddr: 0x1B220, symSize: 0x16F }
  - { offset: 0xC786E, size: 0x8, addend: 0x0, symName: __ZN4core5slice4sort6shared9smallsort12sort8_stable17h3051ab89c581c3d2E, symObjAddr: 0x1B95F, symBinAddr: 0x1B38F, symSize: 0x43 }
  - { offset: 0xC7A01, size: 0x8, addend: 0x0, symName: __ZN4core5slice4sort6shared9smallsort19bidirectional_merge17h795c905d77253397E, symObjAddr: 0x1B9A2, symBinAddr: 0x1B3D2, symSize: 0x11A }
  - { offset: 0xC974A, size: 0x8, addend: 0x0, symName: '__ZN4core4hash5impls52_$LT$impl$u20$core..hash..Hash$u20$for$u20$$RF$T$GT$4hash17he7fe29da0bbc0a59E', symObjAddr: 0x1CA58, symBinAddr: 0x1C488, symSize: 0x18B }
  - { offset: 0xCA7FC, size: 0x8, addend: 0x0, symName: '__ZN92_$LT$powersync_core..sync..checkpoint..OwnedBucketChecksum$u20$as$u20$core..clone..Clone$GT$5clone17hdb053edaa6fbccc2E', symObjAddr: 0x1CDE1, symBinAddr: 0x1C811, symSize: 0x6E }
  - { offset: 0xCBE23, size: 0x8, addend: 0x0, symName: '__ZN110_$LT$alloc..collections..btree..map..Values$LT$K$C$V$GT$$u20$as$u20$core..iter..traits..iterator..Iterator$GT$4next17he288e00be1434d65E', symObjAddr: 0x1B215, symBinAddr: 0x1AC45, symSize: 0x12 }
  - { offset: 0xCC70C, size: 0x8, addend: 0x0, symName: '__ZN108_$LT$alloc..collections..btree..map..Iter$LT$K$C$V$GT$$u20$as$u20$core..iter..traits..iterator..Iterator$GT$4next17hdd63d14110fa88edE', symObjAddr: 0x1B050, symBinAddr: 0x1AA80, symSize: 0xE5 }
  - { offset: 0xCCD2B, size: 0x8, addend: 0x0, symName: '__ZN108_$LT$alloc..collections..btree..map..Iter$LT$K$C$V$GT$$u20$as$u20$core..iter..traits..iterator..Iterator$GT$4next17hefd7e1d3f36a3960E', symObjAddr: 0x1B135, symBinAddr: 0x1AB65, symSize: 0xE0 }
  - { offset: 0xCD6E2, size: 0x8, addend: 0x0, symName: '__ZN99_$LT$alloc..collections..btree..map..BTreeMap$LT$K$C$V$C$A$GT$$u20$as$u20$core..ops..drop..Drop$GT$4drop17h85915b2fa6ba5465E', symObjAddr: 0x1BB31, symBinAddr: 0x1B561, symSize: 0x55 }
  - { offset: 0xCD7FC, size: 0x8, addend: 0x0, symName: '__ZN99_$LT$alloc..collections..btree..map..BTreeMap$LT$K$C$V$C$A$GT$$u20$as$u20$core..ops..drop..Drop$GT$4drop17h41cba141d4a354b1E', symObjAddr: 0x1CE4F, symBinAddr: 0x1C87F, symSize: 0x184 }
  - { offset: 0xCDDCB, size: 0x8, addend: 0x0, symName: '__ZN99_$LT$alloc..collections..btree..map..BTreeMap$LT$K$C$V$C$A$GT$$u20$as$u20$core..ops..drop..Drop$GT$4drop17hf2c7e9ef112541b6E', symObjAddr: 0x1CFD3, symBinAddr: 0x1CA03, symSize: 0x1DE }
  - { offset: 0xCE5A6, size: 0x8, addend: 0x0, symName: '__ZN99_$LT$alloc..collections..btree..map..BTreeMap$LT$K$C$V$C$A$GT$$u20$as$u20$core..ops..drop..Drop$GT$4drop17hf8cb57822234613eE', symObjAddr: 0x1D1B1, symBinAddr: 0x1CBE1, symSize: 0x1A1 }
  - { offset: 0xCECBB, size: 0x8, addend: 0x0, symName: '__ZN99_$LT$alloc..collections..btree..map..BTreeMap$LT$K$C$V$C$A$GT$$u20$as$u20$core..ops..drop..Drop$GT$4drop17hff9a6206472dee88E', symObjAddr: 0x1D352, symBinAddr: 0x1CD82, symSize: 0x1D3 }
  - { offset: 0xCF4B5, size: 0x8, addend: 0x0, symName: '__ZN99_$LT$alloc..collections..btree..map..IntoIter$LT$K$C$V$C$A$GT$$u20$as$u20$core..ops..drop..Drop$GT$4drop17h3228ca6904e76c61E', symObjAddr: 0x1BB86, symBinAddr: 0x1B5B6, symSize: 0x45 }
  - { offset: 0xCFC46, size: 0x8, addend: 0x0, symName: '__ZN96_$LT$alloc..collections..btree..map..BTreeMap$LT$K$C$V$C$A$GT$$u20$as$u20$core..clone..Clone$GT$5clone13clone_subtree17h63f68c238294e302E', symObjAddr: 0x1CC01, symBinAddr: 0x1C631, symSize: 0x1E0 }
  - { offset: 0xD3198, size: 0x8, addend: 0x0, symName: '__ZN5alloc5slice29_$LT$impl$u20$$u5b$T$u5d$$GT$11sort_by_key28_$u7b$$u7b$closure$u7d$$u7d$17h2dc47acc204630d3E.989', symObjAddr: 0x1B62E, symBinAddr: 0x1B05E, symSize: 0x1B }
  - { offset: 0xD379F, size: 0x8, addend: 0x0, symName: '__ZN65_$LT$serde_json..value..Value$u20$as$u20$core..cmp..PartialEq$GT$2eq17hb9d2014c828b33e6E', symObjAddr: 0x1B3BB, symBinAddr: 0x1ADEB, symSize: 0x201 }
  - { offset: 0xD5344, size: 0x8, addend: 0x0, symName: '__ZN5alloc11collections5btree3map25IntoIter$LT$K$C$V$C$A$GT$10dying_next17hac39dc606189fe11E', symObjAddr: 0x1B227, symBinAddr: 0x1AC57, symSize: 0x187 }
  - { offset: 0xD5CEE, size: 0x8, addend: 0x0, symName: '__ZN5alloc11collections5btree3map25BTreeMap$LT$K$C$V$C$A$GT$16extract_if_inner17ha77836b95b88f9eaE', symObjAddr: 0x1BAE5, symBinAddr: 0x1B515, symSize: 0x4C }
  - { offset: 0xD5D11, size: 0x8, addend: 0x0, symName: '__ZN5alloc11collections5btree3map25BTreeMap$LT$K$C$V$C$A$GT$16extract_if_inner17ha77836b95b88f9eaE', symObjAddr: 0x1BAE5, symBinAddr: 0x1B515, symSize: 0x4C }
  - { offset: 0xD5D2F, size: 0x8, addend: 0x0, symName: '__ZN5alloc11collections5btree3map25BTreeMap$LT$K$C$V$C$A$GT$16extract_if_inner17ha77836b95b88f9eaE', symObjAddr: 0x1BAE5, symBinAddr: 0x1B515, symSize: 0x4C }
  - { offset: 0xD6129, size: 0x8, addend: 0x0, symName: '__ZN5alloc11collections5btree3map25BTreeMap$LT$K$C$V$C$A$GT$6insert17h5f421e44d4bec0adE', symObjAddr: 0x1BBCB, symBinAddr: 0x1B5FB, symSize: 0x6C2 }
  - { offset: 0xD73F8, size: 0x8, addend: 0x0, symName: '__ZN5alloc11collections5btree3map25BTreeMap$LT$K$C$V$C$A$GT$6insert17h825911a5664bcb70E', symObjAddr: 0x1C28D, symBinAddr: 0x1BCBD, symSize: 0x71A }
  - { offset: 0xD8AAA, size: 0x8, addend: 0x0, symName: '__ZN5alloc11collections5btree3map25BTreeMap$LT$K$C$V$C$A$GT$7get_mut17h3083453b1ccb11c1E', symObjAddr: 0x1C9A7, symBinAddr: 0x1C3D7, symSize: 0xB1 }
  - { offset: 0xD8ADD, size: 0x8, addend: 0x0, symName: '__ZN5alloc11collections5btree3map25BTreeMap$LT$K$C$V$C$A$GT$7get_mut17h3083453b1ccb11c1E', symObjAddr: 0x1C9A7, symBinAddr: 0x1C3D7, symSize: 0xB1 }
  - { offset: 0xD9839, size: 0x8, addend: 0x0, symName: __ZN14powersync_core4bson6parser6Parser5error17h8befa6e9c2c0177cE, symObjAddr: 0x1D525, symBinAddr: 0x4F421, symSize: 0x1A }
  - { offset: 0xD99AF, size: 0x8, addend: 0x0, symName: __ZN14powersync_core4bson6parser6Parser10read_int3217hcc74742cc3dc0af6E, symObjAddr: 0x1D53F, symBinAddr: 0x1CF57, symSize: 0x52 }
  - { offset: 0xD9B7C, size: 0x8, addend: 0x0, symName: __ZN14powersync_core4bson6parser6Parser15advance_checked17h431271e282ffc61dE, symObjAddr: 0x1D591, symBinAddr: 0x1CFA9, symSize: 0x59 }
  - { offset: 0xD9CD1, size: 0x8, addend: 0x0, symName: __ZN14powersync_core4bson6parser6Parser10read_int6417h8ff553351f97aecbE, symObjAddr: 0x1D5EA, symBinAddr: 0x1D002, symSize: 0x19 }
  - { offset: 0xD9D96, size: 0x8, addend: 0x0, symName: __ZN14powersync_core4bson6parser6Parser13advance_bytes17h03d515f993292e6cE, symObjAddr: 0x1D603, symBinAddr: 0x1D01B, symSize: 0x46 }
  - { offset: 0xD9EA3, size: 0x8, addend: 0x0, symName: __ZN14powersync_core4bson6parser6Parser11read_double17hae412cdc0abd1991E, symObjAddr: 0x1D649, symBinAddr: 0x1D061, symSize: 0x33 }
  - { offset: 0xD9F5B, size: 0x8, addend: 0x0, symName: __ZN14powersync_core4bson6parser6Parser9read_bool17h7418e1c77894ab5fE, symObjAddr: 0x1D67C, symBinAddr: 0x1D094, symSize: 0x41 }
  - { offset: 0xDA077, size: 0x8, addend: 0x0, symName: __ZN14powersync_core4bson6parser6Parser12advance_byte17h613697dae8e13e88E, symObjAddr: 0x1D6BD, symBinAddr: 0x1D0D5, symSize: 0x5B }
  - { offset: 0xDA19D, size: 0x8, addend: 0x0, symName: __ZN14powersync_core4bson6parser6Parser14read_object_id17hab927b8f7d03d726E, symObjAddr: 0x1D718, symBinAddr: 0x1D130, symSize: 0x14 }
  - { offset: 0xDA21F, size: 0x8, addend: 0x0, symName: __ZN14powersync_core4bson6parser6Parser11read_string17h76b12a56928b4ea5E, symObjAddr: 0x1D72C, symBinAddr: 0x1D144, symSize: 0xCA }
  - { offset: 0xDA45B, size: 0x8, addend: 0x0, symName: __ZN14powersync_core4bson6parser6Parser11read_length17hd61ca6bec1143f33E, symObjAddr: 0x1D7F6, symBinAddr: 0x1D20E, symSize: 0x5F }
  - { offset: 0xDA4EE, size: 0x8, addend: 0x0, symName: __ZN14powersync_core4bson6parser6Parser11read_binary17h5fd767792d354bf5E, symObjAddr: 0x1D855, symBinAddr: 0x1D26D, symSize: 0x8C }
  - { offset: 0xDA615, size: 0x8, addend: 0x0, symName: __ZN14powersync_core4bson6parser6Parser9subreader17h22bff8d4f4ecdd89E, symObjAddr: 0x1D8E1, symBinAddr: 0x1D2F9, symSize: 0x42 }
  - { offset: 0xDA6FF, size: 0x8, addend: 0x0, symName: __ZN14powersync_core4bson6parser6Parser13skip_document17had98c905179fdf1bE, symObjAddr: 0x1D923, symBinAddr: 0x1D33B, symSize: 0x8C }
  - { offset: 0xEF765, size: 0x8, addend: 0x0, symName: '__ZN41_$LT$T$u20$as$u20$serde..de..Expected$GT$3fmt17h3a1592f887a35b9dE', symObjAddr: 0x21BED, symBinAddr: 0x21439, symSize: 0x23 }
  - { offset: 0xEF84C, size: 0x8, addend: 0x0, symName: '__ZN45_$LT$T$u20$as$u20$alloc..string..ToString$GT$9to_string17h1654f5ed8757bb80E', symObjAddr: 0x23DCA, symBinAddr: 0x23616, symSize: 0x71 }
  - { offset: 0xEF936, size: 0x8, addend: 0x0, symName: '__ZN58_$LT$alloc..string..String$u20$as$u20$core..fmt..Write$GT$10write_char17h99abeeb8cff35533E.1231', symObjAddr: 0x23FBD, symBinAddr: 0x23809, symSize: 0x101 }
  - { offset: 0xF044C, size: 0x8, addend: 0x0, symName: '__ZN63_$LT$alloc..alloc..Global$u20$as$u20$core..alloc..Allocator$GT$8allocate17h7165425281bb57f3E.1189', symObjAddr: 0x22170, symBinAddr: 0x219BC, symSize: 0x10 }
  - { offset: 0xF0549, size: 0x8, addend: 0x0, symName: __ZN5alloc5alloc15exchange_malloc17h238ed74f6b8dc009E.1212, symObjAddr: 0x221CD, symBinAddr: 0x21A19, symSize: 0x15 }
  - { offset: 0xF12AC, size: 0x8, addend: 0x0, symName: '__ZN5alloc5boxed16Box$LT$T$C$A$GT$13new_uninit_in17h13238494321ee22cE', symObjAddr: 0x22158, symBinAddr: 0x219A4, symSize: 0x18 }
  - { offset: 0xF1410, size: 0x8, addend: 0x0, symName: '__ZN69_$LT$alloc..boxed..Box$LT$T$C$A$GT$$u20$as$u20$core..fmt..Display$GT$3fmt17h0bf54290eef5dd28E', symObjAddr: 0x221E2, symBinAddr: 0x21A2E, symSize: 0x2FE }
  - { offset: 0xF41BB, size: 0x8, addend: 0x0, symName: '__ZN4core3ptr65drop_in_place$LT$powersync_core..checkpoint..CheckpointResult$GT$17h94765a454eebb30bE', symObjAddr: 0x22C53, symBinAddr: 0x2249F, symSize: 0x29 }
  - { offset: 0xF4248, size: 0x8, addend: 0x0, symName: '__ZN4core3ptr97drop_in_place$LT$alloc..vec..Vec$LT$powersync_core..sync..checkpoint..OwnedBucketChecksum$GT$$GT$17h7d68ad58e1195c2cE', symObjAddr: 0x22C7C, symBinAddr: 0x224C8, symSize: 0x57 }
  - { offset: 0xF43C4, size: 0x8, addend: 0x0, symName: '__ZN4core3ptr59drop_in_place$LT$powersync_core..sync..line..Checkpoint$GT$17h80067ca947c17decE.1218', symObjAddr: 0x22CD3, symBinAddr: 0x2251F, symSize: 0x46 }
  - { offset: 0xF4549, size: 0x8, addend: 0x0, symName: '__ZN4core3ptr58drop_in_place$LT$powersync_core..error..PowerSyncError$GT$17h245568b8fe19a9ebE', symObjAddr: 0x23E3B, symBinAddr: 0x23687, symSize: 0xB1 }
  - { offset: 0xF4818, size: 0x8, addend: 0x0, symName: '__ZN4core3ptr63drop_in_place$LT$powersync_core..error..PowerSyncErrorCause$GT$17h995a13d8155e71d8E', symObjAddr: 0x23F60, symBinAddr: 0x237AC, symSize: 0x5D }
  - { offset: 0xF4BD8, size: 0x8, addend: 0x0, symName: '__ZN4core3ptr74drop_in_place$LT$powersync_core..sync..sync_status..DownloadSyncStatus$GT$17hbc87c2fcc46d7f9eE', symObjAddr: 0x27514, symBinAddr: 0x26D60, symSize: 0x46 }
  - { offset: 0xF4CDB, size: 0x8, addend: 0x0, symName: '__ZN4core3ptr81drop_in_place$LT$alloc..sync..Arc$LT$powersync_core..state..DatabaseState$GT$$GT$17h7093ae7fc1313353E', symObjAddr: 0x2755A, symBinAddr: 0x26DA6, symSize: 0x18 }
  - { offset: 0xF4DD5, size: 0x8, addend: 0x0, symName: '__ZN4core3ptr88drop_in_place$LT$alloc..vec..Vec$LT$powersync_core..sync..interface..Instruction$GT$$GT$17h318bfcc20fac74b5E', symObjAddr: 0x27590, symBinAddr: 0x26DDC, symSize: 0x29 }
  - { offset: 0xF5473, size: 0x8, addend: 0x0, symName: '__ZN44_$LT$$RF$T$u20$as$u20$core..fmt..Display$GT$3fmt17h3cf728a86c5a80ccE', symObjAddr: 0x21C33, symBinAddr: 0x2147F, symSize: 0x1F }
  - { offset: 0xF9929, size: 0x8, addend: 0x0, symName: __ZN4core3ops8function6FnOnce9call_once17h7563cb537ba00deaE, symObjAddr: 0x2219F, symBinAddr: 0x219EB, symSize: 0x2E }
  - { offset: 0xF9F97, size: 0x8, addend: 0x0, symName: __ZN14powersync_core15operations_vtab6MODULE17hcff8e3fd3d289cdcE, symObjAddr: 0x51558, symBinAddr: 0x5EF08, symSize: 0x0 }
  - { offset: 0xF9FE9, size: 0x8, addend: 0x0, symName: __ZN14powersync_core15operations_vtab7connect17h6900805941a301c6E, symObjAddr: 0x22E47, symBinAddr: 0x22693, symSize: 0x72 }
  - { offset: 0xFA113, size: 0x8, addend: 0x0, symName: __ZN14powersync_core15operations_vtab10disconnect17hcabddaf94194cb45E, symObjAddr: 0x22EB9, symBinAddr: 0x22705, symSize: 0xD }
  - { offset: 0xFA222, size: 0x8, addend: 0x0, symName: __ZN14powersync_core15operations_vtab6update17h46d10888050a018bE, symObjAddr: 0x22EF2, symBinAddr: 0x2273E, symSize: 0xEBF }
  - { offset: 0xFBFF4, size: 0x8, addend: 0x0, symName: __ZN14powersync_core4sync9interface8register7control17h24fbecf5261930b2E, symObjAddr: 0x240BE, symBinAddr: 0x2390A, symSize: 0x325E }
  - { offset: 0xFFEBD, size: 0x8, addend: 0x0, symName: __ZN14powersync_core4sync9interface8register7destroy17ha625350b739ec01fE, symObjAddr: 0x2731C, symBinAddr: 0x26B68, symSize: 0x4D }
  - { offset: 0x10054A, size: 0x8, addend: 0x0, symName: __ZN14powersync_core4sync9interface29powersync_offline_sync_status17h71567fd31d376117E, symObjAddr: 0x27369, symBinAddr: 0x26BB5, symSize: 0x1AB }
  - { offset: 0x1011B0, size: 0x8, addend: 0x0, symName: '__ZN14powersync_core6schema1_83_$LT$impl$u20$serde..de..Deserialize$u20$for$u20$powersync_core..schema..Schema$GT$11deserialize17h9d843f4ddaa44d2eE', symObjAddr: 0x27C56, symBinAddr: 0x274A2, symSize: 0x7C4 }
  - { offset: 0x101CF9, size: 0x8, addend: 0x0, symName: __ZN14powersync_core10checkpoint29powersync_validate_checkpoint17h832d0516b95cb4d2E, symObjAddr: 0x224E0, symBinAddr: 0x21D2C, symSize: 0x6C1 }
  - { offset: 0x103163, size: 0x8, addend: 0x0, symName: __ZN14powersync_core9vtab_util12vtab_no_open17h497566f0a960b562E, symObjAddr: 0x22EC6, symBinAddr: 0x22712, symSize: 0xB }
  - { offset: 0x103197, size: 0x8, addend: 0x0, symName: __ZN14powersync_core9vtab_util14vtab_no_filter17h5e5c665304fe1566E, symObjAddr: 0x22ED1, symBinAddr: 0x2271D, symSize: 0xB }
  - { offset: 0x1031EC, size: 0x8, addend: 0x0, symName: __ZN14powersync_core9vtab_util11vtab_no_eof17hcd1036471ee58114E, symObjAddr: 0x22EDC, symBinAddr: 0x22728, symSize: 0xB }
  - { offset: 0x103215, size: 0x8, addend: 0x0, symName: __ZN14powersync_core9vtab_util14vtab_no_column17h661edc28cf7a4518E, symObjAddr: 0x22EE7, symBinAddr: 0x22733, symSize: 0xB }
  - { offset: 0x1032FE, size: 0x8, addend: 0x0, symName: __ZN14powersync_core9vtab_util11vtab_result17h9964ca56c31184cfE, symObjAddr: 0x23EEC, symBinAddr: 0x23738, symSize: 0x74 }
  - { offset: 0x1034AF, size: 0x8, addend: 0x0, symName: __ZN14powersync_core12update_hooks22powersync_update_hooks17h4e546172dd686f1cE, symObjAddr: 0x275B9, symBinAddr: 0x26E05, symSize: 0x304 }
  - { offset: 0x103F6E, size: 0x8, addend: 0x0, symName: __ZN14powersync_core12update_hooks16destroy_function17h64b55c1804d90125E, symObjAddr: 0x278BD, symBinAddr: 0x27109, symSize: 0x7A }
  - { offset: 0x1040E8, size: 0x8, addend: 0x0, symName: __ZN14powersync_core12update_hooks14check_previous17h603dabbb6d015273E, symObjAddr: 0x27937, symBinAddr: 0x27183, symSize: 0x2B }
  - { offset: 0x10413F, size: 0x8, addend: 0x0, symName: __ZN14powersync_core12update_hooks14check_previous17h603dabbb6d015273E, symObjAddr: 0x27937, symBinAddr: 0x27183, symSize: 0x2B }
  - { offset: 0x104156, size: 0x8, addend: 0x0, symName: __ZN14powersync_core12update_hooks14check_previous17h603dabbb6d015273E, symObjAddr: 0x27937, symBinAddr: 0x27183, symSize: 0x2B }
  - { offset: 0x10416E, size: 0x8, addend: 0x0, symName: __ZN14powersync_core12update_hooks14check_previous17h603dabbb6d015273E, symObjAddr: 0x27937, symBinAddr: 0x27183, symSize: 0x2B }
  - { offset: 0x104269, size: 0x8, addend: 0x0, symName: __ZN14powersync_core12update_hooks16update_hook_impl17h61a13deb41ca2b71E, symObjAddr: 0x27962, symBinAddr: 0x271AE, symSize: 0x11D }
  - { offset: 0x104736, size: 0x8, addend: 0x0, symName: __ZN14powersync_core12update_hooks16commit_hook_impl17h2a2edbbe2918c694E, symObjAddr: 0x27A7F, symBinAddr: 0x272CB, symSize: 0x194 }
  - { offset: 0x104D4B, size: 0x8, addend: 0x0, symName: __ZN14powersync_core12update_hooks18rollback_hook_impl17h3cc6e58213ad2744E, symObjAddr: 0x27C13, symBinAddr: 0x2745F, symSize: 0x43 }
  - { offset: 0x105638, size: 0x8, addend: 0x0, symName: '__ZN96_$LT$$BP$mut$u20$sqlite3_capi..bindings..sqlite3_value$u20$as$u20$sqlite_nostd..nostd..Value$GT$10value_type17h9149efed65220ed1E', symObjAddr: 0x23DB1, symBinAddr: 0x235FD, symSize: 0x19 }
  - { offset: 0x10574C, size: 0x8, addend: 0x0, symName: '__ZN100_$LT$$BP$mut$u20$sqlite3_capi..bindings..sqlite3_context$u20$as$u20$sqlite_nostd..nostd..Context$GT$9user_data17h01783a021142df88E', symObjAddr: 0x27572, symBinAddr: 0x26DBE, symSize: 0x1E }
  - { offset: 0x10577A, size: 0x8, addend: 0x0, symName: '__ZN100_$LT$$BP$mut$u20$sqlite3_capi..bindings..sqlite3_context$u20$as$u20$sqlite_nostd..nostd..Context$GT$9user_data17h01783a021142df88E', symObjAddr: 0x27572, symBinAddr: 0x26DBE, symSize: 0x1E }
  - { offset: 0x105A9C, size: 0x8, addend: 0x0, symName: '__ZN86_$LT$serde_json..ser..Compound$LT$W$C$F$GT$$u20$as$u20$serde..ser..SerializeStruct$GT$15serialize_field17h010fc9fc9f8a805eE.1221', symObjAddr: 0x22D77, symBinAddr: 0x225C3, symSize: 0x3D }
  - { offset: 0x105BB2, size: 0x8, addend: 0x0, symName: '__ZN86_$LT$serde_json..ser..Compound$LT$W$C$F$GT$$u20$as$u20$serde..ser..SerializeStruct$GT$3end17h79ff0c7cbf35a12bE.1222', symObjAddr: 0x22DB4, symBinAddr: 0x22600, symSize: 0x1E }
  - { offset: 0x105FE8, size: 0x8, addend: 0x0, symName: '__ZN86_$LT$serde_json..ser..Compound$LT$W$C$F$GT$$u20$as$u20$serde..ser..SerializeStruct$GT$15serialize_field17h8c52ee198ce84d96E', symObjAddr: 0x284BA, symBinAddr: 0x27D06, symSize: 0x75 }
  - { offset: 0x106234, size: 0x8, addend: 0x0, symName: '__ZN95_$LT$$RF$mut$u20$serde_json..ser..Serializer$LT$W$C$F$GT$$u20$as$u20$serde..ser..Serializer$GT$16serialize_struct17h09470b3ebbb78ab0E.1220', symObjAddr: 0x22D19, symBinAddr: 0x22565, symSize: 0x5E }
  - { offset: 0x1062FB, size: 0x8, addend: 0x0, symName: '__ZN95_$LT$$RF$mut$u20$serde_json..ser..Serializer$LT$W$C$F$GT$$u20$as$u20$serde..ser..Serializer$GT$13serialize_map17h5a4fb37e86206168E.1225', symObjAddr: 0x22DF1, symBinAddr: 0x2263D, symSize: 0x45 }
  - { offset: 0x106521, size: 0x8, addend: 0x0, symName: '__ZN95_$LT$$RF$mut$u20$serde_json..ser..Serializer$LT$W$C$F$GT$$u20$as$u20$serde..ser..Serializer$GT$24serialize_struct_variant17hd362259d6028118fE', symObjAddr: 0x2841A, symBinAddr: 0x27C66, symSize: 0x5C }
  - { offset: 0x10663A, size: 0x8, addend: 0x0, symName: __ZN10serde_json3ser9Formatter10end_object17h3e19ad7d79c0b075E.1223, symObjAddr: 0x22DD2, symBinAddr: 0x2261E, symSize: 0x11 }
  - { offset: 0x106685, size: 0x8, addend: 0x0, symName: __ZN10serde_json3ser9Formatter12begin_object17h3fa58b76faf06d2cE, symObjAddr: 0x22E36, symBinAddr: 0x22682, symSize: 0x11 }
  - { offset: 0x1066D0, size: 0x8, addend: 0x0, symName: __ZN10serde_json3ser9Formatter18begin_object_value17hec2d26a195646724E, symObjAddr: 0x28476, symBinAddr: 0x27CC2, symSize: 0x11 }
  - { offset: 0x1069B8, size: 0x8, addend: 0x0, symName: '__ZN93_$LT$serde_json..ser..Compound$LT$W$C$F$GT$$u20$as$u20$serde..ser..SerializeStructVariant$GT$3end17hc1819fe1428e0acaE', symObjAddr: 0x28487, symBinAddr: 0x27CD3, symSize: 0x33 }
  - { offset: 0x1070F6, size: 0x8, addend: 0x0, symName: '__ZN60_$LT$$RF$mut$u20$W$u20$as$u20$serde_json..io..imp..Write$GT$9write_all17h599c372c31343869E.1224', symObjAddr: 0x22DE3, symBinAddr: 0x2262F, symSize: 0xE }
  - { offset: 0x107C30, size: 0x8, addend: 0x0, symName: '__ZN41_$LT$T$u20$as$u20$serde..de..Expected$GT$3fmt17h3a1592f887a35b9dE', symObjAddr: 0x21BED, symBinAddr: 0x21439, symSize: 0x23 }
  - { offset: 0x107CA8, size: 0x8, addend: 0x0, symName: '__ZN41_$LT$T$u20$as$u20$serde..de..Expected$GT$3fmt17ha05478275556f3d4E', symObjAddr: 0x21C10, symBinAddr: 0x2145C, symSize: 0x23 }
  - { offset: 0x1080EC, size: 0x8, addend: 0x0, symName: '__ZN5alloc11collections5btree3map5entry28VacantEntry$LT$K$C$V$C$A$GT$12insert_entry17h1499aed91eda6a4dE', symObjAddr: 0x21C52, symBinAddr: 0x2149E, symSize: 0x506 }
  - { offset: 0x108B9B, size: 0x8, addend: 0x0, symName: '__ZN4core6result19Result$LT$T$C$E$GT$3map17h0f9cddb9cafe5422E', symObjAddr: 0x22180, symBinAddr: 0x219CC, symSize: 0x1F }
  - { offset: 0x109107, size: 0x8, addend: 0x0, symName: '__ZN5alloc7raw_vec20RawVecInner$LT$A$GT$16with_capacity_in17h12acc9602bf5cad3E.1216', symObjAddr: 0x22BA1, symBinAddr: 0x223ED, symSize: 0x3E }
  - { offset: 0x1091CF, size: 0x8, addend: 0x0, symName: '__ZN5alloc3vec12Vec$LT$T$GT$13with_capacity17h72b5bf26c2483dddE', symObjAddr: 0x22BDF, symBinAddr: 0x2242B, symSize: 0x2C }
  - { offset: 0x109235, size: 0x8, addend: 0x0, symName: '__ZN4core6result19Result$LT$T$C$E$GT$7map_err17h69a5456b20ad78f1E', symObjAddr: 0x22C0B, symBinAddr: 0x22457, symSize: 0x48 }
  - { offset: 0xDB435, size: 0x8, addend: 0x0, symName: '__ZN5serde9__private2de7content28ContentDeserializer$LT$E$GT$12invalid_type17hec947dc01669f204E', symObjAddr: 0x1D9AF, symBinAddr: 0x4F43B, symSize: 0x155 }
  - { offset: 0xDB511, size: 0x8, addend: 0x0, symName: __ZN5serde2de7Visitor11visit_bytes17h296dbd551f52093bE, symObjAddr: 0x1DCD5, symBinAddr: 0x4F591, symSize: 0x3C }
  - { offset: 0xDB562, size: 0x8, addend: 0x0, symName: __ZN5serde2de7Visitor9visit_str17h341698257fd28dd8E, symObjAddr: 0x1DD11, symBinAddr: 0x4F5CD, symSize: 0x3C }
  - { offset: 0xDB7F9, size: 0x8, addend: 0x0, symName: '__ZN41_$LT$T$u20$as$u20$serde..de..Expected$GT$3fmt17h0a03d96d99ed7412E', symObjAddr: 0x1DC07, symBinAddr: 0x1D4CB, symSize: 0x23 }
  - { offset: 0xDB871, size: 0x8, addend: 0x0, symName: '__ZN41_$LT$T$u20$as$u20$serde..de..Expected$GT$3fmt17h323dbc1807920629E', symObjAddr: 0x1DC2A, symBinAddr: 0x1D4EE, symSize: 0x23 }
  - { offset: 0xDBCF1, size: 0x8, addend: 0x0, symName: '__ZN84_$LT$serde..__private..de..content..ContentVisitor$u20$as$u20$serde..de..Visitor$GT$9visit_str17hba494a26568ece44E', symObjAddr: 0x1DD8B, symBinAddr: 0x1D5D7, symSize: 0x5D }
  - { offset: 0xDC33A, size: 0x8, addend: 0x0, symName: '__ZN164_$LT$$LT$powersync_core..sync..bucket_priority..BucketPriority$u20$as$u20$serde..de..Deserialize$GT$..deserialize..PriorityVisitor$u20$as$u20$serde..de..Visitor$GT$9visit_i3217ha3de31dfbd3b1c3aE', symObjAddr: 0x21984, symBinAddr: 0x211D0, symSize: 0x68 }
  - { offset: 0xDC404, size: 0x8, addend: 0x0, symName: '__ZN164_$LT$$LT$powersync_core..sync..bucket_priority..BucketPriority$u20$as$u20$serde..de..Deserialize$GT$..deserialize..PriorityVisitor$u20$as$u20$serde..de..Visitor$GT$9visit_i3217hf13d60027d4c067cE', symObjAddr: 0x219EC, symBinAddr: 0x21238, symSize: 0x66 }
  - { offset: 0xDC4F6, size: 0x8, addend: 0x0, symName: '__ZN96_$LT$powersync_core..sync..bucket_priority..BucketPriority$u20$as$u20$serde..de..Deserialize$GT$11deserialize17h876894b3b0bc1537E', symObjAddr: 0x21642, symBinAddr: 0x20E8E, symSize: 0xFD }
  - { offset: 0xDC635, size: 0x8, addend: 0x0, symName: '__ZN96_$LT$powersync_core..sync..bucket_priority..BucketPriority$u20$as$u20$serde..de..Deserialize$GT$11deserialize17hb5f79b3c66d0e9e0E', symObjAddr: 0x2173F, symBinAddr: 0x20F8B, symSize: 0x245 }
  - { offset: 0xDCA45, size: 0x8, addend: 0x0, symName: '__ZN107_$LT$powersync_core..sync..bucket_priority..BucketPriority$u20$as$u20$core..convert..TryFrom$LT$i32$GT$$GT$8try_from17hed9a66404aca000aE', symObjAddr: 0x2160B, symBinAddr: 0x20E57, symSize: 0x37 }
  - { offset: 0xDCA78, size: 0x8, addend: 0x0, symName: '__ZN95_$LT$powersync_core..sync..bucket_priority..BucketPriority$u20$as$u20$serde..ser..Serialize$GT$9serialize17h6c47e826c6467951E', symObjAddr: 0x21A52, symBinAddr: 0x2129E, symSize: 0xCA }
  - { offset: 0xDD1B8, size: 0x8, addend: 0x0, symName: __ZN14powersync_core4sync10operations24insert_bucket_operations17h9b37a23a8ee70e8eE, symObjAddr: 0x1F41E, symBinAddr: 0x1EC6A, symSize: 0x927 }
  - { offset: 0xDE4BA, size: 0x8, addend: 0x0, symName: __ZN14powersync_core10operations13delete_bucket17h9cffd25922786d4eE, symObjAddr: 0x1FDD4, symBinAddr: 0x1F620, symSize: 0x17D }
  - { offset: 0xDEA22, size: 0x8, addend: 0x0, symName: __ZN14powersync_core6schema10management24powersync_replace_schema17h32ed9c37c9311b96E, symObjAddr: 0x1FF51, symBinAddr: 0x1F79D, symSize: 0x138 }
  - { offset: 0xDF36A, size: 0x8, addend: 0x0, symName: __ZN14powersync_core6schema10management29powersync_replace_schema_impl17hc970456fdba1ed73E, symObjAddr: 0x20089, symBinAddr: 0x1F8D5, symSize: 0x153D }
  - { offset: 0xE14B7, size: 0x8, addend: 0x0, symName: __ZN14powersync_core2kv9client_id17h8ceb0c36b2ad6b7fE, symObjAddr: 0x1DDE8, symBinAddr: 0x1D634, symSize: 0xE1 }
  - { offset: 0xE171A, size: 0x8, addend: 0x0, symName: __ZN14powersync_core2kv19powersync_client_id17h1f47b8278c127149E, symObjAddr: 0x1E6EC, symBinAddr: 0x1DF38, symSize: 0x75 }
  - { offset: 0xE1929, size: 0x8, addend: 0x0, symName: __ZN14powersync_core2kv24powersync_last_synced_at17h9ebf37c26832dc3fE, symObjAddr: 0x1E761, symBinAddr: 0x1DFAD, symSize: 0x136 }
  - { offset: 0xE1C5A, size: 0x8, addend: 0x0, symName: __ZN14powersync_core10migrations17powersync_migrate17hb7df5b2cc2641cd9E, symObjAddr: 0x1E8A8, symBinAddr: 0x1E0F4, symSize: 0xAA9 }
  - { offset: 0xE2DAA, size: 0x8, addend: 0x0, symName: __ZN14powersync_core7version20powersync_rs_version17ha581c8ee8a750c6eE, symObjAddr: 0x21B1C, symBinAddr: 0x21368, symSize: 0xD1 }
  - { offset: 0xE309F, size: 0x8, addend: 0x0, symName: '__ZN95_$LT$$BP$mut$u20$sqlite3_capi..bindings..sqlite3$u20$as$u20$sqlite_nostd..nostd..Connection$GT$10prepare_v217hdce128889f6400baE', symObjAddr: 0x1DEC9, symBinAddr: 0x1D715, symSize: 0x7D7 }
  - { offset: 0xE3168, size: 0x8, addend: 0x0, symName: '__ZN95_$LT$$BP$mut$u20$sqlite3_capi..bindings..sqlite3$u20$as$u20$sqlite_nostd..nostd..Connection$GT$9exec_safe17h1a95d9dea7ce52ddE', symObjAddr: 0x1F351, symBinAddr: 0x1EB9D, symSize: 0x79 }
  - { offset: 0xE3B29, size: 0x8, addend: 0x0, symName: '__ZN4core3ptr59drop_in_place$LT$serde..__private..de..content..Content$GT$17h609d0ebfd4b16eb8E.1060', symObjAddr: 0x1DB04, symBinAddr: 0x1D3C8, symSize: 0xA4 }
  - { offset: 0xE3B78, size: 0x8, addend: 0x0, symName: '__ZN4core3ptr131drop_in_place$LT$alloc..vec..Vec$LT$$LP$serde..__private..de..content..Content$C$serde..__private..de..content..Content$RP$$GT$$GT$17h107c61145fe3614dE', symObjAddr: 0x1DBA8, symBinAddr: 0x1D46C, symSize: 0x20 }
  - { offset: 0xE3BC7, size: 0x8, addend: 0x0, symName: '__ZN4core3ptr84drop_in_place$LT$alloc..boxed..Box$LT$serde..__private..de..content..Content$GT$$GT$17h8baf47c7305871efE.1061', symObjAddr: 0x1DBC8, symBinAddr: 0x1D48C, symSize: 0x1F }
  - { offset: 0xE3CCE, size: 0x8, addend: 0x0, symName: '__ZN4core3ptr82drop_in_place$LT$alloc..vec..Vec$LT$serde..__private..de..content..Content$GT$$GT$17h90e0c874f2a89114E', symObjAddr: 0x1DBE7, symBinAddr: 0x1D4AB, symSize: 0x20 }
  - { offset: 0xE3ECF, size: 0x8, addend: 0x0, symName: '__ZN4core3ptr74drop_in_place$LT$powersync_core..sync..storage_adapter..StorageAdapter$GT$17h7cb81d6bae32f55bE', symObjAddr: 0x1FD45, symBinAddr: 0x1F591, symSize: 0x33 }
  - { offset: 0xE3FB9, size: 0x8, addend: 0x0, symName: '__ZN4core3ptr78drop_in_place$LT$powersync_core..operations..insert_operation..BucketBatch$GT$17h0db15f7f17fe85e6E', symObjAddr: 0x1FD78, symBinAddr: 0x1F5C4, symSize: 0x29 }
  - { offset: 0xE40C2, size: 0x8, addend: 0x0, symName: '__ZN4core3ptr51drop_in_place$LT$powersync_core..schema..Schema$GT$17hda23a8c77fb12e85E.1129', symObjAddr: 0x215C6, symBinAddr: 0x20E12, symSize: 0x45 }
  - { offset: 0xED9A1, size: 0x8, addend: 0x0, symName: '__ZN5serde9__private2de7content28ContentDeserializer$LT$E$GT$12invalid_type17hec947dc01669f204E', symObjAddr: 0x1D9AF, symBinAddr: 0x4F43B, symSize: 0x155 }
  - { offset: 0xEDCD3, size: 0x8, addend: 0x0, symName: '__ZN5alloc11collections5btree8navigate142_$LT$impl$u20$alloc..collections..btree..node..NodeRef$LT$BorrowType$C$K$C$V$C$alloc..collections..btree..node..marker..LeafOrInternal$GT$$GT$15first_leaf_edge17h314cdc7f61b96938E', symObjAddr: 0x1DC4D, symBinAddr: 0x1D511, symSize: 0x22 }
  - { offset: 0xEDE94, size: 0x8, addend: 0x0, symName: '__ZN5alloc11collections5btree8navigate142_$LT$impl$u20$alloc..collections..btree..node..NodeRef$LT$BorrowType$C$K$C$V$C$alloc..collections..btree..node..marker..LeafOrInternal$GT$$GT$15first_leaf_edge17h7cc4d97aee0c1de5E', symObjAddr: 0x1DC6F, symBinAddr: 0x1D533, symSize: 0x22 }
  - { offset: 0xEE055, size: 0x8, addend: 0x0, symName: '__ZN5alloc11collections5btree8navigate142_$LT$impl$u20$alloc..collections..btree..node..NodeRef$LT$BorrowType$C$K$C$V$C$alloc..collections..btree..node..marker..LeafOrInternal$GT$$GT$15first_leaf_edge17h7f758bc2823f5813E', symObjAddr: 0x1DC91, symBinAddr: 0x1D555, symSize: 0x22 }
  - { offset: 0xEE216, size: 0x8, addend: 0x0, symName: '__ZN5alloc11collections5btree8navigate142_$LT$impl$u20$alloc..collections..btree..node..NodeRef$LT$BorrowType$C$K$C$V$C$alloc..collections..btree..node..marker..LeafOrInternal$GT$$GT$15first_leaf_edge17h3309cb17aeaba85eE', symObjAddr: 0x1DCB3, symBinAddr: 0x1D577, symSize: 0x22 }
  - { offset: 0xEE3A9, size: 0x8, addend: 0x0, symName: '__ZN5alloc7raw_vec20RawVecInner$LT$A$GT$16with_capacity_in17h12acc9602bf5cad3E', symObjAddr: 0x1DD4D, symBinAddr: 0x1D599, symSize: 0x3E }
  - { offset: 0xEE4A9, size: 0x8, addend: 0x0, symName: __ZN12sqlite_nostd5nostd11ManagedStmt11column_text17hd87220a4dd46d760E, symObjAddr: 0x1E6A0, symBinAddr: 0x1DEEC, symSize: 0x4C }
  - { offset: 0xEE5BD, size: 0x8, addend: 0x0, symName: __ZN12sqlite_nostd5nostd11ManagedStmt8bind_int17hdf7e493e5a77bd96E, symObjAddr: 0x1E897, symBinAddr: 0x1E0E3, symSize: 0x11 }
  - { offset: 0xEE9CD, size: 0x8, addend: 0x0, symName: '__ZN5alloc3vec16Vec$LT$T$C$A$GT$4push17h16235b1acbbe6c66E', symObjAddr: 0x1F3CA, symBinAddr: 0x1EC16, symSize: 0x54 }
  - { offset: 0xEEC92, size: 0x8, addend: 0x0, symName: __ZN12sqlite_nostd5nostd11ManagedStmt10bind_int6417h0d67155fab54480dE, symObjAddr: 0x1FDA1, symBinAddr: 0x1F5ED, symSize: 0x11 }
  - { offset: 0xEECD2, size: 0x8, addend: 0x0, symName: __ZN12sqlite_nostd5nostd11ManagedStmt9bind_text17hba530f0d23cc6cecE, symObjAddr: 0x1FDB2, symBinAddr: 0x1F5FE, symSize: 0x11 }
  - { offset: 0xEED22, size: 0x8, addend: 0x0, symName: __ZN12sqlite_nostd5nostd11ManagedStmt9bind_null17h7cd81ed140230f01E, symObjAddr: 0x1FDC3, symBinAddr: 0x1F60F, symSize: 0x11 }
  - { offset: 0x8BD5, size: 0x8, addend: 0x0, symName: __ZN4core3fmt5write17he7e706214adda612E, symObjAddr: 0xACA, symBinAddr: 0x107E, symSize: 0x1B2 }
  - { offset: 0x912E, size: 0x8, addend: 0x0, symName: __ZN4core3fmt5write17he7e706214adda612E, symObjAddr: 0xACA, symBinAddr: 0x107E, symSize: 0x1B2 }
  - { offset: 0x957C, size: 0x8, addend: 0x0, symName: __ZN4core3fmt8getcount17h1cce528c2a5d769eE, symObjAddr: 0xC7C, symBinAddr: 0x1230, symSize: 0x29 }
  - { offset: 0x96C4, size: 0x8, addend: 0x0, symName: __ZN4core3fmt9Formatter12pad_integral12write_prefix17h2eaa6ad3c05854a5E, symObjAddr: 0x1081, symBinAddr: 0x1635, symSize: 0x59 }
  - { offset: 0x97B4, size: 0x8, addend: 0x0, symName: '__ZN43_$LT$bool$u20$as$u20$core..fmt..Display$GT$3fmt17hc2d70999c0839066E', symObjAddr: 0x1627, symBinAddr: 0x1BDB, symSize: 0x2F }
  - { offset: 0x9821, size: 0x8, addend: 0x0, symName: '__ZN43_$LT$char$u20$as$u20$core..fmt..Display$GT$3fmt17h11fceb60af018977E', symObjAddr: 0x1898, symBinAddr: 0x1E4C, symSize: 0xBE }
  - { offset: 0x992F, size: 0x8, addend: 0x0, symName: '__ZN44_$LT$$RF$T$u20$as$u20$core..fmt..Display$GT$3fmt17h33cc6d14a81f027cE', symObjAddr: 0x1956, symBinAddr: 0x1F0A, symSize: 0x17 }
  - { offset: 0xA09B, size: 0x8, addend: 0x0, symName: '__ZN81_$LT$core..str..iter..Chars$u20$as$u20$core..iter..traits..iterator..Iterator$GT$5count17hbd280a54c251c6fcE', symObjAddr: 0xEF6, symBinAddr: 0x14AA, symSize: 0x18B }
  - { offset: 0xA9F6, size: 0x8, addend: 0x0, symName: '__ZN81_$LT$core..str..iter..Chars$u20$as$u20$core..iter..traits..iterator..Iterator$GT$4next17h8d687a391f65d83aE.151', symObjAddr: 0x12D6, symBinAddr: 0x188A, symSize: 0x83 }
  - { offset: 0xAA39, size: 0x8, addend: 0x0, symName: '__ZN81_$LT$core..str..iter..Chars$u20$as$u20$core..iter..traits..iterator..Iterator$GT$4next17h8d687a391f65d83aE.151', symObjAddr: 0x12D6, symBinAddr: 0x188A, symSize: 0x83 }
  - { offset: 0xADED, size: 0x8, addend: 0x0, symName: '__ZN4core3str6traits66_$LT$impl$u20$core..ops..index..Index$LT$I$GT$$u20$for$u20$str$GT$5index17h2ca37b60694ebcd9E', symObjAddr: 0x1656, symBinAddr: 0x1C0A, symSize: 0x41 }
  - { offset: 0xAE2D, size: 0x8, addend: 0x0, symName: '__ZN4core3str6traits66_$LT$impl$u20$core..ops..index..Index$LT$I$GT$$u20$for$u20$str$GT$5index17h2ca37b60694ebcd9E', symObjAddr: 0x1656, symBinAddr: 0x1C0A, symSize: 0x41 }
  - { offset: 0xAE4F, size: 0x8, addend: 0x0, symName: '__ZN4core3str6traits66_$LT$impl$u20$core..ops..index..Index$LT$I$GT$$u20$for$u20$str$GT$5index17h2ca37b60694ebcd9E', symObjAddr: 0x1656, symBinAddr: 0x1C0A, symSize: 0x41 }
  - { offset: 0xBA97, size: 0x8, addend: 0x0, symName: '__ZN4core4char7methods22_$LT$impl$u20$char$GT$16escape_debug_ext17h5f45f64bcad48a96E', symObjAddr: 0x1697, symBinAddr: 0x1C4B, symSize: 0x201 }
  - { offset: 0xCEDC, size: 0x8, addend: 0x0, symName: __ZN4core3fmt11PostPadding5write17h0d5701d049d99bb0E, symObjAddr: 0xCA5, symBinAddr: 0x1259, symSize: 0x5D }
  - { offset: 0xCFF4, size: 0x8, addend: 0x0, symName: __ZN4core3fmt9Formatter12pad_integral17h833b0cd37f03c012E, symObjAddr: 0xD02, symBinAddr: 0x12B6, symSize: 0x1F4 }
  - { offset: 0xD2B8, size: 0x8, addend: 0x0, symName: __ZN4core3fmt9Formatter7padding17h5df809545f14b3b6E, symObjAddr: 0x10DA, symBinAddr: 0x168E, symSize: 0x9E }
  - { offset: 0xD42D, size: 0x8, addend: 0x0, symName: __ZN4core3fmt9Formatter3pad17h4f56ad71d47c6badE, symObjAddr: 0x1178, symBinAddr: 0x172C, symSize: 0x15E }
  - { offset: 0xD85F, size: 0x8, addend: 0x0, symName: __ZN4core3fmt9Formatter19pad_formatted_parts17hb03d17f80f563685E, symObjAddr: 0x1359, symBinAddr: 0x190D, symSize: 0x1A0 }
  - { offset: 0xDBDD, size: 0x8, addend: 0x0, symName: __ZN4core3fmt9Formatter21write_formatted_parts17h7e197d032f51a311E, symObjAddr: 0x14F9, symBinAddr: 0x1AAD, symSize: 0x12E }
  - { offset: 0xB7E, size: 0x8, addend: 0x0, symName: __ZN4core3fmt5Write9write_fmt17h62920ea64fdf7181E, symObjAddr: 0x53, symBinAddr: 0x6A3, symSize: 0x19 }
  - { offset: 0xC51, size: 0x8, addend: 0x0, symName: '__ZN58_$LT$alloc..string..String$u20$as$u20$core..fmt..Write$GT$9write_str17hf09b6b5b7796c0aaE', symObjAddr: 0x80, symBinAddr: 0x6D0, symSize: 0x10 }
  - { offset: 0xD67, size: 0x8, addend: 0x0, symName: '__ZN58_$LT$alloc..string..String$u20$as$u20$core..fmt..Write$GT$10write_char17h99abeeb8cff35533E', symObjAddr: 0x90, symBinAddr: 0x6E0, symSize: 0x101 }
  - { offset: 0x13E3, size: 0x8, addend: 0x0, symName: '__ZN4core3ptr42drop_in_place$LT$alloc..string..String$GT$17h0ca33b77fa392801E', symObjAddr: 0x6C, symBinAddr: 0x6BC, symSize: 0x14 }
  - { offset: 0x16D0, size: 0x8, addend: 0x0, symName: __ZN4core3fmt5Write9write_fmt17h62920ea64fdf7181E, symObjAddr: 0x53, symBinAddr: 0x6A3, symSize: 0x19 }
  - { offset: 0x11DEE, size: 0x8, addend: 0x0, symName: __ZN4core6result13unwrap_failed17h9fcf7242cff07c21E, symObjAddr: 0x2449, symBinAddr: 0x4E889, symSize: 0x9 }
  - { offset: 0x1205E, size: 0x8, addend: 0x0, symName: __ZN4core3fmt5float29float_to_decimal_common_exact17h2a8ef9e399390766E, symObjAddr: 0x2485, symBinAddr: 0x2A0D, symSize: 0x99B }
  - { offset: 0x129B4, size: 0x8, addend: 0x0, symName: __ZN4core3fmt5float32float_to_decimal_common_shortest17h50e920bf76b372fcE, symObjAddr: 0x2E20, symBinAddr: 0x33A8, symSize: 0x81C }
  - { offset: 0x130D9, size: 0x8, addend: 0x0, symName: '__ZN4core3fmt5float52_$LT$impl$u20$core..fmt..Display$u20$for$u20$f64$GT$3fmt17h9d6765dff4a241b4E', symObjAddr: 0x363C, symBinAddr: 0x3BC4, symSize: 0x3A }
  - { offset: 0x131AA, size: 0x8, addend: 0x0, symName: __ZN4core9panicking18panic_nounwind_fmt17h54c2b9a31a57185cE, symObjAddr: 0x2461, symBinAddr: 0x4E895, symSize: 0x6 }
  - { offset: 0x13228, size: 0x8, addend: 0x0, symName: __ZN4core9panicking5panic17h27f522b60fff1afaE, symObjAddr: 0x2467, symBinAddr: 0x4E89B, symSize: 0x9 }
  - { offset: 0x13253, size: 0x8, addend: 0x0, symName: __ZN4core9panicking13assert_failed17h4bd861730a94f4e5E, symObjAddr: 0x2470, symBinAddr: 0x4E8A4, symSize: 0xC }
  - { offset: 0x132BB, size: 0x8, addend: 0x0, symName: __ZN4core9panicking19assert_failed_inner17h447249e2401212a8E, symObjAddr: 0x247C, symBinAddr: 0x4E8B0, symSize: 0x9 }
  - { offset: 0x133D6, size: 0x8, addend: 0x0, symName: __ZN4core6result13unwrap_failed17h9fcf7242cff07c21E, symObjAddr: 0x2449, symBinAddr: 0x4E889, symSize: 0x9 }
  - { offset: 0x1395B, size: 0x8, addend: 0x0, symName: __ZN4core3fmt9Formatter9write_fmt17h6547b3ea83dd1893E.217, symObjAddr: 0x2452, symBinAddr: 0x29FE, symSize: 0xF }
  - { offset: 0x11BAC, size: 0x8, addend: 0x0, symName: '__ZN4core6escape24EscapeIterInner$LT$_$GT$7unicode17h699408630a3b2a73E', symObjAddr: 0x2397, symBinAddr: 0x294B, symSize: 0xB2 }
  - { offset: 0x11D05, size: 0x8, addend: 0x0, symName: '__ZN4core6escape24EscapeIterInner$LT$_$GT$7unicode17h699408630a3b2a73E', symObjAddr: 0x2397, symBinAddr: 0x294B, symSize: 0xB2 }
  - { offset: 0xA9BDF, size: 0x8, addend: 0x0, symName: '__ZN4core4hash5impls50_$LT$impl$u20$core..hash..Hash$u20$for$u20$str$GT$4hash17h654d1b8f80ab0cecE', symObjAddr: 0x171C8, symBinAddr: 0x16BF8, symSize: 0x18B }
  - { offset: 0xA9D35, size: 0x8, addend: 0x0, symName: '__ZN60_$LT$alloc..string..String$u20$as$u20$core..fmt..Display$GT$3fmt17hfc8eb37dd7929bf4E', symObjAddr: 0x1AD1D, symBinAddr: 0x1A74D, symSize: 0x18 }
  - { offset: 0xAB9B0, size: 0x8, addend: 0x0, symName: __ZN5alloc3fmt6format17h2ba7b1746508e211E, symObjAddr: 0x1A65B, symBinAddr: 0x1A08B, symSize: 0x45 }
  - { offset: 0xABAFF, size: 0x8, addend: 0x0, symName: '__ZN5alloc3str21_$LT$impl$u20$str$GT$7replace17h0ffc3cdff0daf326E', symObjAddr: 0x1AA74, symBinAddr: 0x1A4A4, symSize: 0x2A9 }
  - { offset: 0xAC85A, size: 0x8, addend: 0x0, symName: '__ZN4core3ptr104drop_in_place$LT$core..option..Option$LT$powersync_core..sync..sync_status..SyncDownloadProgress$GT$$GT$17hb73dec9d6e05e5a1E', symObjAddr: 0x18EF5, symBinAddr: 0x18925, symSize: 0x15 }
  - { offset: 0xAC98E, size: 0x8, addend: 0x0, symName: '__ZN4core3ptr103drop_in_place$LT$alloc..vec..Vec$LT$powersync_core..sync..sync_status..ActiveStreamSubscription$GT$$GT$17h36b08a4f6222aaf8E', symObjAddr: 0x1A632, symBinAddr: 0x1A062, symSize: 0x29 }
  - { offset: 0xAD391, size: 0x8, addend: 0x0, symName: '__ZN4core4hash5impls50_$LT$impl$u20$core..hash..Hash$u20$for$u20$str$GT$4hash17h654d1b8f80ab0cecE', symObjAddr: 0x171C8, symBinAddr: 0x16BF8, symSize: 0x18B }
  - { offset: 0xAE6F5, size: 0x8, addend: 0x0, symName: '__ZN110_$LT$core..ops..range..RangeFrom$LT$usize$GT$$u20$as$u20$core..slice..index..SliceIndex$LT$$u5b$T$u5d$$GT$$GT$5index17hbdc8652c6d824573E', symObjAddr: 0x17353, symBinAddr: 0x16D83, symSize: 0x1E }
  - { offset: 0xAE820, size: 0x8, addend: 0x0, symName: '__ZN110_$LT$core..ops..range..RangeFrom$LT$usize$GT$$u20$as$u20$core..slice..index..SliceIndex$LT$$u5b$T$u5d$$GT$$GT$9index_mut17hc4e227ed3eb149afE.956', symObjAddr: 0x17A74, symBinAddr: 0x174A4, symSize: 0x1C }
  - { offset: 0xAECB1, size: 0x8, addend: 0x0, symName: '__ZN4core5slice4sort6stable9quicksort9quicksort28_$u7b$$u7b$closure$u7d$$u7d$17h7cb4e43634737d33E', symObjAddr: 0x17371, symBinAddr: 0x16DA1, symSize: 0x1F }
  - { offset: 0xAF02A, size: 0x8, addend: 0x0, symName: __ZN4core5slice4sort6stable9quicksort9quicksort17h25fd0e448fb93cdfE, symObjAddr: 0x17390, symBinAddr: 0x16DC0, symSize: 0x6E4 }
  - { offset: 0xB0470, size: 0x8, addend: 0x0, symName: __ZN4core5slice4sort6stable9quicksort9quicksort17h6c7ba55682fbdd12E, symObjAddr: 0x17A90, symBinAddr: 0x174C0, symSize: 0x6E4 }
  - { offset: 0xB1943, size: 0x8, addend: 0x0, symName: __ZN4core5slice4sort6stable9quicksort9quicksort17h8571b7b561d6c508E, symObjAddr: 0x18174, symBinAddr: 0x17BA4, symSize: 0x69D }
  - { offset: 0xB2DD1, size: 0x8, addend: 0x0, symName: __ZN4core5slice4sort6stable9quicksort9quicksort17h97894aeb90d8c310E, symObjAddr: 0x18811, symBinAddr: 0x18241, symSize: 0x6E4 }
  - { offset: 0xB714D, size: 0x8, addend: 0x0, symName: '__ZN86_$LT$serde_json..ser..Compound$LT$W$C$F$GT$$u20$as$u20$serde..ser..SerializeStruct$GT$15serialize_field17h010fc9fc9f8a805eE', symObjAddr: 0x1A1CB, symBinAddr: 0x19BFB, symSize: 0x3D }
  - { offset: 0xB7263, size: 0x8, addend: 0x0, symName: '__ZN86_$LT$serde_json..ser..Compound$LT$W$C$F$GT$$u20$as$u20$serde..ser..SerializeStruct$GT$3end17h79ff0c7cbf35a12bE', symObjAddr: 0x1A208, symBinAddr: 0x19C38, symSize: 0x11 }
  - { offset: 0xB72A4, size: 0x8, addend: 0x0, symName: '__ZN86_$LT$serde_json..ser..Compound$LT$W$C$F$GT$$u20$as$u20$serde..ser..SerializeStruct$GT$15serialize_field17h14649b018f765fccE', symObjAddr: 0x1AF97, symBinAddr: 0x1A9C7, symSize: 0x9A }
  - { offset: 0xB7593, size: 0x8, addend: 0x0, symName: '__ZN86_$LT$serde_json..ser..Compound$LT$W$C$F$GT$$u20$as$u20$serde..ser..SerializeStruct$GT$15serialize_field17h0edd63e7deda1ebbE', symObjAddr: 0x1B031, symBinAddr: 0x1AA61, symSize: 0x1F }
  - { offset: 0xB763D, size: 0x8, addend: 0x0, symName: __ZN10serde_json3ser9Formatter10end_object17h3e19ad7d79c0b075E, symObjAddr: 0x1A23D, symBinAddr: 0x19C6D, symSize: 0x18 }
  - { offset: 0xB77D6, size: 0x8, addend: 0x0, symName: '__ZN95_$LT$$RF$mut$u20$serde_json..ser..Serializer$LT$W$C$F$GT$$u20$as$u20$serde..ser..Serializer$GT$16serialize_struct17h09470b3ebbb78ab0E', symObjAddr: 0x1A16D, symBinAddr: 0x19B9D, symSize: 0x5E }
  - { offset: 0xB789D, size: 0x8, addend: 0x0, symName: '__ZN95_$LT$$RF$mut$u20$serde_json..ser..Serializer$LT$W$C$F$GT$$u20$as$u20$serde..ser..Serializer$GT$13serialize_map17h5a4fb37e86206168E', symObjAddr: 0x1A255, symBinAddr: 0x19C85, symSize: 0x53 }
  - { offset: 0xB7A1D, size: 0x8, addend: 0x0, symName: '__ZN83_$LT$serde_json..ser..Compound$LT$W$C$F$GT$$u20$as$u20$serde..ser..SerializeMap$GT$3end17h7d2cfc993a7553f2E', symObjAddr: 0x1A219, symBinAddr: 0x19C49, symSize: 0x24 }
  - { offset: 0xB8BFF, size: 0x8, addend: 0x0, symName: '__ZN95_$LT$powersync_core..sync..sync_status..DownloadSyncStatus$u20$as$u20$serde..ser..Serialize$GT$9serialize17h4185383c33c5a62dE', symObjAddr: 0x18F0A, symBinAddr: 0x1893A, symSize: 0x1263 }
  - { offset: 0xBC6F6, size: 0x8, addend: 0x0, symName: __ZN14powersync_core4util12quote_string17h3e4b0899f8a364b9E, symObjAddr: 0x1A750, symBinAddr: 0x1A180, symSize: 0x76 }
  - { offset: 0xBC7C7, size: 0x8, addend: 0x0, symName: '__ZN73_$LT$powersync_core..util..QuotedString$u20$as$u20$core..fmt..Display$GT$3fmt17h2c242ba090638af8E', symObjAddr: 0x1A7C6, symBinAddr: 0x1A1F6, symSize: 0x1C8 }
  - { offset: 0xBCAD7, size: 0x8, addend: 0x0, symName: __ZN14powersync_core4util15quote_json_path17he4e761c61d62895eE, symObjAddr: 0x1A98E, symBinAddr: 0x1A3BE, symSize: 0x7A }
  - { offset: 0xBCC01, size: 0x8, addend: 0x0, symName: __ZN14powersync_core4util16quote_identifier17h2fbb5d5fa5f751c1E, symObjAddr: 0x1AA08, symBinAddr: 0x1A438, symSize: 0x6C }
  - { offset: 0xBCC4D, size: 0x8, addend: 0x0, symName: __ZN14powersync_core4util19quote_internal_name17hb6f5a3f9c426c970E, symObjAddr: 0x1AEC6, symBinAddr: 0x1A8F6, symSize: 0x3E }
  - { offset: 0xBCC89, size: 0x8, addend: 0x0, symName: __ZN14powersync_core4util25quote_identifier_prefixed17h762ac9609aa958caE, symObjAddr: 0x1AF04, symBinAddr: 0x1A934, symSize: 0x93 }
  - { offset: 0xBE334, size: 0x8, addend: 0x0, symName: __ZN14powersync_core4sync11sync_status19SyncStatusContainer12emit_changes17h7fccec71f7282176E, symObjAddr: 0x1A2A8, symBinAddr: 0x19CD8, symSize: 0x36F }
  - { offset: 0xC0787, size: 0x8, addend: 0x0, symName: '__ZN4core4cell16RefCell$LT$T$GT$10borrow_mut17h33169b3b57f925caE', symObjAddr: 0x1A617, symBinAddr: 0x1A047, symSize: 0x1B }
  - { offset: 0xC07AE, size: 0x8, addend: 0x0, symName: '__ZN4core4cell16RefCell$LT$T$GT$10borrow_mut17h33169b3b57f925caE', symObjAddr: 0x1A617, symBinAddr: 0x1A047, symSize: 0x1B }
  - { offset: 0xC07CA, size: 0x8, addend: 0x0, symName: '__ZN4core4cell16RefCell$LT$T$GT$10borrow_mut17h33169b3b57f925caE', symObjAddr: 0x1A617, symBinAddr: 0x1A047, symSize: 0x1B }
  - { offset: 0xC0969, size: 0x8, addend: 0x0, symName: __ZN14powersync_core4sync11sync_status24ActiveStreamSubscription10from_local17h85729fdfc73dec64E, symObjAddr: 0x1A6A0, symBinAddr: 0x1A0D0, symSize: 0xB0 }
  - { offset: 0xC0E38, size: 0x8, addend: 0x0, symName: __ZN4core3str7pattern14TwoWaySearcher4next17h8ae6f08bc5841577E, symObjAddr: 0x1AD35, symBinAddr: 0x1A765, symSize: 0x191 }
  - { offset: 0x109E3, size: 0x8, addend: 0x0, symName: __ZN4core3str7pattern11StrSearcher3new17h742df5264ca0abb6E, symObjAddr: 0x2093, symBinAddr: 0x2647, symSize: 0x180 }
  - { offset: 0x11570, size: 0x8, addend: 0x0, symName: __ZN4core3str7pattern11StrSearcher3new17h742df5264ca0abb6E, symObjAddr: 0x2093, symBinAddr: 0x2647, symSize: 0x180 }
  - { offset: 0x118D3, size: 0x8, addend: 0x0, symName: __ZN4core3str7pattern14TwoWaySearcher14maximal_suffix17h137049f123b9e4fbE, symObjAddr: 0x2213, symBinAddr: 0x27C7, symSize: 0x9D }
  - { offset: 0x119E5, size: 0x8, addend: 0x0, symName: __ZN4core3str7pattern14TwoWaySearcher22reverse_maximal_suffix17h75e00dcc9e95c069E, symObjAddr: 0x22B0, symBinAddr: 0x2864, symSize: 0xE7 }
  - { offset: 0x1642F4, size: 0x8, addend: 0x0, symName: '__ZN4core3ptr115drop_in_place$LT$powersync_core..sync..streaming_sync..StreamingSyncIteration..run..$u7b$$u7b$closure$u7d$$u7d$$GT$17hea4189f6bf39de4dE', symObjAddr: 0x37B6E, symBinAddr: 0x36AEE, symSize: 0x46 }
  - { offset: 0x164497, size: 0x8, addend: 0x0, symName: '__ZN14powersync_core4sync14streaming_sync22StreamingSyncIteration3run28_$u7b$$u7b$closure$u7d$$u7d$17hee0ea81a29b8c73aE', symObjAddr: 0x37BB4, symBinAddr: 0x36B34, symSize: 0x4B70 }
  - { offset: 0x16CCB2, size: 0x8, addend: 0x0, symName: '__ZN105_$LT$powersync_core..sync..streaming_sync..RequestedStreamSubscriptions$u20$as$u20$core..clone..Clone$GT$5clone17h3ae295c2e5d56e68E', symObjAddr: 0x3CAF9, symBinAddr: 0x3BA79, symSize: 0x18 }
  - { offset: 0x16CDF7, size: 0x8, addend: 0x0, symName: '__ZN92_$LT$powersync_core..sync..streaming_sync..OwnedCheckpoint$u20$as$u20$core..clone..Clone$GT$5clone17h09bb5cd45ff0852aE', symObjAddr: 0x3E6D0, symBinAddr: 0x3D650, symSize: 0x5E }
  - { offset: 0x170AC7, size: 0x8, addend: 0x0, symName: '__ZN67_$LT$alloc..rc..Rc$LT$T$C$A$GT$$u20$as$u20$core..cmp..PartialEq$GT$2ne17h0f87a79bebdb7414E', symObjAddr: 0x3C920, symBinAddr: 0x3B8A0, symSize: 0xC6 }
  - { offset: 0x171EE0, size: 0x8, addend: 0x0, symName: '__ZN4core3ptr115drop_in_place$LT$powersync_core..sync..streaming_sync..StreamingSyncIteration..run..$u7b$$u7b$closure$u7d$$u7d$$GT$17hea4189f6bf39de4dE', symObjAddr: 0x37B6E, symBinAddr: 0x36AEE, symSize: 0x46 }
  - { offset: 0x172031, size: 0x8, addend: 0x0, symName: '__ZN4core3ptr87drop_in_place$LT$powersync_core..sync..streaming_sync..RequestedStreamSubscriptions$GT$17h76464911f8bf4d12E', symObjAddr: 0x3C724, symBinAddr: 0x3B6A4, symSize: 0x2D }
  - { offset: 0x1722B3, size: 0x8, addend: 0x0, symName: '__ZN4core3ptr69drop_in_place$LT$powersync_core..sync..streaming_sync..SyncTarget$GT$17h60b4d13320ceb0faE', symObjAddr: 0x3C794, symBinAddr: 0x3B714, symSize: 0x38 }
  - { offset: 0x172419, size: 0x8, addend: 0x0, symName: '__ZN4core3ptr57drop_in_place$LT$powersync_core..sync..line..SyncLine$GT$17hb0a49fffd0e44f3fE.2314', symObjAddr: 0x3C7CC, symBinAddr: 0x3B74C, symSize: 0x9E }
  - { offset: 0x172677, size: 0x8, addend: 0x0, symName: '__ZN4core3ptr86drop_in_place$LT$core..option..Option$LT$powersync_core..error..PowerSyncError$GT$$GT$17hbb070fd5cc085713E', symObjAddr: 0x3C86A, symBinAddr: 0x3B7EA, symSize: 0xB6 }
  - { offset: 0x1728A4, size: 0x8, addend: 0x0, symName: '__ZN4core3ptr81drop_in_place$LT$powersync_core..sync..streaming_sync..StreamingSyncIteration$GT$17h1c0383a35e7c1e20E', symObjAddr: 0x3C9E6, symBinAddr: 0x3B966, symSize: 0x70 }
  - { offset: 0x172B80, size: 0x8, addend: 0x0, symName: '__ZN4core3ptr69drop_in_place$LT$powersync_core..sync..interface..StartSyncStream$GT$17h45aff1294ec841dbE.2317', symObjAddr: 0x3CA56, symBinAddr: 0x3B9D6, symSize: 0x5E }
  - { offset: 0x172CA4, size: 0x8, addend: 0x0, symName: '__ZN4core3ptr102drop_in_place$LT$core..option..Option$LT$powersync_core..sync..streaming_sync..OwnedCheckpoint$GT$$GT$17h1b2cef153b36aa8cE', symObjAddr: 0x3CAB4, symBinAddr: 0x3BA34, symSize: 0x15 }
  - { offset: 0x172D4E, size: 0x8, addend: 0x0, symName: '__ZN4core3ptr102drop_in_place$LT$core..option..Option$LT$powersync_core..sync..checkpoint..OwnedBucketChecksum$GT$$GT$17h48198ee26361057aE', symObjAddr: 0x3CAC9, symBinAddr: 0x3BA49, symSize: 0x30 }
  - { offset: 0x172FE6, size: 0x8, addend: 0x0, symName: '__ZN4core3ptr76drop_in_place$LT$powersync_core..sync..streaming_sync..TrackedCheckpoint$GT$17h706f5af426eb713dE', symObjAddr: 0x3E72E, symBinAddr: 0x3D6AE, symSize: 0x6D }
  - { offset: 0x1731BB, size: 0x8, addend: 0x0, symName: '__ZN4core3ptr76drop_in_place$LT$powersync_core..sync..storage_adapter..CheckpointResult$GT$17h3dbd5f555c709ee0E', symObjAddr: 0x3FB5C, symBinAddr: 0x3EADC, symSize: 0x29 }
  - { offset: 0x173229, size: 0x8, addend: 0x0, symName: '__ZN4core3ptr75drop_in_place$LT$powersync_core..sync..storage_adapter..SyncLocalResult$GT$17h7b8a5d03af05d48eE', symObjAddr: 0x3FC36, symBinAddr: 0x3EBB6, symSize: 0x1B }
  - { offset: 0x173277, size: 0x8, addend: 0x0, symName: '__ZN4core3ptr70drop_in_place$LT$powersync_core..sync..streaming_sync..ActiveEvent$GT$17h98444eebef445870E', symObjAddr: 0x3FE69, symBinAddr: 0x3EDE9, symSize: 0x30 }
  - { offset: 0x1732A7, size: 0x8, addend: 0x0, symName: '__ZN4core3ptr63drop_in_place$LT$powersync_core..sync..interface..SyncEvent$GT$17h9091569c07265b30E', symObjAddr: 0x3FE99, symBinAddr: 0x3EE19, symSize: 0x15 }
  - { offset: 0x173311, size: 0x8, addend: 0x0, symName: '__ZN4core3ptr78drop_in_place$LT$powersync_core..sync..streaming_sync..SyncIterationHandle$GT$17hb2aac9f9ec8e06f3E', symObjAddr: 0x3FEAE, symBinAddr: 0x3EE2E, symSize: 0x32 }
  - { offset: 0x1733F2, size: 0x8, addend: 0x0, symName: '__ZN4core3ptr70drop_in_place$LT$powersync_core..sync..streaming_sync..ClientState$GT$17hd285a7854ca53566E', symObjAddr: 0x3FEE0, symBinAddr: 0x3EE60, symSize: 0x11 }
  - { offset: 0x177052, size: 0x8, addend: 0x0, symName: __ZN4core3ops8function6FnOnce9call_once17h613bbc26ccf506cfE, symObjAddr: 0x3FEF1, symBinAddr: 0x3EE71, symSize: 0xF }
  - { offset: 0x177090, size: 0x8, addend: 0x0, symName: __ZN4core3ops8function6FnOnce9call_once17h4e701946038971f4E, symObjAddr: 0x3FF00, symBinAddr: 0x3EE80, symSize: 0x6 }
  - { offset: 0x1784D6, size: 0x8, addend: 0x0, symName: '__ZN44_$LT$$RF$T$u20$as$u20$core..fmt..Display$GT$3fmt17hbafd10e8d16868e4E', symObjAddr: 0x3FC51, symBinAddr: 0x3EBD1, symSize: 0x9D }
  - { offset: 0x17A4B2, size: 0x8, addend: 0x0, symName: '__ZN5alloc3vec16Vec$LT$T$C$A$GT$4push17h3794cad33c83d2a4E', symObjAddr: 0x3C751, symBinAddr: 0x3B6D1, symSize: 0x43 }
  - { offset: 0x17A88F, size: 0x8, addend: 0x0, symName: __ZN14powersync_core4sync14streaming_sync22StreamingSyncIteration13load_progress17ha9d12c4aa5b6d5f8E, symObjAddr: 0x3CB11, symBinAddr: 0x3BA91, symSize: 0xD0F }
  - { offset: 0x17D788, size: 0x8, addend: 0x0, symName: __ZN14powersync_core4sync14streaming_sync22StreamingSyncIteration26resolve_subscription_state17h483221c56a3b56c5E, symObjAddr: 0x3D820, symBinAddr: 0x3C7A0, symSize: 0xEB0 }
  - { offset: 0x17FEE5, size: 0x8, addend: 0x0, symName: __ZN14powersync_core4sync14streaming_sync22StreamingSyncIteration10sync_local17h395d43f522936761E, symObjAddr: 0x3E79B, symBinAddr: 0x3D71B, symSize: 0x13C1 }
  - { offset: 0x181C96, size: 0x8, addend: 0x0, symName: __ZN14powersync_core4sync14streaming_sync22StreamingSyncIteration25handle_checkpoint_applied17h4ba9577bce1fa883E, symObjAddr: 0x3FB85, symBinAddr: 0x3EB05, symSize: 0xB1 }
  - { offset: 0x181EE9, size: 0x8, addend: 0x0, symName: __ZN14powersync_core4sync14streaming_sync11ClientState9tear_down17hd7cbc9b9bb1129d6E, symObjAddr: 0x3FCEE, symBinAddr: 0x3EC6E, symSize: 0xD6 }
  - { offset: 0x182055, size: 0x8, addend: 0x0, symName: __ZN14powersync_core4sync14streaming_sync19SyncIterationHandle3run17h5060a5014dac1c4fE, symObjAddr: 0x3FDC4, symBinAddr: 0x3ED44, symSize: 0xA5 }
  - { offset: 0x1D6BF3, size: 0x8, addend: 0x0, symName: '__ZN4core3ptr73drop_in_place$LT$core..option..Option$LT$serde_json..value..Value$GT$$GT$17h95f48c45fb223745E', symObjAddr: 0x4E3A3, symBinAddr: 0x4C7BF, symSize: 0x65 }
  - { offset: 0x1D6E14, size: 0x8, addend: 0x0, symName: '__ZN4core3ptr73drop_in_place$LT$core..option..Option$LT$serde_json..value..Value$GT$$GT$17h95f48c45fb223745E', symObjAddr: 0x4E3A3, symBinAddr: 0x4C7BF, symSize: 0x65 }
  - { offset: 0x1D9537, size: 0x8, addend: 0x0, symName: '__ZN108_$LT$alloc..collections..btree..map..Iter$LT$K$C$V$GT$$u20$as$u20$core..iter..traits..iterator..Iterator$GT$4next17h108099d1f83889d4E', symObjAddr: 0x4E4B2, symBinAddr: 0x4C8CE, symSize: 0xE7 }
  - { offset: 0x1D9713, size: 0x8, addend: 0x0, symName: '__ZN71_$LT$serde_json..raw..BoxedFromString$u20$as$u20$serde..de..Visitor$GT$9visit_str17ha97a907a58064c99E', symObjAddr: 0x4F0F7, symBinAddr: 0x4D513, symSize: 0x32 }
  - { offset: 0x1D97C2, size: 0x8, addend: 0x0, symName: '__ZN68_$LT$serde_json..raw..RawValue$u20$as$u20$alloc..borrow..ToOwned$GT$8to_owned17h503f536c634fae32E', symObjAddr: 0x4F052, symBinAddr: 0x4D46E, symSize: 0x2A }
  - { offset: 0x1D996F, size: 0x8, addend: 0x0, symName: '__ZN81_$LT$serde_json..raw..BorrowedRawDeserializer$u20$as$u20$serde..de..MapAccess$GT$13next_key_seed17hbedc39642acbd999E', symObjAddr: 0x4F0B4, symBinAddr: 0x4D4D0, symSize: 0x43 }
  - { offset: 0x1DAFC8, size: 0x8, addend: 0x0, symName: '__ZN4core3cmp5impls69_$LT$impl$u20$core..cmp..PartialEq$LT$$RF$B$GT$$u20$for$u20$$RF$A$GT$2eq17h4460cc1e63cecbbeE', symObjAddr: 0x4F0AC, symBinAddr: 0x4D4C8, symSize: 0x8 }
  - { offset: 0x1DB32C, size: 0x8, addend: 0x0, symName: '__ZN4core5slice3cmp56_$LT$impl$u20$core..cmp..Ord$u20$for$u20$$u5b$T$u5d$$GT$3cmp17hc655396116e137caE', symObjAddr: 0x4E5DF, symBinAddr: 0x4C9FB, symSize: 0x35 }
  - { offset: 0x1DB888, size: 0x8, addend: 0x0, symName: '__ZN108_$LT$alloc..collections..btree..map..Iter$LT$K$C$V$GT$$u20$as$u20$core..iter..traits..iterator..Iterator$GT$4next17h108099d1f83889d4E', symObjAddr: 0x4E4B2, symBinAddr: 0x4C8CE, symSize: 0xE7 }
  - { offset: 0x1DC25B, size: 0x8, addend: 0x0, symName: '__ZN99_$LT$alloc..collections..btree..map..BTreeMap$LT$K$C$V$C$A$GT$$u20$as$u20$core..ops..drop..Drop$GT$4drop17hafb96025af305d57E', symObjAddr: 0x4EE98, symBinAddr: 0x4D2B4, symSize: 0x1BA }
  - { offset: 0x1DD9BB, size: 0x8, addend: 0x0, symName: '__ZN41_$LT$T$u20$as$u20$serde..de..Expected$GT$3fmt17h646c1dfa9baa5af7E', symObjAddr: 0x4E599, symBinAddr: 0x4C9B5, symSize: 0x23 }
  - { offset: 0x1DDA34, size: 0x8, addend: 0x0, symName: '__ZN41_$LT$T$u20$as$u20$serde..de..Expected$GT$3fmt17he8d288a6c1d6780bE', symObjAddr: 0x4E5BC, symBinAddr: 0x4C9D8, symSize: 0x23 }
  - { offset: 0x1DE01D, size: 0x8, addend: 0x0, symName: '__ZN5alloc11collections5btree3map25BTreeMap$LT$K$C$V$C$A$GT$3get17h868346156e6896adE', symObjAddr: 0x4E614, symBinAddr: 0x4CA30, symSize: 0xB1 }
  - { offset: 0x1DE04C, size: 0x8, addend: 0x0, symName: '__ZN5alloc11collections5btree3map25BTreeMap$LT$K$C$V$C$A$GT$3get17h868346156e6896adE', symObjAddr: 0x4E614, symBinAddr: 0x4CA30, symSize: 0xB1 }
  - { offset: 0x1DE667, size: 0x8, addend: 0x0, symName: '__ZN5alloc11collections5btree3map25BTreeMap$LT$K$C$V$C$A$GT$6insert17hf2f751cdbe0c6a72E', symObjAddr: 0x4E6C5, symBinAddr: 0x4CAE1, symSize: 0x7D3 }
  - { offset: 0x1E0157, size: 0x8, addend: 0x0, symName: __ZN5alloc6string6String14into_boxed_str17h318e91ff3fde99bcE, symObjAddr: 0x4F07C, symBinAddr: 0x4D498, symSize: 0x30 }
  - { offset: 0x1D8676, size: 0x8, addend: 0x0, symName: __ZN3ryu6buffer6Buffer13format_finite17h3d4cdd0a49c07a20E, symObjAddr: 0x4E408, symBinAddr: 0x4C824, symSize: 0x1B }
  - { offset: 0x1D8B7E, size: 0x8, addend: 0x0, symName: '__ZN68_$LT$serde_json..number..Number$u20$as$u20$serde..ser..Serialize$GT$9serialize17h8d80f3dc0b060c64E', symObjAddr: 0x4E423, symBinAddr: 0x4C83F, symSize: 0x8F }
  - { offset: 0x1D93E7, size: 0x8, addend: 0x0, symName: __ZN3ryu6buffer6Buffer13format_finite17h3d4cdd0a49c07a20E, symObjAddr: 0x4E408, symBinAddr: 0x4C824, symSize: 0x1B }
  - { offset: 0xE054, size: 0x8, addend: 0x0, symName: __ZN4core3num7flt2dec8round_up17h4f4bafef2e15cec4E, symObjAddr: 0x196D, symBinAddr: 0x1F21, symSize: 0x6E }
  - { offset: 0xE0C3, size: 0x8, addend: 0x0, symName: __ZN4core3num7flt2dec8round_up17h4f4bafef2e15cec4E, symObjAddr: 0x196D, symBinAddr: 0x1F21, symSize: 0x6E }
  - { offset: 0xE34A, size: 0x8, addend: 0x0, symName: __ZN4core3num7flt2dec17digits_to_dec_str17h60206db04e69e7faE, symObjAddr: 0x19DB, symBinAddr: 0x1F8F, symSize: 0x114 }
  - { offset: 0x8470, size: 0x8, addend: 0x0, symName: '__ZN4core3fmt3num53_$LT$impl$u20$core..fmt..LowerHex$u20$for$u20$u32$GT$3fmt17h172835f56c2af913E', symObjAddr: 0xA4C, symBinAddr: 0x1000, symSize: 0x7E }
  - { offset: 0x85CF, size: 0x8, addend: 0x0, symName: '__ZN4core3fmt3num53_$LT$impl$u20$core..fmt..LowerHex$u20$for$u20$u32$GT$3fmt17h172835f56c2af913E', symObjAddr: 0xA4C, symBinAddr: 0x1000, symSize: 0x7E }
  - { offset: 0x1E0271, size: 0x8, addend: 0x0, symName: '__ZN44_$LT$$RF$T$u20$as$u20$core..fmt..Display$GT$3fmt17h821536458b1a25bbE', symObjAddr: 0x4F129, symBinAddr: 0x4D545, symSize: 0x15 }
  - { offset: 0x1E0510, size: 0x8, addend: 0x0, symName: '__ZN4core3ptr45drop_in_place$LT$serde_json..value..Value$GT$17h7cffa3c29ecf2060E.3084', symObjAddr: 0x4F13E, symBinAddr: 0x4D55A, symSize: 0x60 }
  - { offset: 0x1E0FB7, size: 0x8, addend: 0x0, symName: '__ZN44_$LT$$RF$T$u20$as$u20$core..fmt..Display$GT$3fmt17h821536458b1a25bbE', symObjAddr: 0x4F129, symBinAddr: 0x4D545, symSize: 0x15 }
  - { offset: 0x1E10CB, size: 0x8, addend: 0x0, symName: '__ZN4core5slice29_$LT$impl$u20$$u5b$T$u5d$$GT$11starts_with17hb962a60b8bd04983E', symObjAddr: 0x4F1C6, symBinAddr: 0x4D5E2, symSize: 0x1F }
  - { offset: 0x1E17D7, size: 0x8, addend: 0x0, symName: '__ZN65_$LT$serde_json..io..imp..Error$u20$as$u20$core..fmt..Display$GT$3fmt17ha5e522c2743ece21E', symObjAddr: 0x4F227, symBinAddr: 0x50A7B, symSize: 0xC }
  - { offset: 0x1E1A4F, size: 0x8, addend: 0x0, symName: '__ZN63_$LT$alloc..alloc..Global$u20$as$u20$core..alloc..Allocator$GT$8allocate17h7165425281bb57f3E.3112', symObjAddr: 0x4F1E5, symBinAddr: 0x4D601, symSize: 0x10 }
  - { offset: 0x1E1DB9, size: 0x8, addend: 0x0, symName: '__ZN70_$LT$alloc..vec..Vec$LT$T$C$A$GT$$u20$as$u20$core..ops..drop..Drop$GT$4drop17h3f48747e9a2720a9E', symObjAddr: 0x4F19E, symBinAddr: 0x4D5BA, symSize: 0x28 }
  - { offset: 0x1E291B, size: 0x8, addend: 0x0, symName: '__ZN5alloc7raw_vec19RawVec$LT$T$C$A$GT$8grow_one17hc6e5218be79c9645E', symObjAddr: 0x4F1F5, symBinAddr: 0x4D611, symSize: 0x32 }
  - { offset: 0x1E2D72, size: 0x8, addend: 0x0, symName: __ZN12sqlite3_capi4capi8bind_int17h5e6594fe4055d230E, symObjAddr: 0x4F26F, symBinAddr: 0x4D67F, symSize: 0x1B }
  - { offset: 0x1E8ABD, size: 0x8, addend: 0x0, symName: __ZN12sqlite3_capi4capi11SQLITE3_API17h6da9097b298a15b7E.0, symObjAddr: 0x6566F0, symBinAddr: 0x60090, symSize: 0x0 }
  - { offset: 0x1E8C4D, size: 0x8, addend: 0x0, symName: __ZN12sqlite3_capi4capi8bind_int17h5e6594fe4055d230E, symObjAddr: 0x4F26F, symBinAddr: 0x4D67F, symSize: 0x1B }
  - { offset: 0x1E8CAF, size: 0x8, addend: 0x0, symName: __ZN12sqlite3_capi4capi10bind_int6417had6058a460b2d31cE, symObjAddr: 0x4F28A, symBinAddr: 0x4D69A, symSize: 0x1B }
  - { offset: 0x1E8D11, size: 0x8, addend: 0x0, symName: __ZN12sqlite3_capi4capi9bind_null17hb49ea705fa0f7e69E, symObjAddr: 0x4F2A5, symBinAddr: 0x4D6B5, symSize: 0x1B }
  - { offset: 0x1E8D64, size: 0x8, addend: 0x0, symName: __ZN12sqlite3_capi4capi9bind_text17hf2dfac8fac1a670cE, symObjAddr: 0x4F2C0, symBinAddr: 0x4D6D0, symSize: 0x1E }
  - { offset: 0x1E8DE5, size: 0x8, addend: 0x0, symName: __ZN12sqlite3_capi4capi20bind_parameter_count17hda350b675f15429dE, symObjAddr: 0x4F2DE, symBinAddr: 0x4D6EE, symSize: 0x1B }
  - { offset: 0x1E8E29, size: 0x8, addend: 0x0, symName: __ZN12sqlite3_capi4capi12column_bytes17ha19c82d7ce943068E, symObjAddr: 0x4F2F9, symBinAddr: 0x4D709, symSize: 0x1E }
  - { offset: 0x1E8E7F, size: 0x8, addend: 0x0, symName: __ZN12sqlite3_capi4capi15column_text_ptr17hc0d276eeccaeda1aE, symObjAddr: 0x4F317, symBinAddr: 0x4D727, symSize: 0x1E }
  - { offset: 0x1E8ED5, size: 0x8, addend: 0x0, symName: __ZN12sqlite3_capi4capi10column_int17h1ef585d49f0296d5E, symObjAddr: 0x4F335, symBinAddr: 0x4D745, symSize: 0x1E }
  - { offset: 0x1E8F2B, size: 0x8, addend: 0x0, symName: __ZN12sqlite3_capi4capi12column_int6417h64bdeb93f8db1f66E, symObjAddr: 0x4F353, symBinAddr: 0x4D763, symSize: 0x1E }
  - { offset: 0x1E8F80, size: 0x8, addend: 0x0, symName: __ZN12sqlite3_capi4capi17context_db_handle17h4f8907424209640bE, symObjAddr: 0x4F371, symBinAddr: 0x4D781, symSize: 0x1E }
  - { offset: 0x1E8FC6, size: 0x8, addend: 0x0, symName: __ZN12sqlite3_capi4capi16create_module_v217h8ae186b65a3cf9f1E, symObjAddr: 0x4F38F, symBinAddr: 0x4D79F, symSize: 0x25 }
  - { offset: 0x1E9049, size: 0x8, addend: 0x0, symName: __ZN12sqlite3_capi4capi4exec17h1f693c18a6a05c7aE, symObjAddr: 0x4F3B4, symBinAddr: 0x4D7C4, symSize: 0x25 }
  - { offset: 0x1E909F, size: 0x8, addend: 0x0, symName: __ZN12sqlite3_capi4capi10prepare_v217h85f6e26099ecda58E, symObjAddr: 0x4F3D9, symBinAddr: 0x4D7E9, symSize: 0x1E }
  - { offset: 0x1E9125, size: 0x8, addend: 0x0, symName: __ZN12sqlite3_capi4capi11result_null17h86492561c335f7b3E, symObjAddr: 0x4F3F7, symBinAddr: 0x4D807, symSize: 0x1E }
  - { offset: 0x1E9167, size: 0x8, addend: 0x0, symName: __ZN12sqlite3_capi4capi12result_error17hd335a41fe072141bE, symObjAddr: 0x4F415, symBinAddr: 0x4D825, symSize: 0x1E }
  - { offset: 0x1E91C9, size: 0x8, addend: 0x0, symName: __ZN12sqlite3_capi4capi17result_error_code17he790b614559b5c9dE, symObjAddr: 0x4F433, symBinAddr: 0x4D843, symSize: 0x1E }
  - { offset: 0x1E921B, size: 0x8, addend: 0x0, symName: __ZN12sqlite3_capi4capi11result_text17h50d64758c238bc2bE, symObjAddr: 0x4F451, symBinAddr: 0x4D861, symSize: 0x21 }
  - { offset: 0x1E928E, size: 0x8, addend: 0x0, symName: __ZN12sqlite3_capi4capi14result_subtype17hddefc0c1b68b1493E, symObjAddr: 0x4F472, symBinAddr: 0x4D882, symSize: 0x1E }
  - { offset: 0x1E92DF, size: 0x8, addend: 0x0, symName: __ZN12sqlite3_capi4capi10value_text17hf96cc853c14ac7aeE, symObjAddr: 0x4F490, symBinAddr: 0x4D8A0, symSize: 0x37 }
  - { offset: 0x1E9359, size: 0x8, addend: 0x0, symName: __ZN12sqlite3_capi4capi11value_bytes17h109ba4a04dea8347E, symObjAddr: 0x4F4C7, symBinAddr: 0x4D8D7, symSize: 0x1E }
  - { offset: 0x1E939F, size: 0x8, addend: 0x0, symName: __ZN12sqlite3_capi4capi10value_type17h66593a3e6a8d193fE, symObjAddr: 0x4F4E5, symBinAddr: 0x4D8F5, symSize: 0x1E }
  - { offset: 0x15D59, size: 0x8, addend: 0x0, symName: __ZN4core3num7dec2flt5float8RawFloat14integer_decode17h65a985074d8094d6E, symObjAddr: 0x3ACC, symBinAddr: 0x4054, symSize: 0x5B }
  - { offset: 0x15FCA, size: 0x8, addend: 0x0, symName: __ZN4core3num6bignum8Big32x4010mul_digits9mul_inner17he3de7f3524639290E, symObjAddr: 0x3F57, symBinAddr: 0x44D3, symSize: 0xD5 }
  - { offset: 0x16352, size: 0x8, addend: 0x0, symName: '__ZN62_$LT$core..num..bignum..Big32x40$u20$as$u20$core..cmp..Ord$GT$3cmp17h4fe2bb4abcae8a01E', symObjAddr: 0x4083, symBinAddr: 0x45FF, symSize: 0xAB }
  - { offset: 0x1671E, size: 0x8, addend: 0x0, symName: __ZN4core3num7dec2flt5float8RawFloat14integer_decode17h65a985074d8094d6E, symObjAddr: 0x3ACC, symBinAddr: 0x4054, symSize: 0x5B }
  - { offset: 0x16F94, size: 0x8, addend: 0x0, symName: __ZN4core6option13unwrap_failed17h3062a9d1ac9937a7E, symObjAddr: 0x3B27, symBinAddr: 0x4E8BB, symSize: 0xC }
  - { offset: 0x175E5, size: 0x8, addend: 0x0, symName: '__ZN4core5array85_$LT$impl$u20$core..ops..index..Index$LT$I$GT$$u20$for$u20$$u5b$T$u3b$$u20$N$u5d$$GT$5index17hd5079e616e1e918dE', symObjAddr: 0x3BAB, symBinAddr: 0x4127, symSize: 0x1F }
  - { offset: 0x176AC, size: 0x8, addend: 0x0, symName: '__ZN4core5array88_$LT$impl$u20$core..ops..index..IndexMut$LT$I$GT$$u20$for$u20$$u5b$T$u3b$$u20$N$u5d$$GT$9index_mut17hdd47254c8f793ae2E', symObjAddr: 0x3C6D, symBinAddr: 0x41E9, symSize: 0x1F }
  - { offset: 0x180E0, size: 0x8, addend: 0x0, symName: __ZN4core3num6bignum8Big32x408from_u6417h40b0baee7e39054dE, symObjAddr: 0x3B33, symBinAddr: 0x40AF, symSize: 0x67 }
  - { offset: 0x18154, size: 0x8, addend: 0x0, symName: __ZN4core3num6bignum8Big32x406digits17h2dffc96037c6d239E, symObjAddr: 0x3B9A, symBinAddr: 0x4116, symSize: 0x11 }
  - { offset: 0x181CB, size: 0x8, addend: 0x0, symName: __ZN4core3num6bignum8Big32x403add17hed4eec735df758b1E, symObjAddr: 0x3BCA, symBinAddr: 0x4146, symSize: 0xA3 }
  - { offset: 0x183FE, size: 0x8, addend: 0x0, symName: __ZN4core3num6bignum8Big32x403sub17h0d5756ae082f3c27E, symObjAddr: 0x3C8C, symBinAddr: 0x4208, symSize: 0x91 }
  - { offset: 0x1863E, size: 0x8, addend: 0x0, symName: __ZN4core3num6bignum8Big32x409mul_small17hdda69eea8b1abd34E, symObjAddr: 0x3D1D, symBinAddr: 0x4299, symSize: 0x7A }
  - { offset: 0x187B3, size: 0x8, addend: 0x0, symName: __ZN4core3num6bignum8Big32x408mul_pow217h858008413becd3f1E, symObjAddr: 0x3D97, symBinAddr: 0x4313, symSize: 0x132 }
  - { offset: 0x18A39, size: 0x8, addend: 0x0, symName: __ZN4core3num6bignum8Big32x4010mul_digits17hd57389a9f70747a9E, symObjAddr: 0x3EC9, symBinAddr: 0x4445, symSize: 0x8E }
  - { offset: 0x18B6C, size: 0x8, addend: 0x0, symName: __ZN4core3num6bignum8Big32x4013div_rem_small17hadce4eb29a7e3e60E, symObjAddr: 0x402C, symBinAddr: 0x45A8, symSize: 0x57 }
  - { offset: 0x10A532, size: 0x8, addend: 0x0, symName: '__ZN5alloc3vec16Vec$LT$T$C$A$GT$7reserve17hfa075d23cda539aeE', symObjAddr: 0x2852F, symBinAddr: 0x27D7B, symSize: 0x1B }
  - { offset: 0x10BD83, size: 0x8, addend: 0x0, symName: '__ZN4core3ptr208drop_in_place$LT$powersync_core..sync..streaming_sync..StreamingSyncIteration..resolve_subscription_state..LocalAndServerSubscription$LT$powersync_core..sync..subscriptions..LocallyTrackedSubscription$GT$$GT$17h9a4af261aa098e1dE', symObjAddr: 0x285E2, symBinAddr: 0x27E2E, symSize: 0x29 }
  - { offset: 0x10BE3B, size: 0x8, addend: 0x0, symName: '__ZN4core3ptr106drop_in_place$LT$core..option..Option$LT$alloc..boxed..Box$LT$powersync_core..util..JsonString$GT$$GT$$GT$17hd7e23e85dc6bac75E', symObjAddr: 0x2860B, symBinAddr: 0x27E57, symSize: 0x1F }
  - { offset: 0x10BF4E, size: 0x8, addend: 0x0, symName: '__ZN4core3ptr108drop_in_place$LT$$LP$serde..__private..de..content..Content$C$serde..__private..de..content..Content$RP$$GT$17h88ba940dde92038aE', symObjAddr: 0x30C75, symBinAddr: 0x303F1, symSize: 0x20 }
  - { offset: 0x10BFFA, size: 0x8, addend: 0x0, symName: '__ZN4core3ptr59drop_in_place$LT$serde..__private..de..content..Content$GT$17h609d0ebfd4b16eb8E.1410', symObjAddr: 0x30C95, symBinAddr: 0x30411, symSize: 0xDB }
  - { offset: 0x10C092, size: 0x8, addend: 0x0, symName: '__ZN4core3ptr84drop_in_place$LT$alloc..boxed..Box$LT$serde..__private..de..content..Content$GT$$GT$17h8baf47c7305871efE.1411', symObjAddr: 0x30D70, symBinAddr: 0x304EC, symSize: 0x1F }
  - { offset: 0x10C3C7, size: 0x8, addend: 0x0, symName: '__ZN4core3ptr73drop_in_place$LT$powersync_core..schema..table_info..PendingStatement$GT$17hb5a424f95233ded5E.1424', symObjAddr: 0x30F26, symBinAddr: 0x306A2, symSize: 0x36 }
  - { offset: 0x10C4BD, size: 0x8, addend: 0x0, symName: '__ZN4core3ptr136drop_in_place$LT$core..option..Option$LT$$LP$serde..__private..de..content..Content$C$serde..__private..de..content..Content$RP$$GT$$GT$17h31a1566e5244ee2dE', symObjAddr: 0x30F92, symBinAddr: 0x3070E, symSize: 0x11 }
  - { offset: 0x1108A0, size: 0x8, addend: 0x0, symName: '__ZN115_$LT$core..iter..adapters..filter_map..FilterMap$LT$I$C$F$GT$$u20$as$u20$core..iter..traits..iterator..Iterator$GT$4next17ha776283370d226afE', symObjAddr: 0x285AC, symBinAddr: 0x27DF8, symSize: 0x36 }
  - { offset: 0x111D56, size: 0x8, addend: 0x0, symName: '__ZN5serde2de5impls82_$LT$impl$u20$serde..de..Deserialize$u20$for$u20$core..option..Option$LT$T$GT$$GT$11deserialize17h1026fe23d6b2e4b8E', symObjAddr: 0x2FFDC, symBinAddr: 0x2F828, symSize: 0x35C }
  - { offset: 0x1121A9, size: 0x8, addend: 0x0, symName: '__ZN5serde2de5impls82_$LT$impl$u20$serde..de..Deserialize$u20$for$u20$core..option..Option$LT$T$GT$$GT$11deserialize17h585818ce281a58acE', symObjAddr: 0x30338, symBinAddr: 0x2FB84, symSize: 0xA2 }
  - { offset: 0x1122DB, size: 0x8, addend: 0x0, symName: '__ZN5serde2de5impls82_$LT$impl$u20$serde..de..Deserialize$u20$for$u20$core..option..Option$LT$T$GT$$GT$11deserialize17h87ec2415bd26186eE', symObjAddr: 0x303DA, symBinAddr: 0x2FC26, symSize: 0x7B }
  - { offset: 0x112414, size: 0x8, addend: 0x0, symName: '__ZN5serde2de5impls82_$LT$impl$u20$serde..de..Deserialize$u20$for$u20$core..option..Option$LT$T$GT$$GT$11deserialize17h888028513148be00E', symObjAddr: 0x30455, symBinAddr: 0x2FCA1, symSize: 0xA2 }
  - { offset: 0x112572, size: 0x8, addend: 0x0, symName: '__ZN5serde2de5impls82_$LT$impl$u20$serde..de..Deserialize$u20$for$u20$core..option..Option$LT$T$GT$$GT$11deserialize17h8b67eadd3c098855E', symObjAddr: 0x304F7, symBinAddr: 0x2FD43, symSize: 0x124 }
  - { offset: 0x11276E, size: 0x8, addend: 0x0, symName: '__ZN5serde2de5impls82_$LT$impl$u20$serde..de..Deserialize$u20$for$u20$core..option..Option$LT$T$GT$$GT$11deserialize17hd8f7d713fd0e180eE', symObjAddr: 0x3061B, symBinAddr: 0x2FE67, symSize: 0x265 }
  - { offset: 0x112B12, size: 0x8, addend: 0x0, symName: '__ZN5serde2de5impls82_$LT$impl$u20$serde..de..Deserialize$u20$for$u20$core..option..Option$LT$T$GT$$GT$11deserialize17hd9b568b76f2a8b63E', symObjAddr: 0x30880, symBinAddr: 0x300CC, symSize: 0x148 }
  - { offset: 0x112DA4, size: 0x8, addend: 0x0, symName: '__ZN5serde2de5impls82_$LT$impl$u20$serde..de..Deserialize$u20$for$u20$core..option..Option$LT$T$GT$$GT$11deserialize17hdab8b477edfa0bcfE', symObjAddr: 0x309C8, symBinAddr: 0x30214, symSize: 0x87 }
  - { offset: 0x112F1E, size: 0x8, addend: 0x0, symName: '__ZN5serde2de5impls82_$LT$impl$u20$serde..de..Deserialize$u20$for$u20$core..option..Option$LT$T$GT$$GT$11deserialize17hed9dda0841a22a24E', symObjAddr: 0x30A4F, symBinAddr: 0x3029B, symSize: 0x7D }
  - { offset: 0x113029, size: 0x8, addend: 0x0, symName: '__ZN5serde2de5impls82_$LT$impl$u20$serde..de..Deserialize$u20$for$u20$core..option..Option$LT$T$GT$$GT$11deserialize17hf6921b5407fd7b7eE', symObjAddr: 0x30ACC, symBinAddr: 0x30318, symSize: 0xAE }
  - { offset: 0x1138ED, size: 0x8, addend: 0x0, symName: '__ZN5serde2de5impls77_$LT$impl$u20$serde..de..Deserialize$u20$for$u20$alloc..vec..Vec$LT$T$GT$$GT$11deserialize17h23d8aa7fe1b2a857E', symObjAddr: 0x2862A, symBinAddr: 0x27E76, symSize: 0x1BF }
  - { offset: 0x113AE6, size: 0x8, addend: 0x0, symName: '__ZN5serde2de5impls77_$LT$impl$u20$serde..de..Deserialize$u20$for$u20$alloc..vec..Vec$LT$T$GT$$GT$11deserialize17h65d3b1a052f2ab2fE', symObjAddr: 0x287E9, symBinAddr: 0x28035, symSize: 0x36B }
  - { offset: 0x113F74, size: 0x8, addend: 0x0, symName: '__ZN5serde2de5impls77_$LT$impl$u20$serde..de..Deserialize$u20$for$u20$alloc..vec..Vec$LT$T$GT$$GT$11deserialize17h7fa2cf7ebc9d254dE', symObjAddr: 0x28B54, symBinAddr: 0x283A0, symSize: 0x8E4 }
  - { offset: 0x114BC6, size: 0x8, addend: 0x0, symName: '__ZN5serde2de5impls77_$LT$impl$u20$serde..de..Deserialize$u20$for$u20$alloc..vec..Vec$LT$T$GT$$GT$11deserialize17h841b28c16ef4b04cE', symObjAddr: 0x29438, symBinAddr: 0x28C84, symSize: 0xB91 }
  - { offset: 0x11579F, size: 0x8, addend: 0x0, symName: '__ZN5serde2de5impls77_$LT$impl$u20$serde..de..Deserialize$u20$for$u20$alloc..vec..Vec$LT$T$GT$$GT$11deserialize17hac44cf16e545a14eE', symObjAddr: 0x29FC9, symBinAddr: 0x29815, symSize: 0x890 }
  - { offset: 0x1161DC, size: 0x8, addend: 0x0, symName: '__ZN5serde2de5impls77_$LT$impl$u20$serde..de..Deserialize$u20$for$u20$alloc..vec..Vec$LT$T$GT$$GT$11deserialize17hadca6a55ce440a73E', symObjAddr: 0x2A859, symBinAddr: 0x2A0A5, symSize: 0x1D7 }
  - { offset: 0x1163D7, size: 0x8, addend: 0x0, symName: '__ZN5serde2de5impls77_$LT$impl$u20$serde..de..Deserialize$u20$for$u20$alloc..vec..Vec$LT$T$GT$$GT$11deserialize17hb4d73a583c3e1b32E', symObjAddr: 0x2AA30, symBinAddr: 0x2A27C, symSize: 0x11CC }
  - { offset: 0x117DA9, size: 0x8, addend: 0x0, symName: '__ZN5serde2de5impls77_$LT$impl$u20$serde..de..Deserialize$u20$for$u20$alloc..vec..Vec$LT$T$GT$$GT$11deserialize17hce94347e9943d90fE', symObjAddr: 0x2BBFC, symBinAddr: 0x2B448, symSize: 0x285 }
  - { offset: 0x118109, size: 0x8, addend: 0x0, symName: '__ZN5serde2de5impls77_$LT$impl$u20$serde..de..Deserialize$u20$for$u20$alloc..vec..Vec$LT$T$GT$$GT$11deserialize17hd06917ab83c26063E', symObjAddr: 0x2BE81, symBinAddr: 0x2B6CD, symSize: 0x2E0 }
  - { offset: 0x11844B, size: 0x8, addend: 0x0, symName: '__ZN5serde2de5impls77_$LT$impl$u20$serde..de..Deserialize$u20$for$u20$alloc..vec..Vec$LT$T$GT$$GT$11deserialize17hd38aebc6e97fdc26E', symObjAddr: 0x2C161, symBinAddr: 0x2B9AD, symSize: 0xE90 }
  - { offset: 0x1193F3, size: 0x8, addend: 0x0, symName: '__ZN5serde2de5impls77_$LT$impl$u20$serde..de..Deserialize$u20$for$u20$alloc..vec..Vec$LT$T$GT$$GT$11deserialize17hd55fbfc9e0f5092cE', symObjAddr: 0x2CFF1, symBinAddr: 0x2C83D, symSize: 0x4D0 }
  - { offset: 0x119A69, size: 0x8, addend: 0x0, symName: '__ZN5serde2de5impls77_$LT$impl$u20$serde..de..Deserialize$u20$for$u20$alloc..vec..Vec$LT$T$GT$$GT$11deserialize17he96997b89c7888ecE', symObjAddr: 0x2D4C1, symBinAddr: 0x2CD0D, symSize: 0xC6B }
  - { offset: 0x11A7B9, size: 0x8, addend: 0x0, symName: '__ZN5serde2de5impls77_$LT$impl$u20$serde..de..Deserialize$u20$for$u20$alloc..vec..Vec$LT$T$GT$$GT$11deserialize17hebce5f53af5578ddE', symObjAddr: 0x2E12C, symBinAddr: 0x2D978, symSize: 0xE28 }
  - { offset: 0x11BB46, size: 0x8, addend: 0x0, symName: '__ZN5serde2de5impls77_$LT$impl$u20$serde..de..Deserialize$u20$for$u20$alloc..vec..Vec$LT$T$GT$$GT$11deserialize17hfa74e08f0d23ef48E', symObjAddr: 0x2EF54, symBinAddr: 0x2E7A0, symSize: 0x1088 }
  - { offset: 0x11E76F, size: 0x8, addend: 0x0, symName: __ZN5serde9__private2de13missing_field17h4affbb6d1787ee2bE, symObjAddr: 0x30B7A, symBinAddr: 0x4F60A, symSize: 0x29 }
  - { offset: 0x11E827, size: 0x8, addend: 0x0, symName: __ZN5serde9__private2de13missing_field17h6a6b429b3f533e03E, symObjAddr: 0x30BA3, symBinAddr: 0x4F633, symSize: 0x29 }
  - { offset: 0x11E8DF, size: 0x8, addend: 0x0, symName: __ZN5serde9__private2de13missing_field17h929228c3c1e9714dE, symObjAddr: 0x30BCC, symBinAddr: 0x4F65C, symSize: 0x2C }
  - { offset: 0x11E9EC, size: 0x8, addend: 0x0, symName: __ZN5serde9__private2de13missing_field17ha4f689e10cfc616fE, symObjAddr: 0x30BF8, symBinAddr: 0x4F688, symSize: 0x2C }
  - { offset: 0x11EAF9, size: 0x8, addend: 0x0, symName: __ZN5serde9__private2de13missing_field17heafa2103fab15da0E, symObjAddr: 0x30C24, symBinAddr: 0x4F6B4, symSize: 0x29 }
  - { offset: 0x11EF8D, size: 0x8, addend: 0x0, symName: '__ZN70_$LT$alloc..vec..Vec$LT$T$C$A$GT$$u20$as$u20$core..ops..drop..Drop$GT$4drop17h1b7ee4a00bd90526E', symObjAddr: 0x30C4D, symBinAddr: 0x303C9, symSize: 0x28 }
  - { offset: 0x11F053, size: 0x8, addend: 0x0, symName: '__ZN70_$LT$alloc..vec..Vec$LT$T$C$A$GT$$u20$as$u20$core..ops..drop..Drop$GT$4drop17h87b80cb339703679E', symObjAddr: 0x30D8F, symBinAddr: 0x3050B, symSize: 0x28 }
  - { offset: 0x11F119, size: 0x8, addend: 0x0, symName: '__ZN70_$LT$alloc..vec..Vec$LT$T$C$A$GT$$u20$as$u20$core..ops..drop..Drop$GT$4drop17h453ad695bb3c0d05E', symObjAddr: 0x30DB7, symBinAddr: 0x30533, symSize: 0x37 }
  - { offset: 0x11F190, size: 0x8, addend: 0x0, symName: '__ZN70_$LT$alloc..vec..Vec$LT$T$C$A$GT$$u20$as$u20$core..ops..drop..Drop$GT$4drop17h4654f40729f798b2E', symObjAddr: 0x30DEE, symBinAddr: 0x3056A, symSize: 0xBD }
  - { offset: 0x11F4E0, size: 0x8, addend: 0x0, symName: '__ZN70_$LT$alloc..vec..Vec$LT$T$C$A$GT$$u20$as$u20$core..ops..drop..Drop$GT$4drop17h75c050be0778a786E', symObjAddr: 0x30EAB, symBinAddr: 0x30627, symSize: 0x3B }
  - { offset: 0x11F5EB, size: 0x8, addend: 0x0, symName: '__ZN70_$LT$alloc..vec..Vec$LT$T$C$A$GT$$u20$as$u20$core..ops..drop..Drop$GT$4drop17h5dc5c8d6092f7b02E', symObjAddr: 0x30EE6, symBinAddr: 0x30662, symSize: 0x40 }
  - { offset: 0x11F6AE, size: 0x8, addend: 0x0, symName: '__ZN70_$LT$alloc..vec..Vec$LT$T$C$A$GT$$u20$as$u20$core..ops..drop..Drop$GT$4drop17hc1da6c6c7412f344E', symObjAddr: 0x30F5C, symBinAddr: 0x306D8, symSize: 0x36 }
  - { offset: 0x11F76F, size: 0x8, addend: 0x0, symName: '__ZN70_$LT$alloc..vec..Vec$LT$T$C$A$GT$$u20$as$u20$core..ops..drop..Drop$GT$4drop17h69b5f44a63625bebE', symObjAddr: 0x30FA3, symBinAddr: 0x3071F, symSize: 0x44 }
  - { offset: 0x11F86B, size: 0x8, addend: 0x0, symName: '__ZN70_$LT$alloc..vec..Vec$LT$T$C$A$GT$$u20$as$u20$core..ops..drop..Drop$GT$4drop17h6c31fe0cea561579E', symObjAddr: 0x30FE7, symBinAddr: 0x30763, symSize: 0x2E }
  - { offset: 0x11F8C3, size: 0x8, addend: 0x0, symName: '__ZN70_$LT$alloc..vec..Vec$LT$T$C$A$GT$$u20$as$u20$core..ops..drop..Drop$GT$4drop17h7f52b4fd179d4785E', symObjAddr: 0x31015, symBinAddr: 0x30791, symSize: 0x48 }
  - { offset: 0x11F9C2, size: 0x8, addend: 0x0, symName: '__ZN70_$LT$alloc..vec..Vec$LT$T$C$A$GT$$u20$as$u20$core..ops..drop..Drop$GT$4drop17h9b305c977336edf5E', symObjAddr: 0x3105D, symBinAddr: 0x307D9, symSize: 0x3B }
  - { offset: 0x11FACD, size: 0x8, addend: 0x0, symName: '__ZN70_$LT$alloc..vec..Vec$LT$T$C$A$GT$$u20$as$u20$core..ops..drop..Drop$GT$4drop17h7f837f4b492dc44eE', symObjAddr: 0x31098, symBinAddr: 0x30814, symSize: 0x33 }
  - { offset: 0x11FB39, size: 0x8, addend: 0x0, symName: '__ZN70_$LT$alloc..vec..Vec$LT$T$C$A$GT$$u20$as$u20$core..ops..drop..Drop$GT$4drop17h983d99a72d6efe6bE', symObjAddr: 0x310CB, symBinAddr: 0x30847, symSize: 0xA2 }
  - { offset: 0x11FCED, size: 0x8, addend: 0x0, symName: '__ZN70_$LT$alloc..vec..Vec$LT$T$C$A$GT$$u20$as$u20$core..ops..drop..Drop$GT$4drop17hc2b379fd864829f8E', symObjAddr: 0x3116D, symBinAddr: 0x308E9, symSize: 0x2E }
  - { offset: 0x11FD8F, size: 0x8, addend: 0x0, symName: '__ZN70_$LT$alloc..vec..Vec$LT$T$C$A$GT$$u20$as$u20$core..ops..drop..Drop$GT$4drop17ha422fe1efacd74b7E', symObjAddr: 0x3119B, symBinAddr: 0x30917, symSize: 0x43 }
  - { offset: 0x11FF49, size: 0x8, addend: 0x0, symName: '__ZN70_$LT$alloc..vec..Vec$LT$T$C$A$GT$$u20$as$u20$core..ops..drop..Drop$GT$4drop17ha52dead545150793E', symObjAddr: 0x311DE, symBinAddr: 0x3095A, symSize: 0x6D }
  - { offset: 0x11FFFF, size: 0x8, addend: 0x0, symName: '__ZN70_$LT$alloc..vec..Vec$LT$T$C$A$GT$$u20$as$u20$core..ops..drop..Drop$GT$4drop17hccf3d4123a2dd9daE', symObjAddr: 0x3124B, symBinAddr: 0x309C7, symSize: 0x3B }
  - { offset: 0x1200C0, size: 0x8, addend: 0x0, symName: '__ZN70_$LT$alloc..vec..Vec$LT$T$C$A$GT$$u20$as$u20$core..ops..drop..Drop$GT$4drop17hd7fa22b217bec4efE', symObjAddr: 0x31286, symBinAddr: 0x30A02, symSize: 0x2E }
  - { offset: 0x120181, size: 0x8, addend: 0x0, symName: '__ZN70_$LT$alloc..vec..Vec$LT$T$C$A$GT$$u20$as$u20$core..ops..drop..Drop$GT$4drop17hd7fdf8b708800327E', symObjAddr: 0x312B4, symBinAddr: 0x30A30, symSize: 0x48 }
  - { offset: 0x120236, size: 0x8, addend: 0x0, symName: '__ZN70_$LT$alloc..vec..Vec$LT$T$C$A$GT$$u20$as$u20$core..ops..drop..Drop$GT$4drop17hdca82b5229df65eaE', symObjAddr: 0x312FC, symBinAddr: 0x30A78, symSize: 0x2E }
  - { offset: 0x123E24, size: 0x8, addend: 0x0, symName: '__ZN5alloc3vec16Vec$LT$T$C$A$GT$7reserve17hfa075d23cda539aeE', symObjAddr: 0x2852F, symBinAddr: 0x27D7B, symSize: 0x1B }
  - { offset: 0x123EED, size: 0x8, addend: 0x0, symName: '__ZN5alloc7raw_vec20RawVecInner$LT$A$GT$7reserve17h501e1dde9a8e3022E', symObjAddr: 0x2854A, symBinAddr: 0x27D96, symSize: 0x24 }
  - { offset: 0x123F9E, size: 0x8, addend: 0x0, symName: '__ZN5alloc7raw_vec20RawVecInner$LT$A$GT$16with_capacity_in17h12acc9602bf5cad3E.1243', symObjAddr: 0x2856E, symBinAddr: 0x27DBA, symSize: 0x3E }
  - { offset: 0x1A4837, size: 0x8, addend: 0x0, symName: '__ZN104_$LT$core..iter..adapters..cloned..Cloned$LT$I$GT$$u20$as$u20$core..iter..traits..iterator..Iterator$GT$4next17hfe97192af7885b41E', symObjAddr: 0x46DA1, symBinAddr: 0x45929, symSize: 0x40 }
  - { offset: 0x1A4B07, size: 0x8, addend: 0x0, symName: '__ZN145_$LT$$LT$powersync_core..sync..checksum..Checksum$u20$as$u20$serde..de..Deserialize$GT$..deserialize..MyVisitor$u20$as$u20$serde..de..Visitor$GT$9visit_i6417h5d312adeeaa07504E', symObjAddr: 0x478D8, symBinAddr: 0x463C0, symSize: 0x52 }
  - { offset: 0x1A4C58, size: 0x8, addend: 0x0, symName: '__ZN145_$LT$$LT$powersync_core..sync..checksum..Checksum$u20$as$u20$serde..de..Deserialize$GT$..deserialize..MyVisitor$u20$as$u20$serde..de..Visitor$GT$9visit_i6417h786d286c9b3cc036E', symObjAddr: 0x4792A, symBinAddr: 0x46412, symSize: 0x52 }
  - { offset: 0x1A4DF7, size: 0x8, addend: 0x0, symName: '__ZN83_$LT$powersync_core..sync..checksum..Checksum$u20$as$u20$serde..de..Deserialize$GT$11deserialize17hc4a63985f11aee57E', symObjAddr: 0x47487, symBinAddr: 0x45F6F, symSize: 0xFD }
  - { offset: 0x1A4F36, size: 0x8, addend: 0x0, symName: '__ZN83_$LT$powersync_core..sync..checksum..Checksum$u20$as$u20$serde..de..Deserialize$GT$11deserialize17hcf4d44eb6ae6d01bE', symObjAddr: 0x47584, symBinAddr: 0x4606C, symSize: 0x354 }
  - { offset: 0x1A5367, size: 0x8, addend: 0x0, symName: '__ZN79_$LT$powersync_core..sync..checksum..Checksum$u20$as$u20$core..fmt..Display$GT$3fmt17h95d3b985f792d20cE', symObjAddr: 0x47427, symBinAddr: 0x45F0F, symSize: 0x60 }
  - { offset: 0x1A5798, size: 0x8, addend: 0x0, symName: '__ZN14powersync_core4sync13subscriptions1_99_$LT$impl$u20$serde..de..Deserialize$u20$for$u20$powersync_core..sync..subscriptions..StreamKey$GT$11deserialize17h5f7cfeaaf27221e6E', symObjAddr: 0x48DD5, symBinAddr: 0x478BD, symSize: 0x5D4 }
  - { offset: 0x1A6C8A, size: 0x8, addend: 0x0, symName: __ZN14powersync_core8fix_data39powersync_remove_duplicate_key_encoding17h6bbfe6b54c7c9ecaE, symObjAddr: 0x470A1, symBinAddr: 0x45B89, symSize: 0x2C7 }
  - { offset: 0x1A7BFA, size: 0x8, addend: 0x0, symName: '__ZN95_$LT$$BP$mut$u20$sqlite3_capi..bindings..sqlite3$u20$as$u20$sqlite_nostd..nostd..Connection$GT$9exec_safe17h1a95d9dea7ce52ddE.2741', symObjAddr: 0x48B26, symBinAddr: 0x4760E, symSize: 0x79 }
  - { offset: 0x1A8688, size: 0x8, addend: 0x0, symName: '__ZN4core3ptr67drop_in_place$LT$powersync_core..sync..subscriptions..StreamKey$GT$17h2445df4b01990518E.2736', symObjAddr: 0x4799E, symBinAddr: 0x46486, symSize: 0x37 }
  - { offset: 0x1A8878, size: 0x8, addend: 0x0, symName: '__ZN4core3ptr94drop_in_place$LT$core..option..Option$LT$powersync_core..sync_local..ParsedSchemaTable$GT$$GT$17h407ede6f1347e845E', symObjAddr: 0x48AE9, symBinAddr: 0x475D1, symSize: 0x3D }
  - { offset: 0x1A8958, size: 0x8, addend: 0x0, symName: '__ZN4core3ptr114drop_in_place$LT$core..option..Option$LT$powersync_core..sync_local..SyncOperation..apply..CachedStatement$GT$$GT$17ha12b6a76225abdf4E', symObjAddr: 0x48B9F, symBinAddr: 0x47687, symSize: 0x33 }
  - { offset: 0x1A8A0E, size: 0x8, addend: 0x0, symName: '__ZN4core3ptr83drop_in_place$LT$powersync_core..sync..subscriptions..SubscriptionChangeRequest$GT$17he779adab3fd20139E', symObjAddr: 0x48DBD, symBinAddr: 0x478A5, symSize: 0x18 }
  - { offset: 0x1AAD51, size: 0x8, addend: 0x0, symName: '__ZN4core3str6traits66_$LT$impl$u20$core..ops..index..Index$LT$I$GT$$u20$for$u20$str$GT$5index17h2805439338995974E', symObjAddr: 0x46FB4, symBinAddr: 0x45AC4, symSize: 0x41 }
  - { offset: 0x1AAD91, size: 0x8, addend: 0x0, symName: '__ZN4core3str6traits66_$LT$impl$u20$core..ops..index..Index$LT$I$GT$$u20$for$u20$str$GT$5index17h2805439338995974E', symObjAddr: 0x46FB4, symBinAddr: 0x45AC4, symSize: 0x41 }
  - { offset: 0x1AADB3, size: 0x8, addend: 0x0, symName: '__ZN4core3str6traits66_$LT$impl$u20$core..ops..index..Index$LT$I$GT$$u20$for$u20$str$GT$5index17h2805439338995974E', symObjAddr: 0x46FB4, symBinAddr: 0x45AC4, symSize: 0x41 }
  - { offset: 0x1AAECE, size: 0x8, addend: 0x0, symName: '__ZN4core3str6traits66_$LT$impl$u20$core..ops..index..Index$LT$I$GT$$u20$for$u20$str$GT$5index17haa21c1c3f31e2fabE', symObjAddr: 0x4701D, symBinAddr: 0x45B05, symSize: 0x27 }
  - { offset: 0x1AB0E9, size: 0x8, addend: 0x0, symName: '__ZN4core3str6traits112_$LT$impl$u20$core..slice..index..SliceIndex$LT$str$GT$$u20$for$u20$core..ops..range..RangeFrom$LT$usize$GT$$GT$3get17hd0eb3a5e384010fbE', symObjAddr: 0x47402, symBinAddr: 0x45EEA, symSize: 0x25 }
  - { offset: 0x1AB3A5, size: 0x8, addend: 0x0, symName: '__ZN102_$LT$core..str..iter..CharIndices$u20$as$u20$core..iter..traits..double_ended..DoubleEndedIterator$GT$9next_back17h562792a489da2862E', symObjAddr: 0x47368, symBinAddr: 0x45E50, symSize: 0x9A }
  - { offset: 0x1AB3FD, size: 0x8, addend: 0x0, symName: '__ZN102_$LT$core..str..iter..CharIndices$u20$as$u20$core..iter..traits..double_ended..DoubleEndedIterator$GT$9next_back17h562792a489da2862E', symObjAddr: 0x47368, symBinAddr: 0x45E50, symSize: 0x9A }
  - { offset: 0x1AD5AE, size: 0x8, addend: 0x0, symName: '__ZN44_$LT$$RF$T$u20$as$u20$core..fmt..Display$GT$3fmt17h7d30b402a4f9187fE', symObjAddr: 0x46E8C, symBinAddr: 0x45A14, symSize: 0x2B }
  - { offset: 0x1AD64E, size: 0x8, addend: 0x0, symName: '__ZN44_$LT$$RF$T$u20$as$u20$core..fmt..Display$GT$3fmt17h7e74282810077731E', symObjAddr: 0x46EB7, symBinAddr: 0x45A3F, symSize: 0xD }
  - { offset: 0x1ADF0A, size: 0x8, addend: 0x0, symName: '__ZN4core5slice29_$LT$impl$u20$$u5b$T$u5d$$GT$15copy_from_slice17h09cd811724e8eebfE', symObjAddr: 0x46EC4, symBinAddr: 0x45A4C, symSize: 0x22 }
  - { offset: 0x1AE0FB, size: 0x8, addend: 0x0, symName: '__ZN104_$LT$core..iter..adapters..cloned..Cloned$LT$I$GT$$u20$as$u20$core..iter..traits..iterator..Iterator$GT$4next17hfe97192af7885b41E', symObjAddr: 0x46DA1, symBinAddr: 0x45929, symSize: 0x40 }
  - { offset: 0x1B0C05, size: 0x8, addend: 0x0, symName: '__ZN41_$LT$T$u20$as$u20$serde..de..Expected$GT$3fmt17h2f78f798ee84ec7fE', symObjAddr: 0x46DE1, symBinAddr: 0x45969, symSize: 0x23 }
  - { offset: 0x1B0C7D, size: 0x8, addend: 0x0, symName: '__ZN41_$LT$T$u20$as$u20$serde..de..Expected$GT$3fmt17h382ac3dd2e40e077E', symObjAddr: 0x46E04, symBinAddr: 0x4598C, symSize: 0x23 }
  - { offset: 0x1B0CF5, size: 0x8, addend: 0x0, symName: '__ZN41_$LT$T$u20$as$u20$serde..de..Expected$GT$3fmt17h989d2c3f74593c42E', symObjAddr: 0x46E27, symBinAddr: 0x459AF, symSize: 0x23 }
  - { offset: 0x1B0D6D, size: 0x8, addend: 0x0, symName: '__ZN41_$LT$T$u20$as$u20$serde..de..Expected$GT$3fmt17hb5d70a6f7c097c1fE', symObjAddr: 0x46E4A, symBinAddr: 0x459D2, symSize: 0x42 }
  - { offset: 0x1B0DEB, size: 0x8, addend: 0x0, symName: __ZN5serde2de7Visitor11visit_bytes17ha4c76f93666008c2E, symObjAddr: 0x46F3C, symBinAddr: 0x502E4, symSize: 0x3C }
  - { offset: 0x1B0E3C, size: 0x8, addend: 0x0, symName: __ZN5serde2de7Visitor9visit_str17h87ca75ccb083d497E, symObjAddr: 0x46F78, symBinAddr: 0x50320, symSize: 0x3C }
  - { offset: 0x1B0F82, size: 0x8, addend: 0x0, symName: '__ZN89_$LT$serde..de..value..private..UnitOnly$LT$E$GT$$u20$as$u20$serde..de..VariantAccess$GT$20newtype_variant_seed17hef768958cc98069fE', symObjAddr: 0x46FF5, symBinAddr: 0x5035D, symSize: 0x28 }
  - { offset: 0x1B1988, size: 0x8, addend: 0x0, symName: '__ZN5alloc4sync16Arc$LT$T$C$A$GT$9drop_slow17h872702e90d22f187E', symObjAddr: 0x46EE6, symBinAddr: 0x45A6E, symSize: 0x3D }
  - { offset: 0x1B1CBA, size: 0x8, addend: 0x0, symName: '__ZN5alloc4sync16Arc$LT$T$C$A$GT$9drop_slow17hbd074e9b26dc716fE', symObjAddr: 0x46F23, symBinAddr: 0x45AAB, symSize: 0x19 }
  - { offset: 0x1B1E74, size: 0x8, addend: 0x0, symName: __ZN12sqlite_nostd5nostd11ManagedStmt11column_text17hd87220a4dd46d760E.2688, symObjAddr: 0x47044, symBinAddr: 0x45B2C, symSize: 0x4C }
  - { offset: 0x1B1F2D, size: 0x8, addend: 0x0, symName: __ZN12sqlite_nostd5nostd11ManagedStmt9bind_text17hba530f0d23cc6cecE.2692, symObjAddr: 0x47090, symBinAddr: 0x45B78, symSize: 0x11 }
  - { offset: 0x1B244E, size: 0x8, addend: 0x0, symName: __ZN12sqlite_nostd5nostd11ManagedStmt8bind_int17hdf7e493e5a77bd96E.2734, symObjAddr: 0x4797C, symBinAddr: 0x46464, symSize: 0x11 }
  - { offset: 0x1B248E, size: 0x8, addend: 0x0, symName: __ZN12sqlite_nostd5nostd11ManagedStmt9bind_null17h7cd81ed140230f01E.2735, symObjAddr: 0x4798D, symBinAddr: 0x46475, symSize: 0x11 }
  - { offset: 0x1B2E89, size: 0x8, addend: 0x0, symName: __ZN14powersync_core10sync_local13SyncOperation5apply17h45f6df44239113a9E, symObjAddr: 0x479D5, symBinAddr: 0x464BD, symSize: 0x1114 }
  - { offset: 0x1B4DA3, size: 0x8, addend: 0x0, symName: __ZN14powersync_core10sync_local28RawTableWithCachedStatements14prepare_lazily17h6ef81f0c6c947b64E, symObjAddr: 0x48BD2, symBinAddr: 0x476BA, symSize: 0x162 }
  - { offset: 0x1B5135, size: 0x8, addend: 0x0, symName: __ZN14powersync_core10sync_local13SyncOperation10use_schema17hef8669233d252774E, symObjAddr: 0x48D34, symBinAddr: 0x4781C, symSize: 0x89 }
  - { offset: 0x182393, size: 0x8, addend: 0x0, symName: '__ZN44_$LT$$RF$T$u20$as$u20$core..fmt..Display$GT$3fmt17h436b1b04b47053edE', symObjAddr: 0x3FF06, symBinAddr: 0x3EE86, symSize: 0xD }
  - { offset: 0x184328, size: 0x8, addend: 0x0, symName: '__ZN66_$LT$alloc..borrow..Cow$LT$B$GT$$u20$as$u20$core..fmt..Display$GT$3fmt17h664c5c5985735847E', symObjAddr: 0x3FF20, symBinAddr: 0x3EEA0, symSize: 0x1B }
  - { offset: 0x1843AE, size: 0x8, addend: 0x0, symName: '__ZN66_$LT$alloc..borrow..Cow$LT$B$GT$$u20$as$u20$core..clone..Clone$GT$5clone17h42d6546f39f2d5daE', symObjAddr: 0x3FF3B, symBinAddr: 0x3EEBB, symSize: 0x33 }
  - { offset: 0x1852B4, size: 0x8, addend: 0x0, symName: '__ZN4core3ptr99drop_in_place$LT$powersync_core..sync..storage_adapter..StorageAdapter..sync_local..PartialArgs$GT$17he8e5874b398263e2E', symObjAddr: 0x4139A, symBinAddr: 0x4031A, symSize: 0x1E }
  - { offset: 0x1857DE, size: 0x8, addend: 0x0, symName: '__ZN44_$LT$$RF$T$u20$as$u20$core..fmt..Display$GT$3fmt17h436b1b04b47053edE', symObjAddr: 0x3FF06, symBinAddr: 0x3EE86, symSize: 0xD }
  - { offset: 0x185824, size: 0x8, addend: 0x0, symName: '__ZN44_$LT$$RF$T$u20$as$u20$core..fmt..Display$GT$3fmt17hd573ae7537c70acdE', symObjAddr: 0x3FF13, symBinAddr: 0x3EE93, symSize: 0xD }
  - { offset: 0x189AC9, size: 0x8, addend: 0x0, symName: '__ZN95_$LT$$BP$mut$u20$sqlite3_capi..bindings..sqlite3$u20$as$u20$sqlite_nostd..nostd..Connection$GT$10prepare_v217hdce128889f6400baE.2389', symObjAddr: 0x3FFF6, symBinAddr: 0x3EF76, symSize: 0x7D6 }
  - { offset: 0x189B92, size: 0x8, addend: 0x0, symName: '__ZN95_$LT$$BP$mut$u20$sqlite3_capi..bindings..sqlite3$u20$as$u20$sqlite_nostd..nostd..Connection$GT$9exec_safe17h1a95d9dea7ce52ddE.2418', symObjAddr: 0x41310, symBinAddr: 0x40290, symSize: 0x79 }
  - { offset: 0x18A6EC, size: 0x8, addend: 0x0, symName: '__ZN94_$LT$powersync_core..sync..storage_adapter..CheckpointResult$u20$as$u20$core..fmt..Display$GT$3fmt17h48b4412f59f5df89E', symObjAddr: 0x41814, symBinAddr: 0x40794, symSize: 0x1E1 }
  - { offset: 0x18AC8D, size: 0x8, addend: 0x0, symName: '__ZN147_$LT$powersync_core..sync..checkpoint..OwnedBucketChecksum$u20$as$u20$core..convert..From$LT$$RF$powersync_core..sync..line..BucketChecksum$GT$$GT$4from17hebab48c3b2eeb815E', symObjAddr: 0x407CC, symBinAddr: 0x3F74C, symSize: 0x8D }
  - { offset: 0x18B5CA, size: 0x8, addend: 0x0, symName: __ZN14powersync_core4uuid7uuid_v417h3681e5824b4a32a6E, symObjAddr: 0x41A04, symBinAddr: 0x40984, symSize: 0x24E }
  - { offset: 0x18BD7D, size: 0x8, addend: 0x0, symName: '__ZN101_$LT$$BP$mut$u20$sqlite3_capi..bindings..sqlite3$u20$as$u20$powersync_core..ext..ExtendedDatabase$GT$9exec_text17h0175d989d1550557E', symObjAddr: 0x3FF6E, symBinAddr: 0x3EEEE, symSize: 0x88 }
  - { offset: 0x18E542, size: 0x8, addend: 0x0, symName: '__ZN5alloc3vec16Vec$LT$T$C$A$GT$4push17h952399ae1ff1e4bdE', symObjAddr: 0x40859, symBinAddr: 0x3F7D9, symSize: 0x43 }
  - { offset: 0x18E608, size: 0x8, addend: 0x0, symName: __ZN14powersync_core4sync15storage_adapter14StorageAdapter3new17h2a68a1a13037a687E, symObjAddr: 0x4089C, symBinAddr: 0x3F81C, symSize: 0x150 }
  - { offset: 0x18E7DD, size: 0x8, addend: 0x0, symName: __ZN12sqlite_nostd5nostd11ManagedStmt11column_text17hd87220a4dd46d760E.2399, symObjAddr: 0x409EC, symBinAddr: 0x3F96C, symSize: 0x4C }
  - { offset: 0x18EC15, size: 0x8, addend: 0x0, symName: __ZN14powersync_core4sync15storage_adapter14StorageAdapter18offline_sync_state17h09f599fcfb970312E, symObjAddr: 0x40A38, symBinAddr: 0x3F9B8, symSize: 0x358 }
  - { offset: 0x18F2B9, size: 0x8, addend: 0x0, symName: __ZN14powersync_core4sync15storage_adapter14StorageAdapter24read_stream_subscription17h8ed51c26084414d4E, symObjAddr: 0x40D90, symBinAddr: 0x3FD10, symSize: 0x548 }
  - { offset: 0x18FEB5, size: 0x8, addend: 0x0, symName: __ZN12sqlite_nostd5nostd11ManagedStmt11column_type17h3ee079172ebc17bbE, symObjAddr: 0x412D8, symBinAddr: 0x40258, symSize: 0x38 }
  - { offset: 0x18FF91, size: 0x8, addend: 0x0, symName: __ZN12sqlite_nostd5nostd11ManagedStmt10bind_int6417h0d67155fab54480dE.2425, symObjAddr: 0x41389, symBinAddr: 0x40309, symSize: 0x11 }
  - { offset: 0x1902AB, size: 0x8, addend: 0x0, symName: __ZN14powersync_core4sync15storage_adapter14StorageAdapter29collect_subscription_requests17h080d02ba5ad1f39dE, symObjAddr: 0x413B8, symBinAddr: 0x40338, symSize: 0x2F9 }
  - { offset: 0x1907AC, size: 0x8, addend: 0x0, symName: __ZN14powersync_core4sync15storage_adapter14StorageAdapter3now17h6793247f2d30816cE, symObjAddr: 0x416B1, symBinAddr: 0x40631, symSize: 0x53 }
  - { offset: 0x190895, size: 0x8, addend: 0x0, symName: __ZN14powersync_core4sync15storage_adapter14StorageAdapter12increase_ttl17h16ae02a16bb15e12E, symObjAddr: 0x41704, symBinAddr: 0x40684, symSize: 0xEE }
  - { offset: 0x190ABA, size: 0x8, addend: 0x0, symName: __ZN12sqlite_nostd5nostd11ManagedStmt8bind_int17hdf7e493e5a77bd96E.2439, symObjAddr: 0x417F2, symBinAddr: 0x40772, symSize: 0x11 }
  - { offset: 0x190AFA, size: 0x8, addend: 0x0, symName: __ZN12sqlite_nostd5nostd11ManagedStmt9bind_null17h7cd81ed140230f01E.2440, symObjAddr: 0x41803, symBinAddr: 0x40783, symSize: 0x11 }
  - { offset: 0x190CE5, size: 0x8, addend: 0x0, symName: __ZN4core3fmt9Formatter9write_fmt17h6547b3ea83dd1893E.2447, symObjAddr: 0x419F5, symBinAddr: 0x40975, symSize: 0xF }
  - { offset: 0x13632A, size: 0x8, addend: 0x0, symName: '__ZN104_$LT$alloc..collections..btree..set..Iter$LT$T$GT$$u20$as$u20$core..iter..traits..iterator..Iterator$GT$4next17h8a156b3c9094db8cE', symObjAddr: 0x32153, symBinAddr: 0x3184F, symSize: 0xA }
  - { offset: 0x136350, size: 0x8, addend: 0x0, symName: __ZN14powersync_core9crud_vtab6MODULE17hbdafda6cc0a2517dE, symObjAddr: 0x51660, symBinAddr: 0x5F010, symSize: 0x0 }
  - { offset: 0x136584, size: 0x8, addend: 0x0, symName: __ZN14powersync_core9crud_vtab7connect17h44be9ab7304718ceE, symObjAddr: 0x33D2C, symBinAddr: 0x333F0, symSize: 0xDE }
  - { offset: 0x136BDC, size: 0x8, addend: 0x0, symName: __ZN14powersync_core9crud_vtab6update17h127ef7e6ed1bfe18E, symObjAddr: 0x33E0A, symBinAddr: 0x334CE, symSize: 0x61D }
  - { offset: 0x13770A, size: 0x8, addend: 0x0, symName: __ZN14powersync_core9crud_vtab5begin17hf363e2a873724331E, symObjAddr: 0x34427, symBinAddr: 0x33AEB, symSize: 0xCA }
  - { offset: 0x1378C7, size: 0x8, addend: 0x0, symName: __ZN14powersync_core9crud_vtab6commit17h05dd3996d749aaa7E, symObjAddr: 0x344F1, symBinAddr: 0x33BB5, symSize: 0xD }
  - { offset: 0x1382C0, size: 0x8, addend: 0x0, symName: __ZN14powersync_core5state8register4func17hcf942e6315392feeE, symObjAddr: 0x33C2C, symBinAddr: 0x332F0, symSize: 0x51 }
  - { offset: 0x138675, size: 0x8, addend: 0x0, symName: '__ZN89_$LT$sqlite_nostd..nostd..ManagedStmt$u20$as$u20$powersync_core..ext..SafeManagedStmt$GT$4exec17h9dc82f53f9a14217E', symObjAddr: 0x3279D, symBinAddr: 0x31E61, symSize: 0x43 }
  - { offset: 0x138C62, size: 0x8, addend: 0x0, symName: __ZN14powersync_core9json_util20powersync_json_merge17hb3ba796c287f264fE, symObjAddr: 0x331C8, symBinAddr: 0x3288C, symSize: 0x1B9 }
  - { offset: 0x139242, size: 0x8, addend: 0x0, symName: __ZN14powersync_core9json_util23powersync_strip_subtype17h38a6729365d44695E, symObjAddr: 0x33381, symBinAddr: 0x32A45, symSize: 0x42 }
  - { offset: 0x1394A1, size: 0x8, addend: 0x0, symName: __ZN14powersync_core10view_admin19powersync_drop_view17h3dc1b75b98326635E, symObjAddr: 0x333C3, symBinAddr: 0x32A87, symSize: 0x18A }
  - { offset: 0x1399DA, size: 0x8, addend: 0x0, symName: __ZN14powersync_core10view_admin14powersync_exec17h55952eb1f9447c6aE, symObjAddr: 0x3354D, symBinAddr: 0x32C11, symSize: 0xCC }
  - { offset: 0x139CFF, size: 0x8, addend: 0x0, symName: __ZN14powersync_core10view_admin14powersync_init17hb40f54b41c660ad6E, symObjAddr: 0x33619, symBinAddr: 0x32CDD, symSize: 0x115 }
  - { offset: 0x13A003, size: 0x8, addend: 0x0, symName: __ZN14powersync_core10view_admin24powersync_test_migration17hf013a0e7422d3e8aE, symObjAddr: 0x3372E, symBinAddr: 0x32DF2, symSize: 0x138 }
  - { offset: 0x13A318, size: 0x8, addend: 0x0, symName: __ZN14powersync_core10view_admin15powersync_clear17heb4bf161688fb645E, symObjAddr: 0x33866, symBinAddr: 0x32F2A, symSize: 0x138 }
  - { offset: 0x13A5CB, size: 0x8, addend: 0x0, symName: __ZN14powersync_core10view_admin29powersync_external_table_name17h14c6717a211662ebE, symObjAddr: 0x3399E, symBinAddr: 0x33062, symSize: 0xEF }
  - { offset: 0x13A91D, size: 0x8, addend: 0x0, symName: __ZN14powersync_core10view_admin29powersync_internal_table_name17h0db4b470050dee01E, symObjAddr: 0x33A8D, symBinAddr: 0x33151, symSize: 0x19F }
  - { offset: 0x13ABEA, size: 0x8, addend: 0x0, symName: __ZN14powersync_core10view_admin20powersync_clear_impl17he2609373a77ba486E, symObjAddr: 0x350C2, symBinAddr: 0x34786, symSize: 0x382 }
  - { offset: 0x13B437, size: 0x8, addend: 0x0, symName: __ZN14powersync_core10view_admin29powersync_test_migration_impl17hfbc7e2a4dd5a3cbaE, symObjAddr: 0x3545F, symBinAddr: 0x34B23, symSize: 0x59 }
  - { offset: 0x13B5AE, size: 0x8, addend: 0x0, symName: __ZN14powersync_core10view_admin19powersync_init_impl17h7d198b2546ec98e7E, symObjAddr: 0x354B8, symBinAddr: 0x34B7C, symSize: 0x9C }
  - { offset: 0x13B6FF, size: 0x8, addend: 0x0, symName: _sqlite3_powersync_init, symObjAddr: 0x32801, symBinAddr: 0x31EC5, symSize: 0x9AC }
  - { offset: 0x1447DC, size: 0x8, addend: 0x0, symName: '__ZN4core3ptr58drop_in_place$LT$powersync_core..error..PowerSyncError$GT$17h245568b8fe19a9ebE.1764', symObjAddr: 0x33C7D, symBinAddr: 0x33341, symSize: 0xAF }
  - { offset: 0x1449F1, size: 0x8, addend: 0x0, symName: '__ZN4core3ptr97drop_in_place$LT$core..option..Option$LT$powersync_core..crud_vtab..ActiveCrudTransaction$GT$$GT$17hd286f9ee82258ee9E', symObjAddr: 0x3451F, symBinAddr: 0x33BE3, symSize: 0x42 }
  - { offset: 0x144A6A, size: 0x8, addend: 0x0, symName: '__ZN4core3ptr81drop_in_place$LT$core..option..Option$LT$sqlite_nostd..nostd..ManagedStmt$GT$$GT$17h48e200d1b0c4c7fbE', symObjAddr: 0x34561, symBinAddr: 0x33C25, symSize: 0x14 }
  - { offset: 0x144B38, size: 0x8, addend: 0x0, symName: '__ZN4core3ptr110drop_in_place$LT$core..result..Result$LT$alloc..string..String$C$powersync_core..error..PowerSyncError$GT$$GT$17h95704a65488054baE', symObjAddr: 0x35444, symBinAddr: 0x34B08, symSize: 0x1B }
  - { offset: 0x1452C9, size: 0x8, addend: 0x0, symName: '__ZN4core3str6traits66_$LT$impl$u20$core..ops..index..Index$LT$I$GT$$u20$for$u20$str$GT$5index17hc26606ec61ecfc08E', symObjAddr: 0x3509C, symBinAddr: 0x34760, symSize: 0x26 }
  - { offset: 0x145309, size: 0x8, addend: 0x0, symName: '__ZN4core3str6traits66_$LT$impl$u20$core..ops..index..Index$LT$I$GT$$u20$for$u20$str$GT$5index17hc26606ec61ecfc08E', symObjAddr: 0x3509C, symBinAddr: 0x34760, symSize: 0x26 }
  - { offset: 0x145329, size: 0x8, addend: 0x0, symName: '__ZN4core3str6traits66_$LT$impl$u20$core..ops..index..Index$LT$I$GT$$u20$for$u20$str$GT$5index17hc26606ec61ecfc08E', symObjAddr: 0x3509C, symBinAddr: 0x34760, symSize: 0x26 }
  - { offset: 0x145367, size: 0x8, addend: 0x0, symName: '__ZN4core3str6traits66_$LT$impl$u20$core..ops..index..Index$LT$I$GT$$u20$for$u20$str$GT$5index17hc26606ec61ecfc08E', symObjAddr: 0x3509C, symBinAddr: 0x34760, symSize: 0x26 }
  - { offset: 0x14795E, size: 0x8, addend: 0x0, symName: '__ZN96_$LT$$BP$mut$u20$sqlite3_capi..bindings..sqlite3_value$u20$as$u20$sqlite_nostd..nostd..Value$GT$3int17h7d849962fc578a1eE', symObjAddr: 0x34E1B, symBinAddr: 0x344DF, symSize: 0x1E }
  - { offset: 0x14798C, size: 0x8, addend: 0x0, symName: '__ZN96_$LT$$BP$mut$u20$sqlite3_capi..bindings..sqlite3_value$u20$as$u20$sqlite_nostd..nostd..Value$GT$3int17h7d849962fc578a1eE', symObjAddr: 0x34E1B, symBinAddr: 0x344DF, symSize: 0x1E }
  - { offset: 0x147BB0, size: 0x8, addend: 0x0, symName: '__ZN95_$LT$$BP$mut$u20$sqlite3_capi..bindings..sqlite3$u20$as$u20$sqlite_nostd..nostd..Connection$GT$10prepare_v217hdce128889f6400baE.1777', symObjAddr: 0x34575, symBinAddr: 0x33C39, symSize: 0x66 }
  - { offset: 0x147C4A, size: 0x8, addend: 0x0, symName: '__ZN95_$LT$$BP$mut$u20$sqlite3_capi..bindings..sqlite3$u20$as$u20$sqlite_nostd..nostd..Connection$GT$10prepare_v317hc779f7fd6f67fe2aE', symObjAddr: 0x34DA4, symBinAddr: 0x34468, symSize: 0x77 }
  - { offset: 0x147D4D, size: 0x8, addend: 0x0, symName: '__ZN95_$LT$$BP$mut$u20$sqlite3_capi..bindings..sqlite3$u20$as$u20$sqlite_nostd..nostd..Connection$GT$9exec_safe17h1a95d9dea7ce52ddE.1783', symObjAddr: 0x34E86, symBinAddr: 0x3454A, symSize: 0x74 }
  - { offset: 0x148195, size: 0x8, addend: 0x0, symName: '__ZN86_$LT$serde_json..ser..Compound$LT$W$C$F$GT$$u20$as$u20$serde..ser..SerializeStruct$GT$15serialize_field17h1813868a59122a78E', symObjAddr: 0x34EFA, symBinAddr: 0x345BE, symSize: 0x97 }
  - { offset: 0x1484A2, size: 0x8, addend: 0x0, symName: '__ZN86_$LT$serde_json..ser..Compound$LT$W$C$F$GT$$u20$as$u20$serde..ser..SerializeStruct$GT$15serialize_field17h7a1ff2396589a020E', symObjAddr: 0x34F91, symBinAddr: 0x34655, symSize: 0xC2 }
  - { offset: 0x148BC0, size: 0x8, addend: 0x0, symName: '__ZN77_$LT$alloc..raw_vec..RawVec$LT$T$C$A$GT$$u20$as$u20$core..ops..drop..Drop$GT$4drop17h02dba87752776ae4E', symObjAddr: 0x32625, symBinAddr: 0x31D21, symSize: 0x1E }
  - { offset: 0x148BF9, size: 0x8, addend: 0x0, symName: '__ZN77_$LT$alloc..raw_vec..RawVec$LT$T$C$A$GT$$u20$as$u20$core..ops..drop..Drop$GT$4drop17h0577e4d1a1a177c0E', symObjAddr: 0x32643, symBinAddr: 0x31D3F, symSize: 0x17 }
  - { offset: 0x148C32, size: 0x8, addend: 0x0, symName: '__ZN77_$LT$alloc..raw_vec..RawVec$LT$T$C$A$GT$$u20$as$u20$core..ops..drop..Drop$GT$4drop17h1118314a07688f07E', symObjAddr: 0x3265A, symBinAddr: 0x31D56, symSize: 0x1E }
  - { offset: 0x148C6B, size: 0x8, addend: 0x0, symName: '__ZN77_$LT$alloc..raw_vec..RawVec$LT$T$C$A$GT$$u20$as$u20$core..ops..drop..Drop$GT$4drop17h1f38f15ef0cd9c7bE', symObjAddr: 0x32678, symBinAddr: 0x31D74, symSize: 0x1E }
  - { offset: 0x148CA4, size: 0x8, addend: 0x0, symName: '__ZN77_$LT$alloc..raw_vec..RawVec$LT$T$C$A$GT$$u20$as$u20$core..ops..drop..Drop$GT$4drop17h20693a32fe29ac6cE', symObjAddr: 0x32696, symBinAddr: 0x31D92, symSize: 0x1E }
  - { offset: 0x148CDD, size: 0x8, addend: 0x0, symName: '__ZN77_$LT$alloc..raw_vec..RawVec$LT$T$C$A$GT$$u20$as$u20$core..ops..drop..Drop$GT$4drop17h6ae7127e2d31a8aaE', symObjAddr: 0x326B4, symBinAddr: 0x31DB0, symSize: 0x1E }
  - { offset: 0x148D16, size: 0x8, addend: 0x0, symName: '__ZN77_$LT$alloc..raw_vec..RawVec$LT$T$C$A$GT$$u20$as$u20$core..ops..drop..Drop$GT$4drop17h82b8a3e6f04829e6E', symObjAddr: 0x326D2, symBinAddr: 0x31DCE, symSize: 0x1E }
  - { offset: 0x148D4F, size: 0x8, addend: 0x0, symName: '__ZN77_$LT$alloc..raw_vec..RawVec$LT$T$C$A$GT$$u20$as$u20$core..ops..drop..Drop$GT$4drop17ha816d7382a69a3d2E', symObjAddr: 0x326F0, symBinAddr: 0x31DEC, symSize: 0x1E }
  - { offset: 0x148D88, size: 0x8, addend: 0x0, symName: '__ZN77_$LT$alloc..raw_vec..RawVec$LT$T$C$A$GT$$u20$as$u20$core..ops..drop..Drop$GT$4drop17hb057e78f5f9db483E', symObjAddr: 0x3270E, symBinAddr: 0x31E0A, symSize: 0x19 }
  - { offset: 0x148DC1, size: 0x8, addend: 0x0, symName: '__ZN77_$LT$alloc..raw_vec..RawVec$LT$T$C$A$GT$$u20$as$u20$core..ops..drop..Drop$GT$4drop17hb357e19dfa480ed9E', symObjAddr: 0x32727, symBinAddr: 0x31E23, symSize: 0x1E }
  - { offset: 0x148DFA, size: 0x8, addend: 0x0, symName: '__ZN77_$LT$alloc..raw_vec..RawVec$LT$T$C$A$GT$$u20$as$u20$core..ops..drop..Drop$GT$4drop17hc0c80686e1b4644fE', symObjAddr: 0x32745, symBinAddr: 0x31E41, symSize: 0x1E }
  - { offset: 0x14A131, size: 0x8, addend: 0x0, symName: __ZN5alloc5alloc15exchange_malloc17h238ed74f6b8dc009E.1761, symObjAddr: 0x331AD, symBinAddr: 0x32871, symSize: 0x1B }
  - { offset: 0x14A55B, size: 0x8, addend: 0x0, symName: '__ZN104_$LT$alloc..collections..btree..set..Iter$LT$T$GT$$u20$as$u20$core..iter..traits..iterator..Iterator$GT$4next17h8a156b3c9094db8cE', symObjAddr: 0x32153, symBinAddr: 0x3184F, symSize: 0xA }
  - { offset: 0x14B44C, size: 0x8, addend: 0x0, symName: '__ZN5alloc5slice29_$LT$impl$u20$$u5b$T$u5d$$GT$4sort17hcd8463c6eea6b872E', symObjAddr: 0x3215D, symBinAddr: 0x31859, symSize: 0x55 }
  - { offset: 0x14BC90, size: 0x8, addend: 0x0, symName: '__ZN84_$LT$serde..de..value..StrDeserializer$LT$E$GT$$u20$as$u20$serde..de..EnumAccess$GT$12variant_seed17h63bbdb065f615299E', symObjAddr: 0x32763, symBinAddr: 0x4F763, symSize: 0x3A }
  - { offset: 0x14CA53, size: 0x8, addend: 0x0, symName: '__ZN5alloc11collections5btree3set21BTreeSet$LT$T$C$A$GT$16from_sorted_iter17he8181649ad3f1c92E', symObjAddr: 0x321B2, symBinAddr: 0x318AE, symSize: 0x357 }
  - { offset: 0x14D4E3, size: 0x8, addend: 0x0, symName: '__ZN5alloc7raw_vec19RawVec$LT$T$C$A$GT$8grow_one17h091f649d658ecbf6E', symObjAddr: 0x32509, symBinAddr: 0x31C05, symSize: 0x14 }
  - { offset: 0x14D524, size: 0x8, addend: 0x0, symName: '__ZN5alloc7raw_vec20RawVecInner$LT$A$GT$8grow_one17h0331cb40e25dc700E', symObjAddr: 0x3251D, symBinAddr: 0x31C19, symSize: 0x31 }
  - { offset: 0x14D585, size: 0x8, addend: 0x0, symName: '__ZN5alloc7raw_vec19RawVec$LT$T$C$A$GT$8grow_one17h179f8040bb28ae6dE', symObjAddr: 0x3254E, symBinAddr: 0x31C4A, symSize: 0x14 }
  - { offset: 0x14D5F1, size: 0x8, addend: 0x0, symName: '__ZN5alloc7raw_vec19RawVec$LT$T$C$A$GT$8grow_one17h32cd02c7f7634448E', symObjAddr: 0x32562, symBinAddr: 0x31C5E, symSize: 0xF }
  - { offset: 0x14D632, size: 0x8, addend: 0x0, symName: '__ZN5alloc7raw_vec19RawVec$LT$T$C$A$GT$8grow_one17h3559b2a183886992E', symObjAddr: 0x32571, symBinAddr: 0x31C6D, symSize: 0x14 }
  - { offset: 0x14D673, size: 0x8, addend: 0x0, symName: '__ZN5alloc7raw_vec19RawVec$LT$T$C$A$GT$8grow_one17h52fd4af1feaa15c0E', symObjAddr: 0x32585, symBinAddr: 0x31C81, symSize: 0x14 }
  - { offset: 0x14D6B4, size: 0x8, addend: 0x0, symName: '__ZN5alloc7raw_vec19RawVec$LT$T$C$A$GT$8grow_one17h5852902e541d7c1cE', symObjAddr: 0x32599, symBinAddr: 0x31C95, symSize: 0x14 }
  - { offset: 0x14D6F5, size: 0x8, addend: 0x0, symName: '__ZN5alloc7raw_vec19RawVec$LT$T$C$A$GT$8grow_one17h71c50690b546b60eE', symObjAddr: 0x325AD, symBinAddr: 0x31CA9, symSize: 0x14 }
  - { offset: 0x14D7AF, size: 0x8, addend: 0x0, symName: '__ZN5alloc7raw_vec19RawVec$LT$T$C$A$GT$8grow_one17ha2a2a82db2552c9aE', symObjAddr: 0x325C1, symBinAddr: 0x31CBD, symSize: 0x14 }
  - { offset: 0x14D7F0, size: 0x8, addend: 0x0, symName: '__ZN5alloc7raw_vec19RawVec$LT$T$C$A$GT$8grow_one17hbc55be652ba7df84E', symObjAddr: 0x325D5, symBinAddr: 0x31CD1, symSize: 0x14 }
  - { offset: 0x14D824, size: 0x8, addend: 0x0, symName: '__ZN5alloc7raw_vec19RawVec$LT$T$C$A$GT$8grow_one17hc6e3053c07ed990eE', symObjAddr: 0x325E9, symBinAddr: 0x31CE5, symSize: 0x14 }
  - { offset: 0x14D865, size: 0x8, addend: 0x0, symName: '__ZN5alloc7raw_vec19RawVec$LT$T$C$A$GT$8grow_one17hd97e61d307cb5e50E', symObjAddr: 0x325FD, symBinAddr: 0x31CF9, symSize: 0x14 }
  - { offset: 0x14D8A6, size: 0x8, addend: 0x0, symName: '__ZN5alloc7raw_vec19RawVec$LT$T$C$A$GT$8grow_one17hf370bbe080e96355E', symObjAddr: 0x32611, symBinAddr: 0x31D0D, symSize: 0x14 }
  - { offset: 0x14DA03, size: 0x8, addend: 0x0, symName: __ZN14powersync_core5state13DatabaseState11destroy_arc17h0b189b40d3263895E, symObjAddr: 0x327E0, symBinAddr: 0x31EA4, symSize: 0x21 }
  - { offset: 0x14FEC2, size: 0x8, addend: 0x0, symName: __ZN14powersync_core9crud_vtab12VirtualTable15end_transaction17hfba849380f12c32eE, symObjAddr: 0x344FE, symBinAddr: 0x33BC2, symSize: 0x21 }
  - { offset: 0x14FF46, size: 0x8, addend: 0x0, symName: __ZN10num_traits4cast13FromPrimitive8from_i3217h483b087fcbb32ef5E, symObjAddr: 0x345DB, symBinAddr: 0x33C9F, symSize: 0x7C9 }
  - { offset: 0x14FFB1, size: 0x8, addend: 0x0, symName: __ZN12sqlite_nostd5nostd11ManagedStmt10bind_int6417h0d67155fab54480dE.1780, symObjAddr: 0x34E39, symBinAddr: 0x344FD, symSize: 0x17 }
  - { offset: 0x14FFEF, size: 0x8, addend: 0x0, symName: __ZN12sqlite_nostd5nostd11ManagedStmt9bind_text17hba530f0d23cc6cecE.1781, symObjAddr: 0x34E50, symBinAddr: 0x34514, symSize: 0x11 }
  - { offset: 0x15003F, size: 0x8, addend: 0x0, symName: __ZN14powersync_core9crud_vtab12VirtualTable13value_to_json17hddcce7cbdfe3af35E, symObjAddr: 0x34E61, symBinAddr: 0x34525, symSize: 0x25 }
  - { offset: 0x15007F, size: 0x8, addend: 0x0, symName: __ZN12sqlite_nostd5nostd11ManagedStmt11column_text17hd87220a4dd46d760E.1785, symObjAddr: 0x35053, symBinAddr: 0x34717, symSize: 0x49 }
  - { offset: 0x15036A, size: 0x8, addend: 0x0, symName: __ZN5alloc6string6String4push17ha21468041bbc9eb0E.1788, symObjAddr: 0x35554, symBinAddr: 0x34C18, symSize: 0x38 }
  - { offset: 0x44C3, size: 0x8, addend: 0x0, symName: '__ZN5alloc7raw_vec19RawVec$LT$T$C$A$GT$8grow_one17he858243846451dc3E', symObjAddr: 0x560, symBinAddr: 0xBB0, symSize: 0x31 }
  - { offset: 0x535D, size: 0x8, addend: 0x0, symName: '__ZN5alloc7raw_vec20RawVecInner$LT$A$GT$7reserve21do_reserve_and_handle17h3fd7aaca65d88d97E', symObjAddr: 0x7F0, symBinAddr: 0x4E864, symSize: 0x25 }
  - { offset: 0x54BC, size: 0x8, addend: 0x0, symName: __ZN5alloc7raw_vec12handle_error17h4d0c81d53ee6be9aE, symObjAddr: 0x66C, symBinAddr: 0x4E7E8, symSize: 0x13 }
  - { offset: 0x558B, size: 0x8, addend: 0x0, symName: __ZN5alloc7raw_vec11finish_grow17h9c4ad503ad7933b1E, symObjAddr: 0x67F, symBinAddr: 0x4E7FB, symSize: 0x67 }
  - { offset: 0x571B, size: 0x8, addend: 0x0, symName: '__ZN77_$LT$alloc..raw_vec..RawVec$LT$T$C$A$GT$$u20$as$u20$core..ops..drop..Drop$GT$4drop17h7552120c206a8234E', symObjAddr: 0x711, symBinAddr: 0xCE9, symSize: 0x17 }
  - { offset: 0x5C3D, size: 0x8, addend: 0x0, symName: '__ZN5alloc7raw_vec19RawVec$LT$T$C$A$GT$8grow_one17he858243846451dc3E', symObjAddr: 0x560, symBinAddr: 0xBB0, symSize: 0x31 }
  - { offset: 0x5E7D, size: 0x8, addend: 0x0, symName: '__ZN5alloc7raw_vec20RawVecInner$LT$A$GT$14grow_amortized17h838bdb7cf50395c9E', symObjAddr: 0x591, symBinAddr: 0xBE1, symSize: 0xDB }
  - { offset: 0x5ED4, size: 0x8, addend: 0x0, symName: '__ZN5alloc7raw_vec20RawVecInner$LT$A$GT$14grow_amortized17h838bdb7cf50395c9E', symObjAddr: 0x591, symBinAddr: 0xBE1, symSize: 0xDB }
  - { offset: 0x636F, size: 0x8, addend: 0x0, symName: __ZN5alloc5alloc6Global10alloc_impl17hcdf5b2bf95f59c54E, symObjAddr: 0x6E6, symBinAddr: 0xCBE, symSize: 0x2B }
  - { offset: 0x640A, size: 0x8, addend: 0x0, symName: '__ZN5alloc7raw_vec20RawVecInner$LT$A$GT$10deallocate17hfeddc769ab50fcccE', symObjAddr: 0x728, symBinAddr: 0xD00, symSize: 0x39 }
  - { offset: 0x652B, size: 0x8, addend: 0x0, symName: '__ZN5alloc7raw_vec20RawVecInner$LT$A$GT$15try_allocate_in17hf61812710b50ddf9E', symObjAddr: 0x761, symBinAddr: 0xD39, symSize: 0x8F }
  - { offset: 0x772F4, size: 0x8, addend: 0x0, symName: __ZN14powersync_core4bson2de12Deserializer15prepare_to_read17ha35506c5463c5d15E, symObjAddr: 0xCFDF, symBinAddr: 0xD513, symSize: 0x18D }
  - { offset: 0x77498, size: 0x8, addend: 0x0, symName: '__ZN5serde2de5impls80_$LT$impl$u20$serde..de..Deserialize$u20$for$u20$alloc..borrow..Cow$LT$T$GT$$GT$11deserialize17hfee5b47075c87359E', symObjAddr: 0xD580, symBinAddr: 0xDAB4, symSize: 0x58 }
  - { offset: 0x79C72, size: 0x8, addend: 0x0, symName: __ZN5serde2de7Visitor20visit_borrowed_bytes17h80b7ef5a0c7e87a5E, symObjAddr: 0xD74C, symBinAddr: 0xDC80, symSize: 0x1A8 }
  - { offset: 0x79CDE, size: 0x8, addend: 0x0, symName: __ZN5serde2de7Visitor20visit_borrowed_bytes17hcaed027919e7db8dE, symObjAddr: 0xD8F4, symBinAddr: 0xDE28, symSize: 0x44 }
  - { offset: 0x79D4A, size: 0x8, addend: 0x0, symName: __ZN5serde2de7Visitor20visit_borrowed_bytes17hc21ea1c90bfd9f1fE, symObjAddr: 0xD938, symBinAddr: 0xDE6C, symSize: 0x20D }
  - { offset: 0x79DB6, size: 0x8, addend: 0x0, symName: __ZN5serde2de7Visitor20visit_borrowed_bytes17hec066655323fcc44E, symObjAddr: 0xDC10, symBinAddr: 0xE144, symSize: 0x16E }
  - { offset: 0x79E22, size: 0x8, addend: 0x0, symName: __ZN5serde2de7Visitor20visit_borrowed_bytes17h301cf81bec4f37c6E, symObjAddr: 0xDD7E, symBinAddr: 0xE2B2, symSize: 0x90 }
  - { offset: 0x79E8E, size: 0x8, addend: 0x0, symName: __ZN5serde2de7Visitor20visit_borrowed_bytes17h8e217806859de102E, symObjAddr: 0xDEBE, symBinAddr: 0xE3F2, symSize: 0x1E6 }
  - { offset: 0x79EFA, size: 0x8, addend: 0x0, symName: __ZN5serde2de7Visitor20visit_borrowed_bytes17heffc90fadedf8361E, symObjAddr: 0xE0A4, symBinAddr: 0xE5D8, symSize: 0x5A }
  - { offset: 0x79F66, size: 0x8, addend: 0x0, symName: __ZN5serde2de7Visitor20visit_borrowed_bytes17h87883d692808bd96E, symObjAddr: 0xE0FE, symBinAddr: 0xE632, symSize: 0x9F }
  - { offset: 0x7BA21, size: 0x8, addend: 0x0, symName: '__ZN94_$LT$$RF$mut$u20$powersync_core..bson..de..Deserializer$u20$as$u20$serde..de..Deserializer$GT$15deserialize_any17hcbf887145ced535bE', symObjAddr: 0xD2FF, symBinAddr: 0xD833, symSize: 0x281 }
  - { offset: 0x7BE6E, size: 0x8, addend: 0x0, symName: '__ZN94_$LT$$RF$mut$u20$powersync_core..bson..de..Deserializer$u20$as$u20$serde..de..Deserializer$GT$15deserialize_any17hc7bc2b84b5a7b2e7E', symObjAddr: 0xE19D, symBinAddr: 0xE6D1, symSize: 0x20F }
  - { offset: 0x808E9, size: 0x8, addend: 0x0, symName: '__ZN79_$LT$powersync_core..bson..de..Deserializer$u20$as$u20$serde..de..SeqAccess$GT$17next_element_seed17h8f05708c896b601bE', symObjAddr: 0xD61D, symBinAddr: 0xDB51, symSize: 0x95 }
  - { offset: 0x809C8, size: 0x8, addend: 0x0, symName: '__ZN79_$LT$powersync_core..bson..de..Deserializer$u20$as$u20$serde..de..SeqAccess$GT$17next_element_seed17he9fce14d47201e27E', symObjAddr: 0xD6B2, symBinAddr: 0xDBE6, symSize: 0x9A }
  - { offset: 0x80AD7, size: 0x8, addend: 0x0, symName: '__ZN79_$LT$powersync_core..bson..de..Deserializer$u20$as$u20$serde..de..SeqAccess$GT$17next_element_seed17h547f4d3e0f9e5093E', symObjAddr: 0xDB7B, symBinAddr: 0xE0AF, symSize: 0x95 }
  - { offset: 0x80BB6, size: 0x8, addend: 0x0, symName: '__ZN79_$LT$powersync_core..bson..de..Deserializer$u20$as$u20$serde..de..SeqAccess$GT$17next_element_seed17h06909bf2f192477fE', symObjAddr: 0xDE29, symBinAddr: 0xE35D, symSize: 0x95 }
  - { offset: 0x819E7, size: 0x8, addend: 0x0, symName: '__ZN92_$LT$$RF$mut$u20$powersync_core..bson..de..Deserializer$u20$as$u20$serde..de..EnumAccess$GT$12variant_seed17h35ced1d888354eadE', symObjAddr: 0xE3C7, symBinAddr: 0xE8FB, symSize: 0x271 }
  - { offset: 0x81DAF, size: 0x8, addend: 0x0, symName: '__ZN95_$LT$$RF$mut$u20$powersync_core..bson..de..Deserializer$u20$as$u20$serde..de..VariantAccess$GT$12unit_variant17h323b8f04b6a8de2aE', symObjAddr: 0xE638, symBinAddr: 0x4E91C, symSize: 0x24 }
  - { offset: 0x81DDA, size: 0x8, addend: 0x0, symName: '__ZN95_$LT$$RF$mut$u20$powersync_core..bson..de..Deserializer$u20$as$u20$serde..de..VariantAccess$GT$20newtype_variant_seed17ha213586818ebe27fE', symObjAddr: 0xE65C, symBinAddr: 0xEB6C, symSize: 0x224 }
  - { offset: 0x8A9E8, size: 0x8, addend: 0x0, symName: '__ZN4core3ptr78drop_in_place$LT$core..option..Option$LT$alloc..borrow..Cow$LT$str$GT$$GT$$GT$17ha72b3194d9c98786E.397', symObjAddr: 0xD5D8, symBinAddr: 0xDB0C, symSize: 0x1B }
  - { offset: 0x8AA33, size: 0x8, addend: 0x0, symName: '__ZN4core3ptr145drop_in_place$LT$core..option..Option$LT$alloc..rc..Rc$LT$alloc..vec..Vec$LT$powersync_core..sync..line..BucketSubscriptionReason$GT$$GT$$GT$$GT$17h86b41fb9f26efc7eE.398', symObjAddr: 0xD5F3, symBinAddr: 0xDB27, symSize: 0x16 }
  - { offset: 0x8AB4C, size: 0x8, addend: 0x0, symName: '__ZN4core3ptr50drop_in_place$LT$alloc..borrow..Cow$LT$str$GT$$GT$17he33a250f6e4ad267E.399', symObjAddr: 0xD609, symBinAddr: 0xDB3D, symSize: 0x14 }
  - { offset: 0x8ABF7, size: 0x8, addend: 0x0, symName: '__ZN4core3ptr117drop_in_place$LT$core..option..Option$LT$alloc..vec..Vec$LT$powersync_core..sync..line..StreamDescription$GT$$GT$$GT$17hb1b379a680af4d6aE.402', symObjAddr: 0xDB45, symBinAddr: 0xE079, symSize: 0x36 }
  - { offset: 0x8AC5B, size: 0x8, addend: 0x0, symName: '__ZN4core3ptr106drop_in_place$LT$core..option..Option$LT$core..option..Option$LT$alloc..borrow..Cow$LT$str$GT$$GT$$GT$$GT$17hb8959dee2b964f0aE.405', symObjAddr: 0xDE0E, symBinAddr: 0xE342, symSize: 0x1B }
  - { offset: 0x8C740, size: 0x8, addend: 0x0, symName: '__ZN4core3cmp5impls69_$LT$impl$u20$core..cmp..PartialEq$LT$$RF$B$GT$$u20$for$u20$$RF$A$GT$2eq17h61166c52dc827382E', symObjAddr: 0xE3AC, symBinAddr: 0xE8E0, symSize: 0x1B }
  - { offset: 0x8CCFF, size: 0x8, addend: 0x0, symName: __ZN14powersync_core4bson2de12Deserializer15prepare_to_read17ha35506c5463c5d15E, symObjAddr: 0xCFDF, symBinAddr: 0xD513, symSize: 0x18D }
  - { offset: 0x8CF16, size: 0x8, addend: 0x0, symName: __ZN14powersync_core4bson2de12Deserializer21prepare_to_read_value17h12962979413a5d44E, symObjAddr: 0xD16C, symBinAddr: 0xD6A0, symSize: 0x4E }
  - { offset: 0x8CFD7, size: 0x8, addend: 0x0, symName: __ZN14powersync_core4bson2de12Deserializer13object_reader17hc4de7ef17e11ccc4E, symObjAddr: 0xD1BA, symBinAddr: 0xD6EE, symSize: 0x87 }
  - { offset: 0x8D08E, size: 0x8, addend: 0x0, symName: __ZN14powersync_core4bson2de12Deserializer20advance_to_next_name17h47f9a26c70cccf0dE, symObjAddr: 0xD241, symBinAddr: 0xD775, symSize: 0xBE }
  - { offset: 0x1C8BB4, size: 0x8, addend: 0x0, symName: __ZN5alloc5alloc15exchange_malloc17h238ed74f6b8dc009E.2900, symObjAddr: 0x4C78C, symBinAddr: 0x4AECC, symSize: 0x1E }
  - { offset: 0x1C8D48, size: 0x8, addend: 0x0, symName: '__ZN74_$LT$alloc..string..String$u20$as$u20$core..ops..index..Index$LT$I$GT$$GT$5index17h669290c7ba226377E', symObjAddr: 0x4D025, symBinAddr: 0x4B6F5, symSize: 0x2B }
  - { offset: 0x1C8D87, size: 0x8, addend: 0x0, symName: '__ZN74_$LT$alloc..string..String$u20$as$u20$core..ops..index..Index$LT$I$GT$$GT$5index17h669290c7ba226377E', symObjAddr: 0x4D025, symBinAddr: 0x4B6F5, symSize: 0x2B }
  - { offset: 0x1C8DA8, size: 0x8, addend: 0x0, symName: '__ZN74_$LT$alloc..string..String$u20$as$u20$core..ops..index..Index$LT$I$GT$$GT$5index17h669290c7ba226377E', symObjAddr: 0x4D025, symBinAddr: 0x4B6F5, symSize: 0x2B }
  - { offset: 0x1C8DE8, size: 0x8, addend: 0x0, symName: '__ZN74_$LT$alloc..string..String$u20$as$u20$core..ops..index..Index$LT$I$GT$$GT$5index17h669290c7ba226377E', symObjAddr: 0x4D025, symBinAddr: 0x4B6F5, symSize: 0x2B }
  - { offset: 0x1C8EE1, size: 0x8, addend: 0x0, symName: '__ZN74_$LT$alloc..string..String$u20$as$u20$core..ops..index..Index$LT$I$GT$$GT$5index17h91d5c1f598903868E', symObjAddr: 0x4D050, symBinAddr: 0x4B720, symSize: 0x41 }
  - { offset: 0x1C8F20, size: 0x8, addend: 0x0, symName: '__ZN74_$LT$alloc..string..String$u20$as$u20$core..ops..index..Index$LT$I$GT$$GT$5index17h91d5c1f598903868E', symObjAddr: 0x4D050, symBinAddr: 0x4B720, symSize: 0x41 }
  - { offset: 0x1C8F43, size: 0x8, addend: 0x0, symName: '__ZN74_$LT$alloc..string..String$u20$as$u20$core..ops..index..Index$LT$I$GT$$GT$5index17h91d5c1f598903868E', symObjAddr: 0x4D050, symBinAddr: 0x4B720, symSize: 0x41 }
  - { offset: 0x1C91D6, size: 0x8, addend: 0x0, symName: __ZN5alloc5alloc15exchange_malloc17h238ed74f6b8dc009E.2900, symObjAddr: 0x4C78C, symBinAddr: 0x4AECC, symSize: 0x1E }
  - { offset: 0x1C9BB8, size: 0x8, addend: 0x0, symName: '__ZN4core3num62_$LT$impl$u20$core..str..traits..FromStr$u20$for$u20$usize$GT$8from_str17h48f5ece66d366c7fE', symObjAddr: 0x4D091, symBinAddr: 0x4B761, symSize: 0xB9 }
  - { offset: 0x1CB493, size: 0x8, addend: 0x0, symName: '__ZN61_$LT$serde_json..error..Error$u20$as$u20$serde..de..Error$GT$6custom17h4157e341ff82390cE', symObjAddr: 0x4CB08, symBinAddr: 0x50778, symSize: 0x3C }
  - { offset: 0x1CB5B4, size: 0x8, addend: 0x0, symName: '__ZN61_$LT$serde_json..error..Error$u20$as$u20$serde..de..Error$GT$6custom17hfc16d68a27870602E', symObjAddr: 0x4D14A, symBinAddr: 0x507B6, symSize: 0x2A }
  - { offset: 0x1CB693, size: 0x8, addend: 0x0, symName: '__ZN61_$LT$serde_json..error..Error$u20$as$u20$serde..de..Error$GT$12invalid_type17h9fe57799e893eb69E', symObjAddr: 0x4D174, symBinAddr: 0x507E0, symSize: 0x81 }
  - { offset: 0x1CB6F1, size: 0x8, addend: 0x0, symName: '__ZN61_$LT$serde_json..error..Error$u20$as$u20$serde..de..Error$GT$13invalid_value17h95ef8a8225fb535fE', symObjAddr: 0x4D301, symBinAddr: 0x50861, symSize: 0x81 }
  - { offset: 0x1CB755, size: 0x8, addend: 0x0, symName: '__ZN67_$LT$serde_json..error..ErrorCode$u20$as$u20$core..fmt..Display$GT$3fmt17hb7d8f90e0be813f4E', symObjAddr: 0x4C7DE, symBinAddr: 0x4AEEA, symSize: 0x2B2 }
  - { offset: 0x1CBAD4, size: 0x8, addend: 0x0, symName: '__ZN67_$LT$serde_json..error..ErrorImpl$u20$as$u20$core..fmt..Display$GT$3fmt17h93a460fefbb7835bE', symObjAddr: 0x4CA90, symBinAddr: 0x4B19C, symSize: 0x78 }
  - { offset: 0x1CBC1E, size: 0x8, addend: 0x0, symName: __ZN10serde_json5error10make_error17h37fcb0a44e14f938E, symObjAddr: 0x4CB44, symBinAddr: 0x4B214, symSize: 0x311 }
  - { offset: 0x1CC287, size: 0x8, addend: 0x0, symName: '__ZN72_$LT$serde_json..error..JsonUnexpected$u20$as$u20$core..fmt..Display$GT$3fmt17hb838c83e218f54f2E', symObjAddr: 0x4D1F5, symBinAddr: 0x4B81D, symSize: 0x10C }
  - { offset: 0x1CC767, size: 0x8, addend: 0x0, symName: __ZN10serde_json5error5Error12fix_position17h43ed5e804e032a1fE, symObjAddr: 0x4C7AA, symBinAddr: 0x50742, symSize: 0x34 }
  - { offset: 0x1CCC0E, size: 0x8, addend: 0x0, symName: __ZN4core3str7pattern14TwoWaySearcher9next_back17hbe6bf05cb452cb85E, symObjAddr: 0x4CE55, symBinAddr: 0x4B525, symSize: 0x1D0 }
  - { offset: 0x1C1F09, size: 0x8, addend: 0x0, symName: __ZN10serde_json2de12ParserNumber5visit17hd20e0ae271e54993E, symObjAddr: 0x4A6D0, symBinAddr: 0x491B8, symSize: 0x8F }
  - { offset: 0x1C1F2F, size: 0x8, addend: 0x0, symName: __ZN10serde_json2de5POW1017h60c6397e74d5eca2E, symObjAddr: 0x5D6B8, symBinAddr: 0x5BDE0, symSize: 0x0 }
  - { offset: 0x1C250F, size: 0x8, addend: 0x0, symName: '__ZN75_$LT$serde_json..de..SeqAccess$LT$R$GT$$u20$as$u20$serde..de..SeqAccess$GT$17next_element_seed16has_next_element17hb565c4cb6c9a3003E', symObjAddr: 0x4B951, symBinAddr: 0x4A091, symSize: 0xEC }
  - { offset: 0x1C29C6, size: 0x8, addend: 0x0, symName: '__ZN75_$LT$serde_json..de..MapAccess$LT$R$GT$$u20$as$u20$serde..de..MapAccess$GT$13next_key_seed12has_next_key17hd516541ea8a7b939E', symObjAddr: 0x4C4EE, symBinAddr: 0x4AC2E, symSize: 0x10E }
  - { offset: 0x1C2A70, size: 0x8, addend: 0x0, symName: '__ZN75_$LT$serde_json..de..MapAccess$LT$R$GT$$u20$as$u20$serde..de..MapAccess$GT$13next_key_seed17ha8738709b9b00d8eE', symObjAddr: 0x4C5FC, symBinAddr: 0x4AD3C, symSize: 0xB0 }
  - { offset: 0x1C2C63, size: 0x8, addend: 0x0, symName: '__ZN75_$LT$serde_json..de..MapAccess$LT$R$GT$$u20$as$u20$serde..de..MapAccess$GT$15next_value_seed17h939f6bcfcd6dece0E', symObjAddr: 0x4C6AC, symBinAddr: 0x4ADEC, symSize: 0x35 }
  - { offset: 0x1C2DE9, size: 0x8, addend: 0x0, symName: __ZN10serde_json2de8from_str17h88050641d5473c6dE, symObjAddr: 0x4C6E1, symBinAddr: 0x4AE21, symSize: 0xAB }
  - { offset: 0x1C3560, size: 0x8, addend: 0x0, symName: '__ZN10serde_json5value2de77_$LT$impl$u20$serde..de..Deserialize$u20$for$u20$serde_json..value..Value$GT$11deserialize17h296923801b74804aE', symObjAddr: 0x4BA3D, symBinAddr: 0x4A17D, symSize: 0xAB1 }
  - { offset: 0x1C4835, size: 0x8, addend: 0x0, symName: '__ZN4core3ptr45drop_in_place$LT$serde_json..value..Value$GT$17h7cffa3c29ecf2060E', symObjAddr: 0x4A75F, symBinAddr: 0x49247, symSize: 0x36 }
  - { offset: 0x1C48F9, size: 0x8, addend: 0x0, symName: '__ZN4core3ptr68drop_in_place$LT$alloc..vec..Vec$LT$serde_json..value..Value$GT$$GT$17hdf38d2ed0f494df9E', symObjAddr: 0x4A795, symBinAddr: 0x4927D, symSize: 0x20 }
  - { offset: 0x1C5FE5, size: 0x8, addend: 0x0, symName: __ZN10serde_json2de12ParserNumber5visit17hd20e0ae271e54993E, symObjAddr: 0x4A6D0, symBinAddr: 0x491B8, symSize: 0x8F }
  - { offset: 0x1C61A2, size: 0x8, addend: 0x0, symName: __ZN10serde_json2de12ParserNumber12invalid_type17hf3b3139beb1df163E, symObjAddr: 0x4A7B5, symBinAddr: 0x4929D, symSize: 0x53 }
  - { offset: 0x1C6228, size: 0x8, addend: 0x0, symName: '__ZN10serde_json2de21Deserializer$LT$R$GT$3end17hd1490d8230c403f7E', symObjAddr: 0x4A808, symBinAddr: 0x492F0, symSize: 0x4F }
  - { offset: 0x1C626F, size: 0x8, addend: 0x0, symName: '__ZN10serde_json2de21Deserializer$LT$R$GT$16parse_whitespace17hc18e48aa7c5663ecE', symObjAddr: 0x4A857, symBinAddr: 0x4933F, symSize: 0x4C }
  - { offset: 0x1C6368, size: 0x8, addend: 0x0, symName: '__ZN10serde_json2de21Deserializer$LT$R$GT$10peek_error17h8373ac5c0c452394E', symObjAddr: 0x4A8A3, symBinAddr: 0x50387, symSize: 0x5F }
  - { offset: 0x1C6490, size: 0x8, addend: 0x0, symName: '__ZN10serde_json2de21Deserializer$LT$R$GT$9next_char17hb3fec7809c9fbaa9E', symObjAddr: 0x4A902, symBinAddr: 0x4938E, symSize: 0x2F }
  - { offset: 0x1C64B4, size: 0x8, addend: 0x0, symName: '__ZN10serde_json2de21Deserializer$LT$R$GT$9next_char17hb3fec7809c9fbaa9E', symObjAddr: 0x4A902, symBinAddr: 0x4938E, symSize: 0x2F }
  - { offset: 0x1C64D1, size: 0x8, addend: 0x0, symName: '__ZN10serde_json2de21Deserializer$LT$R$GT$9next_char17hb3fec7809c9fbaa9E', symObjAddr: 0x4A902, symBinAddr: 0x4938E, symSize: 0x2F }
  - { offset: 0x1C6543, size: 0x8, addend: 0x0, symName: '__ZN10serde_json2de21Deserializer$LT$R$GT$17next_char_or_null17h78cc05f0dd76db05E', symObjAddr: 0x4A931, symBinAddr: 0x493BD, symSize: 0x47 }
  - { offset: 0x1C65A7, size: 0x8, addend: 0x0, symName: '__ZN10serde_json2de21Deserializer$LT$R$GT$5error17he746220c2f9c534aE', symObjAddr: 0x4A978, symBinAddr: 0x503E8, symSize: 0x4A }
  - { offset: 0x1C6700, size: 0x8, addend: 0x0, symName: '__ZN10serde_json2de21Deserializer$LT$R$GT$17peek_invalid_type17h8dbc25896f9b9493E', symObjAddr: 0x4A9C2, symBinAddr: 0x50432, symSize: 0x1DD }
  - { offset: 0x1C6AC8, size: 0x8, addend: 0x0, symName: '__ZN10serde_json2de21Deserializer$LT$R$GT$11parse_ident17h85fed897824a626cE', symObjAddr: 0x4AB9F, symBinAddr: 0x49407, symSize: 0x83 }
  - { offset: 0x1C6BA8, size: 0x8, addend: 0x0, symName: '__ZN10serde_json2de21Deserializer$LT$R$GT$13parse_integer17h5e0965227fa4157fE', symObjAddr: 0x4AC22, symBinAddr: 0x4948A, symSize: 0x176 }
  - { offset: 0x1C6DDC, size: 0x8, addend: 0x0, symName: '__ZN10serde_json2de21Deserializer$LT$R$GT$12parse_number17h29d92cedc65c5191E', symObjAddr: 0x4AD98, symBinAddr: 0x49600, symSize: 0xC0 }
  - { offset: 0x1C6EBE, size: 0x8, addend: 0x0, symName: '__ZN10serde_json2de21Deserializer$LT$R$GT$18parse_long_integer17h9a08a79dd84faca5E', symObjAddr: 0x4AE58, symBinAddr: 0x50610, symSize: 0x63 }
  - { offset: 0x1C701D, size: 0x8, addend: 0x0, symName: '__ZN10serde_json2de21Deserializer$LT$R$GT$14f64_from_parts17h1c171be52cddd8b5E', symObjAddr: 0x4AEBB, symBinAddr: 0x496C3, symSize: 0xCB }
  - { offset: 0x1C7168, size: 0x8, addend: 0x0, symName: '__ZN10serde_json2de21Deserializer$LT$R$GT$13parse_decimal17hfd0d914b3521ef11E', symObjAddr: 0x4AF86, symBinAddr: 0x4978E, symSize: 0x11B }
  - { offset: 0x1C7393, size: 0x8, addend: 0x0, symName: '__ZN10serde_json2de21Deserializer$LT$R$GT$14parse_exponent17hd7bd8eccfb97c889E', symObjAddr: 0x4B0A1, symBinAddr: 0x498A9, symSize: 0x188 }
  - { offset: 0x1C7717, size: 0x8, addend: 0x0, symName: '__ZN10serde_json2de21Deserializer$LT$R$GT$23parse_exponent_overflow17h9e281cdcd92bba5bE', symObjAddr: 0x4B229, symBinAddr: 0x50675, symSize: 0x80 }
  - { offset: 0x1C7844, size: 0x8, addend: 0x0, symName: '__ZN10serde_json2de21Deserializer$LT$R$GT$22parse_decimal_overflow17h17ae319c64bc1e15E', symObjAddr: 0x4B2A9, symBinAddr: 0x506F5, symSize: 0x4B }
  - { offset: 0x1C796D, size: 0x8, addend: 0x0, symName: '__ZN10serde_json2de21Deserializer$LT$R$GT$18parse_object_colon17h003504371c5fe1daE', symObjAddr: 0x4B2F4, symBinAddr: 0x49A34, symSize: 0x66 }
  - { offset: 0x1C7A01, size: 0x8, addend: 0x0, symName: '__ZN10serde_json2de21Deserializer$LT$R$GT$7end_seq17hedb8b1fd5d069ec3E', symObjAddr: 0x4B35A, symBinAddr: 0x49A9A, symSize: 0xD6 }
  - { offset: 0x1C7B01, size: 0x8, addend: 0x0, symName: '__ZN10serde_json2de21Deserializer$LT$R$GT$7end_map17ha0edb5d138342a2bE', symObjAddr: 0x4B430, symBinAddr: 0x49B70, symSize: 0x77 }
  - { offset: 0x1C7B88, size: 0x8, addend: 0x0, symName: '__ZN10serde_json2de21Deserializer$LT$R$GT$12ignore_value17habdd8983d5763437E', symObjAddr: 0x4B4A7, symBinAddr: 0x49BE7, symSize: 0x2A9 }
  - { offset: 0x1C830F, size: 0x8, addend: 0x0, symName: '__ZN10serde_json2de21Deserializer$LT$R$GT$14ignore_integer17hc232d5943309da72E', symObjAddr: 0x4B750, symBinAddr: 0x49E90, symSize: 0x136 }
  - { offset: 0x1C8667, size: 0x8, addend: 0x0, symName: '__ZN5alloc3vec16Vec$LT$T$C$A$GT$3pop17h4e19ca887f9d5901E', symObjAddr: 0x4B886, symBinAddr: 0x49FC6, symSize: 0x27 }
  - { offset: 0x1C8724, size: 0x8, addend: 0x0, symName: '__ZN10serde_json2de21Deserializer$LT$R$GT$15ignore_exponent17hfa5545278c3d686dE', symObjAddr: 0x4B8AD, symBinAddr: 0x49FED, symSize: 0xA4 }
  - { offset: 0x12672E, size: 0x8, addend: 0x0, symName: __ZN10serde_json3ser18format_escaped_str17hef3c2a55525bc80dE, symObjAddr: 0x3132A, symBinAddr: 0x30AA6, symSize: 0x124 }
  - { offset: 0x12687A, size: 0x8, addend: 0x0, symName: '__ZN67_$LT$serde_json..raw..RawValue$u20$as$u20$serde..ser..Serialize$GT$9serialize17hdcea88a3291106e0E', symObjAddr: 0x31F93, symBinAddr: 0x316A7, symSize: 0x1A }
  - { offset: 0x12757F, size: 0x8, addend: 0x0, symName: '__ZN83_$LT$serde_json..ser..Compound$LT$W$C$F$GT$$u20$as$u20$serde..ser..SerializeMap$GT$13serialize_key17he2cc208c0a81b921E', symObjAddr: 0x31CF8, symBinAddr: 0x3140C, symSize: 0x54 }
  - { offset: 0x1276A0, size: 0x8, addend: 0x0, symName: '__ZN83_$LT$serde_json..ser..Compound$LT$W$C$F$GT$$u20$as$u20$serde..ser..SerializeMap$GT$13serialize_key17haae05616bbd42ab4E', symObjAddr: 0x31D82, symBinAddr: 0x31496, symSize: 0x54 }
  - { offset: 0x1280D3, size: 0x8, addend: 0x0, symName: '__ZN83_$LT$serde_json..ser..Compound$LT$W$C$F$GT$$u20$as$u20$serde..ser..SerializeSeq$GT$17serialize_element17hb94e52e61b573ac2E', symObjAddr: 0x31968, symBinAddr: 0x3107C, symSize: 0x52 }
  - { offset: 0x1281E2, size: 0x8, addend: 0x0, symName: '__ZN83_$LT$serde_json..ser..Compound$LT$W$C$F$GT$$u20$as$u20$serde..ser..SerializeSeq$GT$3end17h31fa3d7995ea61b5E', symObjAddr: 0x319BA, symBinAddr: 0x310CE, symSize: 0x24 }
  - { offset: 0x1284FA, size: 0x8, addend: 0x0, symName: '__ZN95_$LT$$RF$mut$u20$serde_json..ser..Serializer$LT$W$C$F$GT$$u20$as$u20$serde..ser..Serializer$GT$13serialize_seq17he4d11e199663b6b0E', symObjAddr: 0x31900, symBinAddr: 0x31014, symSize: 0x68 }
  - { offset: 0x1285F1, size: 0x8, addend: 0x0, symName: '__ZN95_$LT$$RF$mut$u20$serde_json..ser..Serializer$LT$W$C$F$GT$$u20$as$u20$serde..ser..Serializer$GT$14serialize_unit17h49f0ecfbc17109afE', symObjAddr: 0x31C70, symBinAddr: 0x31384, symSize: 0x18 }
  - { offset: 0x1286AB, size: 0x8, addend: 0x0, symName: '__ZN95_$LT$$RF$mut$u20$serde_json..ser..Serializer$LT$W$C$F$GT$$u20$as$u20$serde..ser..Serializer$GT$14serialize_bool17h046264f6f2a812a6E', symObjAddr: 0x31C88, symBinAddr: 0x3139C, symSize: 0x2A }
  - { offset: 0x128B9E, size: 0x8, addend: 0x0, symName: __ZN10serde_json3ser9Formatter9end_array17hae60dc1226388bffE, symObjAddr: 0x319DE, symBinAddr: 0x310F2, symSize: 0x18 }
  - { offset: 0x128CE5, size: 0x8, addend: 0x0, symName: __ZN10serde_json3ser9Formatter18begin_object_value17hec2d26a195646724E.1536, symObjAddr: 0x31D4C, symBinAddr: 0x31460, symSize: 0x18 }
  - { offset: 0x128D99, size: 0x8, addend: 0x0, symName: __ZN10serde_json3ser9Formatter16begin_object_key17he2a73da3d9188e0eE, symObjAddr: 0x31D64, symBinAddr: 0x31478, symSize: 0x1E }
  - { offset: 0x128EEE, size: 0x8, addend: 0x0, symName: '__ZN91_$LT$serde_json..ser..RawValueStrEmitter$LT$W$C$F$GT$$u20$as$u20$serde..ser..Serializer$GT$14serialize_bool17hc31a11bcf18b877aE', symObjAddr: 0x3203C, symBinAddr: 0x4F748, symSize: 0x1B }
  - { offset: 0x1291A7, size: 0x8, addend: 0x0, symName: __ZN10serde_json3ser18format_escaped_str17hef3c2a55525bc80dE, symObjAddr: 0x3132A, symBinAddr: 0x30AA6, symSize: 0x124 }
  - { offset: 0x129D30, size: 0x8, addend: 0x0, symName: '__ZN10serde_json5value3ser76_$LT$impl$u20$serde..ser..Serialize$u20$for$u20$serde_json..value..Value$GT$9serialize17hb6b7b73306209b98E', symObjAddr: 0x319F6, symBinAddr: 0x3110A, symSize: 0x27A }
  - { offset: 0x12A6F1, size: 0x8, addend: 0x0, symName: '__ZN189_$LT$serde_with..de..impls..$LT$impl$u20$serde_with..de..DeserializeAs$LT$T$GT$$u20$for$u20$serde_with..DisplayFromStr$GT$..deserialize_as..Helper$LT$S$GT$$u20$as$u20$serde..de..Visitor$GT$9visit_str17h4555fbfc6d825197E', symObjAddr: 0x31490, symBinAddr: 0x30C0C, symSize: 0x4F }
  - { offset: 0x12D32B, size: 0x8, addend: 0x0, symName: '__ZN4core3str21_$LT$impl$u20$str$GT$5parse17h8f76f91d9fe206f5E', symObjAddr: 0x314DF, symBinAddr: 0x30C5B, symSize: 0x12D }
  - { offset: 0x12DBE5, size: 0x8, addend: 0x0, symName: __ZN4core5slice4sort6shared5pivot11median3_rec17h04bf29b6a3b45a63E, symObjAddr: 0x3160C, symBinAddr: 0x30D88, symSize: 0x104 }
  - { offset: 0x12DD52, size: 0x8, addend: 0x0, symName: __ZN4core5slice4sort6shared5pivot11median3_rec17h74b9943c13d30a79E, symObjAddr: 0x31710, symBinAddr: 0x30E8C, symSize: 0x106 }
  - { offset: 0x13106A, size: 0x8, addend: 0x0, symName: '__ZN124_$LT$core..result..Result$LT$T$C$sqlite_nostd..nostd..ResultCode$GT$$u20$as$u20$powersync_core..error..PSResult$LT$T$GT$$GT$14into_db_result17h1769d821ccd081e3E', symObjAddr: 0x32057, symBinAddr: 0x31753, symSize: 0x62 }
  - { offset: 0x131137, size: 0x8, addend: 0x0, symName: '__ZN124_$LT$core..result..Result$LT$T$C$sqlite_nostd..nostd..ResultCode$GT$$u20$as$u20$powersync_core..error..PSResult$LT$T$GT$$GT$14into_db_result17h46282c1d8de26e94E', symObjAddr: 0x320B9, symBinAddr: 0x317B5, symSize: 0x48 }
  - { offset: 0x1311ED, size: 0x8, addend: 0x0, symName: '__ZN124_$LT$core..result..Result$LT$T$C$sqlite_nostd..nostd..ResultCode$GT$$u20$as$u20$powersync_core..error..PSResult$LT$T$GT$$GT$14into_db_result17h80e5bd62ded3e599E', symObjAddr: 0x32101, symBinAddr: 0x317FD, symSize: 0x52 }
  - { offset: 0x13156F, size: 0x8, addend: 0x0, symName: __ZN5serde2de7Visitor11visit_bytes17h668a0bd67e1cc482E, symObjAddr: 0x31816, symBinAddr: 0x4F6DE, symSize: 0x36 }
  - { offset: 0x1315BF, size: 0x8, addend: 0x0, symName: __ZN5serde2de7Visitor9visit_i6417h11bd9daf71ed4b92E, symObjAddr: 0x3184C, symBinAddr: 0x4F714, symSize: 0x32 }
  - { offset: 0x1316BA, size: 0x8, addend: 0x0, symName: '__ZN41_$LT$T$u20$as$u20$serde..de..Expected$GT$3fmt17h82fe58ddaa463b79E', symObjAddr: 0x3144E, symBinAddr: 0x30BCA, symSize: 0x42 }
  - { offset: 0x131EBE, size: 0x8, addend: 0x0, symName: __ZN5serde3ser12SerializeMap15serialize_entry17h7b6986427b357cc1E, symObjAddr: 0x31CB2, symBinAddr: 0x313C6, symSize: 0x46 }
  - { offset: 0x131F5F, size: 0x8, addend: 0x0, symName: __ZN5serde3ser12SerializeMap15serialize_entry17h4f869e4f4771b633E, symObjAddr: 0x31DD6, symBinAddr: 0x314EA, symSize: 0x3C }
  - { offset: 0x131FFD, size: 0x8, addend: 0x0, symName: __ZN5serde3ser12SerializeMap15serialize_entry17h583e82253b60502fE, symObjAddr: 0x31E12, symBinAddr: 0x31526, symSize: 0x64 }
  - { offset: 0x132123, size: 0x8, addend: 0x0, symName: __ZN5serde3ser12SerializeMap15serialize_entry17ha9f19fd5c9fab4b6E, symObjAddr: 0x31E76, symBinAddr: 0x3158A, symSize: 0x4A }
  - { offset: 0x1321F5, size: 0x8, addend: 0x0, symName: __ZN5serde3ser12SerializeMap15serialize_entry17hc37fb8c1ce8d91ccE, symObjAddr: 0x31EC0, symBinAddr: 0x315D4, symSize: 0x5E }
  - { offset: 0x1322DA, size: 0x8, addend: 0x0, symName: __ZN5serde3ser12SerializeMap15serialize_entry17hd769be6bbd0a72edE, symObjAddr: 0x31F1E, symBinAddr: 0x31632, symSize: 0x75 }
  - { offset: 0x132534, size: 0x8, addend: 0x0, symName: __ZN5serde3ser12SerializeMap15serialize_entry17he141beeef682e310E, symObjAddr: 0x31FAD, symBinAddr: 0x316C1, symSize: 0x3A }
  - { offset: 0x132E08, size: 0x8, addend: 0x0, symName: __ZN5serde3ser10Serializer11collect_seq17h0023003ada141940E, symObjAddr: 0x3187E, symBinAddr: 0x30F92, symSize: 0x82 }
  - { offset: 0x133E83, size: 0x8, addend: 0x0, symName: '__ZN86_$LT$alloc..vec..into_iter..IntoIter$LT$T$C$A$GT$$u20$as$u20$core..ops..drop..Drop$GT$4drop17h06f13b74f1be8c22E', symObjAddr: 0x31FE7, symBinAddr: 0x316FB, symSize: 0x55 }
  - { offset: 0x18DCE, size: 0x8, addend: 0x0, symName: __ZN4core3num7flt2dec8strategy6dragon9mul_pow1017h10f4324d3ad2a731E, symObjAddr: 0x412E, symBinAddr: 0x46AA, symSize: 0xDA }
  - { offset: 0x18E02, size: 0x8, addend: 0x0, symName: __ZN4core3num7flt2dec8strategy6dragon5POW1017h2bae104d34563316E, symObjAddr: 0x52FCC, symBinAddr: 0x516F4, symSize: 0x0 }
  - { offset: 0x18E1D, size: 0x8, addend: 0x0, symName: __ZN4core3num7flt2dec8strategy6dragon8POW5TO1617h1c30e841759d1ad1E, symObjAddr: 0x52FF4, symBinAddr: 0x5171C, symSize: 0x0 }
  - { offset: 0x18E38, size: 0x8, addend: 0x0, symName: __ZN4core3num7flt2dec8strategy6dragon8POW5TO3217h9df591bf6d2633ddE, symObjAddr: 0x52FFC, symBinAddr: 0x51724, symSize: 0x0 }
  - { offset: 0x18E53, size: 0x8, addend: 0x0, symName: __ZN4core3num7flt2dec8strategy6dragon8POW5TO6417h5972a6ae68382a4fE, symObjAddr: 0x53008, symBinAddr: 0x51730, symSize: 0x0 }
  - { offset: 0x18E6E, size: 0x8, addend: 0x0, symName: __ZN4core3num7flt2dec8strategy6dragon9POW5TO12817hb28e4fb075710c59E, symObjAddr: 0x5301C, symBinAddr: 0x51744, symSize: 0x0 }
  - { offset: 0x18E89, size: 0x8, addend: 0x0, symName: __ZN4core3num7flt2dec8strategy6dragon9POW5TO25617h07df8fe6d108dc67E, symObjAddr: 0x53044, symBinAddr: 0x5176C, symSize: 0x0 }
  - { offset: 0x19117, size: 0x8, addend: 0x0, symName: __ZN4core3num7flt2dec8strategy6dragon9mul_pow1017h10f4324d3ad2a731E, symObjAddr: 0x412E, symBinAddr: 0x46AA, symSize: 0xDA }
  - { offset: 0x19314, size: 0x8, addend: 0x0, symName: __ZN4core7unicode12unicode_data15grapheme_extend17SHORT_OFFSET_RUNS17h64cde93460f21f26E, symObjAddr: 0x53090, symBinAddr: 0x517B8, symSize: 0x0 }
  - { offset: 0x19330, size: 0x8, addend: 0x0, symName: __ZN4core7unicode12unicode_data15grapheme_extend7OFFSETS17h421dfd71195f110aE, symObjAddr: 0x52CDD, symBinAddr: 0x51405, symSize: 0x0 }
  - { offset: 0x1933E, size: 0x8, addend: 0x0, symName: __ZN4core7unicode12unicode_data15grapheme_extend11lookup_slow17h8dab476be3ea4117E, symObjAddr: 0x4254, symBinAddr: 0x47D0, symSize: 0xAA }
  - { offset: 0x19863, size: 0x8, addend: 0x0, symName: __ZN4core3cmp10PartialOrd2ge17heb1f90c4265b5328E, symObjAddr: 0x4208, symBinAddr: 0x4784, symSize: 0x10 }
  - { offset: 0x19AE0, size: 0x8, addend: 0x0, symName: '__ZN106_$LT$core..ops..range..Range$LT$usize$GT$$u20$as$u20$core..slice..index..SliceIndex$LT$$u5b$T$u5d$$GT$$GT$9index_mut17h4170094737aa476cE', symObjAddr: 0x422D, symBinAddr: 0x47A9, symSize: 0x27 }
  - { offset: 0x19BFA, size: 0x8, addend: 0x0, symName: '__ZN108_$LT$core..ops..range..RangeTo$LT$usize$GT$$u20$as$u20$core..slice..index..SliceIndex$LT$$u5b$T$u5d$$GT$$GT$9index_mut17hf9b6ff9ec3bad2bdE.284', symObjAddr: 0x4218, symBinAddr: 0x4794, symSize: 0x15 }
  - { offset: 0x1D2AD7, size: 0x8, addend: 0x0, symName: __ZN5serde3ser10Serializer11collect_seq17hf5944a5d7376186eE, symObjAddr: 0x4DD64, symBinAddr: 0x4C19C, symSize: 0xBE }
  - { offset: 0x1D2B78, size: 0x8, addend: 0x0, symName: __ZN10serde_json3ser9Formatter9end_array17he4e8069d3393002cE, symObjAddr: 0x4DE22, symBinAddr: 0x4C25A, symSize: 0x26 }
  - { offset: 0x1D2D22, size: 0x8, addend: 0x0, symName: __ZN10serde_json3ser9Formatter10end_object17ha2cba088061b4be4E.2965, symObjAddr: 0x4E008, symBinAddr: 0x4C440, symSize: 0x26 }
  - { offset: 0x1D2FC5, size: 0x8, addend: 0x0, symName: __ZN10serde_json3ser6ESCAPE17hdd737513095b9c3cE, symObjAddr: 0x5E6C6, symBinAddr: 0x5CDEE, symSize: 0x0 }
  - { offset: 0x1D374F, size: 0x8, addend: 0x0, symName: __ZN10serde_json3ser18format_escaped_str17h8a0b21c898f2ce1bE, symObjAddr: 0x4E0B6, symBinAddr: 0x4C4EE, symSize: 0x142 }
  - { offset: 0x1D3D25, size: 0x8, addend: 0x0, symName: __ZN10serde_json3ser17invalid_raw_value17hcd2b2afe1309e1e7E, symObjAddr: 0x4E1F8, symBinAddr: 0x50A5C, symSize: 0x1C }
  - { offset: 0x1D3E9B, size: 0x8, addend: 0x0, symName: '__ZN10serde_json5value3ser76_$LT$impl$u20$serde..ser..Serialize$u20$for$u20$serde_json..value..Value$GT$9serialize17hdb80f6900b374772E', symObjAddr: 0x4DE48, symBinAddr: 0x4C280, symSize: 0x1C0 }
  - { offset: 0x1D5AB1, size: 0x8, addend: 0x0, symName: __ZN5serde3ser10Serializer11collect_seq17hf5944a5d7376186eE, symObjAddr: 0x4DD64, symBinAddr: 0x4C19C, symSize: 0xBE }
  - { offset: 0x1D5E90, size: 0x8, addend: 0x0, symName: __ZN5serde3ser12SerializeMap15serialize_entry17h6cc538ccfcb85dc4E, symObjAddr: 0x4E02E, symBinAddr: 0x4C466, symSize: 0x88 }
  - { offset: 0x1B71B2, size: 0x8, addend: 0x0, symName: '__ZN44_$LT$$RF$T$u20$as$u20$core..fmt..Display$GT$3fmt17h79488f8c88c93027E', symObjAddr: 0x49C46, symBinAddr: 0x4872E, symSize: 0xD }
  - { offset: 0x1B71F9, size: 0x8, addend: 0x0, symName: '__ZN128_$LT$$LT$serde..de..WithDecimalPoint$u20$as$u20$core..fmt..Display$GT$..fmt..LookForDecimalPoint$u20$as$u20$core..fmt..Write$GT$9write_str17h3b61078e335bfed8E', symObjAddr: 0x49CC4, symBinAddr: 0x487AC, symSize: 0x6B }
  - { offset: 0x1B733D, size: 0x8, addend: 0x0, symName: '__ZN128_$LT$$LT$serde..de..WithDecimalPoint$u20$as$u20$core..fmt..Display$GT$..fmt..LookForDecimalPoint$u20$as$u20$core..fmt..Write$GT$10write_char17h2fcb7de607c16d1aE', symObjAddr: 0x49D2F, symBinAddr: 0x48817, symSize: 0x1E }
  - { offset: 0x1B739A, size: 0x8, addend: 0x0, symName: '__ZN66_$LT$serde..de..WithDecimalPoint$u20$as$u20$core..fmt..Display$GT$3fmt17h0bb9699f4b20b9e8E', symObjAddr: 0x4A070, symBinAddr: 0x48B58, symSize: 0xE0 }
  - { offset: 0x1B7825, size: 0x8, addend: 0x0, symName: '__ZN60_$LT$serde..de..Unexpected$u20$as$u20$core..fmt..Display$GT$3fmt17hb0aefaa327424a06E', symObjAddr: 0x49D9B, symBinAddr: 0x48883, symSize: 0x2D5 }
  - { offset: 0x1B7B77, size: 0x8, addend: 0x0, symName: '__ZN47_$LT$$RF$str$u20$as$u20$serde..de..Expected$GT$3fmt17h4c16a96f9f0bf1b7E', symObjAddr: 0x4A150, symBinAddr: 0x48C38, symSize: 0x1C }
  - { offset: 0x1B7BDB, size: 0x8, addend: 0x0, symName: '__ZN55_$LT$serde..de..OneOf$u20$as$u20$core..fmt..Display$GT$3fmt17he102780243eb5f83E', symObjAddr: 0x4A16C, symBinAddr: 0x48C54, symSize: 0x1B4 }
  - { offset: 0x1B821B, size: 0x8, addend: 0x0, symName: '__ZN44_$LT$$RF$T$u20$as$u20$core..fmt..Display$GT$3fmt17h79488f8c88c93027E', symObjAddr: 0x49C46, symBinAddr: 0x4872E, symSize: 0xD }
  - { offset: 0x1B82B1, size: 0x8, addend: 0x0, symName: __ZN4core3fmt5Write9write_fmt17hcfa56211714e5d37E, symObjAddr: 0x49C53, symBinAddr: 0x4873B, symSize: 0x3F }
  - { offset: 0x1B9720, size: 0x8, addend: 0x0, symName: __ZN4core3fmt9Arguments23as_statically_known_str17hb4d78d69e5baebe7E.2778, symObjAddr: 0x49C92, symBinAddr: 0x4877A, symSize: 0x32 }
  - { offset: 0x1B9797, size: 0x8, addend: 0x0, symName: __ZN4core3fmt9Formatter9write_fmt17h6547b3ea83dd1893E.2781, symObjAddr: 0x49D4D, symBinAddr: 0x48835, symSize: 0x4E }
  - { offset: 0x15081F, size: 0x8, addend: 0x0, symName: '__ZN10serde_with2de41_$LT$impl$u20$serde_with..As$LT$T$GT$$GT$11deserialize17h15d642d8cbc67972E', symObjAddr: 0x3558C, symBinAddr: 0x34C50, symSize: 0x59 }
  - { offset: 0x1516D9, size: 0x8, addend: 0x0, symName: '__ZN5serde2de5impls74_$LT$impl$u20$serde..de..Deserialize$u20$for$u20$alloc..string..String$GT$11deserialize17h58f499a59cd0f367E', symObjAddr: 0x365DF, symBinAddr: 0x35CA3, symSize: 0x28D }
  - { offset: 0x151A6D, size: 0x8, addend: 0x0, symName: '__ZN5serde2de5impls74_$LT$impl$u20$serde..de..Deserialize$u20$for$u20$alloc..string..String$GT$11deserialize17hd52211ba60e77317E', symObjAddr: 0x3686C, symBinAddr: 0x35F30, symSize: 0x101 }
  - { offset: 0x151C9E, size: 0x8, addend: 0x0, symName: '__ZN5serde2de5impls60_$LT$impl$u20$serde..de..Deserialize$u20$for$u20$$RF$str$GT$11deserialize17h9484dd7d9bc5126dE', symObjAddr: 0x364F1, symBinAddr: 0x35BB5, symSize: 0xEE }
  - { offset: 0x151EE6, size: 0x8, addend: 0x0, symName: '__ZN67_$LT$serde..de..impls..StrVisitor$u20$as$u20$serde..de..Visitor$GT$20visit_borrowed_bytes17h68348fe0f77a6f68E', symObjAddr: 0x370B1, symBinAddr: 0x36031, symSize: 0x6A }
  - { offset: 0x151FE1, size: 0x8, addend: 0x0, symName: '__ZN5serde2de5impls57_$LT$impl$u20$serde..de..Deserialize$u20$for$u20$bool$GT$11deserialize17h5ffb50d86b1d6aacE', symObjAddr: 0x361E0, symBinAddr: 0x358A4, symSize: 0x248 }
  - { offset: 0x1522B1, size: 0x8, addend: 0x0, symName: '__ZN5serde2de5impls57_$LT$impl$u20$serde..de..Deserialize$u20$for$u20$bool$GT$11deserialize17h65104824b4a69a1eE', symObjAddr: 0x36428, symBinAddr: 0x35AEC, symSize: 0xC9 }
  - { offset: 0x152456, size: 0x8, addend: 0x0, symName: '__ZN70_$LT$serde..de..impls..StringVisitor$u20$as$u20$serde..de..Visitor$GT$11visit_bytes17h981d228fadde0f63E', symObjAddr: 0x3711B, symBinAddr: 0x3609B, symSize: 0x84 }
  - { offset: 0x153587, size: 0x8, addend: 0x0, symName: __ZN5serde2de7Visitor11visit_bytes17h1008aaa9cfb9a982E, symObjAddr: 0x3696D, symBinAddr: 0x4F79D, symSize: 0x43 }
  - { offset: 0x1535D7, size: 0x8, addend: 0x0, symName: __ZN5serde2de7Visitor11visit_bytes17h277e23807697bd20E, symObjAddr: 0x369B0, symBinAddr: 0x4F7E0, symSize: 0x43 }
  - { offset: 0x153627, size: 0x8, addend: 0x0, symName: __ZN5serde2de7Visitor11visit_bytes17h3a0755e08dd5e6d5E, symObjAddr: 0x369F3, symBinAddr: 0x4F823, symSize: 0x3C }
  - { offset: 0x153678, size: 0x8, addend: 0x0, symName: __ZN5serde2de7Visitor11visit_bytes17h803a247875c749efE, symObjAddr: 0x36A2F, symBinAddr: 0x4F85F, symSize: 0x43 }
  - { offset: 0x1536C8, size: 0x8, addend: 0x0, symName: __ZN5serde2de7Visitor11visit_bytes17h9b2430ee0d7eaae9E, symObjAddr: 0x36A72, symBinAddr: 0x4F8A2, symSize: 0x36 }
  - { offset: 0x153719, size: 0x8, addend: 0x0, symName: __ZN5serde2de7Visitor11visit_bytes17hb3b7ae244769d7a5E, symObjAddr: 0x36AA8, symBinAddr: 0x4F8D8, symSize: 0x39 }
  - { offset: 0x15376A, size: 0x8, addend: 0x0, symName: __ZN5serde2de7Visitor11visit_bytes17hba8272e61d307f89E, symObjAddr: 0x36AE1, symBinAddr: 0x4F911, symSize: 0x36 }
  - { offset: 0x1537BB, size: 0x8, addend: 0x0, symName: __ZN5serde2de7Visitor11visit_bytes17hc245dfa46cf5455cE, symObjAddr: 0x36B17, symBinAddr: 0x4F947, symSize: 0x43 }
  - { offset: 0x15380B, size: 0x8, addend: 0x0, symName: __ZN5serde2de7Visitor11visit_bytes17hd0d208bce2f46535E, symObjAddr: 0x36B5A, symBinAddr: 0x4F98A, symSize: 0x43 }
  - { offset: 0x15385B, size: 0x8, addend: 0x0, symName: __ZN5serde2de7Visitor11visit_bytes17hfac5790b3e117ae2E, symObjAddr: 0x36B9D, symBinAddr: 0x4F9CD, symSize: 0x43 }
  - { offset: 0x1538AB, size: 0x8, addend: 0x0, symName: __ZN5serde2de7Visitor9visit_i6417h9664da383df73027E, symObjAddr: 0x36BE0, symBinAddr: 0x4FA10, symSize: 0x36 }
  - { offset: 0x1538FC, size: 0x8, addend: 0x0, symName: __ZN5serde2de7Visitor9visit_i6417hf96a02005dd412baE, symObjAddr: 0x36C16, symBinAddr: 0x4FA46, symSize: 0x3F }
  - { offset: 0x15394D, size: 0x8, addend: 0x0, symName: __ZN5serde2de7Visitor9visit_i6417h0c9678cbe0579e84E, symObjAddr: 0x36C55, symBinAddr: 0x4FA85, symSize: 0x3F }
  - { offset: 0x15399D, size: 0x8, addend: 0x0, symName: __ZN5serde2de7Visitor9visit_i6417hd56c83016f4efd9aE, symObjAddr: 0x36C94, symBinAddr: 0x4FAC4, symSize: 0x35 }
  - { offset: 0x1539EE, size: 0x8, addend: 0x0, symName: __ZN5serde2de7Visitor9visit_i6417h7ee749d5e38404bcE, symObjAddr: 0x36CC9, symBinAddr: 0x4FAF9, symSize: 0x3F }
  - { offset: 0x153A3E, size: 0x8, addend: 0x0, symName: __ZN5serde2de7Visitor9visit_i6417hd39ed4bdbd8da99bE, symObjAddr: 0x36D08, symBinAddr: 0x4FB38, symSize: 0x3F }
  - { offset: 0x153A8E, size: 0x8, addend: 0x0, symName: __ZN5serde2de7Visitor9visit_i6417he42bddbfa5ed0a19E, symObjAddr: 0x36D47, symBinAddr: 0x4FB77, symSize: 0x3F }
  - { offset: 0x153ADE, size: 0x8, addend: 0x0, symName: __ZN5serde2de7Visitor9visit_i6417hb2dd8c4c182b0bcfE, symObjAddr: 0x36D86, symBinAddr: 0x4FBB6, symSize: 0x3F }
  - { offset: 0x153B2E, size: 0x8, addend: 0x0, symName: __ZN5serde2de7Visitor9visit_i6417he507ac20f3a31f02E, symObjAddr: 0x36DC5, symBinAddr: 0x4FBF5, symSize: 0x3F }
  - { offset: 0x153B7E, size: 0x8, addend: 0x0, symName: __ZN5serde2de7Visitor9visit_str17h0ddad9375da9894bE, symObjAddr: 0x36E04, symBinAddr: 0x4FC34, symSize: 0x36 }
  - { offset: 0x153BCF, size: 0x8, addend: 0x0, symName: __ZN5serde2de7Visitor9visit_str17h19eedb3d6e83e6fdE, symObjAddr: 0x36E3A, symBinAddr: 0x4FC6A, symSize: 0x43 }
  - { offset: 0x153C1F, size: 0x8, addend: 0x0, symName: __ZN5serde2de7Visitor9visit_str17h7d0d95662fa41426E, symObjAddr: 0x36E7D, symBinAddr: 0x4FCAD, symSize: 0x43 }
  - { offset: 0x153C6F, size: 0x8, addend: 0x0, symName: __ZN5serde2de7Visitor9visit_str17h8c2e13c91e2e672fE, symObjAddr: 0x36EC0, symBinAddr: 0x4FCF0, symSize: 0x39 }
  - { offset: 0x153CC0, size: 0x8, addend: 0x0, symName: __ZN5serde2de7Visitor9visit_str17h9447ab3f5be02ddeE, symObjAddr: 0x36EF9, symBinAddr: 0x4FD29, symSize: 0x43 }
  - { offset: 0x153D10, size: 0x8, addend: 0x0, symName: __ZN5serde2de7Visitor9visit_str17h95ef4d684cbedd36E, symObjAddr: 0x36F3C, symBinAddr: 0x4FD6C, symSize: 0x3C }
  - { offset: 0x153D61, size: 0x8, addend: 0x0, symName: __ZN5serde2de7Visitor9visit_str17ha1cc6be84d2134fcE, symObjAddr: 0x36F78, symBinAddr: 0x4FDA8, symSize: 0x36 }
  - { offset: 0x153DB2, size: 0x8, addend: 0x0, symName: __ZN5serde2de7Visitor9visit_str17hac1565510af66951E, symObjAddr: 0x36FAE, symBinAddr: 0x4FDDE, symSize: 0x43 }
  - { offset: 0x153E02, size: 0x8, addend: 0x0, symName: __ZN5serde2de7Visitor9visit_str17hb55e129ce3996966E, symObjAddr: 0x36FF1, symBinAddr: 0x4FE21, symSize: 0x43 }
  - { offset: 0x153E52, size: 0x8, addend: 0x0, symName: __ZN5serde2de7Visitor9visit_str17hd91a3f2df185dce2E, symObjAddr: 0x37034, symBinAddr: 0x4FE64, symSize: 0x3A }
  - { offset: 0x153EA3, size: 0x8, addend: 0x0, symName: __ZN5serde2de7Visitor9visit_str17he23eadbd1a4fb16dE, symObjAddr: 0x3706E, symBinAddr: 0x4FE9E, symSize: 0x43 }
  - { offset: 0x1548B6, size: 0x8, addend: 0x0, symName: '__ZN41_$LT$T$u20$as$u20$serde..de..Expected$GT$3fmt17h0b992ce2e538dc78E', symObjAddr: 0x35AAA, symBinAddr: 0x3516E, symSize: 0x23 }
  - { offset: 0x15492F, size: 0x8, addend: 0x0, symName: '__ZN41_$LT$T$u20$as$u20$serde..de..Expected$GT$3fmt17h1955280e96805a0cE', symObjAddr: 0x35ACD, symBinAddr: 0x35191, symSize: 0x23 }
  - { offset: 0x1549A8, size: 0x8, addend: 0x0, symName: '__ZN41_$LT$T$u20$as$u20$serde..de..Expected$GT$3fmt17h1c7f80ae44c68cfdE', symObjAddr: 0x35AF0, symBinAddr: 0x351B4, symSize: 0x23 }
  - { offset: 0x154A21, size: 0x8, addend: 0x0, symName: '__ZN41_$LT$T$u20$as$u20$serde..de..Expected$GT$3fmt17h1cf507f699bfa322E', symObjAddr: 0x35B13, symBinAddr: 0x351D7, symSize: 0x23 }
  - { offset: 0x154A99, size: 0x8, addend: 0x0, symName: '__ZN41_$LT$T$u20$as$u20$serde..de..Expected$GT$3fmt17h3237c2c2d440079dE', symObjAddr: 0x35B36, symBinAddr: 0x351FA, symSize: 0x23 }
  - { offset: 0x154B11, size: 0x8, addend: 0x0, symName: '__ZN41_$LT$T$u20$as$u20$serde..de..Expected$GT$3fmt17h35ed636983d85d95E', symObjAddr: 0x35B59, symBinAddr: 0x3521D, symSize: 0x23 }
  - { offset: 0x154B8A, size: 0x8, addend: 0x0, symName: '__ZN41_$LT$T$u20$as$u20$serde..de..Expected$GT$3fmt17h4249d0cd05ce41daE', symObjAddr: 0x35B7C, symBinAddr: 0x35240, symSize: 0x23 }
  - { offset: 0x154C02, size: 0x8, addend: 0x0, symName: '__ZN41_$LT$T$u20$as$u20$serde..de..Expected$GT$3fmt17h52dac1951845ade6E', symObjAddr: 0x35B9F, symBinAddr: 0x35263, symSize: 0x23 }
  - { offset: 0x154C7A, size: 0x8, addend: 0x0, symName: '__ZN41_$LT$T$u20$as$u20$serde..de..Expected$GT$3fmt17h6cc0bee2f3b04571E', symObjAddr: 0x35BC2, symBinAddr: 0x35286, symSize: 0x23 }
  - { offset: 0x154CF2, size: 0x8, addend: 0x0, symName: '__ZN41_$LT$T$u20$as$u20$serde..de..Expected$GT$3fmt17h9f7a9bf00edd2854E', symObjAddr: 0x35BE5, symBinAddr: 0x352A9, symSize: 0x23 }
  - { offset: 0x154D6A, size: 0x8, addend: 0x0, symName: '__ZN41_$LT$T$u20$as$u20$serde..de..Expected$GT$3fmt17ha66adffa9237f62fE', symObjAddr: 0x35C08, symBinAddr: 0x352CC, symSize: 0x23 }
  - { offset: 0x154DE2, size: 0x8, addend: 0x0, symName: '__ZN41_$LT$T$u20$as$u20$serde..de..Expected$GT$3fmt17ha7d0763a526653e8E', symObjAddr: 0x35C2B, symBinAddr: 0x352EF, symSize: 0x23 }
  - { offset: 0x154E5A, size: 0x8, addend: 0x0, symName: '__ZN41_$LT$T$u20$as$u20$serde..de..Expected$GT$3fmt17hbd9b7301464bfb68E', symObjAddr: 0x35C4E, symBinAddr: 0x35312, symSize: 0x23 }
  - { offset: 0x154ED2, size: 0x8, addend: 0x0, symName: '__ZN41_$LT$T$u20$as$u20$serde..de..Expected$GT$3fmt17hc3c78259b5418274E', symObjAddr: 0x35C71, symBinAddr: 0x35335, symSize: 0x23 }
  - { offset: 0x154F4A, size: 0x8, addend: 0x0, symName: '__ZN41_$LT$T$u20$as$u20$serde..de..Expected$GT$3fmt17hcadc873b85d50a5cE', symObjAddr: 0x35C94, symBinAddr: 0x35358, symSize: 0x5D }
  - { offset: 0x155000, size: 0x8, addend: 0x0, symName: '__ZN41_$LT$T$u20$as$u20$serde..de..Expected$GT$3fmt17hfce4a89dd2e2769fE', symObjAddr: 0x35D2E, symBinAddr: 0x353F2, symSize: 0x23 }
  - { offset: 0x15609A, size: 0x8, addend: 0x0, symName: '__ZN14powersync_core6schema10table_info1_105_$LT$impl$u20$serde..de..Deserialize$u20$for$u20$powersync_core..schema..table_info..PendingStatement$GT$11deserialize17h868f302a4d3f99d0E', symObjAddr: 0x3741B, symBinAddr: 0x3639B, symSize: 0x73F }
  - { offset: 0x157E07, size: 0x8, addend: 0x0, symName: '__ZN81_$LT$alloc..vec..Vec$LT$T$C$A$GT$$u20$as$u20$core..ops..index..Index$LT$I$GT$$GT$5index17h33aca1e4a0267b3dE', symObjAddr: 0x35D8E, symBinAddr: 0x35452, symSize: 0x16 }
  - { offset: 0x158F0D, size: 0x8, addend: 0x0, symName: '__ZN5alloc5slice29_$LT$impl$u20$$u5b$T$u5d$$GT$4join17h2c11f3b7b76523b5E', symObjAddr: 0x36072, symBinAddr: 0x35736, symSize: 0x16E }
  - { offset: 0x15997C, size: 0x8, addend: 0x0, symName: __ZN5alloc3fmt6format17h2ba7b1746508e211E.2269, symObjAddr: 0x37253, symBinAddr: 0x361D3, symSize: 0x35 }
  - { offset: 0x15A3FD, size: 0x8, addend: 0x0, symName: '__ZN4core3ptr95drop_in_place$LT$alloc..vec..Vec$LT$powersync_core..sync..line..StreamSubscriptionError$GT$$GT$17hbbec0a9e8df0df11E', symObjAddr: 0x357B4, symBinAddr: 0x34E78, symSize: 0x29 }
  - { offset: 0x15A49A, size: 0x8, addend: 0x0, symName: '__ZN4core3ptr100drop_in_place$LT$core..option..Option$LT$powersync_core..sync..line..StreamSubscriptionError$GT$$GT$17h14538a0a81aa82b6E', symObjAddr: 0x35820, symBinAddr: 0x34EE4, symSize: 0x1C }
  - { offset: 0x15A5BF, size: 0x8, addend: 0x0, symName: '__ZN4core3ptr87drop_in_place$LT$core..option..Option$LT$powersync_core..sync..line..OplogEntry$GT$$GT$17h0b41648988cb1e62E', symObjAddr: 0x358BC, symBinAddr: 0x34F80, symSize: 0x5E }
  - { offset: 0x15A6A9, size: 0x8, addend: 0x0, symName: '__ZN4core3ptr94drop_in_place$LT$core..option..Option$LT$powersync_core..sync..line..StreamDescription$GT$$GT$17hd36939c81220bfb1E', symObjAddr: 0x3595D, symBinAddr: 0x35021, symSize: 0x3F }
  - { offset: 0x15A84D, size: 0x8, addend: 0x0, symName: '__ZN4core3ptr91drop_in_place$LT$core..option..Option$LT$powersync_core..sync..line..BucketChecksum$GT$$GT$17h0fa03791d4782911E', symObjAddr: 0x35A36, symBinAddr: 0x350FA, symSize: 0x2B }
  - { offset: 0x15A909, size: 0x8, addend: 0x0, symName: '__ZN4core3ptr101drop_in_place$LT$core..option..Option$LT$powersync_core..sync_local..PreparedPendingStatement$GT$$GT$17h6ae7f8219c958d8eE', symObjAddr: 0x35D5E, symBinAddr: 0x35422, symSize: 0x14 }
  - { offset: 0x15AA1A, size: 0x8, addend: 0x0, symName: '__ZN4core3ptr59drop_in_place$LT$serde..__private..de..content..Content$GT$17h609d0ebfd4b16eb8E.2277', symObjAddr: 0x3731F, symBinAddr: 0x3629F, symSize: 0xDD }
  - { offset: 0x15AAB2, size: 0x8, addend: 0x0, symName: '__ZN4core3ptr84drop_in_place$LT$alloc..boxed..Box$LT$serde..__private..de..content..Content$GT$$GT$17h8baf47c7305871efE.2278', symObjAddr: 0x373FC, symBinAddr: 0x3637C, symSize: 0x1F }
  - { offset: 0x15AB9A, size: 0x8, addend: 0x0, symName: '__ZN4core3ptr78drop_in_place$LT$powersync_core..schema..table_info..PendingStatementValue$GT$17hac3aaf1204d80104E', symObjAddr: 0x37B5A, symBinAddr: 0x36ADA, symSize: 0x14 }
  - { offset: 0x15F159, size: 0x8, addend: 0x0, symName: '__ZN4core5slice29_$LT$impl$u20$$u5b$T$u5d$$GT$20binary_search_by_key28_$u7b$$u7b$closure$u7d$$u7d$17haa9abb8969375ba3E', symObjAddr: 0x35D72, symBinAddr: 0x35436, symSize: 0x1C }
  - { offset: 0x15F3BD, size: 0x8, addend: 0x0, symName: __ZN4core5slice4sort6stable14driftsort_main17h36e08bceeb447c3fE, symObjAddr: 0x35DA4, symBinAddr: 0x35468, symSize: 0xB3 }
  - { offset: 0x15F61F, size: 0x8, addend: 0x0, symName: __ZN4core5slice4sort6stable14driftsort_main17h7c11435616ac580eE, symObjAddr: 0x35E57, symBinAddr: 0x3551B, symSize: 0xB5 }
  - { offset: 0x15F85D, size: 0x8, addend: 0x0, symName: __ZN4core5slice4sort6stable14driftsort_main17h8678cbb84ed9f139E, symObjAddr: 0x35F0C, symBinAddr: 0x355D0, symSize: 0xB3 }
  - { offset: 0x15FABF, size: 0x8, addend: 0x0, symName: __ZN4core5slice4sort6stable14driftsort_main17hf5a581d14f2040b3E, symObjAddr: 0x35FBF, symBinAddr: 0x35683, symSize: 0xB3 }
  - { offset: 0x160278, size: 0x8, addend: 0x0, symName: '__ZN44_$LT$$RF$T$u20$as$u20$core..fmt..Display$GT$3fmt17hfb731fa5d0956359E', symObjAddr: 0x35D51, symBinAddr: 0x35415, symSize: 0xD }
  - { offset: 0x160328, size: 0x8, addend: 0x0, symName: __ZN4core4iter6traits8iterator8Iterator7collect17h1a3f3d5fb2fc9fccE, symObjAddr: 0x37288, symBinAddr: 0x36208, symSize: 0x97 }
  - { offset: 0x16297D, size: 0x8, addend: 0x0, symName: '__ZN10serde_with2de41_$LT$impl$u20$serde_with..As$LT$T$GT$$GT$11deserialize17h15d642d8cbc67972E', symObjAddr: 0x3558C, symBinAddr: 0x34C50, symSize: 0x59 }
  - { offset: 0x162AE7, size: 0x8, addend: 0x0, symName: '__ZN10serde_with2de41_$LT$impl$u20$serde_with..As$LT$T$GT$$GT$11deserialize17ha4350ca8fed414ccE', symObjAddr: 0x355E5, symBinAddr: 0x34CA9, symSize: 0x153 }
  - { offset: 0x162D21, size: 0x8, addend: 0x0, symName: '__ZN10serde_with2de41_$LT$impl$u20$serde_with..As$LT$T$GT$$GT$11deserialize17he5c841abd2c40e00E', symObjAddr: 0x35738, symBinAddr: 0x34DFC, symSize: 0x7C }
  - { offset: 0x162E6F, size: 0x8, addend: 0x0, symName: '__ZN5alloc3vec16Vec$LT$T$C$A$GT$4push17hf1d422d62952a009E', symObjAddr: 0x357DD, symBinAddr: 0x34EA1, symSize: 0x43 }
  - { offset: 0x162F35, size: 0x8, addend: 0x0, symName: '__ZN5alloc7raw_vec20RawVecInner$LT$A$GT$16with_capacity_in17h12acc9602bf5cad3E.1808', symObjAddr: 0x3583C, symBinAddr: 0x34F00, symSize: 0x3D }
  - { offset: 0x162FB5, size: 0x8, addend: 0x0, symName: '__ZN5alloc3vec16Vec$LT$T$C$A$GT$4push17h395e163d307043baE', symObjAddr: 0x35879, symBinAddr: 0x34F3D, symSize: 0x43 }
  - { offset: 0x1630AF, size: 0x8, addend: 0x0, symName: '__ZN5alloc3vec16Vec$LT$T$C$A$GT$4push17hbda6572dc202fee1E', symObjAddr: 0x3591A, symBinAddr: 0x34FDE, symSize: 0x43 }
  - { offset: 0x16331C, size: 0x8, addend: 0x0, symName: '__ZN5alloc3vec16Vec$LT$T$C$A$GT$4push17hdbfc46a31d00d77cE', symObjAddr: 0x3599C, symBinAddr: 0x35060, symSize: 0x54 }
  - { offset: 0x16347F, size: 0x8, addend: 0x0, symName: '__ZN5alloc3vec16Vec$LT$T$C$A$GT$4push17h9b1098ab5e3e325eE', symObjAddr: 0x359F0, symBinAddr: 0x350B4, symSize: 0x46 }
  - { offset: 0x16360D, size: 0x8, addend: 0x0, symName: '__ZN5alloc3vec16Vec$LT$T$C$A$GT$4push17h35bb07588013c142E', symObjAddr: 0x35A61, symBinAddr: 0x35125, symSize: 0x49 }
  - { offset: 0x16382F, size: 0x8, addend: 0x0, symName: __ZN4core3fmt9Arguments6as_str17h94a1639c0a713e20E.1915, symObjAddr: 0x35CF1, symBinAddr: 0x353B5, symSize: 0x3D }
  - { offset: 0x163985, size: 0x8, addend: 0x0, symName: __ZN14powersync_core6schema10table_info5Table9from_json17h1262d66b850806d7E, symObjAddr: 0x3719F, symBinAddr: 0x3611F, symSize: 0xB4 }
  - { offset: 0x1F070C, size: 0x8, addend: 0x0, symName: __ZN17compiler_builtins3int6traits4DInt10from_lo_hi17h8200236670d66bc8E, symObjAddr: 0x48, symBinAddr: 0x4E72F, symSize: 0xC }
  - { offset: 0x1F0756, size: 0x8, addend: 0x0, symName: '__ZN59_$LT$u64$u20$as$u20$compiler_builtins..int..traits..Int$GT$11logical_shr17hfd03a850b8e5645cE', symObjAddr: 0x6FD, symBinAddr: 0x4E73B, symSize: 0xE }
  - { offset: 0x1F07CE, size: 0x8, addend: 0x0, symName: '__ZN59_$LT$u64$u20$as$u20$compiler_builtins..int..traits..Int$GT$12wrapping_shl17h53f24f14319fc571E', symObjAddr: 0x73A, symBinAddr: 0x4E749, symSize: 0xE }
  - { offset: 0x1F099E, size: 0x8, addend: 0x0, symName: __ZN17compiler_builtins3int5shift4Lshr4lshr17h9e095cc3390b8eacE, symObjAddr: 0x7CB, symBinAddr: 0x4E757, symSize: 0x7C }
  - { offset: 0x1F0A45, size: 0x8, addend: 0x0, symName: __ZN17compiler_builtins3int5shift9__lshrti317h5383e557efa53a67E, symObjAddr: 0xEA9, symBinAddr: 0x4E7D3, symSize: 0xA }
  - { offset: 0x1F0B9F, size: 0x8, addend: 0x0, symName: ___lshrti3, symObjAddr: 0xFD, symBinAddr: 0x4E7DD, symSize: 0xA }
...
