---
triple:          'arm64-apple-darwin'
binary-path:     './build/tvos-arm64_x86_64-simulator/powersync-sqlite-core.framework/powersync-sqlite-core'
relocations:
  - { offset: 0x30, size: 0x8, addend: 0x0, symName: _rust_eh_personality, symObjAddr: 0x0, symBinAddr: 0x6C0, symSize: 0x4 }
  - { offset: 0x4E, size: 0x8, addend: 0x0, symName: __RNvCsk8UOdKf0bkt_7___rustc14___rust_realloc, symObjAddr: 0x4, symBinAddr: 0x6C4, symSize: 0x44 }
  - { offset: 0x9F1, size: 0x8, addend: 0x0, symName: _OUTLINED_FUNCTION_78, symObjAddr: 0x3B6B8, symBinAddr: 0x3A2B8, symSize: 0xC }
  - { offset: 0xA08, size: 0x8, addend: 0x0, symName: _OUTLINED_FUNCTION_87, symObjAddr: 0x3B780, symBinAddr: 0x3A380, symSize: 0xC }
  - { offset: 0xA1F, size: 0x8, addend: 0x0, symName: _OUTLINED_FUNCTION_604, symObjAddr: 0x3D610, symBinAddr: 0x3C210, symSize: 0x8 }
  - { offset: 0xA36, size: 0x8, addend: 0x0, symName: _OUTLINED_FUNCTION_642, symObjAddr: 0x3D890, symBinAddr: 0x3C490, symSize: 0xC }
  - { offset: 0x7DB0, size: 0x8, addend: 0x0, symName: '__ZN4core3fmt3num53_$LT$impl$u20$core..fmt..LowerHex$u20$for$u20$u32$GT$3fmt17he0486b0b4d1d6966E', symObjAddr: 0x924, symBinAddr: 0xF48, symSize: 0x84 }
  - { offset: 0x7F0F, size: 0x8, addend: 0x0, symName: '__ZN4core3fmt3num53_$LT$impl$u20$core..fmt..LowerHex$u20$for$u20$u32$GT$3fmt17he0486b0b4d1d6966E', symObjAddr: 0x924, symBinAddr: 0xF48, symSize: 0x84 }
  - { offset: 0x25667, size: 0x8, addend: 0x0, symName: '__ZN4core4iter5range110_$LT$impl$u20$core..iter..traits..iterator..Iterator$u20$for$u20$core..ops..range..RangeInclusive$LT$A$GT$$GT$4next17hbe66be1be89b5893E', symObjAddr: 0x55F8, symBinAddr: 0x5BA4, symSize: 0x38 }
  - { offset: 0x25699, size: 0x8, addend: 0x0, symName: '__ZN4core4iter5range110_$LT$impl$u20$core..iter..traits..iterator..Iterator$u20$for$u20$core..ops..range..RangeInclusive$LT$A$GT$$GT$4next17hbe66be1be89b5893E', symObjAddr: 0x55F8, symBinAddr: 0x5BA4, symSize: 0x38 }
  - { offset: 0x256B7, size: 0x8, addend: 0x0, symName: '__ZN4core4iter5range110_$LT$impl$u20$core..iter..traits..iterator..Iterator$u20$for$u20$core..ops..range..RangeInclusive$LT$A$GT$$GT$4next17hbe66be1be89b5893E', symObjAddr: 0x55F8, symBinAddr: 0x5BA4, symSize: 0x38 }
  - { offset: 0x2599C, size: 0x8, addend: 0x0, symName: '__ZN4core5array88_$LT$impl$u20$core..ops..index..IndexMut$LT$I$GT$$u20$for$u20$$u5b$T$u3b$$u20$N$u5d$$GT$9index_mut17h5968ba56e9f4b558E', symObjAddr: 0x5A90, symBinAddr: 0x603C, symSize: 0x18 }
  - { offset: 0x259DB, size: 0x8, addend: 0x0, symName: '__ZN4core5array88_$LT$impl$u20$core..ops..index..IndexMut$LT$I$GT$$u20$for$u20$$u5b$T$u3b$$u20$N$u5d$$GT$9index_mut17h5968ba56e9f4b558E', symObjAddr: 0x5A90, symBinAddr: 0x603C, symSize: 0x18 }
  - { offset: 0x25A00, size: 0x8, addend: 0x0, symName: '__ZN4core5array88_$LT$impl$u20$core..ops..index..IndexMut$LT$I$GT$$u20$for$u20$$u5b$T$u3b$$u20$N$u5d$$GT$9index_mut17h5968ba56e9f4b558E', symObjAddr: 0x5A90, symBinAddr: 0x603C, symSize: 0x18 }
  - { offset: 0x25A24, size: 0x8, addend: 0x0, symName: '__ZN4core5array88_$LT$impl$u20$core..ops..index..IndexMut$LT$I$GT$$u20$for$u20$$u5b$T$u3b$$u20$N$u5d$$GT$9index_mut17h5968ba56e9f4b558E', symObjAddr: 0x5A90, symBinAddr: 0x603C, symSize: 0x18 }
  - { offset: 0x25A47, size: 0x8, addend: 0x0, symName: '__ZN4core5array88_$LT$impl$u20$core..ops..index..IndexMut$LT$I$GT$$u20$for$u20$$u5b$T$u3b$$u20$N$u5d$$GT$9index_mut17h5968ba56e9f4b558E', symObjAddr: 0x5A90, symBinAddr: 0x603C, symSize: 0x18 }
  - { offset: 0x25A73, size: 0x8, addend: 0x0, symName: '__ZN4core5array88_$LT$impl$u20$core..ops..index..IndexMut$LT$I$GT$$u20$for$u20$$u5b$T$u3b$$u20$N$u5d$$GT$9index_mut17h9ec196cdd216534fE', symObjAddr: 0x5AA8, symBinAddr: 0x6054, symSize: 0x18 }
  - { offset: 0x25AB2, size: 0x8, addend: 0x0, symName: '__ZN4core5array88_$LT$impl$u20$core..ops..index..IndexMut$LT$I$GT$$u20$for$u20$$u5b$T$u3b$$u20$N$u5d$$GT$9index_mut17h9ec196cdd216534fE', symObjAddr: 0x5AA8, symBinAddr: 0x6054, symSize: 0x18 }
  - { offset: 0x25AD7, size: 0x8, addend: 0x0, symName: '__ZN4core5array88_$LT$impl$u20$core..ops..index..IndexMut$LT$I$GT$$u20$for$u20$$u5b$T$u3b$$u20$N$u5d$$GT$9index_mut17h9ec196cdd216534fE', symObjAddr: 0x5AA8, symBinAddr: 0x6054, symSize: 0x18 }
  - { offset: 0x25AFB, size: 0x8, addend: 0x0, symName: '__ZN4core5array88_$LT$impl$u20$core..ops..index..IndexMut$LT$I$GT$$u20$for$u20$$u5b$T$u3b$$u20$N$u5d$$GT$9index_mut17h9ec196cdd216534fE', symObjAddr: 0x5AA8, symBinAddr: 0x6054, symSize: 0x18 }
  - { offset: 0x25B1E, size: 0x8, addend: 0x0, symName: '__ZN4core5array88_$LT$impl$u20$core..ops..index..IndexMut$LT$I$GT$$u20$for$u20$$u5b$T$u3b$$u20$N$u5d$$GT$9index_mut17h9ec196cdd216534fE', symObjAddr: 0x5AA8, symBinAddr: 0x6054, symSize: 0x18 }
  - { offset: 0x25B4A, size: 0x8, addend: 0x0, symName: '__ZN4core5array88_$LT$impl$u20$core..ops..index..IndexMut$LT$I$GT$$u20$for$u20$$u5b$T$u3b$$u20$N$u5d$$GT$9index_mut17h5c30f763cde60f72E', symObjAddr: 0x5AC0, symBinAddr: 0x606C, symSize: 0x1C }
  - { offset: 0x25C07, size: 0x8, addend: 0x0, symName: '__ZN4core5array88_$LT$impl$u20$core..ops..index..IndexMut$LT$I$GT$$u20$for$u20$$u5b$T$u3b$$u20$N$u5d$$GT$9index_mut17h169d6b82f3df10e9E', symObjAddr: 0x5ADC, symBinAddr: 0x6088, symSize: 0x18 }
  - { offset: 0x25C46, size: 0x8, addend: 0x0, symName: '__ZN4core5array88_$LT$impl$u20$core..ops..index..IndexMut$LT$I$GT$$u20$for$u20$$u5b$T$u3b$$u20$N$u5d$$GT$9index_mut17h169d6b82f3df10e9E', symObjAddr: 0x5ADC, symBinAddr: 0x6088, symSize: 0x18 }
  - { offset: 0x25C6B, size: 0x8, addend: 0x0, symName: '__ZN4core5array88_$LT$impl$u20$core..ops..index..IndexMut$LT$I$GT$$u20$for$u20$$u5b$T$u3b$$u20$N$u5d$$GT$9index_mut17h169d6b82f3df10e9E', symObjAddr: 0x5ADC, symBinAddr: 0x6088, symSize: 0x18 }
  - { offset: 0x25C8F, size: 0x8, addend: 0x0, symName: '__ZN4core5array88_$LT$impl$u20$core..ops..index..IndexMut$LT$I$GT$$u20$for$u20$$u5b$T$u3b$$u20$N$u5d$$GT$9index_mut17h169d6b82f3df10e9E', symObjAddr: 0x5ADC, symBinAddr: 0x6088, symSize: 0x18 }
  - { offset: 0x25CB2, size: 0x8, addend: 0x0, symName: '__ZN4core5array88_$LT$impl$u20$core..ops..index..IndexMut$LT$I$GT$$u20$for$u20$$u5b$T$u3b$$u20$N$u5d$$GT$9index_mut17h169d6b82f3df10e9E', symObjAddr: 0x5ADC, symBinAddr: 0x6088, symSize: 0x18 }
  - { offset: 0x25CDE, size: 0x8, addend: 0x0, symName: '__ZN4core5array88_$LT$impl$u20$core..ops..index..IndexMut$LT$I$GT$$u20$for$u20$$u5b$T$u3b$$u20$N$u5d$$GT$9index_mut17he337a957a5711d7fE', symObjAddr: 0x5AF4, symBinAddr: 0x60A0, symSize: 0x18 }
  - { offset: 0x25D1D, size: 0x8, addend: 0x0, symName: '__ZN4core5array88_$LT$impl$u20$core..ops..index..IndexMut$LT$I$GT$$u20$for$u20$$u5b$T$u3b$$u20$N$u5d$$GT$9index_mut17he337a957a5711d7fE', symObjAddr: 0x5AF4, symBinAddr: 0x60A0, symSize: 0x18 }
  - { offset: 0x25D42, size: 0x8, addend: 0x0, symName: '__ZN4core5array88_$LT$impl$u20$core..ops..index..IndexMut$LT$I$GT$$u20$for$u20$$u5b$T$u3b$$u20$N$u5d$$GT$9index_mut17he337a957a5711d7fE', symObjAddr: 0x5AF4, symBinAddr: 0x60A0, symSize: 0x18 }
  - { offset: 0x25D66, size: 0x8, addend: 0x0, symName: '__ZN4core5array88_$LT$impl$u20$core..ops..index..IndexMut$LT$I$GT$$u20$for$u20$$u5b$T$u3b$$u20$N$u5d$$GT$9index_mut17he337a957a5711d7fE', symObjAddr: 0x5AF4, symBinAddr: 0x60A0, symSize: 0x18 }
  - { offset: 0x25D89, size: 0x8, addend: 0x0, symName: '__ZN4core5array88_$LT$impl$u20$core..ops..index..IndexMut$LT$I$GT$$u20$for$u20$$u5b$T$u3b$$u20$N$u5d$$GT$9index_mut17he337a957a5711d7fE', symObjAddr: 0x5AF4, symBinAddr: 0x60A0, symSize: 0x18 }
  - { offset: 0x25DB5, size: 0x8, addend: 0x0, symName: '__ZN4core5array88_$LT$impl$u20$core..ops..index..IndexMut$LT$I$GT$$u20$for$u20$$u5b$T$u3b$$u20$N$u5d$$GT$9index_mut17h63f3d59deb8db8a5E', symObjAddr: 0x5B0C, symBinAddr: 0x60B8, symSize: 0x18 }
  - { offset: 0x25DF4, size: 0x8, addend: 0x0, symName: '__ZN4core5array88_$LT$impl$u20$core..ops..index..IndexMut$LT$I$GT$$u20$for$u20$$u5b$T$u3b$$u20$N$u5d$$GT$9index_mut17h63f3d59deb8db8a5E', symObjAddr: 0x5B0C, symBinAddr: 0x60B8, symSize: 0x18 }
  - { offset: 0x25E19, size: 0x8, addend: 0x0, symName: '__ZN4core5array88_$LT$impl$u20$core..ops..index..IndexMut$LT$I$GT$$u20$for$u20$$u5b$T$u3b$$u20$N$u5d$$GT$9index_mut17h63f3d59deb8db8a5E', symObjAddr: 0x5B0C, symBinAddr: 0x60B8, symSize: 0x18 }
  - { offset: 0x25E3D, size: 0x8, addend: 0x0, symName: '__ZN4core5array88_$LT$impl$u20$core..ops..index..IndexMut$LT$I$GT$$u20$for$u20$$u5b$T$u3b$$u20$N$u5d$$GT$9index_mut17h63f3d59deb8db8a5E', symObjAddr: 0x5B0C, symBinAddr: 0x60B8, symSize: 0x18 }
  - { offset: 0x25E60, size: 0x8, addend: 0x0, symName: '__ZN4core5array88_$LT$impl$u20$core..ops..index..IndexMut$LT$I$GT$$u20$for$u20$$u5b$T$u3b$$u20$N$u5d$$GT$9index_mut17h63f3d59deb8db8a5E', symObjAddr: 0x5B0C, symBinAddr: 0x60B8, symSize: 0x18 }
  - { offset: 0x2781B, size: 0x8, addend: 0x0, symName: __ZN5alloc11collections5btree4node13move_to_slice17h8fd1e7be58db4d9bE, symObjAddr: 0x4884, symBinAddr: 0x4E30, symSize: 0x18 }
  - { offset: 0x294A5, size: 0x8, addend: 0x0, symName: __ZN5alloc11collections5btree4node13move_to_slice17h87e0df3699f504eaE, symObjAddr: 0x536C, symBinAddr: 0x5918, symSize: 0x24 }
  - { offset: 0x29514, size: 0x8, addend: 0x0, symName: __ZN5alloc11collections5btree4node13move_to_slice17hb6c0f8587453a0c8E, symObjAddr: 0x5390, symBinAddr: 0x593C, symSize: 0x20 }
  - { offset: 0x2C385, size: 0x8, addend: 0x0, symName: __ZN5alloc11collections5btree4node12slice_insert17h86c5892724e40da9E, symObjAddr: 0x59A8, symBinAddr: 0x5F54, symSize: 0x64 }
  - { offset: 0x2C481, size: 0x8, addend: 0x0, symName: __ZN5alloc11collections5btree4node13move_to_slice17h3eb03c7caf28a158E, symObjAddr: 0x5A0C, symBinAddr: 0x5FB8, symSize: 0x20 }
  - { offset: 0x2C4F0, size: 0x8, addend: 0x0, symName: __ZN5alloc11collections5btree4node13move_to_slice17h865a0f2c0f06edabE, symObjAddr: 0x5A2C, symBinAddr: 0x5FD8, symSize: 0x20 }
  - { offset: 0x2C55F, size: 0x8, addend: 0x0, symName: __ZN5alloc11collections5btree4node13move_to_slice17hc0d51a295349366cE, symObjAddr: 0x5A4C, symBinAddr: 0x5FF8, symSize: 0x24 }
  - { offset: 0x2C5CE, size: 0x8, addend: 0x0, symName: __ZN5alloc11collections5btree4node13move_to_slice17hdc9f6c7f65740006E, symObjAddr: 0x5A70, symBinAddr: 0x601C, symSize: 0x20 }
  - { offset: 0x3470F, size: 0x8, addend: 0x0, symName: '__ZN5alloc11collections5btree4node125NodeRef$LT$alloc..collections..btree..node..marker..Mut$C$K$C$V$C$alloc..collections..btree..node..marker..LeafOrInternal$GT$16choose_parent_kv17h5d3888c4a6fdcff0E', symObjAddr: 0x448C, symBinAddr: 0x4A38, symSize: 0x6C }
  - { offset: 0x34736, size: 0x8, addend: 0x0, symName: '__ZN5alloc11collections5btree4node125NodeRef$LT$alloc..collections..btree..node..marker..Mut$C$K$C$V$C$alloc..collections..btree..node..marker..LeafOrInternal$GT$16choose_parent_kv17h5d3888c4a6fdcff0E', symObjAddr: 0x448C, symBinAddr: 0x4A38, symSize: 0x6C }
  - { offset: 0x34750, size: 0x8, addend: 0x0, symName: '__ZN5alloc11collections5btree4node125NodeRef$LT$alloc..collections..btree..node..marker..Mut$C$K$C$V$C$alloc..collections..btree..node..marker..LeafOrInternal$GT$16choose_parent_kv17h5d3888c4a6fdcff0E', symObjAddr: 0x448C, symBinAddr: 0x4A38, symSize: 0x6C }
  - { offset: 0x34E0D, size: 0x8, addend: 0x0, symName: '__ZN5alloc11collections5btree4node29BalancingContext$LT$K$C$V$GT$15bulk_steal_left17h18594b4f5d41a79eE', symObjAddr: 0x44F8, symBinAddr: 0x4AA4, symSize: 0x154 }
  - { offset: 0x353F2, size: 0x8, addend: 0x0, symName: '__ZN5alloc11collections5btree4node29BalancingContext$LT$K$C$V$GT$8do_merge17h21f15008d4cca461E', symObjAddr: 0x464C, symBinAddr: 0x4BF8, symSize: 0x11C }
  - { offset: 0x358F1, size: 0x8, addend: 0x0, symName: '__ZN5alloc11collections5btree4node29BalancingContext$LT$K$C$V$GT$16bulk_steal_right17hc08ebb9570f06007E', symObjAddr: 0x4768, symBinAddr: 0x4D14, symSize: 0x11C }
  - { offset: 0x35F48, size: 0x8, addend: 0x0, symName: '__ZN5alloc11collections5btree4node119NodeRef$LT$alloc..collections..btree..node..marker..Mut$C$K$C$V$C$alloc..collections..btree..node..marker..Internal$GT$30correct_childrens_parent_links17he416de6ece381fbaE', symObjAddr: 0x489C, symBinAddr: 0x4E48, symSize: 0x24 }
  - { offset: 0x35F77, size: 0x8, addend: 0x0, symName: '__ZN5alloc11collections5btree4node119NodeRef$LT$alloc..collections..btree..node..marker..Mut$C$K$C$V$C$alloc..collections..btree..node..marker..Internal$GT$30correct_childrens_parent_links17he416de6ece381fbaE', symObjAddr: 0x489C, symBinAddr: 0x4E48, symSize: 0x24 }
  - { offset: 0x363A0, size: 0x8, addend: 0x0, symName: '__ZN5alloc11collections5btree4node125NodeRef$LT$alloc..collections..btree..node..marker..Mut$C$K$C$V$C$alloc..collections..btree..node..marker..LeafOrInternal$GT$16choose_parent_kv17h8d9b6470ed212dcaE', symObjAddr: 0x48C0, symBinAddr: 0x4E6C, symSize: 0x70 }
  - { offset: 0x363C7, size: 0x8, addend: 0x0, symName: '__ZN5alloc11collections5btree4node125NodeRef$LT$alloc..collections..btree..node..marker..Mut$C$K$C$V$C$alloc..collections..btree..node..marker..LeafOrInternal$GT$16choose_parent_kv17h8d9b6470ed212dcaE', symObjAddr: 0x48C0, symBinAddr: 0x4E6C, symSize: 0x70 }
  - { offset: 0x363E1, size: 0x8, addend: 0x0, symName: '__ZN5alloc11collections5btree4node125NodeRef$LT$alloc..collections..btree..node..marker..Mut$C$K$C$V$C$alloc..collections..btree..node..marker..LeafOrInternal$GT$16choose_parent_kv17h8d9b6470ed212dcaE', symObjAddr: 0x48C0, symBinAddr: 0x4E6C, symSize: 0x70 }
  - { offset: 0x36A4E, size: 0x8, addend: 0x0, symName: '__ZN5alloc11collections5btree4node29BalancingContext$LT$K$C$V$GT$15bulk_steal_left17he2af79beeff07dcfE', symObjAddr: 0x4930, symBinAddr: 0x4EDC, symSize: 0x1BC }
  - { offset: 0x37453, size: 0x8, addend: 0x0, symName: '__ZN5alloc11collections5btree4node29BalancingContext$LT$K$C$V$GT$8do_merge17hfbdf279825cd012bE', symObjAddr: 0x4AEC, symBinAddr: 0x5098, symSize: 0x13C }
  - { offset: 0x37CAD, size: 0x8, addend: 0x0, symName: '__ZN5alloc11collections5btree4node29BalancingContext$LT$K$C$V$GT$16bulk_steal_right17h5b1cfa2aa0959201E', symObjAddr: 0x4C28, symBinAddr: 0x51D4, symSize: 0x1A4 }
  - { offset: 0x38B8E, size: 0x8, addend: 0x0, symName: '__ZN5alloc11collections5btree4node125NodeRef$LT$alloc..collections..btree..node..marker..Mut$C$K$C$V$C$alloc..collections..btree..node..marker..LeafOrInternal$GT$16choose_parent_kv17hd80c9e2bf0de7f87E', symObjAddr: 0x4DCC, symBinAddr: 0x5378, symSize: 0x6C }
  - { offset: 0x38BB5, size: 0x8, addend: 0x0, symName: '__ZN5alloc11collections5btree4node125NodeRef$LT$alloc..collections..btree..node..marker..Mut$C$K$C$V$C$alloc..collections..btree..node..marker..LeafOrInternal$GT$16choose_parent_kv17hd80c9e2bf0de7f87E', symObjAddr: 0x4DCC, symBinAddr: 0x5378, symSize: 0x6C }
  - { offset: 0x38BCF, size: 0x8, addend: 0x0, symName: '__ZN5alloc11collections5btree4node125NodeRef$LT$alloc..collections..btree..node..marker..Mut$C$K$C$V$C$alloc..collections..btree..node..marker..LeafOrInternal$GT$16choose_parent_kv17hd80c9e2bf0de7f87E', symObjAddr: 0x4DCC, symBinAddr: 0x5378, symSize: 0x6C }
  - { offset: 0x3934D, size: 0x8, addend: 0x0, symName: '__ZN5alloc11collections5btree4node29BalancingContext$LT$K$C$V$GT$15bulk_steal_left17he2918171ce38a6f0E', symObjAddr: 0x4E38, symBinAddr: 0x53E4, symSize: 0x1FC }
  - { offset: 0x39C48, size: 0x8, addend: 0x0, symName: '__ZN5alloc11collections5btree4node29BalancingContext$LT$K$C$V$GT$8do_merge17h85797872c5a20b67E', symObjAddr: 0x5034, symBinAddr: 0x55E0, symSize: 0x154 }
  - { offset: 0x3A3A8, size: 0x8, addend: 0x0, symName: '__ZN5alloc11collections5btree4node29BalancingContext$LT$K$C$V$GT$16bulk_steal_right17hafaa7f46a2929a49E', symObjAddr: 0x5188, symBinAddr: 0x5734, symSize: 0x1E4 }
  - { offset: 0x3ABBC, size: 0x8, addend: 0x0, symName: '__ZN5alloc11collections5btree4node119NodeRef$LT$alloc..collections..btree..node..marker..Mut$C$K$C$V$C$alloc..collections..btree..node..marker..Internal$GT$30correct_childrens_parent_links17hb6c5fffd57072064E', symObjAddr: 0x53B0, symBinAddr: 0x595C, symSize: 0x24 }
  - { offset: 0x3ABEB, size: 0x8, addend: 0x0, symName: '__ZN5alloc11collections5btree4node119NodeRef$LT$alloc..collections..btree..node..marker..Mut$C$K$C$V$C$alloc..collections..btree..node..marker..Internal$GT$30correct_childrens_parent_links17hb6c5fffd57072064E', symObjAddr: 0x53B0, symBinAddr: 0x595C, symSize: 0x24 }
  - { offset: 0x3AE73, size: 0x8, addend: 0x0, symName: '__ZN5alloc11collections5btree3fix176_$LT$impl$u20$alloc..collections..btree..node..NodeRef$LT$alloc..collections..btree..node..marker..Mut$C$K$C$V$C$alloc..collections..btree..node..marker..LeafOrInternal$GT$$GT$31fix_node_and_affected_ancestors17h62e807ede294617eE', symObjAddr: 0x53D4, symBinAddr: 0x5980, symSize: 0xC4 }
  - { offset: 0x3B00B, size: 0x8, addend: 0x0, symName: '__ZN5alloc11collections5btree4node115NodeRef$LT$alloc..collections..btree..node..marker..Mut$C$K$C$V$C$alloc..collections..btree..node..marker..Leaf$GT$16push_with_handle17h4ffa0dd02b61ffd6E', symObjAddr: 0x5498, symBinAddr: 0x5A44, symSize: 0x50 }
  - { offset: 0x3B04A, size: 0x8, addend: 0x0, symName: '__ZN5alloc11collections5btree4node115NodeRef$LT$alloc..collections..btree..node..marker..Mut$C$K$C$V$C$alloc..collections..btree..node..marker..Leaf$GT$16push_with_handle17h4ffa0dd02b61ffd6E', symObjAddr: 0x5498, symBinAddr: 0x5A44, symSize: 0x50 }
  - { offset: 0x3B191, size: 0x8, addend: 0x0, symName: '__ZN5alloc11collections5btree4node115NodeRef$LT$alloc..collections..btree..node..marker..Mut$C$K$C$V$C$alloc..collections..btree..node..marker..Leaf$GT$16push_with_handle17hb1f1cd784a959cc2E', symObjAddr: 0x54E8, symBinAddr: 0x5A94, symSize: 0x44 }
  - { offset: 0x3B1CC, size: 0x8, addend: 0x0, symName: '__ZN5alloc11collections5btree4node115NodeRef$LT$alloc..collections..btree..node..marker..Mut$C$K$C$V$C$alloc..collections..btree..node..marker..Leaf$GT$16push_with_handle17hb1f1cd784a959cc2E', symObjAddr: 0x54E8, symBinAddr: 0x5A94, symSize: 0x44 }
  - { offset: 0x3B397, size: 0x8, addend: 0x0, symName: '__ZN5alloc11collections5btree4node21LeafNode$LT$K$C$V$GT$3new17h85632b7abe93e9aeE', symObjAddr: 0x552C, symBinAddr: 0x5AD8, symSize: 0x28 }
  - { offset: 0x3B55C, size: 0x8, addend: 0x0, symName: '__ZN5alloc11collections5btree4node117NodeRef$LT$alloc..collections..btree..node..marker..Owned$C$K$C$V$C$alloc..collections..btree..node..marker..Leaf$GT$8new_leaf17h6a29c01b326bc9f4E', symObjAddr: 0x5554, symBinAddr: 0x5B00, symSize: 0x18 }
  - { offset: 0x3B622, size: 0x8, addend: 0x0, symName: '__ZN5alloc11collections5btree4node21LeafNode$LT$K$C$V$GT$3new17he826bf676b838540E', symObjAddr: 0x556C, symBinAddr: 0x5B18, symSize: 0x28 }
  - { offset: 0x3B810, size: 0x8, addend: 0x0, symName: '__ZN5alloc11collections5btree4node21LeafNode$LT$K$C$V$GT$3new17ha62d46381596a866E', symObjAddr: 0x5594, symBinAddr: 0x5B40, symSize: 0x24 }
  - { offset: 0x3B8EE, size: 0x8, addend: 0x0, symName: '__ZN5alloc11collections5btree4node117NodeRef$LT$alloc..collections..btree..node..marker..Owned$C$K$C$V$C$alloc..collections..btree..node..marker..Leaf$GT$8new_leaf17habbbf378d602ef8eE', symObjAddr: 0x55B8, symBinAddr: 0x5B64, symSize: 0x18 }
  - { offset: 0x3B966, size: 0x8, addend: 0x0, symName: '__ZN5alloc11collections5btree4node21LeafNode$LT$K$C$V$GT$3new17h063a1a138b2582ddE', symObjAddr: 0x55D0, symBinAddr: 0x5B7C, symSize: 0x28 }
  - { offset: 0x3BC2A, size: 0x8, addend: 0x0, symName: '__ZN5alloc11collections5btree4node119NodeRef$LT$alloc..collections..btree..node..marker..Mut$C$K$C$V$C$alloc..collections..btree..node..marker..Internal$GT$4push17h974a207280eb6907E', symObjAddr: 0x5630, symBinAddr: 0x5BDC, symSize: 0x64 }
  - { offset: 0x3BE8A, size: 0x8, addend: 0x0, symName: '__ZN5alloc11collections5btree4node119NodeRef$LT$alloc..collections..btree..node..marker..Mut$C$K$C$V$C$alloc..collections..btree..node..marker..Internal$GT$4push17haa08dcf74c01c023E', symObjAddr: 0x5694, symBinAddr: 0x5C40, symSize: 0x60 }
  - { offset: 0x3C050, size: 0x8, addend: 0x0, symName: '__ZN5alloc11collections5btree4node25InternalNode$LT$K$C$V$GT$3new17h82f6b47d0b7f0b35E', symObjAddr: 0x56F4, symBinAddr: 0x5CA0, symSize: 0x24 }
  - { offset: 0x3C370, size: 0x8, addend: 0x0, symName: '__ZN5alloc11collections5btree4node121NodeRef$LT$alloc..collections..btree..node..marker..Owned$C$K$C$V$C$alloc..collections..btree..node..marker..Internal$GT$17from_new_internal17h1333ad915600a6adE', symObjAddr: 0x5718, symBinAddr: 0x5CC4, symSize: 0x48 }
  - { offset: 0x3C5A7, size: 0x8, addend: 0x0, symName: '__ZN5alloc11collections5btree4node25InternalNode$LT$K$C$V$GT$3new17he38e143dcbd256beE', symObjAddr: 0x5760, symBinAddr: 0x5D0C, symSize: 0x28 }
  - { offset: 0x3C96B, size: 0x8, addend: 0x0, symName: '__ZN5alloc11collections5btree4node121NodeRef$LT$alloc..collections..btree..node..marker..Owned$C$K$C$V$C$alloc..collections..btree..node..marker..Internal$GT$17from_new_internal17h5f37e78a4381c16aE', symObjAddr: 0x5788, symBinAddr: 0x5D34, symSize: 0x48 }
  - { offset: 0x3CDB9, size: 0x8, addend: 0x0, symName: '__ZN5alloc11collections5btree4node121NodeRef$LT$alloc..collections..btree..node..marker..Owned$C$K$C$V$C$alloc..collections..btree..node..marker..Internal$GT$17from_new_internal17h2adde499adf87dceE', symObjAddr: 0x57D0, symBinAddr: 0x5D7C, symSize: 0x48 }
  - { offset: 0x3D021, size: 0x8, addend: 0x0, symName: '__ZN5alloc11collections5btree4node25InternalNode$LT$K$C$V$GT$3new17h4f08a0ff9aa30da7E', symObjAddr: 0x5818, symBinAddr: 0x5DC4, symSize: 0x28 }
  - { offset: 0x3D1D5, size: 0x8, addend: 0x0, symName: '__ZN5alloc11collections5btree4node25InternalNode$LT$K$C$V$GT$3new17hb924011f68a13acfE', symObjAddr: 0x5840, symBinAddr: 0x5DEC, symSize: 0x28 }
  - { offset: 0x3D408, size: 0x8, addend: 0x0, symName: '__ZN5alloc11collections5btree4node121NodeRef$LT$alloc..collections..btree..node..marker..Owned$C$K$C$V$C$alloc..collections..btree..node..marker..Internal$GT$17from_new_internal17h3a37be8fd6b32c6eE', symObjAddr: 0x5868, symBinAddr: 0x5E14, symSize: 0x48 }
  - { offset: 0x3D74B, size: 0x8, addend: 0x0, symName: '__ZN5alloc11collections5btree4node127NodeRef$LT$alloc..collections..btree..node..marker..Dying$C$K$C$V$C$alloc..collections..btree..node..marker..LeafOrInternal$GT$21deallocate_and_ascend17h09a24c599d592a09E', symObjAddr: 0x58B0, symBinAddr: 0x5E5C, symSize: 0x18 }
  - { offset: 0x3D77A, size: 0x8, addend: 0x0, symName: '__ZN5alloc11collections5btree4node127NodeRef$LT$alloc..collections..btree..node..marker..Dying$C$K$C$V$C$alloc..collections..btree..node..marker..LeafOrInternal$GT$21deallocate_and_ascend17h09a24c599d592a09E', symObjAddr: 0x58B0, symBinAddr: 0x5E5C, symSize: 0x18 }
  - { offset: 0x3D796, size: 0x8, addend: 0x0, symName: '__ZN5alloc11collections5btree4node127NodeRef$LT$alloc..collections..btree..node..marker..Dying$C$K$C$V$C$alloc..collections..btree..node..marker..LeafOrInternal$GT$21deallocate_and_ascend17h09a24c599d592a09E', symObjAddr: 0x58B0, symBinAddr: 0x5E5C, symSize: 0x18 }
  - { offset: 0x3D7B6, size: 0x8, addend: 0x0, symName: '__ZN5alloc11collections5btree4node127NodeRef$LT$alloc..collections..btree..node..marker..Dying$C$K$C$V$C$alloc..collections..btree..node..marker..LeafOrInternal$GT$21deallocate_and_ascend17h09a24c599d592a09E', symObjAddr: 0x58B0, symBinAddr: 0x5E5C, symSize: 0x18 }
  - { offset: 0x3D7D0, size: 0x8, addend: 0x0, symName: '__ZN5alloc11collections5btree4node127NodeRef$LT$alloc..collections..btree..node..marker..Dying$C$K$C$V$C$alloc..collections..btree..node..marker..LeafOrInternal$GT$21deallocate_and_ascend17h09a24c599d592a09E', symObjAddr: 0x58B0, symBinAddr: 0x5E5C, symSize: 0x18 }
  - { offset: 0x3D942, size: 0x8, addend: 0x0, symName: '__ZN5alloc11collections5btree4node127NodeRef$LT$alloc..collections..btree..node..marker..Dying$C$K$C$V$C$alloc..collections..btree..node..marker..LeafOrInternal$GT$21deallocate_and_ascend17hcc3e4ecd305a2fd9E', symObjAddr: 0x58C8, symBinAddr: 0x5E74, symSize: 0x18 }
  - { offset: 0x3D971, size: 0x8, addend: 0x0, symName: '__ZN5alloc11collections5btree4node127NodeRef$LT$alloc..collections..btree..node..marker..Dying$C$K$C$V$C$alloc..collections..btree..node..marker..LeafOrInternal$GT$21deallocate_and_ascend17hcc3e4ecd305a2fd9E', symObjAddr: 0x58C8, symBinAddr: 0x5E74, symSize: 0x18 }
  - { offset: 0x3D98D, size: 0x8, addend: 0x0, symName: '__ZN5alloc11collections5btree4node127NodeRef$LT$alloc..collections..btree..node..marker..Dying$C$K$C$V$C$alloc..collections..btree..node..marker..LeafOrInternal$GT$21deallocate_and_ascend17hcc3e4ecd305a2fd9E', symObjAddr: 0x58C8, symBinAddr: 0x5E74, symSize: 0x18 }
  - { offset: 0x3D9AD, size: 0x8, addend: 0x0, symName: '__ZN5alloc11collections5btree4node127NodeRef$LT$alloc..collections..btree..node..marker..Dying$C$K$C$V$C$alloc..collections..btree..node..marker..LeafOrInternal$GT$21deallocate_and_ascend17hcc3e4ecd305a2fd9E', symObjAddr: 0x58C8, symBinAddr: 0x5E74, symSize: 0x18 }
  - { offset: 0x3D9C7, size: 0x8, addend: 0x0, symName: '__ZN5alloc11collections5btree4node127NodeRef$LT$alloc..collections..btree..node..marker..Dying$C$K$C$V$C$alloc..collections..btree..node..marker..LeafOrInternal$GT$21deallocate_and_ascend17hcc3e4ecd305a2fd9E', symObjAddr: 0x58C8, symBinAddr: 0x5E74, symSize: 0x18 }
  - { offset: 0x3DB1F, size: 0x8, addend: 0x0, symName: '__ZN5alloc11collections5btree4node127NodeRef$LT$alloc..collections..btree..node..marker..Dying$C$K$C$V$C$alloc..collections..btree..node..marker..LeafOrInternal$GT$21deallocate_and_ascend17he6ff56d1a2cfc4b1E', symObjAddr: 0x58E0, symBinAddr: 0x5E8C, symSize: 0x18 }
  - { offset: 0x3DB4E, size: 0x8, addend: 0x0, symName: '__ZN5alloc11collections5btree4node127NodeRef$LT$alloc..collections..btree..node..marker..Dying$C$K$C$V$C$alloc..collections..btree..node..marker..LeafOrInternal$GT$21deallocate_and_ascend17he6ff56d1a2cfc4b1E', symObjAddr: 0x58E0, symBinAddr: 0x5E8C, symSize: 0x18 }
  - { offset: 0x3DB6A, size: 0x8, addend: 0x0, symName: '__ZN5alloc11collections5btree4node127NodeRef$LT$alloc..collections..btree..node..marker..Dying$C$K$C$V$C$alloc..collections..btree..node..marker..LeafOrInternal$GT$21deallocate_and_ascend17he6ff56d1a2cfc4b1E', symObjAddr: 0x58E0, symBinAddr: 0x5E8C, symSize: 0x18 }
  - { offset: 0x3DB8A, size: 0x8, addend: 0x0, symName: '__ZN5alloc11collections5btree4node127NodeRef$LT$alloc..collections..btree..node..marker..Dying$C$K$C$V$C$alloc..collections..btree..node..marker..LeafOrInternal$GT$21deallocate_and_ascend17he6ff56d1a2cfc4b1E', symObjAddr: 0x58E0, symBinAddr: 0x5E8C, symSize: 0x18 }
  - { offset: 0x3DBA4, size: 0x8, addend: 0x0, symName: '__ZN5alloc11collections5btree4node127NodeRef$LT$alloc..collections..btree..node..marker..Dying$C$K$C$V$C$alloc..collections..btree..node..marker..LeafOrInternal$GT$21deallocate_and_ascend17he6ff56d1a2cfc4b1E', symObjAddr: 0x58E0, symBinAddr: 0x5E8C, symSize: 0x18 }
  - { offset: 0x3DCBF, size: 0x8, addend: 0x0, symName: '__ZN5alloc11collections5btree4node127NodeRef$LT$alloc..collections..btree..node..marker..Owned$C$K$C$V$C$alloc..collections..btree..node..marker..LeafOrInternal$GT$18pop_internal_level17hc8511bf675470950E', symObjAddr: 0x58F8, symBinAddr: 0x5EA4, symSize: 0x30 }
  - { offset: 0x3DEFE, size: 0x8, addend: 0x0, symName: '__ZN5alloc11collections5btree4node127NodeRef$LT$alloc..collections..btree..node..marker..Owned$C$K$C$V$C$alloc..collections..btree..node..marker..LeafOrInternal$GT$19push_internal_level17h19621df6be37d36bE', symObjAddr: 0x5928, symBinAddr: 0x5ED4, symSize: 0x34 }
  - { offset: 0x3E112, size: 0x8, addend: 0x0, symName: '__ZN5alloc11collections5btree4node127NodeRef$LT$alloc..collections..btree..node..marker..Owned$C$K$C$V$C$alloc..collections..btree..node..marker..LeafOrInternal$GT$19push_internal_level17he67eae87af7e278cE', symObjAddr: 0x595C, symBinAddr: 0x5F08, symSize: 0x34 }
  - { offset: 0x3E29B, size: 0x8, addend: 0x0, symName: '__ZN5alloc11collections5btree4node127NodeRef$LT$alloc..collections..btree..node..marker..Owned$C$K$C$V$C$alloc..collections..btree..node..marker..LeafOrInternal$GT$3new17h93190692c6b3c0aaE', symObjAddr: 0x5990, symBinAddr: 0x5F3C, symSize: 0x18 }
  - { offset: 0x3E43A, size: 0x8, addend: 0x0, symName: '__ZN5alloc11collections5btree4node208Handle$LT$alloc..collections..btree..node..NodeRef$LT$alloc..collections..btree..node..marker..Mut$C$K$C$V$C$alloc..collections..btree..node..marker..Leaf$GT$$C$alloc..collections..btree..node..marker..KV$GT$6remove17hfff6505f9f3ca137E', symObjAddr: 0x5B24, symBinAddr: 0x60D0, symSize: 0xAC }
  - { offset: 0x3E841, size: 0x8, addend: 0x0, symName: '__ZN5alloc11collections5btree4node210Handle$LT$alloc..collections..btree..node..NodeRef$LT$alloc..collections..btree..node..marker..Mut$C$K$C$V$C$alloc..collections..btree..node..marker..Leaf$GT$$C$alloc..collections..btree..node..marker..Edge$GT$10insert_fit17h04509d2f8c9afd22E', symObjAddr: 0x5BD0, symBinAddr: 0x617C, symSize: 0x64 }
  - { offset: 0x3EAB5, size: 0x8, addend: 0x0, symName: '__ZN5alloc11collections5btree4node210Handle$LT$alloc..collections..btree..node..NodeRef$LT$alloc..collections..btree..node..marker..Mut$C$K$C$V$C$alloc..collections..btree..node..marker..Leaf$GT$$C$alloc..collections..btree..node..marker..Edge$GT$10insert_fit17h7f62f9ed02a86382E', symObjAddr: 0x5C34, symBinAddr: 0x61E0, symSize: 0x80 }
  - { offset: 0x3ED22, size: 0x8, addend: 0x0, symName: '__ZN5alloc11collections5btree4node210Handle$LT$alloc..collections..btree..node..NodeRef$LT$alloc..collections..btree..node..marker..Mut$C$K$C$V$C$alloc..collections..btree..node..marker..Leaf$GT$$C$alloc..collections..btree..node..marker..Edge$GT$10insert_fit17hfb4f5a13aa5e814fE', symObjAddr: 0x5CB4, symBinAddr: 0x6260, symSize: 0x50 }
  - { offset: 0x3EFB0, size: 0x8, addend: 0x0, symName: '__ZN5alloc11collections5btree4node210Handle$LT$alloc..collections..btree..node..NodeRef$LT$alloc..collections..btree..node..marker..Mut$C$K$C$V$C$alloc..collections..btree..node..marker..Leaf$GT$$C$alloc..collections..btree..node..marker..Edge$GT$10insert_fit17hfd608cf793867ecbE', symObjAddr: 0x5D04, symBinAddr: 0x62B0, symSize: 0x8C }
  - { offset: 0x3F388, size: 0x8, addend: 0x0, symName: '__ZN5alloc11collections5btree4node214Handle$LT$alloc..collections..btree..node..NodeRef$LT$alloc..collections..btree..node..marker..Mut$C$K$C$V$C$alloc..collections..btree..node..marker..Internal$GT$$C$alloc..collections..btree..node..marker..Edge$GT$10insert_fit17h039c90e753b2d1f0E', symObjAddr: 0x5D90, symBinAddr: 0x633C, symSize: 0xB8 }
  - { offset: 0x3F7C2, size: 0x8, addend: 0x0, symName: '__ZN5alloc11collections5btree4node214Handle$LT$alloc..collections..btree..node..NodeRef$LT$alloc..collections..btree..node..marker..Mut$C$K$C$V$C$alloc..collections..btree..node..marker..Internal$GT$$C$alloc..collections..btree..node..marker..Edge$GT$10insert_fit17h5cb865171738d645E', symObjAddr: 0x5E48, symBinAddr: 0x63F4, symSize: 0x80 }
  - { offset: 0x3FA96, size: 0x8, addend: 0x0, symName: '__ZN5alloc11collections5btree4node214Handle$LT$alloc..collections..btree..node..NodeRef$LT$alloc..collections..btree..node..marker..Mut$C$K$C$V$C$alloc..collections..btree..node..marker..Internal$GT$$C$alloc..collections..btree..node..marker..Edge$GT$10insert_fit17h7720b99f9e2a4956E', symObjAddr: 0x5EC8, symBinAddr: 0x6474, symSize: 0xE8 }
  - { offset: 0x400F9, size: 0x8, addend: 0x0, symName: '__ZN5alloc11collections5btree4node214Handle$LT$alloc..collections..btree..node..NodeRef$LT$alloc..collections..btree..node..marker..Mut$C$K$C$V$C$alloc..collections..btree..node..marker..Internal$GT$$C$alloc..collections..btree..node..marker..Edge$GT$10insert_fit17hdb9d4e4099f43998E', symObjAddr: 0x5FB0, symBinAddr: 0x655C, symSize: 0xA0 }
  - { offset: 0x40445, size: 0x8, addend: 0x0, symName: '__ZN5alloc11collections5btree4node214Handle$LT$alloc..collections..btree..node..NodeRef$LT$alloc..collections..btree..node..marker..Mut$C$K$C$V$C$alloc..collections..btree..node..marker..Internal$GT$$C$alloc..collections..btree..node..marker..Edge$GT$10insert_fit17h61341ebbb5edb4a7E', symObjAddr: 0x6050, symBinAddr: 0x65FC, symSize: 0x98 }
  - { offset: 0x40606, size: 0x8, addend: 0x0, symName: '__ZN5alloc11collections5btree4node29BalancingContext$LT$K$C$V$GT$10steal_left17h1c96f0a9d513d2f9E', symObjAddr: 0x60E8, symBinAddr: 0x6694, symSize: 0x38 }
  - { offset: 0x40672, size: 0x8, addend: 0x0, symName: '__ZN5alloc11collections5btree4node29BalancingContext$LT$K$C$V$GT$11steal_right17h83c74d27a73442c8E', symObjAddr: 0x6120, symBinAddr: 0x66CC, symSize: 0x34 }
  - { offset: 0x406DE, size: 0x8, addend: 0x0, symName: '__ZN5alloc11collections5btree4node29BalancingContext$LT$K$C$V$GT$8do_merge17h7c00019103316f5fE', symObjAddr: 0x6154, symBinAddr: 0x6700, symSize: 0x150 }
  - { offset: 0x40E2F, size: 0x8, addend: 0x0, symName: '__ZN5alloc11collections5btree4node29BalancingContext$LT$K$C$V$GT$8do_merge17h0192dd1c6e36d88bE', symObjAddr: 0x62A4, symBinAddr: 0x6850, symSize: 0x134 }
  - { offset: 0x4167F, size: 0x8, addend: 0x0, symName: '__ZN5alloc11collections5btree4node29BalancingContext$LT$K$C$V$GT$8do_merge17h7aeb01dce74f06b9E', symObjAddr: 0x63D8, symBinAddr: 0x6984, symSize: 0x11C }
  - { offset: 0x41BEE, size: 0x8, addend: 0x0, symName: '__ZN5alloc11collections5btree4node29BalancingContext$LT$K$C$V$GT$25merge_tracking_child_edge17h5494387861a08780E', symObjAddr: 0x64F4, symBinAddr: 0x6AA0, symSize: 0x64 }
  - { offset: 0x41DAB, size: 0x8, addend: 0x0, symName: '__ZN5alloc11collections5btree4node29BalancingContext$LT$K$C$V$GT$25merge_tracking_child_edge17h82b9e8f1e01ee2f7E', symObjAddr: 0x6558, symBinAddr: 0x6B04, symSize: 0x64 }
  - { offset: 0x41F82, size: 0x8, addend: 0x0, symName: '__ZN5alloc11collections5btree4node29BalancingContext$LT$K$C$V$GT$25merge_tracking_child_edge17hdd856252cb2d7935E', symObjAddr: 0x65BC, symBinAddr: 0x6B68, symSize: 0x64 }
  - { offset: 0x42191, size: 0x8, addend: 0x0, symName: '__ZN5alloc11collections5btree8navigate142_$LT$impl$u20$alloc..collections..btree..node..NodeRef$LT$BorrowType$C$K$C$V$C$alloc..collections..btree..node..marker..LeafOrInternal$GT$$GT$14last_leaf_edge17h72b7e23604ba75daE', symObjAddr: 0x6620, symBinAddr: 0x6BCC, symSize: 0x20 }
  - { offset: 0x421B4, size: 0x8, addend: 0x0, symName: '__ZN5alloc11collections5btree8navigate142_$LT$impl$u20$alloc..collections..btree..node..NodeRef$LT$BorrowType$C$K$C$V$C$alloc..collections..btree..node..marker..LeafOrInternal$GT$$GT$14last_leaf_edge17h72b7e23604ba75daE', symObjAddr: 0x6620, symBinAddr: 0x6BCC, symSize: 0x20 }
  - { offset: 0x424B9, size: 0x8, addend: 0x0, symName: '__ZN5alloc11collections5btree6remove259_$LT$impl$u20$alloc..collections..btree..node..Handle$LT$alloc..collections..btree..node..NodeRef$LT$alloc..collections..btree..node..marker..Mut$C$K$C$V$C$alloc..collections..btree..node..marker..Leaf$GT$$C$alloc..collections..btree..node..marker..KV$GT$$GT$14remove_leaf_kv17h28ee37872b4dc76dE', symObjAddr: 0x6640, symBinAddr: 0x6BEC, symSize: 0x128 }
  - { offset: 0x429E1, size: 0x8, addend: 0x0, symName: '__ZN5alloc11collections5btree6remove259_$LT$impl$u20$alloc..collections..btree..node..Handle$LT$alloc..collections..btree..node..NodeRef$LT$alloc..collections..btree..node..marker..Mut$C$K$C$V$C$alloc..collections..btree..node..marker..Leaf$GT$$C$alloc..collections..btree..node..marker..KV$GT$$GT$14remove_leaf_kv17h548d4ea0c93e297bE', symObjAddr: 0x6768, symBinAddr: 0x6D14, symSize: 0x1B4 }
  - { offset: 0x43173, size: 0x8, addend: 0x0, symName: '__ZN5alloc11collections5btree6remove259_$LT$impl$u20$alloc..collections..btree..node..Handle$LT$alloc..collections..btree..node..NodeRef$LT$alloc..collections..btree..node..marker..Mut$C$K$C$V$C$alloc..collections..btree..node..marker..Leaf$GT$$C$alloc..collections..btree..node..marker..KV$GT$$GT$14remove_leaf_kv17hbac9faf81e08cf40E', symObjAddr: 0x691C, symBinAddr: 0x6EC8, symSize: 0x214 }
  - { offset: 0x436E8, size: 0x8, addend: 0x0, symName: '__ZN5alloc11collections5btree8navigate142_$LT$impl$u20$alloc..collections..btree..node..NodeRef$LT$BorrowType$C$K$C$V$C$alloc..collections..btree..node..marker..LeafOrInternal$GT$$GT$14last_leaf_edge17h49ca0b2a0b403aecE', symObjAddr: 0x6B30, symBinAddr: 0x70DC, symSize: 0x20 }
  - { offset: 0x4370B, size: 0x8, addend: 0x0, symName: '__ZN5alloc11collections5btree8navigate142_$LT$impl$u20$alloc..collections..btree..node..NodeRef$LT$BorrowType$C$K$C$V$C$alloc..collections..btree..node..marker..LeafOrInternal$GT$$GT$14last_leaf_edge17h49ca0b2a0b403aecE', symObjAddr: 0x6B30, symBinAddr: 0x70DC, symSize: 0x20 }
  - { offset: 0x438FC, size: 0x8, addend: 0x0, symName: '__ZN5alloc11collections5btree8navigate227_$LT$impl$u20$alloc..collections..btree..node..Handle$LT$alloc..collections..btree..node..NodeRef$LT$BorrowType$C$K$C$V$C$alloc..collections..btree..node..marker..Leaf$GT$$C$alloc..collections..btree..node..marker..Edge$GT$$GT$7next_kv17hb8c9a53094e6d5bbE', symObjAddr: 0x6B50, symBinAddr: 0x70FC, symSize: 0x44 }
  - { offset: 0x43922, size: 0x8, addend: 0x0, symName: '__ZN5alloc11collections5btree8navigate227_$LT$impl$u20$alloc..collections..btree..node..Handle$LT$alloc..collections..btree..node..NodeRef$LT$BorrowType$C$K$C$V$C$alloc..collections..btree..node..marker..Leaf$GT$$C$alloc..collections..btree..node..marker..Edge$GT$$GT$7next_kv17hb8c9a53094e6d5bbE', symObjAddr: 0x6B50, symBinAddr: 0x70FC, symSize: 0x44 }
  - { offset: 0x43B99, size: 0x8, addend: 0x0, symName: '__ZN5alloc11collections5btree8navigate235_$LT$impl$u20$alloc..collections..btree..node..Handle$LT$alloc..collections..btree..node..NodeRef$LT$BorrowType$C$K$C$V$C$alloc..collections..btree..node..marker..LeafOrInternal$GT$$C$alloc..collections..btree..node..marker..KV$GT$$GT$14next_leaf_edge17h6260e1353931f0faE', symObjAddr: 0x6B94, symBinAddr: 0x7140, symSize: 0x48 }
  - { offset: 0x43BBF, size: 0x8, addend: 0x0, symName: '__ZN5alloc11collections5btree8navigate235_$LT$impl$u20$alloc..collections..btree..node..Handle$LT$alloc..collections..btree..node..NodeRef$LT$BorrowType$C$K$C$V$C$alloc..collections..btree..node..marker..LeafOrInternal$GT$$C$alloc..collections..btree..node..marker..KV$GT$$GT$14next_leaf_edge17h6260e1353931f0faE', symObjAddr: 0x6B94, symBinAddr: 0x7140, symSize: 0x48 }
  - { offset: 0x440A6, size: 0x8, addend: 0x0, symName: '__ZN5alloc11collections5btree6search142_$LT$impl$u20$alloc..collections..btree..node..NodeRef$LT$BorrowType$C$K$C$V$C$alloc..collections..btree..node..marker..LeafOrInternal$GT$$GT$11search_tree17h69e203d79437798dE', symObjAddr: 0x6BDC, symBinAddr: 0x7188, symSize: 0x7C }
  - { offset: 0x444F6, size: 0x8, addend: 0x0, symName: '__ZN5alloc11collections5btree6search142_$LT$impl$u20$alloc..collections..btree..node..NodeRef$LT$BorrowType$C$K$C$V$C$alloc..collections..btree..node..marker..LeafOrInternal$GT$$GT$11search_tree17h9362b3c5ac758e78E', symObjAddr: 0x6C58, symBinAddr: 0x7204, symSize: 0x7C }
  - { offset: 0x4B950, size: 0x8, addend: 0x0, symName: _OUTLINED_FUNCTION_0, symObjAddr: 0x3B084, symBinAddr: 0x39C84, symSize: 0x18 }
  - { offset: 0x4B967, size: 0x8, addend: 0x0, symName: _OUTLINED_FUNCTION_19, symObjAddr: 0x3B1E8, symBinAddr: 0x39DE8, symSize: 0x10 }
  - { offset: 0x4B97E, size: 0x8, addend: 0x0, symName: _OUTLINED_FUNCTION_38, symObjAddr: 0x3B368, symBinAddr: 0x39F68, symSize: 0x1C }
  - { offset: 0x4B995, size: 0x8, addend: 0x0, symName: _OUTLINED_FUNCTION_39, symObjAddr: 0x3B384, symBinAddr: 0x39F84, symSize: 0x1C }
  - { offset: 0x4B9AC, size: 0x8, addend: 0x0, symName: _OUTLINED_FUNCTION_41, symObjAddr: 0x3B3BC, symBinAddr: 0x39FBC, symSize: 0x1C }
  - { offset: 0x4B9C3, size: 0x8, addend: 0x0, symName: _OUTLINED_FUNCTION_63, symObjAddr: 0x3B554, symBinAddr: 0x3A154, symSize: 0x10 }
  - { offset: 0x4B9DA, size: 0x8, addend: 0x0, symName: _OUTLINED_FUNCTION_103, symObjAddr: 0x3B8A0, symBinAddr: 0x3A4A0, symSize: 0x1C }
  - { offset: 0x4B9F1, size: 0x8, addend: 0x0, symName: _OUTLINED_FUNCTION_104, symObjAddr: 0x3B8BC, symBinAddr: 0x3A4BC, symSize: 0x1C }
  - { offset: 0x4BA08, size: 0x8, addend: 0x0, symName: _OUTLINED_FUNCTION_152, symObjAddr: 0x3BCB8, symBinAddr: 0x3A8B8, symSize: 0x10 }
  - { offset: 0x4BA1F, size: 0x8, addend: 0x0, symName: _OUTLINED_FUNCTION_171, symObjAddr: 0x3BDD0, symBinAddr: 0x3A9D0, symSize: 0x8 }
  - { offset: 0x4BA36, size: 0x8, addend: 0x0, symName: _OUTLINED_FUNCTION_205, symObjAddr: 0x3C044, symBinAddr: 0x3AC44, symSize: 0xC }
  - { offset: 0x4BA4D, size: 0x8, addend: 0x0, symName: _OUTLINED_FUNCTION_236, symObjAddr: 0x3C1C4, symBinAddr: 0x3ADC4, symSize: 0x10 }
  - { offset: 0x4BA64, size: 0x8, addend: 0x0, symName: _OUTLINED_FUNCTION_263, symObjAddr: 0x3C36C, symBinAddr: 0x3AF6C, symSize: 0xC }
  - { offset: 0x4BA7B, size: 0x8, addend: 0x0, symName: _OUTLINED_FUNCTION_283, symObjAddr: 0x3C4A0, symBinAddr: 0x3B0A0, symSize: 0x8 }
  - { offset: 0x4BA92, size: 0x8, addend: 0x0, symName: _OUTLINED_FUNCTION_297, symObjAddr: 0x3C544, symBinAddr: 0x3B144, symSize: 0xC }
  - { offset: 0x4BAA9, size: 0x8, addend: 0x0, symName: _OUTLINED_FUNCTION_298, symObjAddr: 0x3C550, symBinAddr: 0x3B150, symSize: 0xC }
  - { offset: 0x4BAC0, size: 0x8, addend: 0x0, symName: _OUTLINED_FUNCTION_321, symObjAddr: 0x3C680, symBinAddr: 0x3B280, symSize: 0xC }
  - { offset: 0x4BAD7, size: 0x8, addend: 0x0, symName: _OUTLINED_FUNCTION_322, symObjAddr: 0x3C68C, symBinAddr: 0x3B28C, symSize: 0x10 }
  - { offset: 0x4BAEE, size: 0x8, addend: 0x0, symName: _OUTLINED_FUNCTION_324, symObjAddr: 0x3C6A8, symBinAddr: 0x3B2A8, symSize: 0xC }
  - { offset: 0x4BB05, size: 0x8, addend: 0x0, symName: _OUTLINED_FUNCTION_377, symObjAddr: 0x3C990, symBinAddr: 0x3B590, symSize: 0x18 }
  - { offset: 0x4BB1C, size: 0x8, addend: 0x0, symName: _OUTLINED_FUNCTION_386, symObjAddr: 0x3CA40, symBinAddr: 0x3B640, symSize: 0x8 }
  - { offset: 0x4BB33, size: 0x8, addend: 0x0, symName: _OUTLINED_FUNCTION_391, symObjAddr: 0x3CA84, symBinAddr: 0x3B684, symSize: 0xC }
  - { offset: 0x4BB4A, size: 0x8, addend: 0x0, symName: _OUTLINED_FUNCTION_399, symObjAddr: 0x3CAFC, symBinAddr: 0x3B6FC, symSize: 0xC }
  - { offset: 0x4BB61, size: 0x8, addend: 0x0, symName: _OUTLINED_FUNCTION_402, symObjAddr: 0x3CB20, symBinAddr: 0x3B720, symSize: 0xC }
  - { offset: 0x4BB78, size: 0x8, addend: 0x0, symName: _OUTLINED_FUNCTION_425, symObjAddr: 0x3CC38, symBinAddr: 0x3B838, symSize: 0x8 }
  - { offset: 0x4BB8F, size: 0x8, addend: 0x0, symName: _OUTLINED_FUNCTION_438, symObjAddr: 0x3CCA4, symBinAddr: 0x3B8A4, symSize: 0xC }
  - { offset: 0x4BBA6, size: 0x8, addend: 0x0, symName: _OUTLINED_FUNCTION_440, symObjAddr: 0x3CCB8, symBinAddr: 0x3B8B8, symSize: 0x1C }
  - { offset: 0x4BBBD, size: 0x8, addend: 0x0, symName: _OUTLINED_FUNCTION_443, symObjAddr: 0x3CCF8, symBinAddr: 0x3B8F8, symSize: 0xC }
  - { offset: 0x4BBD4, size: 0x8, addend: 0x0, symName: _OUTLINED_FUNCTION_458, symObjAddr: 0x3CDBC, symBinAddr: 0x3B9BC, symSize: 0x1C }
  - { offset: 0x4BBEB, size: 0x8, addend: 0x0, symName: _OUTLINED_FUNCTION_462, symObjAddr: 0x3CE18, symBinAddr: 0x3BA18, symSize: 0x8 }
  - { offset: 0x4BC02, size: 0x8, addend: 0x0, symName: _OUTLINED_FUNCTION_465, symObjAddr: 0x3CE30, symBinAddr: 0x3BA30, symSize: 0x1C }
  - { offset: 0x4BC19, size: 0x8, addend: 0x0, symName: _OUTLINED_FUNCTION_476, symObjAddr: 0x3CEEC, symBinAddr: 0x3BAEC, symSize: 0x1C }
  - { offset: 0x4BC30, size: 0x8, addend: 0x0, symName: _OUTLINED_FUNCTION_492, symObjAddr: 0x3D018, symBinAddr: 0x3BC18, symSize: 0xC }
  - { offset: 0x4BC47, size: 0x8, addend: 0x0, symName: _OUTLINED_FUNCTION_517, symObjAddr: 0x3D178, symBinAddr: 0x3BD78, symSize: 0x10 }
  - { offset: 0x4BC5E, size: 0x8, addend: 0x0, symName: _OUTLINED_FUNCTION_519, symObjAddr: 0x3D190, symBinAddr: 0x3BD90, symSize: 0x1C }
  - { offset: 0x4BC75, size: 0x8, addend: 0x0, symName: _OUTLINED_FUNCTION_525, symObjAddr: 0x3D1FC, symBinAddr: 0x3BDFC, symSize: 0xC }
  - { offset: 0x4BC8C, size: 0x8, addend: 0x0, symName: _OUTLINED_FUNCTION_528, symObjAddr: 0x3D244, symBinAddr: 0x3BE44, symSize: 0xC }
  - { offset: 0x4BCA3, size: 0x8, addend: 0x0, symName: _OUTLINED_FUNCTION_535, symObjAddr: 0x3D2B0, symBinAddr: 0x3BEB0, symSize: 0xC }
  - { offset: 0x4BCBA, size: 0x8, addend: 0x0, symName: _OUTLINED_FUNCTION_542, symObjAddr: 0x3D2F0, symBinAddr: 0x3BEF0, symSize: 0x14 }
  - { offset: 0x4BCD1, size: 0x8, addend: 0x0, symName: _OUTLINED_FUNCTION_549, symObjAddr: 0x3D344, symBinAddr: 0x3BF44, symSize: 0x8 }
  - { offset: 0x4BCE8, size: 0x8, addend: 0x0, symName: _OUTLINED_FUNCTION_554, symObjAddr: 0x3D370, symBinAddr: 0x3BF70, symSize: 0x14 }
  - { offset: 0x4BCFF, size: 0x8, addend: 0x0, symName: _OUTLINED_FUNCTION_556, symObjAddr: 0x3D398, symBinAddr: 0x3BF98, symSize: 0xC }
  - { offset: 0x4BD16, size: 0x8, addend: 0x0, symName: _OUTLINED_FUNCTION_562, symObjAddr: 0x3D3EC, symBinAddr: 0x3BFEC, symSize: 0xC }
  - { offset: 0x4BD2D, size: 0x8, addend: 0x0, symName: _OUTLINED_FUNCTION_632, symObjAddr: 0x3D800, symBinAddr: 0x3C400, symSize: 0xC }
  - { offset: 0x4BD44, size: 0x8, addend: 0x0, symName: _OUTLINED_FUNCTION_649, symObjAddr: 0x3D8F8, symBinAddr: 0x3C4F8, symSize: 0x8 }
  - { offset: 0x4BD5B, size: 0x8, addend: 0x0, symName: _OUTLINED_FUNCTION_651, symObjAddr: 0x3D914, symBinAddr: 0x3C514, symSize: 0x14 }
  - { offset: 0x4BD72, size: 0x8, addend: 0x0, symName: _OUTLINED_FUNCTION_652, symObjAddr: 0x3D928, symBinAddr: 0x3C528, symSize: 0x8 }
  - { offset: 0x4BD89, size: 0x8, addend: 0x0, symName: _OUTLINED_FUNCTION_657, symObjAddr: 0x3D95C, symBinAddr: 0x3C55C, symSize: 0x14 }
  - { offset: 0x4BDA0, size: 0x8, addend: 0x0, symName: _OUTLINED_FUNCTION_666, symObjAddr: 0x3D9BC, symBinAddr: 0x3C5BC, symSize: 0x8 }
  - { offset: 0x4BDB7, size: 0x8, addend: 0x0, symName: _OUTLINED_FUNCTION_687, symObjAddr: 0x3DB14, symBinAddr: 0x3C714, symSize: 0xC }
  - { offset: 0x4BDCE, size: 0x8, addend: 0x0, symName: _OUTLINED_FUNCTION_703, symObjAddr: 0x3DBF4, symBinAddr: 0x3C7F4, symSize: 0x1C }
  - { offset: 0x4BDE5, size: 0x8, addend: 0x0, symName: _OUTLINED_FUNCTION_704, symObjAddr: 0x3DC10, symBinAddr: 0x3C810, symSize: 0x1C }
  - { offset: 0x4BDFC, size: 0x8, addend: 0x0, symName: _OUTLINED_FUNCTION_705, symObjAddr: 0x3DC2C, symBinAddr: 0x3C82C, symSize: 0x1C }
  - { offset: 0x4BE13, size: 0x8, addend: 0x0, symName: _OUTLINED_FUNCTION_730, symObjAddr: 0x3DD88, symBinAddr: 0x3C988, symSize: 0xC }
  - { offset: 0x4BE2A, size: 0x8, addend: 0x0, symName: _OUTLINED_FUNCTION_733, symObjAddr: 0x3DDAC, symBinAddr: 0x3C9AC, symSize: 0x8 }
  - { offset: 0x4BE41, size: 0x8, addend: 0x0, symName: _OUTLINED_FUNCTION_777, symObjAddr: 0x3DFF4, symBinAddr: 0x3CBF4, symSize: 0x10 }
  - { offset: 0x4BE58, size: 0x8, addend: 0x0, symName: _OUTLINED_FUNCTION_781, symObjAddr: 0x3E024, symBinAddr: 0x3CC24, symSize: 0x10 }
  - { offset: 0x4BE6F, size: 0x8, addend: 0x0, symName: _OUTLINED_FUNCTION_794, symObjAddr: 0x3E0BC, symBinAddr: 0x3CCBC, symSize: 0xC }
  - { offset: 0x4BE86, size: 0x8, addend: 0x0, symName: _OUTLINED_FUNCTION_805, symObjAddr: 0x3E134, symBinAddr: 0x3CD34, symSize: 0x8 }
  - { offset: 0x4BE9D, size: 0x8, addend: 0x0, symName: _OUTLINED_FUNCTION_818, symObjAddr: 0x3E1FC, symBinAddr: 0x3CDFC, symSize: 0x10 }
  - { offset: 0x4BEB4, size: 0x8, addend: 0x0, symName: _OUTLINED_FUNCTION_820, symObjAddr: 0x3E214, symBinAddr: 0x3CE14, symSize: 0x8 }
  - { offset: 0x4BECB, size: 0x8, addend: 0x0, symName: _OUTLINED_FUNCTION_840, symObjAddr: 0x3E324, symBinAddr: 0x3CF24, symSize: 0x10 }
  - { offset: 0x4BEE2, size: 0x8, addend: 0x0, symName: _OUTLINED_FUNCTION_854, symObjAddr: 0x3E404, symBinAddr: 0x3D004, symSize: 0x10 }
  - { offset: 0x4BEF9, size: 0x8, addend: 0x0, symName: _OUTLINED_FUNCTION_882, symObjAddr: 0x3E5E8, symBinAddr: 0x3D1E8, symSize: 0x18 }
  - { offset: 0x4BF10, size: 0x8, addend: 0x0, symName: _OUTLINED_FUNCTION_894, symObjAddr: 0x3E6A8, symBinAddr: 0x3D2A8, symSize: 0xC }
  - { offset: 0x4BF27, size: 0x8, addend: 0x0, symName: _OUTLINED_FUNCTION_895, symObjAddr: 0x3E6B4, symBinAddr: 0x3D2B4, symSize: 0x18 }
  - { offset: 0x4BF3E, size: 0x8, addend: 0x0, symName: _OUTLINED_FUNCTION_896, symObjAddr: 0x3E6CC, symBinAddr: 0x3D2CC, symSize: 0x18 }
  - { offset: 0x4BF55, size: 0x8, addend: 0x0, symName: _OUTLINED_FUNCTION_897, symObjAddr: 0x3E6E4, symBinAddr: 0x3D2E4, symSize: 0x18 }
  - { offset: 0x4BF6C, size: 0x8, addend: 0x0, symName: _OUTLINED_FUNCTION_921, symObjAddr: 0x3E828, symBinAddr: 0x3D428, symSize: 0xC }
  - { offset: 0x4BF83, size: 0x8, addend: 0x0, symName: _OUTLINED_FUNCTION_923, symObjAddr: 0x3E840, symBinAddr: 0x3D440, symSize: 0xC }
  - { offset: 0x4BF9A, size: 0x8, addend: 0x0, symName: _OUTLINED_FUNCTION_964, symObjAddr: 0x3EA24, symBinAddr: 0x3D624, symSize: 0x8 }
  - { offset: 0x4BFB1, size: 0x8, addend: 0x0, symName: _OUTLINED_FUNCTION_1001, symObjAddr: 0x3EB98, symBinAddr: 0x3D798, symSize: 0xC }
  - { offset: 0x4BFC8, size: 0x8, addend: 0x0, symName: _OUTLINED_FUNCTION_1006, symObjAddr: 0x3EBC8, symBinAddr: 0x3D7C8, symSize: 0x8 }
  - { offset: 0x4BFDF, size: 0x8, addend: 0x0, symName: _OUTLINED_FUNCTION_1012, symObjAddr: 0x3EC00, symBinAddr: 0x3D800, symSize: 0x8 }
  - { offset: 0x4BFF6, size: 0x8, addend: 0x0, symName: _OUTLINED_FUNCTION_1027, symObjAddr: 0x3EC8C, symBinAddr: 0x3D88C, symSize: 0xC }
  - { offset: 0x4C00D, size: 0x8, addend: 0x0, symName: _OUTLINED_FUNCTION_1029, symObjAddr: 0x3ECA4, symBinAddr: 0x3D8A4, symSize: 0xC }
  - { offset: 0x4C024, size: 0x8, addend: 0x0, symName: _OUTLINED_FUNCTION_1030, symObjAddr: 0x3ECB0, symBinAddr: 0x3D8B0, symSize: 0xC }
  - { offset: 0x4C03B, size: 0x8, addend: 0x0, symName: _OUTLINED_FUNCTION_1031, symObjAddr: 0x3ECBC, symBinAddr: 0x3D8BC, symSize: 0x8 }
  - { offset: 0x4C052, size: 0x8, addend: 0x0, symName: _OUTLINED_FUNCTION_1032, symObjAddr: 0x3ECC4, symBinAddr: 0x3D8C4, symSize: 0x8 }
  - { offset: 0x4C069, size: 0x8, addend: 0x0, symName: _OUTLINED_FUNCTION_1034, symObjAddr: 0x3ECD4, symBinAddr: 0x3D8D4, symSize: 0x8 }
  - { offset: 0x4C080, size: 0x8, addend: 0x0, symName: _OUTLINED_FUNCTION_1075, symObjAddr: 0x3EE60, symBinAddr: 0x3DA60, symSize: 0xC }
  - { offset: 0x4C097, size: 0x8, addend: 0x0, symName: _OUTLINED_FUNCTION_1082, symObjAddr: 0x3EEA0, symBinAddr: 0x3DAA0, symSize: 0xC }
  - { offset: 0x4C0AE, size: 0x8, addend: 0x0, symName: _OUTLINED_FUNCTION_1103, symObjAddr: 0x3EF78, symBinAddr: 0x3DB78, symSize: 0xC }
  - { offset: 0x4C0C5, size: 0x8, addend: 0x0, symName: _OUTLINED_FUNCTION_1106, symObjAddr: 0x3EF9C, symBinAddr: 0x3DB9C, symSize: 0xC }
  - { offset: 0x4C0DC, size: 0x8, addend: 0x0, symName: _OUTLINED_FUNCTION_1123, symObjAddr: 0x3F0A0, symBinAddr: 0x3DCA0, symSize: 0x14 }
  - { offset: 0x4C0F3, size: 0x8, addend: 0x0, symName: _OUTLINED_FUNCTION_1130, symObjAddr: 0x3F114, symBinAddr: 0x3DD14, symSize: 0xC }
  - { offset: 0x4C10A, size: 0x8, addend: 0x0, symName: _OUTLINED_FUNCTION_1132, symObjAddr: 0x3F12C, symBinAddr: 0x3DD2C, symSize: 0x14 }
  - { offset: 0x4C121, size: 0x8, addend: 0x0, symName: _OUTLINED_FUNCTION_1136, symObjAddr: 0x3F17C, symBinAddr: 0x3DD7C, symSize: 0xC }
  - { offset: 0x4C138, size: 0x8, addend: 0x0, symName: _OUTLINED_FUNCTION_1140, symObjAddr: 0x3F1BC, symBinAddr: 0x3DDBC, symSize: 0xC }
  - { offset: 0x4C14F, size: 0x8, addend: 0x0, symName: _OUTLINED_FUNCTION_1154, symObjAddr: 0x3F274, symBinAddr: 0x3DE74, symSize: 0x14 }
  - { offset: 0x4C166, size: 0x8, addend: 0x0, symName: _OUTLINED_FUNCTION_1157, symObjAddr: 0x3F2A8, symBinAddr: 0x3DEA8, symSize: 0x14 }
  - { offset: 0x4C17D, size: 0x8, addend: 0x0, symName: _OUTLINED_FUNCTION_1191, symObjAddr: 0x3F4A0, symBinAddr: 0x3E0A0, symSize: 0xC }
  - { offset: 0x4C194, size: 0x8, addend: 0x0, symName: _OUTLINED_FUNCTION_1202, symObjAddr: 0x3F52C, symBinAddr: 0x3E12C, symSize: 0xC }
  - { offset: 0x4C1AB, size: 0x8, addend: 0x0, symName: _OUTLINED_FUNCTION_1213, symObjAddr: 0x3F63C, symBinAddr: 0x3E23C, symSize: 0x1C }
  - { offset: 0xFBB4, size: 0x8, addend: 0x0, symName: __ZN4core3num7flt2dec8round_up17hf32f254295d697f9E, symObjAddr: 0x20B4, symBinAddr: 0x26D8, symSize: 0x88 }
  - { offset: 0xFD86, size: 0x8, addend: 0x0, symName: __ZN4core3num7flt2dec17digits_to_dec_str17hb4e00468a20a0a13E, symObjAddr: 0x213C, symBinAddr: 0x2760, symSize: 0x110 }
  - { offset: 0x1066B, size: 0x8, addend: 0x0, symName: '__ZN4core5slice3cmp81_$LT$impl$u20$core..cmp..PartialEq$LT$$u5b$U$u5d$$GT$$u20$for$u20$$u5b$T$u5d$$GT$2eq17h5df140e724bedc9dE', symObjAddr: 0x224C, symBinAddr: 0x2870, symSize: 0x34 }
  - { offset: 0x10694, size: 0x8, addend: 0x0, symName: '__ZN4core5slice3cmp81_$LT$impl$u20$core..cmp..PartialEq$LT$$u5b$U$u5d$$GT$$u20$for$u20$$u5b$T$u5d$$GT$2eq17h5df140e724bedc9dE', symObjAddr: 0x224C, symBinAddr: 0x2870, symSize: 0x34 }
  - { offset: 0x10C2A, size: 0x8, addend: 0x0, symName: _OUTLINED_FUNCTION_745, symObjAddr: 0x3DE40, symBinAddr: 0x3CA40, symSize: 0x8 }
  - { offset: 0x10C41, size: 0x8, addend: 0x0, symName: _OUTLINED_FUNCTION_1084, symObjAddr: 0x3EEB4, symBinAddr: 0x3DAB4, symSize: 0x8 }
  - { offset: 0xD6BB, size: 0x8, addend: 0x0, symName: __ZN4core3str8converts9from_utf817h6a9dc1dab6543ee9E, symObjAddr: 0x17C8, symBinAddr: 0x1DEC, symSize: 0x238 }
  - { offset: 0xDB94, size: 0x8, addend: 0x0, symName: '__ZN4core3fmt3num3imp51_$LT$impl$u20$core..fmt..Display$u20$for$u20$u8$GT$3fmt17h61bdb890c7590b6bE', symObjAddr: 0x1A00, symBinAddr: 0x2024, symSize: 0x10 }
  - { offset: 0xDBD7, size: 0x8, addend: 0x0, symName: '__ZN4core3fmt3num3imp20_$LT$impl$u20$u8$GT$4_fmt17h268bba23520f4f0dE', symObjAddr: 0x1A10, symBinAddr: 0x2034, symSize: 0x88 }
  - { offset: 0xDD78, size: 0x8, addend: 0x0, symName: '__ZN4core3fmt3num3imp52_$LT$impl$u20$core..fmt..Display$u20$for$u20$u32$GT$3fmt17ha75200b63eb64634E', symObjAddr: 0x1A98, symBinAddr: 0x20BC, symSize: 0x10 }
  - { offset: 0xDDBB, size: 0x8, addend: 0x0, symName: '__ZN4core3fmt3num3imp21_$LT$impl$u20$u32$GT$4_fmt17h6f1f44915c59d4daE', symObjAddr: 0x1AA8, symBinAddr: 0x20CC, symSize: 0xF4 }
  - { offset: 0xE034, size: 0x8, addend: 0x0, symName: '__ZN4core3fmt3num3imp52_$LT$impl$u20$core..fmt..Display$u20$for$u20$i32$GT$3fmt17h76b5a2ae583648edE', symObjAddr: 0x1B9C, symBinAddr: 0x21C0, symSize: 0x1C }
  - { offset: 0xE0B0, size: 0x8, addend: 0x0, symName: '__ZN4core3fmt3num3imp52_$LT$impl$u20$core..fmt..Display$u20$for$u20$u64$GT$3fmt17h90a6d2bc63dbb469E', symObjAddr: 0x1BB8, symBinAddr: 0x21DC, symSize: 0x10 }
  - { offset: 0xE0F3, size: 0x8, addend: 0x0, symName: '__ZN4core3fmt3num3imp21_$LT$impl$u20$u64$GT$4_fmt17h28b6b39c4774b1adE', symObjAddr: 0x1BC8, symBinAddr: 0x21EC, symSize: 0xFC }
  - { offset: 0xE309, size: 0x8, addend: 0x0, symName: '__ZN4core3fmt3num3imp52_$LT$impl$u20$core..fmt..Display$u20$for$u20$i64$GT$3fmt17he16210892bc9c3b9E', symObjAddr: 0x1CC4, symBinAddr: 0x22E8, symSize: 0x1C }
  - { offset: 0xE45F, size: 0x8, addend: 0x0, symName: '__ZN4core3fmt3num3imp54_$LT$impl$u20$core..fmt..Display$u20$for$u20$usize$GT$3fmt17hae1639a132a3b831E', symObjAddr: 0x1CE0, symBinAddr: 0x2304, symSize: 0x10C }
  - { offset: 0xEA89, size: 0x8, addend: 0x0, symName: _OUTLINED_FUNCTION_198, symObjAddr: 0x3BFA8, symBinAddr: 0x3ABA8, symSize: 0x14 }
  - { offset: 0xEAA0, size: 0x8, addend: 0x0, symName: _OUTLINED_FUNCTION_533, symObjAddr: 0x3D29C, symBinAddr: 0x3BE9C, symSize: 0x8 }
  - { offset: 0xEAB7, size: 0x8, addend: 0x0, symName: _OUTLINED_FUNCTION_990, symObjAddr: 0x3EB28, symBinAddr: 0x3D728, symSize: 0x14 }
  - { offset: 0xEACE, size: 0x8, addend: 0x0, symName: _OUTLINED_FUNCTION_1134, symObjAddr: 0x3F154, symBinAddr: 0x3DD54, symSize: 0x14 }
  - { offset: 0xEAE5, size: 0x8, addend: 0x0, symName: _OUTLINED_FUNCTION_1135, symObjAddr: 0x3F168, symBinAddr: 0x3DD68, symSize: 0x14 }
  - { offset: 0x84B0F, size: 0x8, addend: 0x0, symName: '__ZN45_$LT$T$u20$as$u20$alloc..string..ToString$GT$9to_string17hc1b5c486815cc079E', symObjAddr: 0xD9A4, symBinAddr: 0xD6B8, symSize: 0x194 }
  - { offset: 0x857B1, size: 0x8, addend: 0x0, symName: '__ZN5alloc5slice29_$LT$impl$u20$$u5b$T$u5d$$GT$11sort_by_key28_$u7b$$u7b$closure$u7d$$u7d$17h77e65445b1f7ccc1E', symObjAddr: 0xBEE4, symBinAddr: 0xC438, symSize: 0x4 }
  - { offset: 0x8621F, size: 0x8, addend: 0x0, symName: '__ZN4core3ptr45drop_in_place$LT$serde_json..value..Value$GT$17h0a42cf7db0282f37E', symObjAddr: 0xD92C, symBinAddr: 0xD640, symSize: 0x5C }
  - { offset: 0x862A6, size: 0x8, addend: 0x0, symName: '__ZN4core3ptr105drop_in_place$LT$core..option..Option$LT$$LP$alloc..string..String$C$serde_json..value..Value$RP$$GT$$GT$17h635c41052d9703d1E', symObjAddr: 0xD988, symBinAddr: 0xD69C, symSize: 0x1C }
  - { offset: 0x862D4, size: 0x8, addend: 0x0, symName: '__ZN4core3ptr77drop_in_place$LT$$LP$alloc..string..String$C$serde_json..value..Value$RP$$GT$17h635949385b66a4f3E', symObjAddr: 0xDB38, symBinAddr: 0xD84C, symSize: 0x24 }
  - { offset: 0x8641C, size: 0x8, addend: 0x0, symName: '__ZN4core3ptr57drop_in_place$LT$powersync_core..sync..line..SyncLine$GT$17h6ad69316ea2e69cfE', symObjAddr: 0xDB5C, symBinAddr: 0xD870, symSize: 0x78 }
  - { offset: 0x870D2, size: 0x8, addend: 0x0, symName: '__ZN4core3cmp5impls70_$LT$impl$u20$core..cmp..PartialOrd$LT$$RF$B$GT$$u20$for$u20$$RF$A$GT$2lt17h54b07cfde9740ac8E', symObjAddr: 0xBECC, symBinAddr: 0xC420, symSize: 0x18 }
  - { offset: 0x8A9BD, size: 0x8, addend: 0x0, symName: '__ZN108_$LT$core..ops..range..RangeTo$LT$usize$GT$$u20$as$u20$core..slice..index..SliceIndex$LT$$u5b$T$u5d$$GT$$GT$9index_mut17h1872b2d80a5a36c9E', symObjAddr: 0xBE50, symBinAddr: 0xC3A4, symSize: 0x24 }
  - { offset: 0x8ABE0, size: 0x8, addend: 0x0, symName: '__ZN110_$LT$core..ops..range..RangeFrom$LT$usize$GT$$u20$as$u20$core..slice..index..SliceIndex$LT$$u5b$T$u5d$$GT$$GT$9index_mut17h1dd7187f55465181E', symObjAddr: 0xC1B8, symBinAddr: 0xC70C, symSize: 0x1C }
  - { offset: 0x8AD2D, size: 0x8, addend: 0x0, symName: '__ZN110_$LT$core..ops..range..RangeFrom$LT$usize$GT$$u20$as$u20$core..slice..index..SliceIndex$LT$$u5b$T$u5d$$GT$$GT$9index_mut17h406e694b95f1b1ceE', symObjAddr: 0xC8DC, symBinAddr: 0xCE30, symSize: 0x20 }
  - { offset: 0x8AFAA, size: 0x8, addend: 0x0, symName: '__ZN4core5slice29_$LT$impl$u20$$u5b$T$u5d$$GT$7reverse17hd2550a5dd980c0dbE', symObjAddr: 0xBE74, symBinAddr: 0xC3C8, symSize: 0x58 }
  - { offset: 0x8B167, size: 0x8, addend: 0x0, symName: __ZN4core5slice4sort6stable5drift16stable_quicksort17h285f388d09d9d963E, symObjAddr: 0xBF00, symBinAddr: 0xC454, symSize: 0x10 }
  - { offset: 0x8B1DD, size: 0x8, addend: 0x0, symName: __ZN4core5slice4sort6stable5drift16stable_quicksort17h4d6972b269c16565E, symObjAddr: 0xBF10, symBinAddr: 0xC464, symSize: 0x10 }
  - { offset: 0x8B253, size: 0x8, addend: 0x0, symName: __ZN4core5slice4sort6stable5drift16stable_quicksort17h962cfd74a03617c7E, symObjAddr: 0xBF20, symBinAddr: 0xC474, symSize: 0x10 }
  - { offset: 0x8B2C9, size: 0x8, addend: 0x0, symName: __ZN4core5slice4sort6stable5drift16stable_quicksort17h9fbdd0298d0ae6d8E, symObjAddr: 0xBF30, symBinAddr: 0xC484, symSize: 0x10 }
  - { offset: 0x8B49D, size: 0x8, addend: 0x0, symName: __ZN4core5slice4sort6stable5drift4sort17h3c068236db8219bcE, symObjAddr: 0xBF40, symBinAddr: 0xC494, symSize: 0x278 }
  - { offset: 0x8BBF8, size: 0x8, addend: 0x0, symName: __ZN4core5slice4sort6stable5drift4sort17h3ccb5046e98fe2deE, symObjAddr: 0xC1D4, symBinAddr: 0xC728, symSize: 0x278 }
  - { offset: 0x8C3C8, size: 0x8, addend: 0x0, symName: __ZN4core5slice4sort6stable5drift4sort17h4c5a9b829c85cd30E, symObjAddr: 0xC44C, symBinAddr: 0xC9A0, symSize: 0x490 }
  - { offset: 0x8D0D3, size: 0x8, addend: 0x0, symName: __ZN4core5slice4sort6stable5drift4sort17h82d37db3785f2bfcE, symObjAddr: 0xC8FC, symBinAddr: 0xCE50, symSize: 0x278 }
  - { offset: 0x8D938, size: 0x8, addend: 0x0, symName: __ZN4core3ops8function5FnMut8call_mut17hd894dcced9a66186E, symObjAddr: 0xBEE8, symBinAddr: 0xC43C, symSize: 0x18 }
  - { offset: 0x8E64E, size: 0x8, addend: 0x0, symName: '__ZN99_$LT$powersync_core..sync..line..StreamSubscriptionErrorCause$u20$as$u20$serde..de..Deserialize$GT$11deserialize17h0a3cb597ff1bfa34E', symObjAddr: 0xF944, symBinAddr: 0xF658, symSize: 0x18C }
  - { offset: 0x8E8CB, size: 0x8, addend: 0x0, symName: '__ZN99_$LT$powersync_core..sync..line..StreamSubscriptionErrorCause$u20$as$u20$serde..de..Deserialize$GT$11deserialize17he41d965873dc6728E', symObjAddr: 0xFAD0, symBinAddr: 0xF7E4, symSize: 0x20C }
  - { offset: 0x8ED09, size: 0x8, addend: 0x0, symName: '__ZN189_$LT$powersync_core..sync..line.._..$LT$impl$u20$serde..de..Deserialize$u20$for$u20$powersync_core..sync..line..Checkpoint$GT$..deserialize..__FieldVisitor$u20$as$u20$serde..de..Visitor$GT$9visit_str17h29212d6bf0411583E', symObjAddr: 0x102AC, symBinAddr: 0xFFC0, symSize: 0x98 }
  - { offset: 0x8EE3F, size: 0x8, addend: 0x0, symName: '__ZN196_$LT$powersync_core..sync..line.._..$LT$impl$u20$serde..de..Deserialize$u20$for$u20$powersync_core..sync..line..StreamDescription$GT$..deserialize..__FieldVisitor$u20$as$u20$serde..de..Visitor$GT$9visit_str17ha58532e0453c0146E', symObjAddr: 0x10344, symBinAddr: 0x10058, symSize: 0x7C }
  - { offset: 0x8EF3A, size: 0x8, addend: 0x0, symName: '__ZN202_$LT$powersync_core..sync..line.._..$LT$impl$u20$serde..de..Deserialize$u20$for$u20$powersync_core..sync..line..StreamSubscriptionError$GT$..deserialize..__FieldVisitor$u20$as$u20$serde..de..Visitor$GT$9visit_str17ha1612c2c3ca5f3bbE', symObjAddr: 0x103C0, symBinAddr: 0x100D4, symSize: 0x60 }
  - { offset: 0x8EFFA, size: 0x8, addend: 0x0, symName: '__ZN193_$LT$powersync_core..sync..line.._..$LT$impl$u20$serde..de..Deserialize$u20$for$u20$powersync_core..sync..line..CheckpointDiff$GT$..deserialize..__FieldVisitor$u20$as$u20$serde..de..Visitor$GT$9visit_str17h25a12a46a65df79aE', symObjAddr: 0x10420, symBinAddr: 0x10134, symSize: 0x98 }
  - { offset: 0x8F130, size: 0x8, addend: 0x0, symName: '__ZN206_$LT$powersync_core..sync..line.._..$LT$impl$u20$serde..de..Deserialize$u20$for$u20$powersync_core..sync..line..CheckpointPartiallyComplete$GT$..deserialize..__FieldVisitor$u20$as$u20$serde..de..Visitor$GT$9visit_str17hc4f4ff9f33ad0350E', symObjAddr: 0x104B8, symBinAddr: 0x101CC, symSize: 0x38 }
  - { offset: 0x8F1B5, size: 0x8, addend: 0x0, symName: '__ZN193_$LT$powersync_core..sync..line.._..$LT$impl$u20$serde..de..Deserialize$u20$for$u20$powersync_core..sync..line..BucketChecksum$GT$..deserialize..__FieldVisitor$u20$as$u20$serde..de..Visitor$GT$9visit_str17hea441ddf6fa04cf1E', symObjAddr: 0x104F0, symBinAddr: 0x10204, symSize: 0xB4 }
  - { offset: 0x8F35E, size: 0x8, addend: 0x0, symName: '__ZN187_$LT$powersync_core..sync..line.._..$LT$impl$u20$serde..de..Deserialize$u20$for$u20$powersync_core..sync..line..DataLine$GT$..deserialize..__FieldVisitor$u20$as$u20$serde..de..Visitor$GT$9visit_str17hbf9443d0cd9c91beE', symObjAddr: 0x10A24, symBinAddr: 0x10738, symSize: 0x60 }
  - { offset: 0x8F41F, size: 0x8, addend: 0x0, symName: '__ZN189_$LT$powersync_core..sync..line.._..$LT$impl$u20$serde..de..Deserialize$u20$for$u20$powersync_core..sync..line..OplogEntry$GT$..deserialize..__FieldVisitor$u20$as$u20$serde..de..Visitor$GT$9visit_str17h5f7a01ed3f8d637eE', symObjAddr: 0x10A84, symBinAddr: 0x10798, symSize: 0xF0 }
  - { offset: 0x8F64C, size: 0x8, addend: 0x0, symName: '__ZN185_$LT$powersync_core..sync..line.._..$LT$impl$u20$serde..de..Deserialize$u20$for$u20$powersync_core..sync..line..OpType$GT$..deserialize..__FieldVisitor$u20$as$u20$serde..de..Visitor$GT$9visit_str17h3e532593e727fec6E', symObjAddr: 0x112D8, symBinAddr: 0x10FEC, symSize: 0xB0 }
  - { offset: 0x8F789, size: 0x8, addend: 0x0, symName: '__ZN185_$LT$powersync_core..sync..line.._..$LT$impl$u20$serde..de..Deserialize$u20$for$u20$powersync_core..sync..line..OpType$GT$..deserialize..__FieldVisitor$u20$as$u20$serde..de..Visitor$GT$11visit_bytes17h724c76a19226da16E', symObjAddr: 0x11388, symBinAddr: 0x1109C, symSize: 0x230 }
  - { offset: 0x90A5A, size: 0x8, addend: 0x0, symName: '__ZN14powersync_core4sync4line1_91_$LT$impl$u20$serde..de..Deserialize$u20$for$u20$powersync_core..sync..line..Checkpoint$GT$11deserialize17h597668e15fedbe75E', symObjAddr: 0xFCDC, symBinAddr: 0xF9F0, symSize: 0x5D0 }
  - { offset: 0x912D5, size: 0x8, addend: 0x0, symName: '__ZN14powersync_core4sync4line1_89_$LT$impl$u20$serde..de..Deserialize$u20$for$u20$powersync_core..sync..line..DataLine$GT$11deserialize17h63b4daccfdd0bea7E', symObjAddr: 0x105A4, symBinAddr: 0x102B8, symSize: 0x480 }
  - { offset: 0x9177E, size: 0x8, addend: 0x0, symName: '__ZN14powersync_core4sync4line1_87_$LT$impl$u20$serde..de..Deserialize$u20$for$u20$powersync_core..sync..line..OpType$GT$11deserialize17ha0f8125b20a99113E', symObjAddr: 0x10B74, symBinAddr: 0x10888, symSize: 0x580 }
  - { offset: 0x91F17, size: 0x8, addend: 0x0, symName: '__ZN14powersync_core4sync4line1_87_$LT$impl$u20$serde..de..Deserialize$u20$for$u20$powersync_core..sync..line..OpType$GT$11deserialize17hc5584fe1d3a008b0E', symObjAddr: 0x110F4, symBinAddr: 0x10E08, symSize: 0x1E4 }
  - { offset: 0x925A2, size: 0x8, addend: 0x0, symName: '__ZN147_$LT$$LT$powersync_core..sync..line..SyncLine$u20$as$u20$serde..de..Deserialize$GT$..deserialize..SyncLineVisitor$u20$as$u20$serde..de..Visitor$GT$10visit_enum17h5f667a9790620182E', symObjAddr: 0xDBD4, symBinAddr: 0xD8E8, symSize: 0x1D70 }
  - { offset: 0x9715B, size: 0x8, addend: 0x0, symName: __ZN14powersync_core4diff14powersync_diff17h92650fcdb0478183E, symObjAddr: 0xD3B4, symBinAddr: 0xD0C8, symSize: 0x53C }
  - { offset: 0x988FE, size: 0x8, addend: 0x0, symName: __ZN5serde2de7Visitor10visit_bool17h0585a608fc2a05ccE, symObjAddr: 0xCB74, symBinAddr: 0x3E3F4, symSize: 0x34 }
  - { offset: 0x9894E, size: 0x8, addend: 0x0, symName: __ZN5serde2de7Visitor11visit_bytes17h17f74a8c75efb12aE, symObjAddr: 0xCBA8, symBinAddr: 0x3E428, symSize: 0x2C }
  - { offset: 0x9899E, size: 0x8, addend: 0x0, symName: __ZN5serde2de7Visitor11visit_bytes17h373ba646b4731f33E, symObjAddr: 0xCBD4, symBinAddr: 0x3E454, symSize: 0x2C }
  - { offset: 0x989EE, size: 0x8, addend: 0x0, symName: __ZN5serde2de7Visitor11visit_bytes17h4df4d3bd934f27a9E, symObjAddr: 0xCC00, symBinAddr: 0x3E480, symSize: 0x2C }
  - { offset: 0x98A3E, size: 0x8, addend: 0x0, symName: __ZN5serde2de7Visitor11visit_bytes17h5307beb2ec95f954E, symObjAddr: 0xCC2C, symBinAddr: 0x3E4AC, symSize: 0x2C }
  - { offset: 0x98A8E, size: 0x8, addend: 0x0, symName: __ZN5serde2de7Visitor11visit_bytes17h58455b5c3dbadd1cE, symObjAddr: 0xCC58, symBinAddr: 0x3E4D8, symSize: 0x2C }
  - { offset: 0x98ADE, size: 0x8, addend: 0x0, symName: __ZN5serde2de7Visitor11visit_bytes17h7463dd9316580452E, symObjAddr: 0xCC84, symBinAddr: 0x3E504, symSize: 0x2C }
  - { offset: 0x98B2E, size: 0x8, addend: 0x0, symName: __ZN5serde2de7Visitor11visit_bytes17h8929e29a33de0849E, symObjAddr: 0xCCB0, symBinAddr: 0x3E530, symSize: 0x2C }
  - { offset: 0x98B7E, size: 0x8, addend: 0x0, symName: __ZN5serde2de7Visitor11visit_bytes17h8dafd3c7c9133333E, symObjAddr: 0xCCDC, symBinAddr: 0x3E55C, symSize: 0x2C }
  - { offset: 0x98BCE, size: 0x8, addend: 0x0, symName: __ZN5serde2de7Visitor11visit_bytes17h8f471fc55d1171ceE, symObjAddr: 0xCD08, symBinAddr: 0x3E588, symSize: 0x2C }
  - { offset: 0x98C1E, size: 0x8, addend: 0x0, symName: __ZN5serde2de7Visitor11visit_bytes17h9860a3e9be9c7e90E, symObjAddr: 0xCD34, symBinAddr: 0x3E5B4, symSize: 0x2C }
  - { offset: 0x98C6E, size: 0x8, addend: 0x0, symName: __ZN5serde2de7Visitor11visit_bytes17hb380e0254d207e14E, symObjAddr: 0xCD60, symBinAddr: 0x3E5E0, symSize: 0x2C }
  - { offset: 0x98CBE, size: 0x8, addend: 0x0, symName: __ZN5serde2de7Visitor11visit_bytes17hc9f1bdac51f7b6dfE, symObjAddr: 0xCD8C, symBinAddr: 0x3E60C, symSize: 0x30 }
  - { offset: 0x98D0E, size: 0x8, addend: 0x0, symName: __ZN5serde2de7Visitor11visit_bytes17he8756a26eb38ef63E, symObjAddr: 0xCDBC, symBinAddr: 0x3E63C, symSize: 0x28 }
  - { offset: 0x98D5E, size: 0x8, addend: 0x0, symName: __ZN5serde2de7Visitor9visit_i6417hc56fa0d3e46a1743E, symObjAddr: 0xCDE4, symBinAddr: 0x3E664, symSize: 0x28 }
  - { offset: 0x98DAE, size: 0x8, addend: 0x0, symName: __ZN5serde2de7Visitor9visit_i6417h25d80e16aa7e2921E, symObjAddr: 0xCE0C, symBinAddr: 0x3E68C, symSize: 0x2C }
  - { offset: 0x98DFE, size: 0x8, addend: 0x0, symName: __ZN5serde2de7Visitor9visit_i6417h3bbbafd9c78c0b5aE, symObjAddr: 0xCE38, symBinAddr: 0x3E6B8, symSize: 0x2C }
  - { offset: 0x98E4E, size: 0x8, addend: 0x0, symName: __ZN5serde2de7Visitor9visit_i6417h0a6e6829909db55fE, symObjAddr: 0xCE64, symBinAddr: 0x3E6E4, symSize: 0x2C }
  - { offset: 0x98E9E, size: 0x8, addend: 0x0, symName: __ZN5serde2de7Visitor9visit_i6417h044e13057077ac59E, symObjAddr: 0xCE90, symBinAddr: 0x3E710, symSize: 0x2C }
  - { offset: 0x98EEE, size: 0x8, addend: 0x0, symName: __ZN5serde2de7Visitor9visit_i6417hcd53ea9bd581e690E, symObjAddr: 0xCEBC, symBinAddr: 0x3E73C, symSize: 0x2C }
  - { offset: 0x98F3E, size: 0x8, addend: 0x0, symName: __ZN5serde2de7Visitor9visit_i6417h2596a765631e1c44E, symObjAddr: 0xCEE8, symBinAddr: 0x3E768, symSize: 0x2C }
  - { offset: 0x98F8E, size: 0x8, addend: 0x0, symName: __ZN5serde2de7Visitor9visit_i6417hfad3da4ca21f4f69E, symObjAddr: 0xCF14, symBinAddr: 0x3E794, symSize: 0x28 }
  - { offset: 0x98FDE, size: 0x8, addend: 0x0, symName: __ZN5serde2de7Visitor9visit_i6417h7940caa76d2824d0E, symObjAddr: 0xCF3C, symBinAddr: 0x3E7BC, symSize: 0x2C }
  - { offset: 0x9902E, size: 0x8, addend: 0x0, symName: __ZN5serde2de7Visitor9visit_i6417hee18c059c3d5faadE, symObjAddr: 0xCF68, symBinAddr: 0x3E7E8, symSize: 0x30 }
  - { offset: 0x9907E, size: 0x8, addend: 0x0, symName: __ZN5serde2de7Visitor9visit_i6417hd2d2caf2e2bb2e94E, symObjAddr: 0xCF98, symBinAddr: 0x3E818, symSize: 0x2C }
  - { offset: 0x990CE, size: 0x8, addend: 0x0, symName: __ZN5serde2de7Visitor9visit_i6417hcd7324f6ee284bebE, symObjAddr: 0xCFC4, symBinAddr: 0x3E844, symSize: 0x2C }
  - { offset: 0x9911E, size: 0x8, addend: 0x0, symName: __ZN5serde2de7Visitor9visit_i6417h2f4631020f3d3057E, symObjAddr: 0xCFF0, symBinAddr: 0x3E870, symSize: 0x2C }
  - { offset: 0x9916E, size: 0x8, addend: 0x0, symName: __ZN5serde2de7Visitor9visit_i6417h4b3a9fb1cb996419E, symObjAddr: 0xD01C, symBinAddr: 0x3E89C, symSize: 0x2C }
  - { offset: 0x991BE, size: 0x8, addend: 0x0, symName: __ZN5serde2de7Visitor9visit_i6417h06344dc37cc8ef23E, symObjAddr: 0xD048, symBinAddr: 0x3E8C8, symSize: 0x2C }
  - { offset: 0x9920E, size: 0x8, addend: 0x0, symName: __ZN5serde2de7Visitor9visit_i6417h88179b62ea2fefc1E, symObjAddr: 0xD074, symBinAddr: 0x3E8F4, symSize: 0x2C }
  - { offset: 0x9925E, size: 0x8, addend: 0x0, symName: __ZN5serde2de7Visitor9visit_i6417h88a341e5f6e529eaE, symObjAddr: 0xD0A0, symBinAddr: 0x3E920, symSize: 0x2C }
  - { offset: 0x992AE, size: 0x8, addend: 0x0, symName: __ZN5serde2de7Visitor9visit_i6417h103a4acba3157ad8E, symObjAddr: 0xD0CC, symBinAddr: 0x3E94C, symSize: 0x2C }
  - { offset: 0x992FE, size: 0x8, addend: 0x0, symName: __ZN5serde2de7Visitor9visit_i6417hf50a041eed33f5bcE, symObjAddr: 0xD0F8, symBinAddr: 0x3E978, symSize: 0x2C }
  - { offset: 0x9934E, size: 0x8, addend: 0x0, symName: __ZN5serde2de7Visitor9visit_i6417h8d7e125ef9932b44E, symObjAddr: 0xD124, symBinAddr: 0x3E9A4, symSize: 0x2C }
  - { offset: 0x9939E, size: 0x8, addend: 0x0, symName: __ZN5serde2de7Visitor9visit_i6417he3e46c19edf02d8dE, symObjAddr: 0xD150, symBinAddr: 0x3E9D0, symSize: 0x2C }
  - { offset: 0x993EE, size: 0x8, addend: 0x0, symName: __ZN5serde2de7Visitor9visit_i6417h1f9b2fa15ab28715E, symObjAddr: 0xD17C, symBinAddr: 0x3E9FC, symSize: 0x2C }
  - { offset: 0x9943F, size: 0x8, addend: 0x0, symName: __ZN5serde2de7Visitor9visit_str17h288ae01b4604db94E, symObjAddr: 0xD1A8, symBinAddr: 0x3EA28, symSize: 0x2C }
  - { offset: 0x9948F, size: 0x8, addend: 0x0, symName: __ZN5serde2de7Visitor9visit_str17h46ca9726bf524098E, symObjAddr: 0xD1D4, symBinAddr: 0x3EA54, symSize: 0x2C }
  - { offset: 0x994DF, size: 0x8, addend: 0x0, symName: __ZN5serde2de7Visitor9visit_str17h53966bf19d99c840E, symObjAddr: 0xD200, symBinAddr: 0x3EA80, symSize: 0x30 }
  - { offset: 0x9952F, size: 0x8, addend: 0x0, symName: __ZN5serde2de7Visitor9visit_str17h7b3ec940f3d4b0f1E, symObjAddr: 0xD230, symBinAddr: 0x3EAB0, symSize: 0x2C }
  - { offset: 0x9957F, size: 0x8, addend: 0x0, symName: __ZN5serde2de7Visitor9visit_str17h8990f4942c784118E, symObjAddr: 0xD25C, symBinAddr: 0x3EADC, symSize: 0x2C }
  - { offset: 0x995CF, size: 0x8, addend: 0x0, symName: __ZN5serde2de7Visitor9visit_str17h8b8e978bfd9a682aE, symObjAddr: 0xD288, symBinAddr: 0x3EB08, symSize: 0x24 }
  - { offset: 0x9961F, size: 0x8, addend: 0x0, symName: __ZN5serde2de7Visitor9visit_str17h8d9e4e76aff49ec9E, symObjAddr: 0xD2AC, symBinAddr: 0x3EB2C, symSize: 0x2C }
  - { offset: 0x9966F, size: 0x8, addend: 0x0, symName: __ZN5serde2de7Visitor9visit_str17h9330c5e8eab46d4fE, symObjAddr: 0xD2D8, symBinAddr: 0x3EB58, symSize: 0x2C }
  - { offset: 0x996BF, size: 0x8, addend: 0x0, symName: __ZN5serde2de7Visitor9visit_str17hae5bb85c3abdd8e3E, symObjAddr: 0xD304, symBinAddr: 0x3EB84, symSize: 0x2C }
  - { offset: 0x9970F, size: 0x8, addend: 0x0, symName: __ZN5serde2de7Visitor9visit_str17hd3e085d97c9fec5dE, symObjAddr: 0xD330, symBinAddr: 0x3EBB0, symSize: 0x2C }
  - { offset: 0x9975F, size: 0x8, addend: 0x0, symName: __ZN5serde2de7Visitor9visit_str17he0f4fbd6c9c793c2E, symObjAddr: 0xD35C, symBinAddr: 0x3EBDC, symSize: 0x2C }
  - { offset: 0x997AF, size: 0x8, addend: 0x0, symName: __ZN5serde2de7Visitor9visit_str17hf5fd26a8dc27dff7E, symObjAddr: 0xD388, symBinAddr: 0x3EC08, symSize: 0x2C }
  - { offset: 0x9B02E, size: 0x8, addend: 0x0, symName: '__ZN41_$LT$T$u20$as$u20$serde..de..Expected$GT$3fmt17h062ee3dda46b3a1bE', symObjAddr: 0xBCE8, symBinAddr: 0xC23C, symSize: 0x14 }
  - { offset: 0x9B0A7, size: 0x8, addend: 0x0, symName: '__ZN41_$LT$T$u20$as$u20$serde..de..Expected$GT$3fmt17h06c767f159533c20E', symObjAddr: 0xBCFC, symBinAddr: 0xC250, symSize: 0x18 }
  - { offset: 0x9B120, size: 0x8, addend: 0x0, symName: '__ZN41_$LT$T$u20$as$u20$serde..de..Expected$GT$3fmt17h0741f97e855e6e63E', symObjAddr: 0xBD14, symBinAddr: 0xC268, symSize: 0x18 }
  - { offset: 0x9B198, size: 0x8, addend: 0x0, symName: '__ZN41_$LT$T$u20$as$u20$serde..de..Expected$GT$3fmt17h0cd00f549eea04cdE', symObjAddr: 0xBD2C, symBinAddr: 0xC280, symSize: 0x24 }
  - { offset: 0x9B211, size: 0x8, addend: 0x0, symName: '__ZN41_$LT$T$u20$as$u20$serde..de..Expected$GT$3fmt17h167ea57e9ad489aeE', symObjAddr: 0xBD50, symBinAddr: 0xC2A4, symSize: 0x18 }
  - { offset: 0x9B28B, size: 0x8, addend: 0x0, symName: '__ZN41_$LT$T$u20$as$u20$serde..de..Expected$GT$3fmt17h60def285656d56ddE', symObjAddr: 0xBD68, symBinAddr: 0xC2BC, symSize: 0x18 }
  - { offset: 0x9B303, size: 0x8, addend: 0x0, symName: '__ZN41_$LT$T$u20$as$u20$serde..de..Expected$GT$3fmt17h7379d3277fd803ddE', symObjAddr: 0xBD80, symBinAddr: 0xC2D4, symSize: 0x24 }
  - { offset: 0x9B37C, size: 0x8, addend: 0x0, symName: '__ZN41_$LT$T$u20$as$u20$serde..de..Expected$GT$3fmt17h96990bdf8d45e199E', symObjAddr: 0xBDA4, symBinAddr: 0xC2F8, symSize: 0x14 }
  - { offset: 0x9B3F5, size: 0x8, addend: 0x0, symName: '__ZN41_$LT$T$u20$as$u20$serde..de..Expected$GT$3fmt17h96dbe8a6267bf8b1E', symObjAddr: 0xBDB8, symBinAddr: 0xC30C, symSize: 0x24 }
  - { offset: 0x9B46E, size: 0x8, addend: 0x0, symName: '__ZN41_$LT$T$u20$as$u20$serde..de..Expected$GT$3fmt17h9d8650b06e315a6aE', symObjAddr: 0xBDDC, symBinAddr: 0xC330, symSize: 0x18 }
  - { offset: 0x9B4E7, size: 0x8, addend: 0x0, symName: '__ZN41_$LT$T$u20$as$u20$serde..de..Expected$GT$3fmt17ha16825c0bc075bf3E', symObjAddr: 0xBDF4, symBinAddr: 0xC348, symSize: 0x18 }
  - { offset: 0x9B560, size: 0x8, addend: 0x0, symName: '__ZN41_$LT$T$u20$as$u20$serde..de..Expected$GT$3fmt17ha8a07329afadd293E', symObjAddr: 0xBE0C, symBinAddr: 0xC360, symSize: 0x18 }
  - { offset: 0x9B5D9, size: 0x8, addend: 0x0, symName: '__ZN41_$LT$T$u20$as$u20$serde..de..Expected$GT$3fmt17ha9557cebe0509ec7E', symObjAddr: 0xBE24, symBinAddr: 0xC378, symSize: 0x18 }
  - { offset: 0x9B652, size: 0x8, addend: 0x0, symName: '__ZN41_$LT$T$u20$as$u20$serde..de..Expected$GT$3fmt17hbf968fea4bfb95bbE', symObjAddr: 0xBE3C, symBinAddr: 0xC390, symSize: 0x14 }
  - { offset: 0x9D241, size: 0x8, addend: 0x0, symName: '__ZN4core6result19Result$LT$T$C$E$GT$7map_err17h20e34c9e6a21e3c0E', symObjAddr: 0xD8F0, symBinAddr: 0xD604, symSize: 0x3C }
  - { offset: 0x9D5A4, size: 0x8, addend: 0x0, symName: _OUTLINED_FUNCTION_4, symObjAddr: 0x3B0E0, symBinAddr: 0x39CE0, symSize: 0x14 }
  - { offset: 0x9D5BB, size: 0x8, addend: 0x0, symName: _OUTLINED_FUNCTION_6, symObjAddr: 0x3B108, symBinAddr: 0x39D08, symSize: 0x14 }
  - { offset: 0x9D5D2, size: 0x8, addend: 0x0, symName: _OUTLINED_FUNCTION_8, symObjAddr: 0x3B130, symBinAddr: 0x39D30, symSize: 0x14 }
  - { offset: 0x9D5E9, size: 0x8, addend: 0x0, symName: _OUTLINED_FUNCTION_10, symObjAddr: 0x3B154, symBinAddr: 0x39D54, symSize: 0x10 }
  - { offset: 0x9D600, size: 0x8, addend: 0x0, symName: _OUTLINED_FUNCTION_14, symObjAddr: 0x3B19C, symBinAddr: 0x39D9C, symSize: 0xC }
  - { offset: 0x9D617, size: 0x8, addend: 0x0, symName: _OUTLINED_FUNCTION_15, symObjAddr: 0x3B1A8, symBinAddr: 0x39DA8, symSize: 0x10 }
  - { offset: 0x9D62E, size: 0x8, addend: 0x0, symName: _OUTLINED_FUNCTION_33, symObjAddr: 0x3B2DC, symBinAddr: 0x39EDC, symSize: 0x10 }
  - { offset: 0x9D645, size: 0x8, addend: 0x0, symName: _OUTLINED_FUNCTION_34, symObjAddr: 0x3B2EC, symBinAddr: 0x39EEC, symSize: 0x50 }
  - { offset: 0x9D65C, size: 0x8, addend: 0x0, symName: _OUTLINED_FUNCTION_40, symObjAddr: 0x3B3A0, symBinAddr: 0x39FA0, symSize: 0x1C }
  - { offset: 0x9D673, size: 0x8, addend: 0x0, symName: _OUTLINED_FUNCTION_42, symObjAddr: 0x3B3D8, symBinAddr: 0x39FD8, symSize: 0xC }
  - { offset: 0x9D68A, size: 0x8, addend: 0x0, symName: _OUTLINED_FUNCTION_45, symObjAddr: 0x3B40C, symBinAddr: 0x3A00C, symSize: 0xC }
  - { offset: 0x9D6A1, size: 0x8, addend: 0x0, symName: _OUTLINED_FUNCTION_50, symObjAddr: 0x3B45C, symBinAddr: 0x3A05C, symSize: 0xC }
  - { offset: 0x9D6B8, size: 0x8, addend: 0x0, symName: _OUTLINED_FUNCTION_52, symObjAddr: 0x3B47C, symBinAddr: 0x3A07C, symSize: 0x24 }
  - { offset: 0x9D6CF, size: 0x8, addend: 0x0, symName: _OUTLINED_FUNCTION_64, symObjAddr: 0x3B564, symBinAddr: 0x3A164, symSize: 0x10 }
  - { offset: 0x9D6E6, size: 0x8, addend: 0x0, symName: _OUTLINED_FUNCTION_67, symObjAddr: 0x3B594, symBinAddr: 0x3A194, symSize: 0xC }
  - { offset: 0x9D6FD, size: 0x8, addend: 0x0, symName: _OUTLINED_FUNCTION_69, symObjAddr: 0x3B5B0, symBinAddr: 0x3A1B0, symSize: 0x18 }
  - { offset: 0x9D714, size: 0x8, addend: 0x0, symName: _OUTLINED_FUNCTION_71, symObjAddr: 0x3B62C, symBinAddr: 0x3A22C, symSize: 0xC }
  - { offset: 0x9D72B, size: 0x8, addend: 0x0, symName: _OUTLINED_FUNCTION_74, symObjAddr: 0x3B66C, symBinAddr: 0x3A26C, symSize: 0xC }
  - { offset: 0x9D742, size: 0x8, addend: 0x0, symName: _OUTLINED_FUNCTION_75, symObjAddr: 0x3B678, symBinAddr: 0x3A278, symSize: 0x28 }
  - { offset: 0x9D759, size: 0x8, addend: 0x0, symName: _OUTLINED_FUNCTION_76, symObjAddr: 0x3B6A0, symBinAddr: 0x3A2A0, symSize: 0xC }
  - { offset: 0x9D770, size: 0x8, addend: 0x0, symName: _OUTLINED_FUNCTION_77, symObjAddr: 0x3B6AC, symBinAddr: 0x3A2AC, symSize: 0xC }
  - { offset: 0x9D787, size: 0x8, addend: 0x0, symName: _OUTLINED_FUNCTION_90, symObjAddr: 0x3B7B0, symBinAddr: 0x3A3B0, symSize: 0x10 }
  - { offset: 0x9D79E, size: 0x8, addend: 0x0, symName: _OUTLINED_FUNCTION_96, symObjAddr: 0x3B814, symBinAddr: 0x3A414, symSize: 0x30 }
  - { offset: 0x9D7B5, size: 0x8, addend: 0x0, symName: _OUTLINED_FUNCTION_105, symObjAddr: 0x3B8D8, symBinAddr: 0x3A4D8, symSize: 0x14 }
  - { offset: 0x9D7CC, size: 0x8, addend: 0x0, symName: _OUTLINED_FUNCTION_114, symObjAddr: 0x3B970, symBinAddr: 0x3A570, symSize: 0x2C }
  - { offset: 0x9D7E3, size: 0x8, addend: 0x0, symName: _OUTLINED_FUNCTION_127, symObjAddr: 0x3BAD4, symBinAddr: 0x3A6D4, symSize: 0x10 }
  - { offset: 0x9D7FA, size: 0x8, addend: 0x0, symName: _OUTLINED_FUNCTION_128, symObjAddr: 0x3BAE4, symBinAddr: 0x3A6E4, symSize: 0xC }
  - { offset: 0x9D811, size: 0x8, addend: 0x0, symName: _OUTLINED_FUNCTION_129, symObjAddr: 0x3BAF0, symBinAddr: 0x3A6F0, symSize: 0xC }
  - { offset: 0x9D828, size: 0x8, addend: 0x0, symName: _OUTLINED_FUNCTION_130, symObjAddr: 0x3BAFC, symBinAddr: 0x3A6FC, symSize: 0xC }
  - { offset: 0x9D83F, size: 0x8, addend: 0x0, symName: _OUTLINED_FUNCTION_133, symObjAddr: 0x3BB28, symBinAddr: 0x3A728, symSize: 0x24 }
  - { offset: 0x9D856, size: 0x8, addend: 0x0, symName: _OUTLINED_FUNCTION_134, symObjAddr: 0x3BB4C, symBinAddr: 0x3A74C, symSize: 0x18 }
  - { offset: 0x9D86D, size: 0x8, addend: 0x0, symName: _OUTLINED_FUNCTION_138, symObjAddr: 0x3BB98, symBinAddr: 0x3A798, symSize: 0x24 }
  - { offset: 0x9D884, size: 0x8, addend: 0x0, symName: _OUTLINED_FUNCTION_155, symObjAddr: 0x3BCFC, symBinAddr: 0x3A8FC, symSize: 0xC }
  - { offset: 0x9D89B, size: 0x8, addend: 0x0, symName: _OUTLINED_FUNCTION_156, symObjAddr: 0x3BD08, symBinAddr: 0x3A908, symSize: 0xC }
  - { offset: 0x9D8B2, size: 0x8, addend: 0x0, symName: _OUTLINED_FUNCTION_157, symObjAddr: 0x3BD14, symBinAddr: 0x3A914, symSize: 0xC }
  - { offset: 0x9D8C9, size: 0x8, addend: 0x0, symName: _OUTLINED_FUNCTION_158, symObjAddr: 0x3BD20, symBinAddr: 0x3A920, symSize: 0xC }
  - { offset: 0x9D8E0, size: 0x8, addend: 0x0, symName: _OUTLINED_FUNCTION_159, symObjAddr: 0x3BD2C, symBinAddr: 0x3A92C, symSize: 0xC }
  - { offset: 0x9D8F7, size: 0x8, addend: 0x0, symName: _OUTLINED_FUNCTION_160, symObjAddr: 0x3BD38, symBinAddr: 0x3A938, symSize: 0xC }
  - { offset: 0x9D90E, size: 0x8, addend: 0x0, symName: _OUTLINED_FUNCTION_163, symObjAddr: 0x3BD68, symBinAddr: 0x3A968, symSize: 0xC }
  - { offset: 0x9D925, size: 0x8, addend: 0x0, symName: _OUTLINED_FUNCTION_165, symObjAddr: 0x3BD8C, symBinAddr: 0x3A98C, symSize: 0x14 }
  - { offset: 0x9D93C, size: 0x8, addend: 0x0, symName: _OUTLINED_FUNCTION_173, symObjAddr: 0x3BDE0, symBinAddr: 0x3A9E0, symSize: 0x20 }
  - { offset: 0x9D953, size: 0x8, addend: 0x0, symName: _OUTLINED_FUNCTION_174, symObjAddr: 0x3BE00, symBinAddr: 0x3AA00, symSize: 0x20 }
  - { offset: 0x9D96A, size: 0x8, addend: 0x0, symName: _OUTLINED_FUNCTION_185, symObjAddr: 0x3BF00, symBinAddr: 0x3AB00, symSize: 0xC }
  - { offset: 0x9D981, size: 0x8, addend: 0x0, symName: _OUTLINED_FUNCTION_206, symObjAddr: 0x3C050, symBinAddr: 0x3AC50, symSize: 0xC }
  - { offset: 0x9D998, size: 0x8, addend: 0x0, symName: _OUTLINED_FUNCTION_224, symObjAddr: 0x3C10C, symBinAddr: 0x3AD0C, symSize: 0xC }
  - { offset: 0x9D9AF, size: 0x8, addend: 0x0, symName: _OUTLINED_FUNCTION_226, symObjAddr: 0x3C124, symBinAddr: 0x3AD24, symSize: 0xC }
  - { offset: 0x9D9C6, size: 0x8, addend: 0x0, symName: _OUTLINED_FUNCTION_228, symObjAddr: 0x3C138, symBinAddr: 0x3AD38, symSize: 0xC }
  - { offset: 0x9D9DD, size: 0x8, addend: 0x0, symName: _OUTLINED_FUNCTION_231, symObjAddr: 0x3C16C, symBinAddr: 0x3AD6C, symSize: 0x1C }
  - { offset: 0x9D9F4, size: 0x8, addend: 0x0, symName: _OUTLINED_FUNCTION_232, symObjAddr: 0x3C188, symBinAddr: 0x3AD88, symSize: 0x10 }
  - { offset: 0x9DA0B, size: 0x8, addend: 0x0, symName: _OUTLINED_FUNCTION_233, symObjAddr: 0x3C198, symBinAddr: 0x3AD98, symSize: 0x10 }
  - { offset: 0x9DA22, size: 0x8, addend: 0x0, symName: _OUTLINED_FUNCTION_234, symObjAddr: 0x3C1A8, symBinAddr: 0x3ADA8, symSize: 0x10 }
  - { offset: 0x9DA39, size: 0x8, addend: 0x0, symName: _OUTLINED_FUNCTION_235, symObjAddr: 0x3C1B8, symBinAddr: 0x3ADB8, symSize: 0xC }
  - { offset: 0x9DA50, size: 0x8, addend: 0x0, symName: _OUTLINED_FUNCTION_237, symObjAddr: 0x3C1D4, symBinAddr: 0x3ADD4, symSize: 0x1C }
  - { offset: 0x9DA67, size: 0x8, addend: 0x0, symName: _OUTLINED_FUNCTION_240, symObjAddr: 0x3C21C, symBinAddr: 0x3AE1C, symSize: 0x10 }
  - { offset: 0x9DA7E, size: 0x8, addend: 0x0, symName: _OUTLINED_FUNCTION_271, symObjAddr: 0x3C3CC, symBinAddr: 0x3AFCC, symSize: 0xC }
  - { offset: 0x9DA95, size: 0x8, addend: 0x0, symName: _OUTLINED_FUNCTION_285, symObjAddr: 0x3C4B4, symBinAddr: 0x3B0B4, symSize: 0xC }
  - { offset: 0x9DAAC, size: 0x8, addend: 0x0, symName: _OUTLINED_FUNCTION_308, symObjAddr: 0x3C5D8, symBinAddr: 0x3B1D8, symSize: 0x10 }
  - { offset: 0x9DAC3, size: 0x8, addend: 0x0, symName: _OUTLINED_FUNCTION_315, symObjAddr: 0x3C634, symBinAddr: 0x3B234, symSize: 0xC }
  - { offset: 0x9DADA, size: 0x8, addend: 0x0, symName: _OUTLINED_FUNCTION_316, symObjAddr: 0x3C640, symBinAddr: 0x3B240, symSize: 0xC }
  - { offset: 0x9DAF1, size: 0x8, addend: 0x0, symName: _OUTLINED_FUNCTION_319, symObjAddr: 0x3C660, symBinAddr: 0x3B260, symSize: 0x10 }
  - { offset: 0x9DB08, size: 0x8, addend: 0x0, symName: _OUTLINED_FUNCTION_320, symObjAddr: 0x3C670, symBinAddr: 0x3B270, symSize: 0x10 }
  - { offset: 0x9DB1F, size: 0x8, addend: 0x0, symName: _OUTLINED_FUNCTION_339, symObjAddr: 0x3C770, symBinAddr: 0x3B370, symSize: 0x8 }
  - { offset: 0x9DB36, size: 0x8, addend: 0x0, symName: _OUTLINED_FUNCTION_349, symObjAddr: 0x3C7F0, symBinAddr: 0x3B3F0, symSize: 0x10 }
  - { offset: 0x9DB4D, size: 0x8, addend: 0x0, symName: _OUTLINED_FUNCTION_350, symObjAddr: 0x3C800, symBinAddr: 0x3B400, symSize: 0xC }
  - { offset: 0x9DB64, size: 0x8, addend: 0x0, symName: _OUTLINED_FUNCTION_352, symObjAddr: 0x3C818, symBinAddr: 0x3B418, symSize: 0xC }
  - { offset: 0x9DB7B, size: 0x8, addend: 0x0, symName: _OUTLINED_FUNCTION_366, symObjAddr: 0x3C8C0, symBinAddr: 0x3B4C0, symSize: 0xC }
  - { offset: 0x9DB92, size: 0x8, addend: 0x0, symName: _OUTLINED_FUNCTION_370, symObjAddr: 0x3C928, symBinAddr: 0x3B528, symSize: 0x8 }
  - { offset: 0x9DBA9, size: 0x8, addend: 0x0, symName: _OUTLINED_FUNCTION_378, symObjAddr: 0x3C9A8, symBinAddr: 0x3B5A8, symSize: 0x10 }
  - { offset: 0x9DBC0, size: 0x8, addend: 0x0, symName: _OUTLINED_FUNCTION_388, symObjAddr: 0x3CA60, symBinAddr: 0x3B660, symSize: 0xC }
  - { offset: 0x9DBD7, size: 0x8, addend: 0x0, symName: _OUTLINED_FUNCTION_404, symObjAddr: 0x3CB38, symBinAddr: 0x3B738, symSize: 0xC }
  - { offset: 0x9DBEE, size: 0x8, addend: 0x0, symName: _OUTLINED_FUNCTION_407, symObjAddr: 0x3CB70, symBinAddr: 0x3B770, symSize: 0x8 }
  - { offset: 0x9DC05, size: 0x8, addend: 0x0, symName: _OUTLINED_FUNCTION_416, symObjAddr: 0x3CBD8, symBinAddr: 0x3B7D8, symSize: 0xC }
  - { offset: 0x9DC1C, size: 0x8, addend: 0x0, symName: _OUTLINED_FUNCTION_421, symObjAddr: 0x3CC10, symBinAddr: 0x3B810, symSize: 0xC }
  - { offset: 0x9DC33, size: 0x8, addend: 0x0, symName: _OUTLINED_FUNCTION_428, symObjAddr: 0x3CC50, symBinAddr: 0x3B850, symSize: 0x8 }
  - { offset: 0x9DC4A, size: 0x8, addend: 0x0, symName: _OUTLINED_FUNCTION_439, symObjAddr: 0x3CCB0, symBinAddr: 0x3B8B0, symSize: 0x8 }
  - { offset: 0x9DC61, size: 0x8, addend: 0x0, symName: _OUTLINED_FUNCTION_455, symObjAddr: 0x3CD90, symBinAddr: 0x3B990, symSize: 0x8 }
  - { offset: 0x9DC78, size: 0x8, addend: 0x0, symName: _OUTLINED_FUNCTION_457, symObjAddr: 0x3CDA0, symBinAddr: 0x3B9A0, symSize: 0x1C }
  - { offset: 0x9DC8F, size: 0x8, addend: 0x0, symName: _OUTLINED_FUNCTION_466, symObjAddr: 0x3CE4C, symBinAddr: 0x3BA4C, symSize: 0x8 }
  - { offset: 0x9DCA6, size: 0x8, addend: 0x0, symName: _OUTLINED_FUNCTION_488, symObjAddr: 0x3CFC8, symBinAddr: 0x3BBC8, symSize: 0xC }
  - { offset: 0x9DCBD, size: 0x8, addend: 0x0, symName: _OUTLINED_FUNCTION_490, symObjAddr: 0x3D000, symBinAddr: 0x3BC00, symSize: 0xC }
  - { offset: 0x9DCD4, size: 0x8, addend: 0x0, symName: _OUTLINED_FUNCTION_496, symObjAddr: 0x3D048, symBinAddr: 0x3BC48, symSize: 0xC }
  - { offset: 0x9DCEB, size: 0x8, addend: 0x0, symName: _OUTLINED_FUNCTION_497, symObjAddr: 0x3D054, symBinAddr: 0x3BC54, symSize: 0x8 }
  - { offset: 0x9DD02, size: 0x8, addend: 0x0, symName: _OUTLINED_FUNCTION_509, symObjAddr: 0x3D0FC, symBinAddr: 0x3BCFC, symSize: 0x14 }
  - { offset: 0x9DD19, size: 0x8, addend: 0x0, symName: _OUTLINED_FUNCTION_510, symObjAddr: 0x3D110, symBinAddr: 0x3BD10, symSize: 0x10 }
  - { offset: 0x9DD30, size: 0x8, addend: 0x0, symName: _OUTLINED_FUNCTION_512, symObjAddr: 0x3D12C, symBinAddr: 0x3BD2C, symSize: 0x8 }
  - { offset: 0x9DD47, size: 0x8, addend: 0x0, symName: _OUTLINED_FUNCTION_514, symObjAddr: 0x3D148, symBinAddr: 0x3BD48, symSize: 0xC }
  - { offset: 0x9DD5E, size: 0x8, addend: 0x0, symName: _OUTLINED_FUNCTION_515, symObjAddr: 0x3D154, symBinAddr: 0x3BD54, symSize: 0x10 }
  - { offset: 0x9DD75, size: 0x8, addend: 0x0, symName: _OUTLINED_FUNCTION_521, symObjAddr: 0x3D1B4, symBinAddr: 0x3BDB4, symSize: 0x14 }
  - { offset: 0x9DD8C, size: 0x8, addend: 0x0, symName: _OUTLINED_FUNCTION_527, symObjAddr: 0x3D230, symBinAddr: 0x3BE30, symSize: 0x14 }
  - { offset: 0x9DDA3, size: 0x8, addend: 0x0, symName: _OUTLINED_FUNCTION_529, symObjAddr: 0x3D250, symBinAddr: 0x3BE50, symSize: 0x14 }
  - { offset: 0x9DDBA, size: 0x8, addend: 0x0, symName: _OUTLINED_FUNCTION_530, symObjAddr: 0x3D264, symBinAddr: 0x3BE64, symSize: 0x14 }
  - { offset: 0x9DDD1, size: 0x8, addend: 0x0, symName: _OUTLINED_FUNCTION_532, symObjAddr: 0x3D288, symBinAddr: 0x3BE88, symSize: 0x14 }
  - { offset: 0x9DDE8, size: 0x8, addend: 0x0, symName: _OUTLINED_FUNCTION_548, symObjAddr: 0x3D330, symBinAddr: 0x3BF30, symSize: 0x14 }
  - { offset: 0x9DDFF, size: 0x8, addend: 0x0, symName: _OUTLINED_FUNCTION_559, symObjAddr: 0x3D3C4, symBinAddr: 0x3BFC4, symSize: 0xC }
  - { offset: 0x9DE16, size: 0x8, addend: 0x0, symName: _OUTLINED_FUNCTION_582, symObjAddr: 0x3D4E0, symBinAddr: 0x3C0E0, symSize: 0x8 }
  - { offset: 0x9DE2D, size: 0x8, addend: 0x0, symName: _OUTLINED_FUNCTION_583, symObjAddr: 0x3D4E8, symBinAddr: 0x3C0E8, symSize: 0x14 }
  - { offset: 0x9DE44, size: 0x8, addend: 0x0, symName: _OUTLINED_FUNCTION_588, symObjAddr: 0x3D548, symBinAddr: 0x3C148, symSize: 0xC }
  - { offset: 0x9DE5B, size: 0x8, addend: 0x0, symName: _OUTLINED_FUNCTION_592, symObjAddr: 0x3D57C, symBinAddr: 0x3C17C, symSize: 0x8 }
  - { offset: 0x9DE72, size: 0x8, addend: 0x0, symName: _OUTLINED_FUNCTION_597, symObjAddr: 0x3D5B8, symBinAddr: 0x3C1B8, symSize: 0x14 }
  - { offset: 0x9DE89, size: 0x8, addend: 0x0, symName: _OUTLINED_FUNCTION_611, symObjAddr: 0x3D654, symBinAddr: 0x3C254, symSize: 0xC }
  - { offset: 0x9DEA0, size: 0x8, addend: 0x0, symName: _OUTLINED_FUNCTION_618, symObjAddr: 0x3D6E0, symBinAddr: 0x3C2E0, symSize: 0xC }
  - { offset: 0x9DEB7, size: 0x8, addend: 0x0, symName: _OUTLINED_FUNCTION_620, symObjAddr: 0x3D710, symBinAddr: 0x3C310, symSize: 0xC }
  - { offset: 0x9DECE, size: 0x8, addend: 0x0, symName: _OUTLINED_FUNCTION_631, symObjAddr: 0x3D7F4, symBinAddr: 0x3C3F4, symSize: 0xC }
  - { offset: 0x9DEE5, size: 0x8, addend: 0x0, symName: _OUTLINED_FUNCTION_633, symObjAddr: 0x3D80C, symBinAddr: 0x3C40C, symSize: 0xC }
  - { offset: 0x9DEFC, size: 0x8, addend: 0x0, symName: _OUTLINED_FUNCTION_674, symObjAddr: 0x3DA14, symBinAddr: 0x3C614, symSize: 0x20 }
  - { offset: 0x9DF13, size: 0x8, addend: 0x0, symName: _OUTLINED_FUNCTION_678, symObjAddr: 0x3DA94, symBinAddr: 0x3C694, symSize: 0xC }
  - { offset: 0x9DF2A, size: 0x8, addend: 0x0, symName: _OUTLINED_FUNCTION_680, symObjAddr: 0x3DAAC, symBinAddr: 0x3C6AC, symSize: 0x20 }
  - { offset: 0x9DF41, size: 0x8, addend: 0x0, symName: _OUTLINED_FUNCTION_709, symObjAddr: 0x3DCA0, symBinAddr: 0x3C8A0, symSize: 0x8 }
  - { offset: 0x9DF58, size: 0x8, addend: 0x0, symName: _OUTLINED_FUNCTION_713, symObjAddr: 0x3DCC0, symBinAddr: 0x3C8C0, symSize: 0xC }
  - { offset: 0x9DF6F, size: 0x8, addend: 0x0, symName: _OUTLINED_FUNCTION_714, symObjAddr: 0x3DCCC, symBinAddr: 0x3C8CC, symSize: 0xC }
  - { offset: 0x9DF86, size: 0x8, addend: 0x0, symName: _OUTLINED_FUNCTION_723, symObjAddr: 0x3DD3C, symBinAddr: 0x3C93C, symSize: 0x8 }
  - { offset: 0x9DF9D, size: 0x8, addend: 0x0, symName: _OUTLINED_FUNCTION_727, symObjAddr: 0x3DD64, symBinAddr: 0x3C964, symSize: 0xC }
  - { offset: 0x9DFB4, size: 0x8, addend: 0x0, symName: _OUTLINED_FUNCTION_728, symObjAddr: 0x3DD70, symBinAddr: 0x3C970, symSize: 0xC }
  - { offset: 0x9DFCB, size: 0x8, addend: 0x0, symName: _OUTLINED_FUNCTION_732, symObjAddr: 0x3DD9C, symBinAddr: 0x3C99C, symSize: 0x10 }
  - { offset: 0x9DFE2, size: 0x8, addend: 0x0, symName: _OUTLINED_FUNCTION_735, symObjAddr: 0x3DDBC, symBinAddr: 0x3C9BC, symSize: 0xC }
  - { offset: 0x9DFF9, size: 0x8, addend: 0x0, symName: _OUTLINED_FUNCTION_736, symObjAddr: 0x3DDC8, symBinAddr: 0x3C9C8, symSize: 0x8 }
  - { offset: 0x9E010, size: 0x8, addend: 0x0, symName: _OUTLINED_FUNCTION_737, symObjAddr: 0x3DDD0, symBinAddr: 0x3C9D0, symSize: 0x8 }
  - { offset: 0x9E027, size: 0x8, addend: 0x0, symName: _OUTLINED_FUNCTION_738, symObjAddr: 0x3DDD8, symBinAddr: 0x3C9D8, symSize: 0xC }
  - { offset: 0x9E03E, size: 0x8, addend: 0x0, symName: _OUTLINED_FUNCTION_739, symObjAddr: 0x3DDE4, symBinAddr: 0x3C9E4, symSize: 0xC }
  - { offset: 0x9E055, size: 0x8, addend: 0x0, symName: _OUTLINED_FUNCTION_749, symObjAddr: 0x3DE74, symBinAddr: 0x3CA74, symSize: 0x10 }
  - { offset: 0x9E06C, size: 0x8, addend: 0x0, symName: _OUTLINED_FUNCTION_760, symObjAddr: 0x3DF18, symBinAddr: 0x3CB18, symSize: 0xC }
  - { offset: 0x9E083, size: 0x8, addend: 0x0, symName: _OUTLINED_FUNCTION_770, symObjAddr: 0x3DFA4, symBinAddr: 0x3CBA4, symSize: 0xC }
  - { offset: 0x9E09A, size: 0x8, addend: 0x0, symName: _OUTLINED_FUNCTION_779, symObjAddr: 0x3E00C, symBinAddr: 0x3CC0C, symSize: 0xC }
  - { offset: 0x9E0B1, size: 0x8, addend: 0x0, symName: _OUTLINED_FUNCTION_784, symObjAddr: 0x3E058, symBinAddr: 0x3CC58, symSize: 0x8 }
  - { offset: 0x9E0C8, size: 0x8, addend: 0x0, symName: _OUTLINED_FUNCTION_787, symObjAddr: 0x3E070, symBinAddr: 0x3CC70, symSize: 0xC }
  - { offset: 0x9E0DF, size: 0x8, addend: 0x0, symName: _OUTLINED_FUNCTION_801, symObjAddr: 0x3E108, symBinAddr: 0x3CD08, symSize: 0xC }
  - { offset: 0x9E0F6, size: 0x8, addend: 0x0, symName: _OUTLINED_FUNCTION_811, symObjAddr: 0x3E190, symBinAddr: 0x3CD90, symSize: 0xC }
  - { offset: 0x9E10D, size: 0x8, addend: 0x0, symName: _OUTLINED_FUNCTION_812, symObjAddr: 0x3E19C, symBinAddr: 0x3CD9C, symSize: 0x8 }
  - { offset: 0x9E124, size: 0x8, addend: 0x0, symName: _OUTLINED_FUNCTION_815, symObjAddr: 0x3E1DC, symBinAddr: 0x3CDDC, symSize: 0xC }
  - { offset: 0x9E13B, size: 0x8, addend: 0x0, symName: _OUTLINED_FUNCTION_827, symObjAddr: 0x3E254, symBinAddr: 0x3CE54, symSize: 0x10 }
  - { offset: 0x9E152, size: 0x8, addend: 0x0, symName: _OUTLINED_FUNCTION_828, symObjAddr: 0x3E264, symBinAddr: 0x3CE64, symSize: 0x10 }
  - { offset: 0x9E169, size: 0x8, addend: 0x0, symName: _OUTLINED_FUNCTION_829, symObjAddr: 0x3E274, symBinAddr: 0x3CE74, symSize: 0x10 }
  - { offset: 0x9E180, size: 0x8, addend: 0x0, symName: _OUTLINED_FUNCTION_831, symObjAddr: 0x3E294, symBinAddr: 0x3CE94, symSize: 0x10 }
  - { offset: 0x9E197, size: 0x8, addend: 0x0, symName: _OUTLINED_FUNCTION_834, symObjAddr: 0x3E2C4, symBinAddr: 0x3CEC4, symSize: 0x10 }
  - { offset: 0x9E1AE, size: 0x8, addend: 0x0, symName: _OUTLINED_FUNCTION_835, symObjAddr: 0x3E2D4, symBinAddr: 0x3CED4, symSize: 0x10 }
  - { offset: 0x9E1C5, size: 0x8, addend: 0x0, symName: _OUTLINED_FUNCTION_838, symObjAddr: 0x3E304, symBinAddr: 0x3CF04, symSize: 0x10 }
  - { offset: 0x9E1DC, size: 0x8, addend: 0x0, symName: _OUTLINED_FUNCTION_839, symObjAddr: 0x3E314, symBinAddr: 0x3CF14, symSize: 0x10 }
  - { offset: 0x9E1F3, size: 0x8, addend: 0x0, symName: _OUTLINED_FUNCTION_841, symObjAddr: 0x3E334, symBinAddr: 0x3CF34, symSize: 0x10 }
  - { offset: 0x9E20A, size: 0x8, addend: 0x0, symName: _OUTLINED_FUNCTION_842, symObjAddr: 0x3E344, symBinAddr: 0x3CF44, symSize: 0x10 }
  - { offset: 0x9E221, size: 0x8, addend: 0x0, symName: _OUTLINED_FUNCTION_844, symObjAddr: 0x3E364, symBinAddr: 0x3CF64, symSize: 0x10 }
  - { offset: 0x9E238, size: 0x8, addend: 0x0, symName: _OUTLINED_FUNCTION_876, symObjAddr: 0x3E594, symBinAddr: 0x3D194, symSize: 0xC }
  - { offset: 0x9E24F, size: 0x8, addend: 0x0, symName: _OUTLINED_FUNCTION_878, symObjAddr: 0x3E5B8, symBinAddr: 0x3D1B8, symSize: 0xC }
  - { offset: 0x9E266, size: 0x8, addend: 0x0, symName: _OUTLINED_FUNCTION_891, symObjAddr: 0x3E678, symBinAddr: 0x3D278, symSize: 0xC }
  - { offset: 0x9E27D, size: 0x8, addend: 0x0, symName: _OUTLINED_FUNCTION_899, symObjAddr: 0x3E714, symBinAddr: 0x3D314, symSize: 0xC }
  - { offset: 0x9E294, size: 0x8, addend: 0x0, symName: _OUTLINED_FUNCTION_902, symObjAddr: 0x3E738, symBinAddr: 0x3D338, symSize: 0xC }
  - { offset: 0x9E2AB, size: 0x8, addend: 0x0, symName: _OUTLINED_FUNCTION_917, symObjAddr: 0x3E7F8, symBinAddr: 0x3D3F8, symSize: 0xC }
  - { offset: 0x9E2C2, size: 0x8, addend: 0x0, symName: _OUTLINED_FUNCTION_924, symObjAddr: 0x3E84C, symBinAddr: 0x3D44C, symSize: 0xC }
  - { offset: 0x9E2D9, size: 0x8, addend: 0x0, symName: _OUTLINED_FUNCTION_930, symObjAddr: 0x3E8A0, symBinAddr: 0x3D4A0, symSize: 0x8 }
  - { offset: 0x9E2F0, size: 0x8, addend: 0x0, symName: _OUTLINED_FUNCTION_938, symObjAddr: 0x3E8F8, symBinAddr: 0x3D4F8, symSize: 0x8 }
  - { offset: 0x9E307, size: 0x8, addend: 0x0, symName: _OUTLINED_FUNCTION_945, symObjAddr: 0x3E93C, symBinAddr: 0x3D53C, symSize: 0xC }
  - { offset: 0x9E31E, size: 0x8, addend: 0x0, symName: _OUTLINED_FUNCTION_948, symObjAddr: 0x3E96C, symBinAddr: 0x3D56C, symSize: 0xC }
  - { offset: 0x9E335, size: 0x8, addend: 0x0, symName: _OUTLINED_FUNCTION_952, symObjAddr: 0x3E9A8, symBinAddr: 0x3D5A8, symSize: 0x8 }
  - { offset: 0x9E34C, size: 0x8, addend: 0x0, symName: _OUTLINED_FUNCTION_965, symObjAddr: 0x3EA2C, symBinAddr: 0x3D62C, symSize: 0xC }
  - { offset: 0x9E363, size: 0x8, addend: 0x0, symName: _OUTLINED_FUNCTION_967, symObjAddr: 0x3EA44, symBinAddr: 0x3D644, symSize: 0xC }
  - { offset: 0x9E37A, size: 0x8, addend: 0x0, symName: _OUTLINED_FUNCTION_968, symObjAddr: 0x3EA50, symBinAddr: 0x3D650, symSize: 0xC }
  - { offset: 0x9E391, size: 0x8, addend: 0x0, symName: _OUTLINED_FUNCTION_977, symObjAddr: 0x3EAB0, symBinAddr: 0x3D6B0, symSize: 0x8 }
  - { offset: 0x9E3A8, size: 0x8, addend: 0x0, symName: _OUTLINED_FUNCTION_978, symObjAddr: 0x3EAB8, symBinAddr: 0x3D6B8, symSize: 0x8 }
  - { offset: 0x9E3BF, size: 0x8, addend: 0x0, symName: _OUTLINED_FUNCTION_985, symObjAddr: 0x3EAFC, symBinAddr: 0x3D6FC, symSize: 0xC }
  - { offset: 0x9E3D6, size: 0x8, addend: 0x0, symName: _OUTLINED_FUNCTION_986, symObjAddr: 0x3EB08, symBinAddr: 0x3D708, symSize: 0x8 }
  - { offset: 0x9E3ED, size: 0x8, addend: 0x0, symName: _OUTLINED_FUNCTION_997, symObjAddr: 0x3EB74, symBinAddr: 0x3D774, symSize: 0x8 }
  - { offset: 0x9E404, size: 0x8, addend: 0x0, symName: _OUTLINED_FUNCTION_1023, symObjAddr: 0x3EC6C, symBinAddr: 0x3D86C, symSize: 0x8 }
  - { offset: 0x9E41B, size: 0x8, addend: 0x0, symName: _OUTLINED_FUNCTION_1050, symObjAddr: 0x3ED74, symBinAddr: 0x3D974, symSize: 0x8 }
  - { offset: 0x9E432, size: 0x8, addend: 0x0, symName: _OUTLINED_FUNCTION_1052, symObjAddr: 0x3ED84, symBinAddr: 0x3D984, symSize: 0x8 }
  - { offset: 0x9E449, size: 0x8, addend: 0x0, symName: _OUTLINED_FUNCTION_1055, symObjAddr: 0x3ED9C, symBinAddr: 0x3D99C, symSize: 0xC }
  - { offset: 0x9E460, size: 0x8, addend: 0x0, symName: _OUTLINED_FUNCTION_1056, symObjAddr: 0x3EDA8, symBinAddr: 0x3D9A8, symSize: 0x8 }
  - { offset: 0x9E477, size: 0x8, addend: 0x0, symName: _OUTLINED_FUNCTION_1077, symObjAddr: 0x3EE74, symBinAddr: 0x3DA74, symSize: 0x8 }
  - { offset: 0x9E48E, size: 0x8, addend: 0x0, symName: _OUTLINED_FUNCTION_1109, symObjAddr: 0x3EFC8, symBinAddr: 0x3DBC8, symSize: 0x14 }
  - { offset: 0x9E4A5, size: 0x8, addend: 0x0, symName: _OUTLINED_FUNCTION_1112, symObjAddr: 0x3F004, symBinAddr: 0x3DC04, symSize: 0xC }
  - { offset: 0x9E4BC, size: 0x8, addend: 0x0, symName: _OUTLINED_FUNCTION_1119, symObjAddr: 0x3F068, symBinAddr: 0x3DC68, symSize: 0x14 }
  - { offset: 0x9E4D3, size: 0x8, addend: 0x0, symName: _OUTLINED_FUNCTION_1127, symObjAddr: 0x3F0E0, symBinAddr: 0x3DCE0, symSize: 0x14 }
  - { offset: 0x9E4EA, size: 0x8, addend: 0x0, symName: _OUTLINED_FUNCTION_1143, symObjAddr: 0x3F1E0, symBinAddr: 0x3DDE0, symSize: 0xC }
  - { offset: 0x9E501, size: 0x8, addend: 0x0, symName: _OUTLINED_FUNCTION_1156, symObjAddr: 0x3F294, symBinAddr: 0x3DE94, symSize: 0x14 }
  - { offset: 0x9E518, size: 0x8, addend: 0x0, symName: _OUTLINED_FUNCTION_1165, symObjAddr: 0x3F328, symBinAddr: 0x3DF28, symSize: 0xC }
  - { offset: 0x9E52F, size: 0x8, addend: 0x0, symName: _OUTLINED_FUNCTION_1172, symObjAddr: 0x3F38C, symBinAddr: 0x3DF8C, symSize: 0xC }
  - { offset: 0x9E546, size: 0x8, addend: 0x0, symName: _OUTLINED_FUNCTION_1179, symObjAddr: 0x3F3F8, symBinAddr: 0x3DFF8, symSize: 0xC }
  - { offset: 0x9E55D, size: 0x8, addend: 0x0, symName: _OUTLINED_FUNCTION_1193, symObjAddr: 0x3F4B8, symBinAddr: 0x3E0B8, symSize: 0xC }
  - { offset: 0x9E574, size: 0x8, addend: 0x0, symName: _OUTLINED_FUNCTION_1211, symObjAddr: 0x3F608, symBinAddr: 0x3E208, symSize: 0x18 }
  - { offset: 0x1C3925, size: 0x8, addend: 0x0, symName: __ZN12sqlite3_capi4capi8bind_int17h0568feac95d285d9E, symObjAddr: 0x39BE0, symBinAddr: 0x387E0, symSize: 0x20 }
  - { offset: 0x1C9670, size: 0x8, addend: 0x0, symName: __MergedGlobals, symObjAddr: 0x61BDF0, symBinAddr: 0x540C8, symSize: 0x0 }
  - { offset: 0x1C9802, size: 0x8, addend: 0x0, symName: __ZN12sqlite3_capi4capi8bind_int17h0568feac95d285d9E, symObjAddr: 0x39BE0, symBinAddr: 0x387E0, symSize: 0x20 }
  - { offset: 0x1C9864, size: 0x8, addend: 0x0, symName: __ZN12sqlite3_capi4capi10bind_int6417h5ff226b97a6eba07E, symObjAddr: 0x39C00, symBinAddr: 0x38800, symSize: 0x20 }
  - { offset: 0x1C98C6, size: 0x8, addend: 0x0, symName: __ZN12sqlite3_capi4capi9bind_null17hb2151484ed7e592bE, symObjAddr: 0x39C20, symBinAddr: 0x38820, symSize: 0x20 }
  - { offset: 0x1C9919, size: 0x8, addend: 0x0, symName: __ZN12sqlite3_capi4capi9bind_text17h070a68e1ac5a073eE, symObjAddr: 0x39C40, symBinAddr: 0x38840, symSize: 0x24 }
  - { offset: 0x1C999A, size: 0x8, addend: 0x0, symName: __ZN12sqlite3_capi4capi20bind_parameter_count17hf0868c3dc7d08205E, symObjAddr: 0x39C64, symBinAddr: 0x38864, symSize: 0x20 }
  - { offset: 0x1C99DE, size: 0x8, addend: 0x0, symName: __ZN12sqlite3_capi4capi12column_bytes17hd7909922e1a78294E, symObjAddr: 0x39C84, symBinAddr: 0x38884, symSize: 0x20 }
  - { offset: 0x1C9A34, size: 0x8, addend: 0x0, symName: __ZN12sqlite3_capi4capi15column_text_ptr17h97d2343e16a1926aE, symObjAddr: 0x39CA4, symBinAddr: 0x388A4, symSize: 0x20 }
  - { offset: 0x1C9A8A, size: 0x8, addend: 0x0, symName: __ZN12sqlite3_capi4capi10column_int17hd356e9960baf06faE, symObjAddr: 0x39CC4, symBinAddr: 0x388C4, symSize: 0x20 }
  - { offset: 0x1C9AE0, size: 0x8, addend: 0x0, symName: __ZN12sqlite3_capi4capi12column_int6417h27821ed508a0ba46E, symObjAddr: 0x39CE4, symBinAddr: 0x388E4, symSize: 0x20 }
  - { offset: 0x1C9B35, size: 0x8, addend: 0x0, symName: __ZN12sqlite3_capi4capi17context_db_handle17h4b682a08beeefdd5E, symObjAddr: 0x39D04, symBinAddr: 0x38904, symSize: 0x20 }
  - { offset: 0x1C9B7B, size: 0x8, addend: 0x0, symName: __ZN12sqlite3_capi4capi16create_module_v217h4c6fef6c04638202E, symObjAddr: 0x39D24, symBinAddr: 0x38924, symSize: 0x28 }
  - { offset: 0x1C9BFE, size: 0x8, addend: 0x0, symName: __ZN12sqlite3_capi4capi4exec17h44647ff7c2032532E, symObjAddr: 0x39D4C, symBinAddr: 0x3894C, symSize: 0x2C }
  - { offset: 0x1C9C54, size: 0x8, addend: 0x0, symName: __ZN12sqlite3_capi4capi10prepare_v217h74633b89cc6d9f95E, symObjAddr: 0x39D78, symBinAddr: 0x38978, symSize: 0x20 }
  - { offset: 0x1C9CDA, size: 0x8, addend: 0x0, symName: __ZN12sqlite3_capi4capi11result_null17ha5778677c3f35b24E, symObjAddr: 0x39D98, symBinAddr: 0x38998, symSize: 0x20 }
  - { offset: 0x1C9D1C, size: 0x8, addend: 0x0, symName: __ZN12sqlite3_capi4capi12result_error17heeace5e79ce75eceE, symObjAddr: 0x39DB8, symBinAddr: 0x389B8, symSize: 0x20 }
  - { offset: 0x1C9D7E, size: 0x8, addend: 0x0, symName: __ZN12sqlite3_capi4capi17result_error_code17h89717b2fd1170d96E, symObjAddr: 0x39DD8, symBinAddr: 0x389D8, symSize: 0x20 }
  - { offset: 0x1C9DD0, size: 0x8, addend: 0x0, symName: __ZN12sqlite3_capi4capi11result_text17hee0afd443a692facE, symObjAddr: 0x39DF8, symBinAddr: 0x389F8, symSize: 0x24 }
  - { offset: 0x1C9E43, size: 0x8, addend: 0x0, symName: __ZN12sqlite3_capi4capi14result_subtype17he598b883fc8c1d1bE, symObjAddr: 0x39E1C, symBinAddr: 0x38A1C, symSize: 0x20 }
  - { offset: 0x1C9E94, size: 0x8, addend: 0x0, symName: __ZN12sqlite3_capi4capi10value_text17hd9bdc0f6de188b5dE, symObjAddr: 0x39E3C, symBinAddr: 0x38A3C, symSize: 0x40 }
  - { offset: 0x1C9F0E, size: 0x8, addend: 0x0, symName: __ZN12sqlite3_capi4capi11value_bytes17h8fb8549b7b77dc23E, symObjAddr: 0x39E7C, symBinAddr: 0x38A7C, symSize: 0x20 }
  - { offset: 0x1C9F54, size: 0x8, addend: 0x0, symName: __ZN12sqlite3_capi4capi10value_type17hec1ded49624ec5cfE, symObjAddr: 0x39E9C, symBinAddr: 0x38A9C, symSize: 0x20 }
  - { offset: 0x1BB1FD, size: 0x8, addend: 0x0, symName: '__ZN71_$LT$serde_json..raw..BoxedFromString$u20$as$u20$serde..de..Visitor$GT$9visit_str17h21646c8ad4d612c2E', symObjAddr: 0x39AD4, symBinAddr: 0x386E0, symSize: 0x2C }
  - { offset: 0x1BB290, size: 0x8, addend: 0x0, symName: '__ZN68_$LT$serde_json..raw..RawValue$u20$as$u20$alloc..borrow..ToOwned$GT$8to_owned17hc63531fc0f134d11E', symObjAddr: 0x39A30, symBinAddr: 0x3863C, symSize: 0x24 }
  - { offset: 0x1BB421, size: 0x8, addend: 0x0, symName: '__ZN81_$LT$serde_json..raw..BorrowedRawDeserializer$u20$as$u20$serde..de..MapAccess$GT$13next_key_seed17h60ae312aaefa8665E', symObjAddr: 0x39A84, symBinAddr: 0x38690, symSize: 0x50 }
  - { offset: 0x1BC899, size: 0x8, addend: 0x0, symName: '__ZN4core3cmp5impls69_$LT$impl$u20$core..cmp..PartialEq$LT$$RF$B$GT$$u20$for$u20$$RF$A$GT$2eq17he349ed5de7c22cdfE', symObjAddr: 0x39A80, symBinAddr: 0x3868C, symSize: 0x4 }
  - { offset: 0x1BCBE5, size: 0x8, addend: 0x0, symName: '__ZN4core5slice3cmp56_$LT$impl$u20$core..cmp..Ord$u20$for$u20$$u5b$T$u5d$$GT$3cmp17h8accdd68a0fcb854E', symObjAddr: 0x3933C, symBinAddr: 0x37F48, symSize: 0x44 }
  - { offset: 0x1BD094, size: 0x8, addend: 0x0, symName: '__ZN108_$LT$alloc..collections..btree..map..Iter$LT$K$C$V$GT$$u20$as$u20$core..iter..traits..iterator..Iterator$GT$4next17h7c12f72e2a6e0d23E', symObjAddr: 0x39220, symBinAddr: 0x37E2C, symSize: 0xC8 }
  - { offset: 0x1BD976, size: 0x8, addend: 0x0, symName: '__ZN99_$LT$alloc..collections..btree..map..BTreeMap$LT$K$C$V$C$A$GT$$u20$as$u20$core..ops..drop..Drop$GT$4drop17hebff73ae36cb92c0E', symObjAddr: 0x39914, symBinAddr: 0x38520, symSize: 0x11C }
  - { offset: 0x1BEEDA, size: 0x8, addend: 0x0, symName: '__ZN41_$LT$T$u20$as$u20$serde..de..Expected$GT$3fmt17h3c9be238e5b1b74dE', symObjAddr: 0x392E8, symBinAddr: 0x37EF4, symSize: 0x18 }
  - { offset: 0x1BEF53, size: 0x8, addend: 0x0, symName: '__ZN41_$LT$T$u20$as$u20$serde..de..Expected$GT$3fmt17h55b484f8b5c607dcE', symObjAddr: 0x39300, symBinAddr: 0x37F0C, symSize: 0x24 }
  - { offset: 0x1BEFCD, size: 0x8, addend: 0x0, symName: '__ZN41_$LT$T$u20$as$u20$serde..de..Expected$GT$3fmt17hd9bc26865729c607E', symObjAddr: 0x39324, symBinAddr: 0x37F30, symSize: 0x18 }
  - { offset: 0x1BF3F3, size: 0x8, addend: 0x0, symName: '__ZN5alloc11collections5btree3map25BTreeMap$LT$K$C$V$C$A$GT$3get17hba9a7647847cea33E', symObjAddr: 0x39380, symBinAddr: 0x37F8C, symSize: 0x8C }
  - { offset: 0x1BF973, size: 0x8, addend: 0x0, symName: '__ZN5alloc11collections5btree3map25BTreeMap$LT$K$C$V$C$A$GT$6insert17hd9e8ca3929dc4432E', symObjAddr: 0x3940C, symBinAddr: 0x38018, symSize: 0x508 }
  - { offset: 0x1C1116, size: 0x8, addend: 0x0, symName: __ZN5alloc6string6String14into_boxed_str17h866e3364be8e2990E, symObjAddr: 0x39A54, symBinAddr: 0x38660, symSize: 0x2C }
  - { offset: 0x1C11B3, size: 0x8, addend: 0x0, symName: _OUTLINED_FUNCTION_958, symObjAddr: 0x3E9E4, symBinAddr: 0x3D5E4, symSize: 0xC }
  - { offset: 0x1251A6, size: 0x8, addend: 0x0, symName: '__ZN66_$LT$alloc..borrow..Cow$LT$B$GT$$u20$as$u20$core..fmt..Display$GT$3fmt17hd640a48e43abf62cE', symObjAddr: 0x24F3C, symBinAddr: 0x244D0, symSize: 0x20 }
  - { offset: 0x12522A, size: 0x8, addend: 0x0, symName: '__ZN66_$LT$alloc..borrow..Cow$LT$B$GT$$u20$as$u20$core..clone..Clone$GT$5clone17h39c21b81caaa724eE', symObjAddr: 0x24F64, symBinAddr: 0x244F8, symSize: 0x24 }
  - { offset: 0x12670C, size: 0x8, addend: 0x0, symName: '__ZN4core3ptr99drop_in_place$LT$powersync_core..sync..storage_adapter..StorageAdapter..sync_local..PartialArgs$GT$17h6d7857aa29ba4ba6E', symObjAddr: 0x25E60, symBinAddr: 0x253C0, symSize: 0xC }
  - { offset: 0x126732, size: 0x8, addend: 0x0, symName: '__ZN4core3ptr99drop_in_place$LT$powersync_core..sync..storage_adapter..StorageAdapter..sync_local..PartialArgs$GT$17h6d7857aa29ba4ba6E', symObjAddr: 0x25E60, symBinAddr: 0x253C0, symSize: 0xC }
  - { offset: 0x126747, size: 0x8, addend: 0x0, symName: '__ZN4core3ptr99drop_in_place$LT$powersync_core..sync..storage_adapter..StorageAdapter..sync_local..PartialArgs$GT$17h6d7857aa29ba4ba6E', symObjAddr: 0x25E60, symBinAddr: 0x253C0, symSize: 0xC }
  - { offset: 0x12675C, size: 0x8, addend: 0x0, symName: '__ZN4core3ptr99drop_in_place$LT$powersync_core..sync..storage_adapter..StorageAdapter..sync_local..PartialArgs$GT$17h6d7857aa29ba4ba6E', symObjAddr: 0x25E60, symBinAddr: 0x253C0, symSize: 0xC }
  - { offset: 0x126CB8, size: 0x8, addend: 0x0, symName: '__ZN44_$LT$$RF$T$u20$as$u20$core..fmt..Display$GT$3fmt17h5f1f396e5ea70be4E', symObjAddr: 0x24F34, symBinAddr: 0x244C8, symSize: 0x8 }
  - { offset: 0x126CFF, size: 0x8, addend: 0x0, symName: '__ZN44_$LT$$RF$T$u20$as$u20$core..fmt..Display$GT$3fmt17h8ff130497f859e84E', symObjAddr: 0x24F5C, symBinAddr: 0x244F0, symSize: 0x8 }
  - { offset: 0x12ADA6, size: 0x8, addend: 0x0, symName: '__ZN95_$LT$$BP$mut$u20$sqlite3_capi..bindings..sqlite3$u20$as$u20$sqlite_nostd..nostd..Connection$GT$10prepare_v217h763be88c8ff16965E.2011', symObjAddr: 0x25054, symBinAddr: 0x245B4, symSize: 0x550 }
  - { offset: 0x12AE83, size: 0x8, addend: 0x0, symName: '__ZN95_$LT$$BP$mut$u20$sqlite3_capi..bindings..sqlite3$u20$as$u20$sqlite_nostd..nostd..Connection$GT$9exec_safe17hb2135129173c6759E.2030', symObjAddr: 0x25DF8, symBinAddr: 0x25358, symSize: 0x54 }
  - { offset: 0x12B7C2, size: 0x8, addend: 0x0, symName: '__ZN94_$LT$powersync_core..sync..storage_adapter..CheckpointResult$u20$as$u20$core..fmt..Display$GT$3fmt17hbb72fa919818707dE', symObjAddr: 0x26218, symBinAddr: 0x25778, symSize: 0x174 }
  - { offset: 0x12BCDD, size: 0x8, addend: 0x0, symName: '__ZN147_$LT$powersync_core..sync..checkpoint..OwnedBucketChecksum$u20$as$u20$core..convert..From$LT$$RF$powersync_core..sync..line..BucketChecksum$GT$$GT$4from17h4fd5ca58091c56eeE', symObjAddr: 0x255B8, symBinAddr: 0x24B18, symSize: 0x7C }
  - { offset: 0x12C809, size: 0x8, addend: 0x0, symName: '__ZN101_$LT$$BP$mut$u20$sqlite3_capi..bindings..sqlite3$u20$as$u20$powersync_core..ext..ExtendedDatabase$GT$9exec_text17h78c65f444dd75060E', symObjAddr: 0x24FBC, symBinAddr: 0x2451C, symSize: 0x98 }
  - { offset: 0x12CAC9, size: 0x8, addend: 0x0, symName: __ZN14powersync_core4uuid7uuid_v417hb07de14a44a541eaE, symObjAddr: 0x26390, symBinAddr: 0x258F0, symSize: 0x1DC }
  - { offset: 0x12E1FE, size: 0x8, addend: 0x0, symName: '__ZN89_$LT$serde..de..value..private..UnitOnly$LT$E$GT$$u20$as$u20$serde..de..VariantAccess$GT$20newtype_variant_seed17h7f03bde9d21eaf1aE', symObjAddr: 0x24F88, symBinAddr: 0x3F3B4, symSize: 0x34 }
  - { offset: 0x12E30C, size: 0x8, addend: 0x0, symName: __ZN12sqlite_nostd5nostd11ManagedStmt9bind_text17hbb4837cd72115dcaE.2012, symObjAddr: 0x255A4, symBinAddr: 0x24B04, symSize: 0x14 }
  - { offset: 0x12E481, size: 0x8, addend: 0x0, symName: '__ZN5alloc3vec16Vec$LT$T$C$A$GT$4push17hff0f4945a354f8f3E', symObjAddr: 0x25634, symBinAddr: 0x24B94, symSize: 0x28 }
  - { offset: 0x12E4EF, size: 0x8, addend: 0x0, symName: __ZN14powersync_core4sync15storage_adapter14StorageAdapter3new17h7bb6061a93627bfbE, symObjAddr: 0x2565C, symBinAddr: 0x24BBC, symSize: 0x110 }
  - { offset: 0x12E612, size: 0x8, addend: 0x0, symName: __ZN12sqlite_nostd5nostd11ManagedStmt11column_text17ha73a913892e47e82E.2017, symObjAddr: 0x2576C, symBinAddr: 0x24CCC, symSize: 0x34 }
  - { offset: 0x12EACF, size: 0x8, addend: 0x0, symName: __ZN14powersync_core4sync15storage_adapter14StorageAdapter18offline_sync_state17ha7f6c11c3bb16302E, symObjAddr: 0x257A0, symBinAddr: 0x24D00, symSize: 0x254 }
  - { offset: 0x12F020, size: 0x8, addend: 0x0, symName: __ZN14powersync_core4sync15storage_adapter14StorageAdapter24read_stream_subscription17ha44984a093a1b481E, symObjAddr: 0x259F4, symBinAddr: 0x24F54, symSize: 0x3C0 }
  - { offset: 0x12F8FF, size: 0x8, addend: 0x0, symName: __ZN12sqlite_nostd5nostd11ManagedStmt11column_type17ha35e51923168a10bE, symObjAddr: 0x25DB4, symBinAddr: 0x25314, symSize: 0x44 }
  - { offset: 0x12F9AC, size: 0x8, addend: 0x0, symName: __ZN12sqlite_nostd5nostd11ManagedStmt10bind_int6417h159c52b803bcc6e0E.2035, symObjAddr: 0x25E4C, symBinAddr: 0x253AC, symSize: 0x14 }
  - { offset: 0x12FCC6, size: 0x8, addend: 0x0, symName: __ZN14powersync_core4sync15storage_adapter14StorageAdapter29collect_subscription_requests17ha0308f009c1d41d1E, symObjAddr: 0x25E6C, symBinAddr: 0x253CC, symSize: 0x244 }
  - { offset: 0x1301AB, size: 0x8, addend: 0x0, symName: __ZN14powersync_core4sync15storage_adapter14StorageAdapter3now17h25a5f6874d2ddca4E, symObjAddr: 0x260B0, symBinAddr: 0x25610, symSize: 0x50 }
  - { offset: 0x130288, size: 0x8, addend: 0x0, symName: __ZN14powersync_core4sync15storage_adapter14StorageAdapter12increase_ttl17h65aca247c3eb8321E, symObjAddr: 0x26100, symBinAddr: 0x25660, symSize: 0xF0 }
  - { offset: 0x13046E, size: 0x8, addend: 0x0, symName: __ZN12sqlite_nostd5nostd11ManagedStmt8bind_int17h12094834e63a92adE.2037, symObjAddr: 0x261F0, symBinAddr: 0x25750, symSize: 0x14 }
  - { offset: 0x1304AE, size: 0x8, addend: 0x0, symName: __ZN12sqlite_nostd5nostd11ManagedStmt9bind_null17h2625c3043d03952dE.2038, symObjAddr: 0x26204, symBinAddr: 0x25764, symSize: 0x14 }
  - { offset: 0x130795, size: 0x8, addend: 0x0, symName: __ZN4core3fmt9Formatter9write_fmt17h4fea1c6f215d0450E.2039, symObjAddr: 0x2638C, symBinAddr: 0x258EC, symSize: 0x4 }
  - { offset: 0x1319A1, size: 0x8, addend: 0x0, symName: _OUTLINED_FUNCTION_265, symObjAddr: 0x3C384, symBinAddr: 0x3AF84, symSize: 0x8 }
  - { offset: 0x1319B8, size: 0x8, addend: 0x0, symName: _OUTLINED_FUNCTION_382, symObjAddr: 0x3C9F0, symBinAddr: 0x3B5F0, symSize: 0x8 }
  - { offset: 0x1319CF, size: 0x8, addend: 0x0, symName: _OUTLINED_FUNCTION_759, symObjAddr: 0x3DF10, symBinAddr: 0x3CB10, symSize: 0x8 }
  - { offset: 0x1319E6, size: 0x8, addend: 0x0, symName: _OUTLINED_FUNCTION_768, symObjAddr: 0x3DF90, symBinAddr: 0x3CB90, symSize: 0x8 }
  - { offset: 0x1319FD, size: 0x8, addend: 0x0, symName: _OUTLINED_FUNCTION_792, symObjAddr: 0x3E0A4, symBinAddr: 0x3CCA4, symSize: 0x8 }
  - { offset: 0x131A14, size: 0x8, addend: 0x0, symName: _OUTLINED_FUNCTION_822, symObjAddr: 0x3E224, symBinAddr: 0x3CE24, symSize: 0x8 }
  - { offset: 0x131A2B, size: 0x8, addend: 0x0, symName: _OUTLINED_FUNCTION_918, symObjAddr: 0x3E804, symBinAddr: 0x3D404, symSize: 0xC }
  - { offset: 0x131A42, size: 0x8, addend: 0x0, symName: _OUTLINED_FUNCTION_993, symObjAddr: 0x3EB54, symBinAddr: 0x3D754, symSize: 0x8 }
  - { offset: 0x131A59, size: 0x8, addend: 0x0, symName: _OUTLINED_FUNCTION_1049, symObjAddr: 0x3ED6C, symBinAddr: 0x3D96C, symSize: 0x8 }
  - { offset: 0x131A70, size: 0x8, addend: 0x0, symName: _OUTLINED_FUNCTION_1096, symObjAddr: 0x3EF28, symBinAddr: 0x3DB28, symSize: 0x8 }
  - { offset: 0x131A87, size: 0x8, addend: 0x0, symName: _OUTLINED_FUNCTION_1141, symObjAddr: 0x3F1C8, symBinAddr: 0x3DDC8, symSize: 0xC }
  - { offset: 0x131A9E, size: 0x8, addend: 0x0, symName: _OUTLINED_FUNCTION_1190, symObjAddr: 0x3F494, symBinAddr: 0x3E094, symSize: 0xC }
  - { offset: 0xB11, size: 0x8, addend: 0x0, symName: '__ZN58_$LT$alloc..string..String$u20$as$u20$core..fmt..Write$GT$9write_str17hecc9c698f6c2266bE', symObjAddr: 0x68, symBinAddr: 0x728, symSize: 0x1C }
  - { offset: 0xC27, size: 0x8, addend: 0x0, symName: '__ZN58_$LT$alloc..string..String$u20$as$u20$core..fmt..Write$GT$10write_char17he88dc481726ff1a5E', symObjAddr: 0x84, symBinAddr: 0x744, symSize: 0x68 }
  - { offset: 0x108C, size: 0x8, addend: 0x0, symName: '__ZN4core3ptr42drop_in_place$LT$alloc..string..String$GT$17h56bbbcc9b0ae238eE', symObjAddr: 0x60, symBinAddr: 0x720, symSize: 0x8 }
  - { offset: 0x134C, size: 0x8, addend: 0x0, symName: __ZN4core3fmt5Write9write_fmt17hbac379646f8b3497E, symObjAddr: 0x48, symBinAddr: 0x708, symSize: 0x18 }
  - { offset: 0x19D9, size: 0x8, addend: 0x0, symName: _OUTLINED_FUNCTION_86, symObjAddr: 0x3B74C, symBinAddr: 0x3A34C, symSize: 0x34 }
  - { offset: 0x19F0, size: 0x8, addend: 0x0, symName: _OUTLINED_FUNCTION_112, symObjAddr: 0x3B954, symBinAddr: 0x3A554, symSize: 0xC }
  - { offset: 0x1A07, size: 0x8, addend: 0x0, symName: _OUTLINED_FUNCTION_125, symObjAddr: 0x3BA9C, symBinAddr: 0x3A69C, symSize: 0x28 }
  - { offset: 0x1A1E, size: 0x8, addend: 0x0, symName: _OUTLINED_FUNCTION_183, symObjAddr: 0x3BEC0, symBinAddr: 0x3AAC0, symSize: 0x20 }
  - { offset: 0x1A35, size: 0x8, addend: 0x0, symName: _OUTLINED_FUNCTION_257, symObjAddr: 0x3C318, symBinAddr: 0x3AF18, symSize: 0x1C }
  - { offset: 0x1A4C, size: 0x8, addend: 0x0, symName: _OUTLINED_FUNCTION_708, symObjAddr: 0x3DC80, symBinAddr: 0x3C880, symSize: 0x20 }
  - { offset: 0x1A63, size: 0x8, addend: 0x0, symName: _OUTLINED_FUNCTION_816, symObjAddr: 0x3E1E8, symBinAddr: 0x3CDE8, symSize: 0x8 }
  - { offset: 0x1A7A, size: 0x8, addend: 0x0, symName: _OUTLINED_FUNCTION_862, symObjAddr: 0x3E484, symBinAddr: 0x3D084, symSize: 0x10 }
  - { offset: 0x17448, size: 0x8, addend: 0x0, symName: '__ZN87_$LT$core..str..lossy..Utf8Chunks$u20$as$u20$core..iter..traits..iterator..Iterator$GT$4next17h7cb548f586ffa6bbE', symObjAddr: 0x3914, symBinAddr: 0x3ED8, symSize: 0x1C0 }
  - { offset: 0x18684, size: 0x8, addend: 0x0, symName: __ZN4core3num7flt2dec7decoder6decode17h6436da290de5aa82E, symObjAddr: 0x383C, symBinAddr: 0x3E00, symSize: 0xD8 }
  - { offset: 0x1884D, size: 0x8, addend: 0x0, symName: __ZN4core4cell22panic_already_borrowed17h0e1d61248b679d5eE, symObjAddr: 0x3AD4, symBinAddr: 0x3E384, symSize: 0xC }
  - { offset: 0x18C85, size: 0x8, addend: 0x0, symName: __ZN4core3ffi5c_str4CStr6to_str17ha115b79232dfd5f0E, symObjAddr: 0x3AE0, symBinAddr: 0x4098, symSize: 0x8 }
  - { offset: 0x18CAC, size: 0x8, addend: 0x0, symName: __ZN4core3ffi5c_str4CStr6to_str17ha115b79232dfd5f0E, symObjAddr: 0x3AE0, symBinAddr: 0x4098, symSize: 0x8 }
  - { offset: 0x18CC6, size: 0x8, addend: 0x0, symName: __ZN4core3ffi5c_str4CStr6to_str17ha115b79232dfd5f0E, symObjAddr: 0x3AE0, symBinAddr: 0x4098, symSize: 0x8 }
  - { offset: 0x18D1F, size: 0x8, addend: 0x0, symName: _OUTLINED_FUNCTION_213, symObjAddr: 0x3C0A4, symBinAddr: 0x3ACA4, symSize: 0x8 }
  - { offset: 0x18D36, size: 0x8, addend: 0x0, symName: _OUTLINED_FUNCTION_268, symObjAddr: 0x3C3A0, symBinAddr: 0x3AFA0, symSize: 0xC }
  - { offset: 0x18D4D, size: 0x8, addend: 0x0, symName: _OUTLINED_FUNCTION_1081, symObjAddr: 0x3EE98, symBinAddr: 0x3DA98, symSize: 0x8 }
  - { offset: 0x1B875E, size: 0x8, addend: 0x0, symName: '__ZN4core3ptr73drop_in_place$LT$core..option..Option$LT$serde_json..value..Value$GT$$GT$17h26ecd0f5e19f7bf9E', symObjAddr: 0x390EC, symBinAddr: 0x37CF8, symSize: 0x60 }
  - { offset: 0x1B897F, size: 0x8, addend: 0x0, symName: '__ZN4core3ptr73drop_in_place$LT$core..option..Option$LT$serde_json..value..Value$GT$$GT$17h26ecd0f5e19f7bf9E', symObjAddr: 0x390EC, symBinAddr: 0x37CF8, symSize: 0x60 }
  - { offset: 0x11DF0, size: 0x8, addend: 0x0, symName: __ZN4core3fmt5float29float_to_decimal_common_exact17h58139589d7fbc6ebE, symObjAddr: 0x23C8, symBinAddr: 0x2998, symSize: 0x788 }
  - { offset: 0x12645, size: 0x8, addend: 0x0, symName: __ZN4core3fmt5float32float_to_decimal_common_shortest17hbac1685f9ccbea3bE, symObjAddr: 0x2B50, symBinAddr: 0x3120, symSize: 0x660 }
  - { offset: 0x12D2D, size: 0x8, addend: 0x0, symName: '__ZN4core3fmt5float52_$LT$impl$u20$core..fmt..Display$u20$for$u20$f64$GT$3fmt17h37efd750e299701cE', symObjAddr: 0x31B0, symBinAddr: 0x3780, symSize: 0x30 }
  - { offset: 0x12DBF, size: 0x8, addend: 0x0, symName: __ZN4core9panicking5panic17h72a65e34c133f8caE, symObjAddr: 0x239C, symBinAddr: 0x3E34C, symSize: 0xC }
  - { offset: 0x12E25, size: 0x8, addend: 0x0, symName: __ZN4core9panicking18panic_nounwind_fmt17h4676b5cd7ebf336bE, symObjAddr: 0x23A8, symBinAddr: 0x3E358, symSize: 0x4 }
  - { offset: 0x12E5C, size: 0x8, addend: 0x0, symName: __ZN4core9panicking18panic_nounwind_fmt17h4676b5cd7ebf336bE, symObjAddr: 0x23A8, symBinAddr: 0x3E358, symSize: 0x4 }
  - { offset: 0x12E75, size: 0x8, addend: 0x0, symName: __ZN4core9panicking18panic_nounwind_fmt17h4676b5cd7ebf336bE, symObjAddr: 0x23A8, symBinAddr: 0x3E358, symSize: 0x4 }
  - { offset: 0x12E8F, size: 0x8, addend: 0x0, symName: __ZN4core9panicking18panic_nounwind_fmt17h4676b5cd7ebf336bE, symObjAddr: 0x23A8, symBinAddr: 0x3E358, symSize: 0x4 }
  - { offset: 0x12EA2, size: 0x8, addend: 0x0, symName: __ZN4core9panicking19assert_failed_inner17h07f27f0b59bdcf20E, symObjAddr: 0x23AC, symBinAddr: 0x3E35C, symSize: 0xC }
  - { offset: 0x12F0C, size: 0x8, addend: 0x0, symName: __ZN4core9panicking13assert_failed17hfe304d7943f5e21eE, symObjAddr: 0x23B8, symBinAddr: 0x3E368, symSize: 0x10 }
  - { offset: 0x13026, size: 0x8, addend: 0x0, symName: __ZN4core6result13unwrap_failed17ha22ceba952a86f54E, symObjAddr: 0x237C, symBinAddr: 0x3E330, symSize: 0xC }
  - { offset: 0x13142, size: 0x8, addend: 0x0, symName: __ZN4core6option13unwrap_failed17had7ef600810fa33bE, symObjAddr: 0x238C, symBinAddr: 0x3E33C, symSize: 0x10 }
  - { offset: 0x136BF, size: 0x8, addend: 0x0, symName: __ZN4core3fmt9Formatter9write_fmt17h4fea1c6f215d0450E.199, symObjAddr: 0x2388, symBinAddr: 0x2994, symSize: 0x4 }
  - { offset: 0x13829, size: 0x8, addend: 0x0, symName: _OUTLINED_FUNCTION_314, symObjAddr: 0x3C628, symBinAddr: 0x3B228, symSize: 0xC }
  - { offset: 0x13840, size: 0x8, addend: 0x0, symName: _OUTLINED_FUNCTION_406, symObjAddr: 0x3CB68, symBinAddr: 0x3B768, symSize: 0x8 }
  - { offset: 0x13857, size: 0x8, addend: 0x0, symName: _OUTLINED_FUNCTION_420, symObjAddr: 0x3CC08, symBinAddr: 0x3B808, symSize: 0x8 }
  - { offset: 0x1386E, size: 0x8, addend: 0x0, symName: _OUTLINED_FUNCTION_441, symObjAddr: 0x3CCD4, symBinAddr: 0x3B8D4, symSize: 0x18 }
  - { offset: 0x13885, size: 0x8, addend: 0x0, symName: _OUTLINED_FUNCTION_453, symObjAddr: 0x3CD70, symBinAddr: 0x3B970, symSize: 0x18 }
  - { offset: 0x1389C, size: 0x8, addend: 0x0, symName: _OUTLINED_FUNCTION_540, symObjAddr: 0x3D2DC, symBinAddr: 0x3BEDC, symSize: 0xC }
  - { offset: 0x138B3, size: 0x8, addend: 0x0, symName: _OUTLINED_FUNCTION_685, symObjAddr: 0x3DAFC, symBinAddr: 0x3C6FC, symSize: 0xC }
  - { offset: 0x138CA, size: 0x8, addend: 0x0, symName: _OUTLINED_FUNCTION_726, symObjAddr: 0x3DD5C, symBinAddr: 0x3C95C, symSize: 0x8 }
  - { offset: 0x138E1, size: 0x8, addend: 0x0, symName: _OUTLINED_FUNCTION_872, symObjAddr: 0x3E54C, symBinAddr: 0x3D14C, symSize: 0x18 }
  - { offset: 0x138F8, size: 0x8, addend: 0x0, symName: _OUTLINED_FUNCTION_877, symObjAddr: 0x3E5A0, symBinAddr: 0x3D1A0, symSize: 0x18 }
  - { offset: 0x1390F, size: 0x8, addend: 0x0, symName: _OUTLINED_FUNCTION_943, symObjAddr: 0x3E928, symBinAddr: 0x3D528, symSize: 0xC }
  - { offset: 0x13926, size: 0x8, addend: 0x0, symName: _OUTLINED_FUNCTION_946, symObjAddr: 0x3E948, symBinAddr: 0x3D548, symSize: 0xC }
  - { offset: 0x1393D, size: 0x8, addend: 0x0, symName: _OUTLINED_FUNCTION_953, symObjAddr: 0x3E9B0, symBinAddr: 0x3D5B0, symSize: 0xC }
  - { offset: 0x13954, size: 0x8, addend: 0x0, symName: _OUTLINED_FUNCTION_959, symObjAddr: 0x3E9F0, symBinAddr: 0x3D5F0, symSize: 0xC }
  - { offset: 0x1396B, size: 0x8, addend: 0x0, symName: _OUTLINED_FUNCTION_962, symObjAddr: 0x3EA0C, symBinAddr: 0x3D60C, symSize: 0xC }
  - { offset: 0x13982, size: 0x8, addend: 0x0, symName: _OUTLINED_FUNCTION_975, symObjAddr: 0x3EA98, symBinAddr: 0x3D698, symSize: 0xC }
  - { offset: 0x13999, size: 0x8, addend: 0x0, symName: _OUTLINED_FUNCTION_1043, symObjAddr: 0x3ED30, symBinAddr: 0x3D930, symSize: 0x8 }
  - { offset: 0x165C3, size: 0x8, addend: 0x0, symName: __ZN4core3num9diy_float2Fp12normalize_to17h6f1946156c0fa9ffE, symObjAddr: 0x3774, symBinAddr: 0x3D38, symSize: 0x5C }
  - { offset: 0x16683, size: 0x8, addend: 0x0, symName: '__ZN62_$LT$core..char..EscapeDebug$u20$as$u20$core..fmt..Display$GT$3fmt17h24ca2c244d3827b1E', symObjAddr: 0x37D0, symBinAddr: 0x3D94, symSize: 0x40 }
  - { offset: 0x16D36, size: 0x8, addend: 0x0, symName: __ZN4core5slice4sort6stable5drift11sqrt_approx17hbdd157cf2a9b2994E, symObjAddr: 0x3810, symBinAddr: 0x3DD4, symSize: 0x2C }
  - { offset: 0x17238, size: 0x8, addend: 0x0, symName: __ZN4core3num9diy_float2Fp12normalize_to17h6f1946156c0fa9ffE, symObjAddr: 0x3774, symBinAddr: 0x3D38, symSize: 0x5C }
  - { offset: 0x18E2A, size: 0x8, addend: 0x0, symName: __ZN4core7unicode9printable5check17hd817699df1cc9463E, symObjAddr: 0x3D9C, symBinAddr: 0x4348, symSize: 0xF8 }
  - { offset: 0x19627, size: 0x8, addend: 0x0, symName: __ZN4core5slice6memchr14memchr_aligned17h942fb6c0f5553ea0E, symObjAddr: 0x3AE8, symBinAddr: 0x40A0, symSize: 0xC8 }
  - { offset: 0x198EE, size: 0x8, addend: 0x0, symName: __ZN4core5slice6memchr12memchr_naive17ha2dc41ed8126c3f5E, symObjAddr: 0x3BB0, symBinAddr: 0x4168, symSize: 0x3C }
  - { offset: 0x1A096, size: 0x8, addend: 0x0, symName: __ZN4core3str16slice_error_fail17hcee3e51094311393E, symObjAddr: 0x3BEC, symBinAddr: 0x3E390, symSize: 0xC }
  - { offset: 0x1A141, size: 0x8, addend: 0x0, symName: '__ZN4core3str21_$LT$impl$u20$str$GT$19floor_char_boundary17hb42d4cdfe047732fE', symObjAddr: 0x3D2C, symBinAddr: 0x42D8, symSize: 0x54 }
  - { offset: 0x1A2E3, size: 0x8, addend: 0x0, symName: '__ZN4core3str21_$LT$impl$u20$str$GT$9ends_with17h85131d2f205ae8c1E', symObjAddr: 0x3D80, symBinAddr: 0x432C, symSize: 0x1C }
  - { offset: 0x1A324, size: 0x8, addend: 0x0, symName: '__ZN4core3str21_$LT$impl$u20$str$GT$9ends_with17h85131d2f205ae8c1E', symObjAddr: 0x3D80, symBinAddr: 0x432C, symSize: 0x1C }
  - { offset: 0x1A349, size: 0x8, addend: 0x0, symName: '__ZN4core3str21_$LT$impl$u20$str$GT$9ends_with17h85131d2f205ae8c1E', symObjAddr: 0x3D80, symBinAddr: 0x432C, symSize: 0x1C }
  - { offset: 0x1A370, size: 0x8, addend: 0x0, symName: '__ZN4core3str21_$LT$impl$u20$str$GT$9ends_with17h85131d2f205ae8c1E', symObjAddr: 0x3D80, symBinAddr: 0x432C, symSize: 0x1C }
  - { offset: 0x1A393, size: 0x8, addend: 0x0, symName: '__ZN4core3str21_$LT$impl$u20$str$GT$9ends_with17h85131d2f205ae8c1E', symObjAddr: 0x3D80, symBinAddr: 0x432C, symSize: 0x1C }
  - { offset: 0x1A7E6, size: 0x8, addend: 0x0, symName: __ZN4core3str19slice_error_fail_rt17hc558211072858d78E, symObjAddr: 0x3BF8, symBinAddr: 0x41A4, symSize: 0x134 }
  - { offset: 0x1AFBC, size: 0x8, addend: 0x0, symName: _OUTLINED_FUNCTION_397, symObjAddr: 0x3CAE4, symBinAddr: 0x3B6E4, symSize: 0xC }
  - { offset: 0x1AFD3, size: 0x8, addend: 0x0, symName: _OUTLINED_FUNCTION_602, symObjAddr: 0x3D5FC, symBinAddr: 0x3C1FC, symSize: 0xC }
  - { offset: 0x1AFEA, size: 0x8, addend: 0x0, symName: _OUTLINED_FUNCTION_1083, symObjAddr: 0x3EEAC, symBinAddr: 0x3DAAC, symSize: 0x8 }
  - { offset: 0x1B001, size: 0x8, addend: 0x0, symName: _OUTLINED_FUNCTION_1086, symObjAddr: 0x3EEC4, symBinAddr: 0x3DAC4, symSize: 0x8 }
  - { offset: 0x1B497F, size: 0x8, addend: 0x0, symName: __ZN10serde_json3ser9Formatter9end_array17h4c8e6cce3e604a2fE, symObjAddr: 0x38BD4, symBinAddr: 0x37800, symSize: 0x14 }
  - { offset: 0x1B49BA, size: 0x8, addend: 0x0, symName: __ZN10serde_json3ser9Formatter9end_array17h4c8e6cce3e604a2fE, symObjAddr: 0x38BD4, symBinAddr: 0x37800, symSize: 0x14 }
  - { offset: 0x1B49D8, size: 0x8, addend: 0x0, symName: __ZN10serde_json3ser9Formatter9end_array17h4c8e6cce3e604a2fE, symObjAddr: 0x38BD4, symBinAddr: 0x37800, symSize: 0x14 }
  - { offset: 0x1B49F5, size: 0x8, addend: 0x0, symName: __ZN10serde_json3ser9Formatter9end_array17h4c8e6cce3e604a2fE, symObjAddr: 0x38BD4, symBinAddr: 0x37800, symSize: 0x14 }
  - { offset: 0x1B4A0E, size: 0x8, addend: 0x0, symName: __ZN10serde_json3ser9Formatter9end_array17h4c8e6cce3e604a2fE, symObjAddr: 0x38BD4, symBinAddr: 0x37800, symSize: 0x14 }
  - { offset: 0x1B4B29, size: 0x8, addend: 0x0, symName: __ZN10serde_json3ser9Formatter10end_object17h4b08323674f307d3E.2929, symObjAddr: 0x38D90, symBinAddr: 0x379BC, symSize: 0x14 }
  - { offset: 0x1B4B64, size: 0x8, addend: 0x0, symName: __ZN10serde_json3ser9Formatter10end_object17h4b08323674f307d3E.2929, symObjAddr: 0x38D90, symBinAddr: 0x379BC, symSize: 0x14 }
  - { offset: 0x1B4B82, size: 0x8, addend: 0x0, symName: __ZN10serde_json3ser9Formatter10end_object17h4b08323674f307d3E.2929, symObjAddr: 0x38D90, symBinAddr: 0x379BC, symSize: 0x14 }
  - { offset: 0x1B4B9F, size: 0x8, addend: 0x0, symName: __ZN10serde_json3ser9Formatter10end_object17h4b08323674f307d3E.2929, symObjAddr: 0x38D90, symBinAddr: 0x379BC, symSize: 0x14 }
  - { offset: 0x1B4BB8, size: 0x8, addend: 0x0, symName: __ZN10serde_json3ser9Formatter10end_object17h4b08323674f307d3E.2929, symObjAddr: 0x38D90, symBinAddr: 0x379BC, symSize: 0x14 }
  - { offset: 0x1B4DCC, size: 0x8, addend: 0x0, symName: __ZN10serde_json3ser6ESCAPE17h39af1cd4a6cfbab4E, symObjAddr: 0x4BF9E, symBinAddr: 0x4C706, symSize: 0x0 }
  - { offset: 0x1B5556, size: 0x8, addend: 0x0, symName: __ZN10serde_json3ser18format_escaped_str17haef52e76950d446eE, symObjAddr: 0x38E30, symBinAddr: 0x37A5C, symSize: 0x108 }
  - { offset: 0x1B59B8, size: 0x8, addend: 0x0, symName: __ZN10serde_json3ser17invalid_raw_value17h131dc628984a6f2fE, symObjAddr: 0x38F38, symBinAddr: 0x3FD1C, symSize: 0x20 }
  - { offset: 0x1B5B2F, size: 0x8, addend: 0x0, symName: '__ZN10serde_json5value3ser76_$LT$impl$u20$serde..ser..Serialize$u20$for$u20$serde_json..value..Value$GT$9serialize17hf084477893b5fdb5E', symObjAddr: 0x38BE8, symBinAddr: 0x37814, symSize: 0x1A8 }
  - { offset: 0x1B75FF, size: 0x8, addend: 0x0, symName: __ZN5serde3ser10Serializer11collect_seq17h9fba5a4034e2e88eE, symObjAddr: 0x38B10, symBinAddr: 0x3773C, symSize: 0xC4 }
  - { offset: 0x1B79A4, size: 0x8, addend: 0x0, symName: __ZN5serde3ser12SerializeMap15serialize_entry17hc5549f790aa12f37E, symObjAddr: 0x38DA4, symBinAddr: 0x379D0, symSize: 0x8C }
  - { offset: 0x1B7F31, size: 0x8, addend: 0x0, symName: _OUTLINED_FUNCTION_381, symObjAddr: 0x3C9E0, symBinAddr: 0x3B5E0, symSize: 0x10 }
  - { offset: 0x1B7F48, size: 0x8, addend: 0x0, symName: _OUTLINED_FUNCTION_442, symObjAddr: 0x3CCEC, symBinAddr: 0x3B8EC, symSize: 0xC }
  - { offset: 0x1B7F5F, size: 0x8, addend: 0x0, symName: _OUTLINED_FUNCTION_581, symObjAddr: 0x3D4D8, symBinAddr: 0x3C0D8, symSize: 0x8 }
  - { offset: 0x7CB5, size: 0x8, addend: 0x0, symName: '__ZN5alloc6borrow12Cow$LT$B$GT$10into_owned17h2423f1b140d4b7d5E', symObjAddr: 0x8F0, symBinAddr: 0xF14, symSize: 0x34 }
  - { offset: 0x7D7B, size: 0x8, addend: 0x0, symName: _OUTLINED_FUNCTION_673, symObjAddr: 0x3DA08, symBinAddr: 0x3C608, symSize: 0xC }
  - { offset: 0xCB009, size: 0x8, addend: 0x0, symName: __ZN5serde2de7Visitor11visit_bytes17h9e6b3f1dda7a484bE, symObjAddr: 0x15ED8, symBinAddr: 0x3ED70, symSize: 0x2C }
  - { offset: 0xCB05A, size: 0x8, addend: 0x0, symName: __ZN5serde2de7Visitor9visit_str17h89f36d22cb908ddeE, symObjAddr: 0x15F04, symBinAddr: 0x3ED9C, symSize: 0x2C }
  - { offset: 0xCB286, size: 0x8, addend: 0x0, symName: '__ZN41_$LT$T$u20$as$u20$serde..de..Expected$GT$3fmt17h0488382292f3061aE', symObjAddr: 0x15E58, symBinAddr: 0x15A30, symSize: 0x18 }
  - { offset: 0xCB2FF, size: 0x8, addend: 0x0, symName: '__ZN41_$LT$T$u20$as$u20$serde..de..Expected$GT$3fmt17hd48fba06a5fd9ef2E', symObjAddr: 0x15E70, symBinAddr: 0x15A48, symSize: 0x18 }
  - { offset: 0xCB77F, size: 0x8, addend: 0x0, symName: '__ZN84_$LT$serde..__private..de..content..ContentVisitor$u20$as$u20$serde..de..Visitor$GT$9visit_str17h4f72ae23a8560f9dE', symObjAddr: 0x15F60, symBinAddr: 0x15AE0, symSize: 0x4C }
  - { offset: 0xCBDC9, size: 0x8, addend: 0x0, symName: '__ZN164_$LT$$LT$powersync_core..sync..bucket_priority..BucketPriority$u20$as$u20$serde..de..Deserialize$GT$..deserialize..PriorityVisitor$u20$as$u20$serde..de..Visitor$GT$9visit_i3217h0943856f6938c610E', symObjAddr: 0x18884, symBinAddr: 0x18404, symSize: 0x60 }
  - { offset: 0xCBE94, size: 0x8, addend: 0x0, symName: '__ZN164_$LT$$LT$powersync_core..sync..bucket_priority..BucketPriority$u20$as$u20$serde..de..Deserialize$GT$..deserialize..PriorityVisitor$u20$as$u20$serde..de..Visitor$GT$9visit_i3217h61d70d081f252c28E', symObjAddr: 0x188E4, symBinAddr: 0x18464, symSize: 0x60 }
  - { offset: 0xCBF87, size: 0x8, addend: 0x0, symName: '__ZN96_$LT$powersync_core..sync..bucket_priority..BucketPriority$u20$as$u20$serde..de..Deserialize$GT$11deserialize17h2599d9625c4255bfE', symObjAddr: 0x185F0, symBinAddr: 0x18170, symSize: 0xF4 }
  - { offset: 0xCC049, size: 0x8, addend: 0x0, symName: '__ZN96_$LT$powersync_core..sync..bucket_priority..BucketPriority$u20$as$u20$serde..de..Deserialize$GT$11deserialize17h5ca9fab655e34049E', symObjAddr: 0x186E4, symBinAddr: 0x18264, symSize: 0x1A0 }
  - { offset: 0xCC36C, size: 0x8, addend: 0x0, symName: '__ZN107_$LT$powersync_core..sync..bucket_priority..BucketPriority$u20$as$u20$core..convert..TryFrom$LT$i32$GT$$GT$8try_from17hb47c764e8ef6c619E', symObjAddr: 0x185A8, symBinAddr: 0x18128, symSize: 0x48 }
  - { offset: 0xCC3A0, size: 0x8, addend: 0x0, symName: '__ZN95_$LT$powersync_core..sync..bucket_priority..BucketPriority$u20$as$u20$serde..ser..Serialize$GT$9serialize17hf054062827b29b90E', symObjAddr: 0x18944, symBinAddr: 0x184C4, symSize: 0xFC }
  - { offset: 0xCCAED, size: 0x8, addend: 0x0, symName: __ZN14powersync_core4sync10operations24insert_bucket_operations17h85d4e1d7907a9e14E, symObjAddr: 0x16F94, symBinAddr: 0x16B14, symSize: 0x724 }
  - { offset: 0xCDA8F, size: 0x8, addend: 0x0, symName: __ZN14powersync_core10operations13delete_bucket17h435c96f894a19413E, symObjAddr: 0x1774C, symBinAddr: 0x172CC, symSize: 0x164 }
  - { offset: 0xCDF6A, size: 0x8, addend: 0x0, symName: __ZN14powersync_core6schema10management24powersync_replace_schema17h33c7efa35750c4b3E, symObjAddr: 0x178B0, symBinAddr: 0x17430, symSize: 0xE0 }
  - { offset: 0xCE774, size: 0x8, addend: 0x0, symName: __ZN14powersync_core6schema10management29powersync_replace_schema_impl17hdaa37f47a6119831E, symObjAddr: 0x17990, symBinAddr: 0x17510, symSize: 0xBE0 }
  - { offset: 0xD02A3, size: 0x8, addend: 0x0, symName: __ZN14powersync_core2kv9client_id17h12c658adc758de84E, symObjAddr: 0x15FAC, symBinAddr: 0x15B2C, symSize: 0xAC }
  - { offset: 0xD0471, size: 0x8, addend: 0x0, symName: __ZN14powersync_core2kv19powersync_client_id17h3a6d169b570305cbE, symObjAddr: 0x165DC, symBinAddr: 0x1615C, symSize: 0x5C }
  - { offset: 0xD0645, size: 0x8, addend: 0x0, symName: __ZN14powersync_core2kv24powersync_last_synced_at17h6a1268418e9e409bE, symObjAddr: 0x16638, symBinAddr: 0x161B8, symSize: 0x108 }
  - { offset: 0xD0848, size: 0x8, addend: 0x0, symName: __ZN14powersync_core10migrations17powersync_migrate17hfbd1d072cbe467b7E, symObjAddr: 0x16754, symBinAddr: 0x162D4, symSize: 0x7B4 }
  - { offset: 0xD168A, size: 0x8, addend: 0x0, symName: __ZN14powersync_core7version20powersync_rs_version17h5d2a1b9ba9d49354E, symObjAddr: 0x18A40, symBinAddr: 0x185C0, symSize: 0xB0 }
  - { offset: 0xD1903, size: 0x8, addend: 0x0, symName: '__ZN95_$LT$$BP$mut$u20$sqlite3_capi..bindings..sqlite3$u20$as$u20$sqlite_nostd..nostd..Connection$GT$10prepare_v217h763be88c8ff16965E', symObjAddr: 0x16058, symBinAddr: 0x15BD8, symSize: 0x550 }
  - { offset: 0xD19E0, size: 0x8, addend: 0x0, symName: '__ZN95_$LT$$BP$mut$u20$sqlite3_capi..bindings..sqlite3$u20$as$u20$sqlite_nostd..nostd..Connection$GT$9exec_safe17hb2135129173c6759E', symObjAddr: 0x16F08, symBinAddr: 0x16A88, symSize: 0x54 }
  - { offset: 0xD2190, size: 0x8, addend: 0x0, symName: '__ZN4core3ptr59drop_in_place$LT$serde..__private..de..content..Content$GT$17hc75cc8c56da81266E.1051', symObjAddr: 0x15DB0, symBinAddr: 0x15988, symSize: 0x48 }
  - { offset: 0xD21E0, size: 0x8, addend: 0x0, symName: '__ZN4core3ptr131drop_in_place$LT$alloc..vec..Vec$LT$$LP$serde..__private..de..content..Content$C$serde..__private..de..content..Content$RP$$GT$$GT$17hfabe26090a395c7eE', symObjAddr: 0x15DF8, symBinAddr: 0x159D0, symSize: 0x20 }
  - { offset: 0xD222E, size: 0x8, addend: 0x0, symName: '__ZN4core3ptr84drop_in_place$LT$alloc..boxed..Box$LT$serde..__private..de..content..Content$GT$$GT$17hc52b5449d0231028E.1052', symObjAddr: 0x15E18, symBinAddr: 0x159F0, symSize: 0x20 }
  - { offset: 0xD232E, size: 0x8, addend: 0x0, symName: '__ZN4core3ptr82drop_in_place$LT$alloc..vec..Vec$LT$serde..__private..de..content..Content$GT$$GT$17hfe0c2bfc00be7681E', symObjAddr: 0x15E38, symBinAddr: 0x15A10, symSize: 0x20 }
  - { offset: 0xD247D, size: 0x8, addend: 0x0, symName: '__ZN4core3ptr47drop_in_place$LT$alloc..ffi..c_str..CString$GT$17he23c1a35578a78beE', symObjAddr: 0x16F5C, symBinAddr: 0x16ADC, symSize: 0x10 }
  - { offset: 0xD24A3, size: 0x8, addend: 0x0, symName: '__ZN4core3ptr47drop_in_place$LT$alloc..ffi..c_str..CString$GT$17he23c1a35578a78beE', symObjAddr: 0x16F5C, symBinAddr: 0x16ADC, symSize: 0x10 }
  - { offset: 0xD2586, size: 0x8, addend: 0x0, symName: '__ZN4core3ptr74drop_in_place$LT$powersync_core..sync..storage_adapter..StorageAdapter$GT$17h9428e2655ae9384bE', symObjAddr: 0x176B8, symBinAddr: 0x17238, symSize: 0x38 }
  - { offset: 0xD2671, size: 0x8, addend: 0x0, symName: '__ZN4core3ptr78drop_in_place$LT$powersync_core..operations..insert_operation..BucketBatch$GT$17h5b00809dbe4dc978E', symObjAddr: 0x176F0, symBinAddr: 0x17270, symSize: 0x20 }
  - { offset: 0xD2770, size: 0x8, addend: 0x0, symName: '__ZN4core3ptr51drop_in_place$LT$powersync_core..schema..Schema$GT$17h1e7be72858d29370E.1120', symObjAddr: 0x18570, symBinAddr: 0x180F0, symSize: 0x38 }
  - { offset: 0xDB7DF, size: 0x8, addend: 0x0, symName: '__ZN5serde9__private2de7content28ContentDeserializer$LT$E$GT$12invalid_type17he06d9e0f3a1366f2E', symObjAddr: 0x15C88, symBinAddr: 0x3EC48, symSize: 0x128 }
  - { offset: 0xDBAD8, size: 0x8, addend: 0x0, symName: '__ZN5alloc11collections5btree8navigate142_$LT$impl$u20$alloc..collections..btree..node..NodeRef$LT$BorrowType$C$K$C$V$C$alloc..collections..btree..node..marker..LeafOrInternal$GT$$GT$15first_leaf_edge17ha86afb01c24bc131E', symObjAddr: 0x15E88, symBinAddr: 0x15A60, symSize: 0x14 }
  - { offset: 0xDBAFB, size: 0x8, addend: 0x0, symName: '__ZN5alloc11collections5btree8navigate142_$LT$impl$u20$alloc..collections..btree..node..NodeRef$LT$BorrowType$C$K$C$V$C$alloc..collections..btree..node..marker..LeafOrInternal$GT$$GT$15first_leaf_edge17ha86afb01c24bc131E', symObjAddr: 0x15E88, symBinAddr: 0x15A60, symSize: 0x14 }
  - { offset: 0xDBC00, size: 0x8, addend: 0x0, symName: '__ZN5alloc11collections5btree8navigate142_$LT$impl$u20$alloc..collections..btree..node..NodeRef$LT$BorrowType$C$K$C$V$C$alloc..collections..btree..node..marker..LeafOrInternal$GT$$GT$15first_leaf_edge17h4217a831bf1c040dE', symObjAddr: 0x15E9C, symBinAddr: 0x15A74, symSize: 0x14 }
  - { offset: 0xDBC23, size: 0x8, addend: 0x0, symName: '__ZN5alloc11collections5btree8navigate142_$LT$impl$u20$alloc..collections..btree..node..NodeRef$LT$BorrowType$C$K$C$V$C$alloc..collections..btree..node..marker..LeafOrInternal$GT$$GT$15first_leaf_edge17h4217a831bf1c040dE', symObjAddr: 0x15E9C, symBinAddr: 0x15A74, symSize: 0x14 }
  - { offset: 0xDBD28, size: 0x8, addend: 0x0, symName: '__ZN5alloc11collections5btree8navigate142_$LT$impl$u20$alloc..collections..btree..node..NodeRef$LT$BorrowType$C$K$C$V$C$alloc..collections..btree..node..marker..LeafOrInternal$GT$$GT$15first_leaf_edge17h8c1040412ed1a006E', symObjAddr: 0x15EB0, symBinAddr: 0x15A88, symSize: 0x14 }
  - { offset: 0xDBD4B, size: 0x8, addend: 0x0, symName: '__ZN5alloc11collections5btree8navigate142_$LT$impl$u20$alloc..collections..btree..node..NodeRef$LT$BorrowType$C$K$C$V$C$alloc..collections..btree..node..marker..LeafOrInternal$GT$$GT$15first_leaf_edge17h8c1040412ed1a006E', symObjAddr: 0x15EB0, symBinAddr: 0x15A88, symSize: 0x14 }
  - { offset: 0xDBE50, size: 0x8, addend: 0x0, symName: '__ZN5alloc11collections5btree8navigate142_$LT$impl$u20$alloc..collections..btree..node..NodeRef$LT$BorrowType$C$K$C$V$C$alloc..collections..btree..node..marker..LeafOrInternal$GT$$GT$15first_leaf_edge17hf85980b870fd2908E', symObjAddr: 0x15EC4, symBinAddr: 0x15A9C, symSize: 0x14 }
  - { offset: 0xDBE73, size: 0x8, addend: 0x0, symName: '__ZN5alloc11collections5btree8navigate142_$LT$impl$u20$alloc..collections..btree..node..NodeRef$LT$BorrowType$C$K$C$V$C$alloc..collections..btree..node..marker..LeafOrInternal$GT$$GT$15first_leaf_edge17hf85980b870fd2908E', symObjAddr: 0x15EC4, symBinAddr: 0x15A9C, symSize: 0x14 }
  - { offset: 0xDBF78, size: 0x8, addend: 0x0, symName: '__ZN5alloc7raw_vec20RawVecInner$LT$A$GT$16with_capacity_in17he67208dd9b65800dE', symObjAddr: 0x15F30, symBinAddr: 0x15AB0, symSize: 0x30 }
  - { offset: 0xDC04C, size: 0x8, addend: 0x0, symName: __ZN12sqlite_nostd5nostd11ManagedStmt11column_text17ha73a913892e47e82E, symObjAddr: 0x165A8, symBinAddr: 0x16128, symSize: 0x34 }
  - { offset: 0xDC120, size: 0x8, addend: 0x0, symName: __ZN12sqlite_nostd5nostd11ManagedStmt8bind_int17h12094834e63a92adE, symObjAddr: 0x16740, symBinAddr: 0x162C0, symSize: 0x14 }
  - { offset: 0xDC4AD, size: 0x8, addend: 0x0, symName: '__ZN5alloc3vec16Vec$LT$T$C$A$GT$4push17h242bd60bc29f3c05E', symObjAddr: 0x16F6C, symBinAddr: 0x16AEC, symSize: 0x28 }
  - { offset: 0xDC670, size: 0x8, addend: 0x0, symName: __ZN12sqlite_nostd5nostd11ManagedStmt10bind_int6417h159c52b803bcc6e0E, symObjAddr: 0x17710, symBinAddr: 0x17290, symSize: 0x14 }
  - { offset: 0xDC6B0, size: 0x8, addend: 0x0, symName: __ZN12sqlite_nostd5nostd11ManagedStmt9bind_text17hbb4837cd72115dcaE, symObjAddr: 0x17724, symBinAddr: 0x172A4, symSize: 0x14 }
  - { offset: 0xDC700, size: 0x8, addend: 0x0, symName: __ZN12sqlite_nostd5nostd11ManagedStmt9bind_null17h2625c3043d03952dE, symObjAddr: 0x17738, symBinAddr: 0x172B8, symSize: 0x14 }
  - { offset: 0xDD021, size: 0x8, addend: 0x0, symName: _OUTLINED_FUNCTION_1, symObjAddr: 0x3B09C, symBinAddr: 0x39C9C, symSize: 0x1C }
  - { offset: 0xDD038, size: 0x8, addend: 0x0, symName: _OUTLINED_FUNCTION_9, symObjAddr: 0x3B144, symBinAddr: 0x39D44, symSize: 0x10 }
  - { offset: 0xDD04F, size: 0x8, addend: 0x0, symName: _OUTLINED_FUNCTION_12, symObjAddr: 0x3B178, symBinAddr: 0x39D78, symSize: 0x18 }
  - { offset: 0xDD066, size: 0x8, addend: 0x0, symName: _OUTLINED_FUNCTION_27, symObjAddr: 0x3B278, symBinAddr: 0x39E78, symSize: 0x10 }
  - { offset: 0xDD07D, size: 0x8, addend: 0x0, symName: _OUTLINED_FUNCTION_29, symObjAddr: 0x3B298, symBinAddr: 0x39E98, symSize: 0x10 }
  - { offset: 0xDD094, size: 0x8, addend: 0x0, symName: _OUTLINED_FUNCTION_30, symObjAddr: 0x3B2A8, symBinAddr: 0x39EA8, symSize: 0x10 }
  - { offset: 0xDD0AB, size: 0x8, addend: 0x0, symName: _OUTLINED_FUNCTION_32, symObjAddr: 0x3B2CC, symBinAddr: 0x39ECC, symSize: 0x10 }
  - { offset: 0xDD0C2, size: 0x8, addend: 0x0, symName: _OUTLINED_FUNCTION_81, symObjAddr: 0x3B6F4, symBinAddr: 0x3A2F4, symSize: 0x10 }
  - { offset: 0xDD0D9, size: 0x8, addend: 0x0, symName: _OUTLINED_FUNCTION_85, symObjAddr: 0x3B728, symBinAddr: 0x3A328, symSize: 0x24 }
  - { offset: 0xDD0F0, size: 0x8, addend: 0x0, symName: _OUTLINED_FUNCTION_94, symObjAddr: 0x3B7F4, symBinAddr: 0x3A3F4, symSize: 0x10 }
  - { offset: 0xDD107, size: 0x8, addend: 0x0, symName: _OUTLINED_FUNCTION_98, symObjAddr: 0x3B854, symBinAddr: 0x3A454, symSize: 0x10 }
  - { offset: 0xDD11E, size: 0x8, addend: 0x0, symName: _OUTLINED_FUNCTION_109, symObjAddr: 0x3B920, symBinAddr: 0x3A520, symSize: 0x14 }
  - { offset: 0xDD135, size: 0x8, addend: 0x0, symName: _OUTLINED_FUNCTION_119, symObjAddr: 0x3BA1C, symBinAddr: 0x3A61C, symSize: 0xC }
  - { offset: 0xDD14C, size: 0x8, addend: 0x0, symName: _OUTLINED_FUNCTION_123, symObjAddr: 0x3BA4C, symBinAddr: 0x3A64C, symSize: 0x28 }
  - { offset: 0xDD163, size: 0x8, addend: 0x0, symName: _OUTLINED_FUNCTION_132, symObjAddr: 0x3BB18, symBinAddr: 0x3A718, symSize: 0x10 }
  - { offset: 0xDD17A, size: 0x8, addend: 0x0, symName: _OUTLINED_FUNCTION_148, symObjAddr: 0x3BC78, symBinAddr: 0x3A878, symSize: 0xC }
  - { offset: 0xDD191, size: 0x8, addend: 0x0, symName: _OUTLINED_FUNCTION_150, symObjAddr: 0x3BC98, symBinAddr: 0x3A898, symSize: 0xC }
  - { offset: 0xDD1A8, size: 0x8, addend: 0x0, symName: _OUTLINED_FUNCTION_161, symObjAddr: 0x3BD44, symBinAddr: 0x3A944, symSize: 0x18 }
  - { offset: 0xDD1BF, size: 0x8, addend: 0x0, symName: _OUTLINED_FUNCTION_164, symObjAddr: 0x3BD74, symBinAddr: 0x3A974, symSize: 0x18 }
  - { offset: 0xDD1D6, size: 0x8, addend: 0x0, symName: _OUTLINED_FUNCTION_172, symObjAddr: 0x3BDD8, symBinAddr: 0x3A9D8, symSize: 0x8 }
  - { offset: 0xDD1ED, size: 0x8, addend: 0x0, symName: _OUTLINED_FUNCTION_202, symObjAddr: 0x3BFF0, symBinAddr: 0x3ABF0, symSize: 0x14 }
  - { offset: 0xDD204, size: 0x8, addend: 0x0, symName: _OUTLINED_FUNCTION_259, symObjAddr: 0x3C344, symBinAddr: 0x3AF44, symSize: 0x10 }
  - { offset: 0xDD21B, size: 0x8, addend: 0x0, symName: _OUTLINED_FUNCTION_260, symObjAddr: 0x3C354, symBinAddr: 0x3AF54, symSize: 0x8 }
  - { offset: 0xDD232, size: 0x8, addend: 0x0, symName: _OUTLINED_FUNCTION_262, symObjAddr: 0x3C364, symBinAddr: 0x3AF64, symSize: 0x8 }
  - { offset: 0xDD249, size: 0x8, addend: 0x0, symName: _OUTLINED_FUNCTION_269, symObjAddr: 0x3C3AC, symBinAddr: 0x3AFAC, symSize: 0xC }
  - { offset: 0xDD260, size: 0x8, addend: 0x0, symName: _OUTLINED_FUNCTION_287, symObjAddr: 0x3C4C8, symBinAddr: 0x3B0C8, symSize: 0x8 }
  - { offset: 0xDD277, size: 0x8, addend: 0x0, symName: _OUTLINED_FUNCTION_296, symObjAddr: 0x3C53C, symBinAddr: 0x3B13C, symSize: 0x8 }
  - { offset: 0xDD28E, size: 0x8, addend: 0x0, symName: _OUTLINED_FUNCTION_302, symObjAddr: 0x3C580, symBinAddr: 0x3B180, symSize: 0xC }
  - { offset: 0xDD2A5, size: 0x8, addend: 0x0, symName: _OUTLINED_FUNCTION_309, symObjAddr: 0x3C5E8, symBinAddr: 0x3B1E8, symSize: 0x10 }
  - { offset: 0xDD2BC, size: 0x8, addend: 0x0, symName: _OUTLINED_FUNCTION_312, symObjAddr: 0x3C610, symBinAddr: 0x3B210, symSize: 0xC }
  - { offset: 0xDD2D3, size: 0x8, addend: 0x0, symName: _OUTLINED_FUNCTION_325, symObjAddr: 0x3C6B4, symBinAddr: 0x3B2B4, symSize: 0xC }
  - { offset: 0xDD2EA, size: 0x8, addend: 0x0, symName: _OUTLINED_FUNCTION_333, symObjAddr: 0x3C724, symBinAddr: 0x3B324, symSize: 0xC }
  - { offset: 0xDD301, size: 0x8, addend: 0x0, symName: _OUTLINED_FUNCTION_334, symObjAddr: 0x3C730, symBinAddr: 0x3B330, symSize: 0x10 }
  - { offset: 0xDD318, size: 0x8, addend: 0x0, symName: _OUTLINED_FUNCTION_337, symObjAddr: 0x3C758, symBinAddr: 0x3B358, symSize: 0x10 }
  - { offset: 0xDD32F, size: 0x8, addend: 0x0, symName: _OUTLINED_FUNCTION_345, symObjAddr: 0x3C7BC, symBinAddr: 0x3B3BC, symSize: 0xC }
  - { offset: 0xDD346, size: 0x8, addend: 0x0, symName: _OUTLINED_FUNCTION_346, symObjAddr: 0x3C7C8, symBinAddr: 0x3B3C8, symSize: 0xC }
  - { offset: 0xDD35D, size: 0x8, addend: 0x0, symName: _OUTLINED_FUNCTION_348, symObjAddr: 0x3C7E0, symBinAddr: 0x3B3E0, symSize: 0x10 }
  - { offset: 0xDD374, size: 0x8, addend: 0x0, symName: _OUTLINED_FUNCTION_358, symObjAddr: 0x3C870, symBinAddr: 0x3B470, symSize: 0xC }
  - { offset: 0xDD38B, size: 0x8, addend: 0x0, symName: _OUTLINED_FUNCTION_359, symObjAddr: 0x3C87C, symBinAddr: 0x3B47C, symSize: 0x8 }
  - { offset: 0xDD3A2, size: 0x8, addend: 0x0, symName: _OUTLINED_FUNCTION_360, symObjAddr: 0x3C884, symBinAddr: 0x3B484, symSize: 0x8 }
  - { offset: 0xDD3B9, size: 0x8, addend: 0x0, symName: _OUTLINED_FUNCTION_361, symObjAddr: 0x3C88C, symBinAddr: 0x3B48C, symSize: 0x8 }
  - { offset: 0xDD3D0, size: 0x8, addend: 0x0, symName: _OUTLINED_FUNCTION_364, symObjAddr: 0x3C8A8, symBinAddr: 0x3B4A8, symSize: 0xC }
  - { offset: 0xDD3E7, size: 0x8, addend: 0x0, symName: _OUTLINED_FUNCTION_392, symObjAddr: 0x3CA90, symBinAddr: 0x3B690, symSize: 0x18 }
  - { offset: 0xDD3FE, size: 0x8, addend: 0x0, symName: _OUTLINED_FUNCTION_394, symObjAddr: 0x3CAB0, symBinAddr: 0x3B6B0, symSize: 0xC }
  - { offset: 0xDD415, size: 0x8, addend: 0x0, symName: _OUTLINED_FUNCTION_411, symObjAddr: 0x3CB90, symBinAddr: 0x3B790, symSize: 0x8 }
  - { offset: 0xDD42C, size: 0x8, addend: 0x0, symName: _OUTLINED_FUNCTION_434, symObjAddr: 0x3CC84, symBinAddr: 0x3B884, symSize: 0x8 }
  - { offset: 0xDD443, size: 0x8, addend: 0x0, symName: _OUTLINED_FUNCTION_435, symObjAddr: 0x3CC8C, symBinAddr: 0x3B88C, symSize: 0x8 }
  - { offset: 0xDD45A, size: 0x8, addend: 0x0, symName: _OUTLINED_FUNCTION_448, symObjAddr: 0x3CD34, symBinAddr: 0x3B934, symSize: 0xC }
  - { offset: 0xDD471, size: 0x8, addend: 0x0, symName: _OUTLINED_FUNCTION_449, symObjAddr: 0x3CD40, symBinAddr: 0x3B940, symSize: 0xC }
  - { offset: 0xDD488, size: 0x8, addend: 0x0, symName: _OUTLINED_FUNCTION_451, symObjAddr: 0x3CD58, symBinAddr: 0x3B958, symSize: 0xC }
  - { offset: 0xDD49F, size: 0x8, addend: 0x0, symName: _OUTLINED_FUNCTION_452, symObjAddr: 0x3CD64, symBinAddr: 0x3B964, symSize: 0xC }
  - { offset: 0xDD4B6, size: 0x8, addend: 0x0, symName: _OUTLINED_FUNCTION_456, symObjAddr: 0x3CD98, symBinAddr: 0x3B998, symSize: 0x8 }
  - { offset: 0xDD4CD, size: 0x8, addend: 0x0, symName: _OUTLINED_FUNCTION_467, symObjAddr: 0x3CE54, symBinAddr: 0x3BA54, symSize: 0x8 }
  - { offset: 0xDD4E4, size: 0x8, addend: 0x0, symName: _OUTLINED_FUNCTION_482, symObjAddr: 0x3CF58, symBinAddr: 0x3BB58, symSize: 0x8 }
  - { offset: 0xDD4FB, size: 0x8, addend: 0x0, symName: _OUTLINED_FUNCTION_483, symObjAddr: 0x3CF60, symBinAddr: 0x3BB60, symSize: 0x8 }
  - { offset: 0xDD512, size: 0x8, addend: 0x0, symName: _OUTLINED_FUNCTION_493, symObjAddr: 0x3D024, symBinAddr: 0x3BC24, symSize: 0xC }
  - { offset: 0xDD529, size: 0x8, addend: 0x0, symName: _OUTLINED_FUNCTION_544, symObjAddr: 0x3D30C, symBinAddr: 0x3BF0C, symSize: 0x8 }
  - { offset: 0xDD540, size: 0x8, addend: 0x0, symName: _OUTLINED_FUNCTION_550, symObjAddr: 0x3D34C, symBinAddr: 0x3BF4C, symSize: 0xC }
  - { offset: 0xDD557, size: 0x8, addend: 0x0, symName: _OUTLINED_FUNCTION_552, symObjAddr: 0x3D360, symBinAddr: 0x3BF60, symSize: 0x8 }
  - { offset: 0xDD56E, size: 0x8, addend: 0x0, symName: _OUTLINED_FUNCTION_553, symObjAddr: 0x3D368, symBinAddr: 0x3BF68, symSize: 0x8 }
  - { offset: 0xDD585, size: 0x8, addend: 0x0, symName: _OUTLINED_FUNCTION_566, symObjAddr: 0x3D424, symBinAddr: 0x3C024, symSize: 0x8 }
  - { offset: 0xDD59C, size: 0x8, addend: 0x0, symName: _OUTLINED_FUNCTION_572, symObjAddr: 0x3D468, symBinAddr: 0x3C068, symSize: 0xC }
  - { offset: 0xDD5B3, size: 0x8, addend: 0x0, symName: _OUTLINED_FUNCTION_578, symObjAddr: 0x3D4AC, symBinAddr: 0x3C0AC, symSize: 0x10 }
  - { offset: 0xDD5CA, size: 0x8, addend: 0x0, symName: _OUTLINED_FUNCTION_629, symObjAddr: 0x3D7DC, symBinAddr: 0x3C3DC, symSize: 0xC }
  - { offset: 0xDD5E1, size: 0x8, addend: 0x0, symName: _OUTLINED_FUNCTION_640, symObjAddr: 0x3D878, symBinAddr: 0x3C478, symSize: 0xC }
  - { offset: 0xDD5F8, size: 0x8, addend: 0x0, symName: _OUTLINED_FUNCTION_646, symObjAddr: 0x3D8D4, symBinAddr: 0x3C4D4, symSize: 0x8 }
  - { offset: 0xDD60F, size: 0x8, addend: 0x0, symName: _OUTLINED_FUNCTION_660, symObjAddr: 0x3D980, symBinAddr: 0x3C580, symSize: 0x8 }
  - { offset: 0xDD626, size: 0x8, addend: 0x0, symName: _OUTLINED_FUNCTION_670, symObjAddr: 0x3D9E8, symBinAddr: 0x3C5E8, symSize: 0x8 }
  - { offset: 0xDD63D, size: 0x8, addend: 0x0, symName: _OUTLINED_FUNCTION_691, symObjAddr: 0x3DB58, symBinAddr: 0x3C758, symSize: 0xC }
  - { offset: 0xDD654, size: 0x8, addend: 0x0, symName: _OUTLINED_FUNCTION_693, symObjAddr: 0x3DB70, symBinAddr: 0x3C770, symSize: 0xC }
  - { offset: 0xDD66B, size: 0x8, addend: 0x0, symName: _OUTLINED_FUNCTION_701, symObjAddr: 0x3DBD0, symBinAddr: 0x3C7D0, symSize: 0xC }
  - { offset: 0xDD682, size: 0x8, addend: 0x0, symName: _OUTLINED_FUNCTION_707, symObjAddr: 0x3DC64, symBinAddr: 0x3C864, symSize: 0x1C }
  - { offset: 0xDD699, size: 0x8, addend: 0x0, symName: _OUTLINED_FUNCTION_771, symObjAddr: 0x3DFB0, symBinAddr: 0x3CBB0, symSize: 0xC }
  - { offset: 0xDD6B0, size: 0x8, addend: 0x0, symName: _OUTLINED_FUNCTION_797, symObjAddr: 0x3E0D8, symBinAddr: 0x3CCD8, symSize: 0x10 }
  - { offset: 0xDD6C7, size: 0x8, addend: 0x0, symName: _OUTLINED_FUNCTION_798, symObjAddr: 0x3E0E8, symBinAddr: 0x3CCE8, symSize: 0x8 }
  - { offset: 0xDD6DE, size: 0x8, addend: 0x0, symName: _OUTLINED_FUNCTION_819, symObjAddr: 0x3E20C, symBinAddr: 0x3CE0C, symSize: 0x8 }
  - { offset: 0xDD6F5, size: 0x8, addend: 0x0, symName: _OUTLINED_FUNCTION_823, symObjAddr: 0x3E22C, symBinAddr: 0x3CE2C, symSize: 0x8 }
  - { offset: 0xDD70C, size: 0x8, addend: 0x0, symName: _OUTLINED_FUNCTION_825, symObjAddr: 0x3E23C, symBinAddr: 0x3CE3C, symSize: 0x8 }
  - { offset: 0xDD723, size: 0x8, addend: 0x0, symName: _OUTLINED_FUNCTION_909, symObjAddr: 0x3E798, symBinAddr: 0x3D398, symSize: 0xC }
  - { offset: 0xDD73A, size: 0x8, addend: 0x0, symName: _OUTLINED_FUNCTION_926, symObjAddr: 0x3E864, symBinAddr: 0x3D464, symSize: 0xC }
  - { offset: 0xDD751, size: 0x8, addend: 0x0, symName: _OUTLINED_FUNCTION_939, symObjAddr: 0x3E900, symBinAddr: 0x3D500, symSize: 0xC }
  - { offset: 0xDD768, size: 0x8, addend: 0x0, symName: _OUTLINED_FUNCTION_949, symObjAddr: 0x3E978, symBinAddr: 0x3D578, symSize: 0xC }
  - { offset: 0xDD77F, size: 0x8, addend: 0x0, symName: _OUTLINED_FUNCTION_966, symObjAddr: 0x3EA38, symBinAddr: 0x3D638, symSize: 0xC }
  - { offset: 0xDD796, size: 0x8, addend: 0x0, symName: _OUTLINED_FUNCTION_1013, symObjAddr: 0x3EC08, symBinAddr: 0x3D808, symSize: 0x8 }
  - { offset: 0xDD7AD, size: 0x8, addend: 0x0, symName: _OUTLINED_FUNCTION_1028, symObjAddr: 0x3EC98, symBinAddr: 0x3D898, symSize: 0xC }
  - { offset: 0xDD7C4, size: 0x8, addend: 0x0, symName: _OUTLINED_FUNCTION_1048, symObjAddr: 0x3ED64, symBinAddr: 0x3D964, symSize: 0x8 }
  - { offset: 0xDD7DB, size: 0x8, addend: 0x0, symName: _OUTLINED_FUNCTION_1057, symObjAddr: 0x3EDB0, symBinAddr: 0x3D9B0, symSize: 0x8 }
  - { offset: 0xDD7F2, size: 0x8, addend: 0x0, symName: _OUTLINED_FUNCTION_1058, symObjAddr: 0x3EDB8, symBinAddr: 0x3D9B8, symSize: 0xC }
  - { offset: 0xDD809, size: 0x8, addend: 0x0, symName: _OUTLINED_FUNCTION_1059, symObjAddr: 0x3EDC4, symBinAddr: 0x3D9C4, symSize: 0xC }
  - { offset: 0xDD820, size: 0x8, addend: 0x0, symName: _OUTLINED_FUNCTION_1062, symObjAddr: 0x3EDE4, symBinAddr: 0x3D9E4, symSize: 0xC }
  - { offset: 0xDD837, size: 0x8, addend: 0x0, symName: _OUTLINED_FUNCTION_1073, symObjAddr: 0x3EE4C, symBinAddr: 0x3DA4C, symSize: 0x8 }
  - { offset: 0xDD84E, size: 0x8, addend: 0x0, symName: _OUTLINED_FUNCTION_1076, symObjAddr: 0x3EE6C, symBinAddr: 0x3DA6C, symSize: 0x8 }
  - { offset: 0xDD865, size: 0x8, addend: 0x0, symName: _OUTLINED_FUNCTION_1093, symObjAddr: 0x3EF08, symBinAddr: 0x3DB08, symSize: 0x8 }
  - { offset: 0xDD87C, size: 0x8, addend: 0x0, symName: _OUTLINED_FUNCTION_1097, symObjAddr: 0x3EF30, symBinAddr: 0x3DB30, symSize: 0x8 }
  - { offset: 0xDD893, size: 0x8, addend: 0x0, symName: _OUTLINED_FUNCTION_1102, symObjAddr: 0x3EF6C, symBinAddr: 0x3DB6C, symSize: 0xC }
  - { offset: 0xDD8AA, size: 0x8, addend: 0x0, symName: _OUTLINED_FUNCTION_1108, symObjAddr: 0x3EFBC, symBinAddr: 0x3DBBC, symSize: 0xC }
  - { offset: 0xDD8C1, size: 0x8, addend: 0x0, symName: _OUTLINED_FUNCTION_1144, symObjAddr: 0x3F1EC, symBinAddr: 0x3DDEC, symSize: 0xC }
  - { offset: 0xDD8D8, size: 0x8, addend: 0x0, symName: _OUTLINED_FUNCTION_1170, symObjAddr: 0x3F374, symBinAddr: 0x3DF74, symSize: 0xC }
  - { offset: 0xDD8EF, size: 0x8, addend: 0x0, symName: _OUTLINED_FUNCTION_1180, symObjAddr: 0x3F404, symBinAddr: 0x3E004, symSize: 0xC }
  - { offset: 0xDD906, size: 0x8, addend: 0x0, symName: _OUTLINED_FUNCTION_1196, symObjAddr: 0x3F4E4, symBinAddr: 0x3E0E4, symSize: 0xC }
  - { offset: 0xDD91D, size: 0x8, addend: 0x0, symName: _OUTLINED_FUNCTION_1197, symObjAddr: 0x3F4F0, symBinAddr: 0x3E0F0, symSize: 0xC }
  - { offset: 0xDD934, size: 0x8, addend: 0x0, symName: _OUTLINED_FUNCTION_1203, symObjAddr: 0x3F538, symBinAddr: 0x3E138, symSize: 0xC }
  - { offset: 0xDD94B, size: 0x8, addend: 0x0, symName: _OUTLINED_FUNCTION_1208, symObjAddr: 0x3F5B4, symBinAddr: 0x3E1B4, symSize: 0x1C }
  - { offset: 0x19BF34, size: 0x8, addend: 0x0, symName: '__ZN5alloc11collections5btree4node21LeafNode$LT$K$C$V$GT$3new17h602ba44a90221214E', symObjAddr: 0x35714, symBinAddr: 0x348C8, symSize: 0x24 }
  - { offset: 0x19ED06, size: 0x8, addend: 0x0, symName: __ZN5alloc11collections5btree4node12slice_insert17h59e551bf4838eea9E, symObjAddr: 0x357D0, symBinAddr: 0x34984, symSize: 0x5C }
  - { offset: 0x19EE04, size: 0x8, addend: 0x0, symName: __ZN5alloc11collections5btree4node13move_to_slice17h16c5e30f87f65e73E, symObjAddr: 0x3582C, symBinAddr: 0x349E0, symSize: 0x24 }
  - { offset: 0x19EE73, size: 0x8, addend: 0x0, symName: __ZN5alloc11collections5btree4node13move_to_slice17h28a4122a921bc64fE, symObjAddr: 0x35850, symBinAddr: 0x34A04, symSize: 0x20 }
  - { offset: 0x19EEE2, size: 0x8, addend: 0x0, symName: __ZN5alloc11collections5btree4node13move_to_slice17h9a69989910ed9b0eE, symObjAddr: 0x35870, symBinAddr: 0x34A24, symSize: 0x20 }
  - { offset: 0x1A0C28, size: 0x8, addend: 0x0, symName: '__ZN5alloc11collections5btree4node21LeafNode$LT$K$C$V$GT$3new17h602ba44a90221214E', symObjAddr: 0x35714, symBinAddr: 0x348C8, symSize: 0x24 }
  - { offset: 0x1A0E00, size: 0x8, addend: 0x0, symName: '__ZN5alloc11collections5btree4node119NodeRef$LT$alloc..collections..btree..node..marker..Mut$C$K$C$V$C$alloc..collections..btree..node..marker..Internal$GT$30correct_childrens_parent_links17hf9a4974515f47555E', symObjAddr: 0x35738, symBinAddr: 0x348EC, symSize: 0x24 }
  - { offset: 0x1A0E2F, size: 0x8, addend: 0x0, symName: '__ZN5alloc11collections5btree4node119NodeRef$LT$alloc..collections..btree..node..marker..Mut$C$K$C$V$C$alloc..collections..btree..node..marker..Internal$GT$30correct_childrens_parent_links17hf9a4974515f47555E', symObjAddr: 0x35738, symBinAddr: 0x348EC, symSize: 0x24 }
  - { offset: 0x1A0FCC, size: 0x8, addend: 0x0, symName: '__ZN5alloc11collections5btree4node25InternalNode$LT$K$C$V$GT$3new17hacb69501287ce8d0E', symObjAddr: 0x3575C, symBinAddr: 0x34910, symSize: 0x24 }
  - { offset: 0x1A118A, size: 0x8, addend: 0x0, symName: '__ZN5alloc11collections5btree4node121NodeRef$LT$alloc..collections..btree..node..marker..Owned$C$K$C$V$C$alloc..collections..btree..node..marker..Internal$GT$17from_new_internal17hc040be57dd8d86dbE', symObjAddr: 0x35780, symBinAddr: 0x34934, symSize: 0x38 }
  - { offset: 0x1A146E, size: 0x8, addend: 0x0, symName: '__ZN5alloc11collections5btree4node127NodeRef$LT$alloc..collections..btree..node..marker..Dying$C$K$C$V$C$alloc..collections..btree..node..marker..LeafOrInternal$GT$21deallocate_and_ascend17h2ffa27b77984bea6E', symObjAddr: 0x357B8, symBinAddr: 0x3496C, symSize: 0x18 }
  - { offset: 0x1A149D, size: 0x8, addend: 0x0, symName: '__ZN5alloc11collections5btree4node127NodeRef$LT$alloc..collections..btree..node..marker..Dying$C$K$C$V$C$alloc..collections..btree..node..marker..LeafOrInternal$GT$21deallocate_and_ascend17h2ffa27b77984bea6E', symObjAddr: 0x357B8, symBinAddr: 0x3496C, symSize: 0x18 }
  - { offset: 0x1A14B9, size: 0x8, addend: 0x0, symName: '__ZN5alloc11collections5btree4node127NodeRef$LT$alloc..collections..btree..node..marker..Dying$C$K$C$V$C$alloc..collections..btree..node..marker..LeafOrInternal$GT$21deallocate_and_ascend17h2ffa27b77984bea6E', symObjAddr: 0x357B8, symBinAddr: 0x3496C, symSize: 0x18 }
  - { offset: 0x1A14D9, size: 0x8, addend: 0x0, symName: '__ZN5alloc11collections5btree4node127NodeRef$LT$alloc..collections..btree..node..marker..Dying$C$K$C$V$C$alloc..collections..btree..node..marker..LeafOrInternal$GT$21deallocate_and_ascend17h2ffa27b77984bea6E', symObjAddr: 0x357B8, symBinAddr: 0x3496C, symSize: 0x18 }
  - { offset: 0x1A14F3, size: 0x8, addend: 0x0, symName: '__ZN5alloc11collections5btree4node127NodeRef$LT$alloc..collections..btree..node..marker..Dying$C$K$C$V$C$alloc..collections..btree..node..marker..LeafOrInternal$GT$21deallocate_and_ascend17h2ffa27b77984bea6E', symObjAddr: 0x357B8, symBinAddr: 0x3496C, symSize: 0x18 }
  - { offset: 0x1A165B, size: 0x8, addend: 0x0, symName: '__ZN5alloc11collections5btree4node214Handle$LT$alloc..collections..btree..node..NodeRef$LT$alloc..collections..btree..node..marker..Mut$C$K$C$V$C$alloc..collections..btree..node..marker..Internal$GT$$C$alloc..collections..btree..node..marker..Edge$GT$10insert_fit17h5b6c4d14516398e7E', symObjAddr: 0x35890, symBinAddr: 0x34A44, symSize: 0xA8 }
  - { offset: 0x1B3598, size: 0x8, addend: 0x0, symName: __ZN10serde_json3ser9Formatter10end_object17h4b08323674f307d3E, symObjAddr: 0x38AFC, symBinAddr: 0x37728, symSize: 0x14 }
  - { offset: 0x1B35D3, size: 0x8, addend: 0x0, symName: __ZN10serde_json3ser9Formatter10end_object17h4b08323674f307d3E, symObjAddr: 0x38AFC, symBinAddr: 0x37728, symSize: 0x14 }
  - { offset: 0x1B35F1, size: 0x8, addend: 0x0, symName: __ZN10serde_json3ser9Formatter10end_object17h4b08323674f307d3E, symObjAddr: 0x38AFC, symBinAddr: 0x37728, symSize: 0x14 }
  - { offset: 0x1B360E, size: 0x8, addend: 0x0, symName: __ZN10serde_json3ser9Formatter10end_object17h4b08323674f307d3E, symObjAddr: 0x38AFC, symBinAddr: 0x37728, symSize: 0x14 }
  - { offset: 0x1B3627, size: 0x8, addend: 0x0, symName: __ZN10serde_json3ser9Formatter10end_object17h4b08323674f307d3E, symObjAddr: 0x38AFC, symBinAddr: 0x37728, symSize: 0x14 }
  - { offset: 0x1B48A9, size: 0x8, addend: 0x0, symName: _OUTLINED_FUNCTION_598, symObjAddr: 0x3D5CC, symBinAddr: 0x3C1CC, symSize: 0xC }
  - { offset: 0x1AEA3A, size: 0x8, addend: 0x0, symName: '__ZN74_$LT$alloc..string..String$u20$as$u20$core..ops..index..Index$LT$I$GT$$GT$5index17hd5140d003f171984E', symObjAddr: 0x3878C, symBinAddr: 0x374B4, symSize: 0x34 }
  - { offset: 0x1AEA77, size: 0x8, addend: 0x0, symName: '__ZN74_$LT$alloc..string..String$u20$as$u20$core..ops..index..Index$LT$I$GT$$GT$5index17hd5140d003f171984E', symObjAddr: 0x3878C, symBinAddr: 0x374B4, symSize: 0x34 }
  - { offset: 0x1AEA98, size: 0x8, addend: 0x0, symName: '__ZN74_$LT$alloc..string..String$u20$as$u20$core..ops..index..Index$LT$I$GT$$GT$5index17hd5140d003f171984E', symObjAddr: 0x3878C, symBinAddr: 0x374B4, symSize: 0x34 }
  - { offset: 0x1AEAB9, size: 0x8, addend: 0x0, symName: '__ZN74_$LT$alloc..string..String$u20$as$u20$core..ops..index..Index$LT$I$GT$$GT$5index17hd5140d003f171984E', symObjAddr: 0x3878C, symBinAddr: 0x374B4, symSize: 0x34 }
  - { offset: 0x1AEAE0, size: 0x8, addend: 0x0, symName: '__ZN74_$LT$alloc..string..String$u20$as$u20$core..ops..index..Index$LT$I$GT$$GT$5index17hd5140d003f171984E', symObjAddr: 0x3878C, symBinAddr: 0x374B4, symSize: 0x34 }
  - { offset: 0x1AEBC4, size: 0x8, addend: 0x0, symName: '__ZN74_$LT$alloc..string..String$u20$as$u20$core..ops..index..Index$LT$I$GT$$GT$5index17h6a0519d47b7425faE', symObjAddr: 0x387C0, symBinAddr: 0x374E8, symSize: 0x54 }
  - { offset: 0x1AEC03, size: 0x8, addend: 0x0, symName: '__ZN74_$LT$alloc..string..String$u20$as$u20$core..ops..index..Index$LT$I$GT$$GT$5index17h6a0519d47b7425faE', symObjAddr: 0x387C0, symBinAddr: 0x374E8, symSize: 0x54 }
  - { offset: 0x1AEC26, size: 0x8, addend: 0x0, symName: '__ZN74_$LT$alloc..string..String$u20$as$u20$core..ops..index..Index$LT$I$GT$$GT$5index17h6a0519d47b7425faE', symObjAddr: 0x387C0, symBinAddr: 0x374E8, symSize: 0x54 }
  - { offset: 0x1AEE52, size: 0x8, addend: 0x0, symName: __ZN5alloc5alloc15exchange_malloc17haebdea0162a682c3E.2887, symObjAddr: 0x3804C, symBinAddr: 0x36DB4, symSize: 0x28 }
  - { offset: 0x1AF83B, size: 0x8, addend: 0x0, symName: '__ZN4core3num62_$LT$impl$u20$core..str..traits..FromStr$u20$for$u20$usize$GT$8from_str17h922f550cba0d5c19E', symObjAddr: 0x38814, symBinAddr: 0x3753C, symSize: 0xF0 }
  - { offset: 0x1AF86D, size: 0x8, addend: 0x0, symName: '__ZN4core3num62_$LT$impl$u20$core..str..traits..FromStr$u20$for$u20$usize$GT$8from_str17h922f550cba0d5c19E', symObjAddr: 0x38814, symBinAddr: 0x3753C, symSize: 0xF0 }
  - { offset: 0x1AF891, size: 0x8, addend: 0x0, symName: '__ZN4core3num62_$LT$impl$u20$core..str..traits..FromStr$u20$for$u20$usize$GT$8from_str17h922f550cba0d5c19E', symObjAddr: 0x38814, symBinAddr: 0x3753C, symSize: 0xF0 }
  - { offset: 0x1B0F8E, size: 0x8, addend: 0x0, symName: '__ZN61_$LT$serde_json..error..Error$u20$as$u20$serde..de..Error$GT$6custom17h72d06cd8ae71f345E', symObjAddr: 0x38904, symBinAddr: 0x3FC20, symSize: 0x44 }
  - { offset: 0x1B10EA, size: 0x8, addend: 0x0, symName: '__ZN61_$LT$serde_json..error..Error$u20$as$u20$serde..de..Error$GT$6custom17h80c80052f48f65b4E', symObjAddr: 0x38948, symBinAddr: 0x3FC64, symSize: 0x20 }
  - { offset: 0x1B11A4, size: 0x8, addend: 0x0, symName: '__ZN61_$LT$serde_json..error..Error$u20$as$u20$serde..de..Error$GT$12invalid_type17h5b08059c628413d5E', symObjAddr: 0x38968, symBinAddr: 0x3FC84, symSize: 0x4C }
  - { offset: 0x1B120B, size: 0x8, addend: 0x0, symName: '__ZN61_$LT$serde_json..error..Error$u20$as$u20$serde..de..Error$GT$13invalid_value17h8e33fba770da49b4E', symObjAddr: 0x38AB0, symBinAddr: 0x3FCD0, symSize: 0x4C }
  - { offset: 0x1B1278, size: 0x8, addend: 0x0, symName: '__ZN67_$LT$serde_json..error..ErrorCode$u20$as$u20$core..fmt..Display$GT$3fmt17hd2e548a9850d62c6E', symObjAddr: 0x380B4, symBinAddr: 0x36DDC, symSize: 0x228 }
  - { offset: 0x1B15C8, size: 0x8, addend: 0x0, symName: '__ZN67_$LT$serde_json..error..ErrorImpl$u20$as$u20$core..fmt..Display$GT$3fmt17h9cbe06482555f4baE', symObjAddr: 0x382DC, symBinAddr: 0x37004, symSize: 0x6C }
  - { offset: 0x1B1711, size: 0x8, addend: 0x0, symName: __ZN10serde_json5error10make_error17h7591d5138abd86fbE, symObjAddr: 0x38348, symBinAddr: 0x37070, symSize: 0x2C4 }
  - { offset: 0x1B1D24, size: 0x8, addend: 0x0, symName: '__ZN72_$LT$serde_json..error..JsonUnexpected$u20$as$u20$core..fmt..Display$GT$3fmt17h3453fc66ab4d14bbE', symObjAddr: 0x389B4, symBinAddr: 0x3762C, symSize: 0xFC }
  - { offset: 0x1B223A, size: 0x8, addend: 0x0, symName: __ZN10serde_json5error5Error12fix_position17h754d2fdd7c30f97eE, symObjAddr: 0x38074, symBinAddr: 0x3FBE0, symSize: 0x40 }
  - { offset: 0x1B25AC, size: 0x8, addend: 0x0, symName: __ZN4core3str7pattern14TwoWaySearcher9next_back17h1973922fb0fd85a6E, symObjAddr: 0x3860C, symBinAddr: 0x37334, symSize: 0x180 }
  - { offset: 0x1B2928, size: 0x8, addend: 0x0, symName: _OUTLINED_FUNCTION_757, symObjAddr: 0x3DEE4, symBinAddr: 0x3CAE4, symSize: 0x1C }
  - { offset: 0x4C6C8, size: 0x8, addend: 0x0, symName: __ZN5serde2de12Deserializer21__deserialize_content17h02647b2938d12eb5E, symObjAddr: 0x73BC, symBinAddr: 0x7968, symSize: 0x544 }
  - { offset: 0x4CEE6, size: 0x8, addend: 0x0, symName: '__ZN81_$LT$core..marker..PhantomData$LT$T$GT$$u20$as$u20$serde..de..DeserializeSeed$GT$11deserialize17h7cbd66103552b686E', symObjAddr: 0x7AE0, symBinAddr: 0x808C, symSize: 0x34 }
  - { offset: 0x54608, size: 0x8, addend: 0x0, symName: '__ZN93_$LT$$RF$mut$u20$serde_json..de..Deserializer$LT$R$GT$$u20$as$u20$serde..de..Deserializer$GT$15deserialize_str17hdb9b23d607a8a6c5E', symObjAddr: 0x7FC4, symBinAddr: 0x8570, symSize: 0x114 }
  - { offset: 0x547B8, size: 0x8, addend: 0x0, symName: '__ZN93_$LT$$RF$mut$u20$serde_json..de..Deserializer$LT$R$GT$$u20$as$u20$serde..de..Deserializer$GT$15deserialize_str17h7f069ca7d985168cE', symObjAddr: 0x80D8, symBinAddr: 0x8684, symSize: 0xD8 }
  - { offset: 0x548F0, size: 0x8, addend: 0x0, symName: '__ZN93_$LT$$RF$mut$u20$serde_json..de..Deserializer$LT$R$GT$$u20$as$u20$serde..de..Deserializer$GT$15deserialize_str17hd70e9e20c01bcbfeE', symObjAddr: 0x81B0, symBinAddr: 0x875C, symSize: 0xD8 }
  - { offset: 0x54EFB, size: 0x8, addend: 0x0, symName: '__ZN93_$LT$$RF$mut$u20$serde_json..de..Deserializer$LT$R$GT$$u20$as$u20$serde..de..Deserializer$GT$15deserialize_map17h8fd66ba1c8b984b6E', symObjAddr: 0x8498, symBinAddr: 0x8A10, symSize: 0x1B60 }
  - { offset: 0x577E4, size: 0x8, addend: 0x0, symName: '__ZN93_$LT$$RF$mut$u20$serde_json..de..Deserializer$LT$R$GT$$u20$as$u20$serde..de..Deserializer$GT$15deserialize_str17hd693b172ee143845E', symObjAddr: 0xA088, symBinAddr: 0xA600, symSize: 0xD4 }
  - { offset: 0x59E32, size: 0x8, addend: 0x0, symName: '__ZN75_$LT$serde_json..de..MapAccess$LT$R$GT$$u20$as$u20$serde..de..MapAccess$GT$15next_value_seed17h11177fb4ee7b3d98E', symObjAddr: 0x79BC, symBinAddr: 0x7F68, symSize: 0x30 }
  - { offset: 0x59ED7, size: 0x8, addend: 0x0, symName: '__ZN75_$LT$serde_json..de..MapAccess$LT$R$GT$$u20$as$u20$serde..de..MapAccess$GT$15next_value_seed17h5291487a10d09d21E', symObjAddr: 0x79EC, symBinAddr: 0x7F98, symSize: 0x30 }
  - { offset: 0x59F3F, size: 0x8, addend: 0x0, symName: '__ZN75_$LT$serde_json..de..MapAccess$LT$R$GT$$u20$as$u20$serde..de..MapAccess$GT$15next_value_seed17h65d18af48661c931E', symObjAddr: 0x7A1C, symBinAddr: 0x7FC8, symSize: 0x30 }
  - { offset: 0x59FA7, size: 0x8, addend: 0x0, symName: '__ZN75_$LT$serde_json..de..MapAccess$LT$R$GT$$u20$as$u20$serde..de..MapAccess$GT$15next_value_seed17h65dfa2d75fbd47daE', symObjAddr: 0x7A4C, symBinAddr: 0x7FF8, symSize: 0x30 }
  - { offset: 0x5A00F, size: 0x8, addend: 0x0, symName: '__ZN75_$LT$serde_json..de..MapAccess$LT$R$GT$$u20$as$u20$serde..de..MapAccess$GT$15next_value_seed17h81ca686ac9375b59E', symObjAddr: 0x7A7C, symBinAddr: 0x8028, symSize: 0x34 }
  - { offset: 0x5A094, size: 0x8, addend: 0x0, symName: '__ZN75_$LT$serde_json..de..MapAccess$LT$R$GT$$u20$as$u20$serde..de..MapAccess$GT$15next_value_seed17h8a7553fa1acc0296E', symObjAddr: 0x7AB0, symBinAddr: 0x805C, symSize: 0x30 }
  - { offset: 0x5A0DD, size: 0x8, addend: 0x0, symName: '__ZN75_$LT$serde_json..de..MapAccess$LT$R$GT$$u20$as$u20$serde..de..MapAccess$GT$15next_value_seed17h9797d6ff4f62e339E', symObjAddr: 0x7B14, symBinAddr: 0x80C0, symSize: 0x30 }
  - { offset: 0x5A145, size: 0x8, addend: 0x0, symName: '__ZN75_$LT$serde_json..de..MapAccess$LT$R$GT$$u20$as$u20$serde..de..MapAccess$GT$15next_value_seed17h9ff0f234c918fad6E', symObjAddr: 0x7B44, symBinAddr: 0x80F0, symSize: 0x40 }
  - { offset: 0x5A1ED, size: 0x8, addend: 0x0, symName: '__ZN75_$LT$serde_json..de..MapAccess$LT$R$GT$$u20$as$u20$serde..de..MapAccess$GT$15next_value_seed17hcdc66308c0176f2cE', symObjAddr: 0x7B84, symBinAddr: 0x8130, symSize: 0x30 }
  - { offset: 0x5A255, size: 0x8, addend: 0x0, symName: '__ZN75_$LT$serde_json..de..MapAccess$LT$R$GT$$u20$as$u20$serde..de..MapAccess$GT$15next_value_seed17hf0674893c6226752E', symObjAddr: 0x7BB4, symBinAddr: 0x8160, symSize: 0x30 }
  - { offset: 0x5A2BD, size: 0x8, addend: 0x0, symName: '__ZN75_$LT$serde_json..de..MapAccess$LT$R$GT$$u20$as$u20$serde..de..MapAccess$GT$15next_value_seed17hff2786f250e4e159E', symObjAddr: 0x7BE4, symBinAddr: 0x8190, symSize: 0x30 }
  - { offset: 0x5C752, size: 0x8, addend: 0x0, symName: '__ZN75_$LT$serde_json..de..SeqAccess$LT$R$GT$$u20$as$u20$serde..de..SeqAccess$GT$17next_element_seed17h174c880b9a6f7d4bE', symObjAddr: 0x7C14, symBinAddr: 0x81C0, symSize: 0x60 }
  - { offset: 0x5C7B4, size: 0x8, addend: 0x0, symName: '__ZN75_$LT$serde_json..de..SeqAccess$LT$R$GT$$u20$as$u20$serde..de..SeqAccess$GT$17next_element_seed17h445348cc0ccb3180E', symObjAddr: 0x7C74, symBinAddr: 0x8220, symSize: 0x54 }
  - { offset: 0x5C816, size: 0x8, addend: 0x0, symName: '__ZN75_$LT$serde_json..de..SeqAccess$LT$R$GT$$u20$as$u20$serde..de..SeqAccess$GT$17next_element_seed17h4d795bbbf3719276E', symObjAddr: 0x7CC8, symBinAddr: 0x8274, symSize: 0x68 }
  - { offset: 0x5C878, size: 0x8, addend: 0x0, symName: '__ZN75_$LT$serde_json..de..SeqAccess$LT$R$GT$$u20$as$u20$serde..de..SeqAccess$GT$17next_element_seed17h6fac6c5e6107fedbE', symObjAddr: 0x7D30, symBinAddr: 0x82DC, symSize: 0x64 }
  - { offset: 0x5C8DA, size: 0x8, addend: 0x0, symName: '__ZN75_$LT$serde_json..de..SeqAccess$LT$R$GT$$u20$as$u20$serde..de..SeqAccess$GT$17next_element_seed17h74929c1487c00882E', symObjAddr: 0x7D94, symBinAddr: 0x8340, symSize: 0x64 }
  - { offset: 0x5C93C, size: 0x8, addend: 0x0, symName: '__ZN75_$LT$serde_json..de..SeqAccess$LT$R$GT$$u20$as$u20$serde..de..SeqAccess$GT$17next_element_seed17haa97835dca04a8aaE', symObjAddr: 0x7DF8, symBinAddr: 0x83A4, symSize: 0x64 }
  - { offset: 0x5C989, size: 0x8, addend: 0x0, symName: '__ZN75_$LT$serde_json..de..SeqAccess$LT$R$GT$$u20$as$u20$serde..de..SeqAccess$GT$17next_element_seed17haea14a3e9f10ab82E', symObjAddr: 0x7E5C, symBinAddr: 0x8408, symSize: 0x58 }
  - { offset: 0x5C9EB, size: 0x8, addend: 0x0, symName: '__ZN75_$LT$serde_json..de..SeqAccess$LT$R$GT$$u20$as$u20$serde..de..SeqAccess$GT$17next_element_seed17hbf1f029e0f29597cE', symObjAddr: 0x7EB4, symBinAddr: 0x8460, symSize: 0x58 }
  - { offset: 0x5CA4D, size: 0x8, addend: 0x0, symName: '__ZN75_$LT$serde_json..de..SeqAccess$LT$R$GT$$u20$as$u20$serde..de..SeqAccess$GT$17next_element_seed17he7e5269ed9797f38E', symObjAddr: 0x7F0C, symBinAddr: 0x84B8, symSize: 0x54 }
  - { offset: 0x5CAAF, size: 0x8, addend: 0x0, symName: '__ZN75_$LT$serde_json..de..SeqAccess$LT$R$GT$$u20$as$u20$serde..de..SeqAccess$GT$17next_element_seed17hf857a62adfbce893E', symObjAddr: 0x7F60, symBinAddr: 0x850C, symSize: 0x64 }
  - { offset: 0x5DC99, size: 0x8, addend: 0x0, symName: '__ZN80_$LT$serde_json..de..VariantAccess$LT$R$GT$$u20$as$u20$serde..de..EnumAccess$GT$12variant_seed17hd69e4b5c6e46b85bE', symObjAddr: 0x8288, symBinAddr: 0x8834, symSize: 0x5C }
  - { offset: 0x5DEE7, size: 0x8, addend: 0x0, symName: '__ZN83_$LT$serde_json..de..VariantAccess$LT$R$GT$$u20$as$u20$serde..de..VariantAccess$GT$12unit_variant17h82ac6647e68c9fbcE', symObjAddr: 0x82E4, symBinAddr: 0x8890, symSize: 0x80 }
  - { offset: 0x5DF6B, size: 0x8, addend: 0x0, symName: '__ZN83_$LT$serde_json..de..VariantAccess$LT$R$GT$$u20$as$u20$serde..de..VariantAccess$GT$20newtype_variant_seed17h9e46db263eeed51dE', symObjAddr: 0x8364, symBinAddr: 0x8910, symSize: 0xC4 }
  - { offset: 0x5E2D8, size: 0x8, addend: 0x0, symName: '__ZN84_$LT$serde_json..de..UnitVariantAccess$LT$R$GT$$u20$as$u20$serde..de..EnumAccess$GT$12variant_seed17h3b17eccf957ea91eE', symObjAddr: 0x8428, symBinAddr: 0x89D4, symSize: 0x3C }
  - { offset: 0x5E49B, size: 0x8, addend: 0x0, symName: '__ZN87_$LT$serde_json..de..UnitVariantAccess$LT$R$GT$$u20$as$u20$serde..de..VariantAccess$GT$20newtype_variant_seed17he1b29025d9dbf096E', symObjAddr: 0x8464, symBinAddr: 0x3E39C, symSize: 0x34 }
  - { offset: 0x5F899, size: 0x8, addend: 0x0, symName: '__ZN4core3ptr69drop_in_place$LT$powersync_core..sync..interface..StartSyncStream$GT$17h16dcf8cc42b9827eE', symObjAddr: 0x6CD4, symBinAddr: 0x7280, symSize: 0x2C }
  - { offset: 0x5F908, size: 0x8, addend: 0x0, symName: '__ZN4core3ptr125drop_in_place$LT$core..option..Option$LT$serde_json..map..Map$LT$alloc..string..String$C$serde_json..value..Value$GT$$GT$$GT$17h761d475e94880efdE', symObjAddr: 0x6D00, symBinAddr: 0x72AC, symSize: 0x14 }
  - { offset: 0x5F964, size: 0x8, addend: 0x0, symName: '__ZN4core3ptr51drop_in_place$LT$powersync_core..schema..Schema$GT$17h1e7be72858d29370E', symObjAddr: 0x6D14, symBinAddr: 0x72C0, symSize: 0x24 }
  - { offset: 0x5F995, size: 0x8, addend: 0x0, symName: '__ZN4core3ptr111drop_in_place$LT$alloc..rc..Rc$LT$alloc..vec..Vec$LT$powersync_core..sync..subscriptions..StreamKey$GT$$GT$$GT$17hcc5c06143521ba78E', symObjAddr: 0x6D38, symBinAddr: 0x72E4, symSize: 0x18 }
  - { offset: 0x5F9C8, size: 0x8, addend: 0x0, symName: '__ZN4core3ptr111drop_in_place$LT$alloc..rc..Rc$LT$alloc..vec..Vec$LT$powersync_core..sync..subscriptions..StreamKey$GT$$GT$$GT$17hcc5c06143521ba78E', symObjAddr: 0x6D38, symBinAddr: 0x72E4, symSize: 0x18 }
  - { offset: 0x5F9E4, size: 0x8, addend: 0x0, symName: '__ZN4core3ptr111drop_in_place$LT$alloc..rc..Rc$LT$alloc..vec..Vec$LT$powersync_core..sync..subscriptions..StreamKey$GT$$GT$$GT$17hcc5c06143521ba78E', symObjAddr: 0x6D38, symBinAddr: 0x72E4, symSize: 0x18 }
  - { offset: 0x5FA00, size: 0x8, addend: 0x0, symName: '__ZN4core3ptr111drop_in_place$LT$alloc..rc..Rc$LT$alloc..vec..Vec$LT$powersync_core..sync..subscriptions..StreamKey$GT$$GT$$GT$17hcc5c06143521ba78E', symObjAddr: 0x6D38, symBinAddr: 0x72E4, symSize: 0x18 }
  - { offset: 0x5FAB1, size: 0x8, addend: 0x0, symName: '__ZN4core3ptr85drop_in_place$LT$alloc..vec..Vec$LT$powersync_core..schema..table_info..Table$GT$$GT$17h24f84586e7c5c3b6E', symObjAddr: 0x6D50, symBinAddr: 0x72FC, symSize: 0x24 }
  - { offset: 0x5FB20, size: 0x8, addend: 0x0, symName: '__ZN4core3ptr88drop_in_place$LT$alloc..vec..Vec$LT$powersync_core..schema..table_info..RawTable$GT$$GT$17h8d429549d637ac0fE', symObjAddr: 0x6D74, symBinAddr: 0x7320, symSize: 0x20 }
  - { offset: 0x5FB6E, size: 0x8, addend: 0x0, symName: '__ZN4core3ptr59drop_in_place$LT$powersync_core..sync..line..Checkpoint$GT$17h4da5b9df7cc8b517E', symObjAddr: 0x6D94, symBinAddr: 0x7340, symSize: 0x20 }
  - { offset: 0x5FB9F, size: 0x8, addend: 0x0, symName: '__ZN4core3ptr63drop_in_place$LT$powersync_core..sync..line..CheckpointDiff$GT$17h75dad0c4609ee3bdE', symObjAddr: 0x6DB4, symBinAddr: 0x7360, symSize: 0x20 }
  - { offset: 0x5FBD0, size: 0x8, addend: 0x0, symName: '__ZN4core3ptr57drop_in_place$LT$powersync_core..sync..line..DataLine$GT$17h784c3e722675a74aE', symObjAddr: 0x6DD4, symBinAddr: 0x7380, symSize: 0x24 }
  - { offset: 0x5FC5E, size: 0x8, addend: 0x0, symName: '__ZN4core3ptr50drop_in_place$LT$alloc..borrow..Cow$LT$str$GT$$GT$17h8c4ca9133348cf09E', symObjAddr: 0x6DF8, symBinAddr: 0x73A4, symSize: 0x14 }
  - { offset: 0x5FCEA, size: 0x8, addend: 0x0, symName: '__ZN4core3ptr82drop_in_place$LT$alloc..vec..Vec$LT$powersync_core..sync..line..OplogEntry$GT$$GT$17h4d3cf69c6de99673E', symObjAddr: 0x6E0C, symBinAddr: 0x73B8, symSize: 0x20 }
  - { offset: 0x5FD57, size: 0x8, addend: 0x0, symName: '__ZN4core3ptr86drop_in_place$LT$alloc..vec..Vec$LT$powersync_core..sync..line..BucketChecksum$GT$$GT$17h1eb01d45f8be0cceE', symObjAddr: 0x6E2C, symBinAddr: 0x73D8, symSize: 0x20 }
  - { offset: 0x5FDC4, size: 0x8, addend: 0x0, symName: '__ZN4core3ptr73drop_in_place$LT$alloc..vec..Vec$LT$alloc..borrow..Cow$LT$str$GT$$GT$$GT$17hc7c14c01dc2fefd8E', symObjAddr: 0x6E4C, symBinAddr: 0x73F8, symSize: 0x20 }
  - { offset: 0x5FE31, size: 0x8, addend: 0x0, symName: '__ZN4core3ptr89drop_in_place$LT$alloc..vec..Vec$LT$powersync_core..sync..line..StreamDescription$GT$$GT$17h71fbafebdb7f4a09E', symObjAddr: 0x6E6C, symBinAddr: 0x7418, symSize: 0x20 }
  - { offset: 0x5FE7F, size: 0x8, addend: 0x0, symName: '__ZN4core3ptr67drop_in_place$LT$powersync_core..sync..subscriptions..StreamKey$GT$17hdec8817c3f47d0caE', symObjAddr: 0x6E8C, symBinAddr: 0x7438, symSize: 0x20 }
  - { offset: 0x5FECF, size: 0x8, addend: 0x0, symName: '__ZN4core3ptr65drop_in_place$LT$alloc..vec..Vec$LT$alloc..string..String$GT$$GT$17h429ffbe6a2214fdcE', symObjAddr: 0x6EAC, symBinAddr: 0x7458, symSize: 0x20 }
  - { offset: 0x5FF1D, size: 0x8, addend: 0x0, symName: '__ZN4core3ptr62drop_in_place$LT$powersync_core..schema..table_info..Table$GT$17h7313fe32f4872e86E', symObjAddr: 0x6ECC, symBinAddr: 0x7478, symSize: 0x38 }
  - { offset: 0x5FF6D, size: 0x8, addend: 0x0, symName: '__ZN4core3ptr86drop_in_place$LT$alloc..vec..Vec$LT$powersync_core..schema..table_info..Column$GT$$GT$17hc1702b1bf8e88760E', symObjAddr: 0x6F04, symBinAddr: 0x74B0, symSize: 0x20 }
  - { offset: 0x5FFDA, size: 0x8, addend: 0x0, symName: '__ZN4core3ptr85drop_in_place$LT$alloc..vec..Vec$LT$powersync_core..schema..table_info..Index$GT$$GT$17hc0e2f5f135b7847bE', symObjAddr: 0x6F24, symBinAddr: 0x74D0, symSize: 0x20 }
  - { offset: 0x60047, size: 0x8, addend: 0x0, symName: '__ZN4core3ptr99drop_in_place$LT$core..option..Option$LT$powersync_core..schema..table_info..DiffIncludeOld$GT$$GT$17h5f4bf9600a2cb494E', symObjAddr: 0x6F44, symBinAddr: 0x74F0, symSize: 0x1C }
  - { offset: 0x60106, size: 0x8, addend: 0x0, symName: '__ZN4core3ptr59drop_in_place$LT$serde..__private..de..content..Content$GT$17hc75cc8c56da81266E', symObjAddr: 0x7900, symBinAddr: 0x7EAC, symSize: 0x70 }
  - { offset: 0x60209, size: 0x8, addend: 0x0, symName: '__ZN4core3ptr45drop_in_place$LT$serde_json..error..Error$GT$17h64319a15cccb108eE', symObjAddr: 0x7970, symBinAddr: 0x7F1C, symSize: 0x2C }
  - { offset: 0x603A5, size: 0x8, addend: 0x0, symName: '__ZN4core3ptr84drop_in_place$LT$alloc..boxed..Box$LT$serde..__private..de..content..Content$GT$$GT$17hc52b5449d0231028E', symObjAddr: 0x799C, symBinAddr: 0x7F48, symSize: 0x20 }
  - { offset: 0x60551, size: 0x8, addend: 0x0, symName: '__ZN4core3ptr159drop_in_place$LT$alloc..vec..Vec$LT$core..option..Option$LT$$LP$serde..__private..de..content..Content$C$serde..__private..de..content..Content$RP$$GT$$GT$$GT$17h21e80e9dff8ad96bE', symObjAddr: 0x9FF8, symBinAddr: 0xA570, symSize: 0x4C }
  - { offset: 0x60608, size: 0x8, addend: 0x0, symName: '__ZN4core3ptr101drop_in_place$LT$alloc..vec..Vec$LT$powersync_core..schema..table_info..PendingStatementValue$GT$$GT$17h788d2d17269a1bc0E', symObjAddr: 0xA044, symBinAddr: 0xA5BC, symSize: 0x20 }
  - { offset: 0x60675, size: 0x8, addend: 0x0, symName: '__ZN4core3ptr93drop_in_place$LT$alloc..vec..Vec$LT$powersync_core..schema..table_info..IndexedColumn$GT$$GT$17hc4014211c90bea4dE', symObjAddr: 0xA064, symBinAddr: 0xA5DC, symSize: 0x24 }
  - { offset: 0x606C5, size: 0x8, addend: 0x0, symName: '__ZN4core3ptr127drop_in_place$LT$core..option..Option$LT$core..option..Option$LT$alloc..boxed..Box$LT$serde_json..raw..RawValue$GT$$GT$$GT$$GT$17haea17bf25b4455fcE', symObjAddr: 0xA15C, symBinAddr: 0xA6D4, symSize: 0x18 }
  - { offset: 0x606F6, size: 0x8, addend: 0x0, symName: '__ZN4core3ptr114drop_in_place$LT$core..option..Option$LT$alloc..vec..Vec$LT$powersync_core..sync..line..BucketChecksum$GT$$GT$$GT$17h06159220ea88dfbcE', symObjAddr: 0xA174, symBinAddr: 0xA6EC, symSize: 0x1C }
  - { offset: 0x60724, size: 0x8, addend: 0x0, symName: '__ZN4core3ptr117drop_in_place$LT$core..option..Option$LT$alloc..vec..Vec$LT$powersync_core..sync..line..StreamDescription$GT$$GT$$GT$17h5a248080faf73fa3E', symObjAddr: 0xA190, symBinAddr: 0xA708, symSize: 0x1C }
  - { offset: 0x60752, size: 0x8, addend: 0x0, symName: '__ZN4core3ptr62drop_in_place$LT$powersync_core..schema..table_info..Index$GT$17h1a0fb188a099ffddE', symObjAddr: 0xA1AC, symBinAddr: 0xA724, symSize: 0x20 }
  - { offset: 0x60783, size: 0x8, addend: 0x0, symName: '__ZN4core3ptr116drop_in_place$LT$core..option..Option$LT$alloc..vec..Vec$LT$powersync_core..schema..table_info..RawTable$GT$$GT$$GT$17h7af1ba20e1affb6cE', symObjAddr: 0xA1CC, symBinAddr: 0xA744, symSize: 0x1C }
  - { offset: 0x607B1, size: 0x8, addend: 0x0, symName: '__ZN4core3ptr73drop_in_place$LT$powersync_core..schema..table_info..PendingStatement$GT$17h59254bc29e9a12a7E', symObjAddr: 0xA1E8, symBinAddr: 0xA760, symSize: 0x20 }
  - { offset: 0x607E2, size: 0x8, addend: 0x0, symName: '__ZN4core3ptr78drop_in_place$LT$core..option..Option$LT$alloc..borrow..Cow$LT$str$GT$$GT$$GT$17hee66c9244c260f49E', symObjAddr: 0xA208, symBinAddr: 0xA780, symSize: 0x18 }
  - { offset: 0x6080E, size: 0x8, addend: 0x0, symName: '__ZN4core3ptr59drop_in_place$LT$powersync_core..sync..line..OplogEntry$GT$17h22fd15563b46af65E', symObjAddr: 0xA220, symBinAddr: 0xA798, symSize: 0x24 }
  - { offset: 0x6083F, size: 0x8, addend: 0x0, symName: '__ZN4core3ptr106drop_in_place$LT$core..option..Option$LT$core..option..Option$LT$alloc..borrow..Cow$LT$str$GT$$GT$$GT$$GT$17h6f89be3b99be384fE', symObjAddr: 0xA244, symBinAddr: 0xA7BC, symSize: 0x1C }
  - { offset: 0x6086B, size: 0x8, addend: 0x0, symName: '__ZN4core3ptr63drop_in_place$LT$powersync_core..sync..line..BucketChecksum$GT$17h6888d66b89c071e1E', symObjAddr: 0xA284, symBinAddr: 0xA7FC, symSize: 0x24 }
  - { offset: 0x6089C, size: 0x8, addend: 0x0, symName: '__ZN4core3ptr145drop_in_place$LT$core..option..Option$LT$alloc..rc..Rc$LT$alloc..vec..Vec$LT$powersync_core..sync..line..BucketSubscriptionReason$GT$$GT$$GT$$GT$17h33c03b565d1fa232E', symObjAddr: 0xA2A8, symBinAddr: 0xA820, symSize: 0xC }
  - { offset: 0x608C8, size: 0x8, addend: 0x0, symName: '__ZN4core3ptr117drop_in_place$LT$alloc..rc..Rc$LT$alloc..vec..Vec$LT$powersync_core..sync..line..BucketSubscriptionReason$GT$$GT$$GT$17h0332035039cc8094E', symObjAddr: 0xA2B4, symBinAddr: 0xA82C, symSize: 0x18 }
  - { offset: 0x608FB, size: 0x8, addend: 0x0, symName: '__ZN4core3ptr117drop_in_place$LT$alloc..rc..Rc$LT$alloc..vec..Vec$LT$powersync_core..sync..line..BucketSubscriptionReason$GT$$GT$$GT$17h0332035039cc8094E', symObjAddr: 0xA2B4, symBinAddr: 0xA82C, symSize: 0x18 }
  - { offset: 0x60917, size: 0x8, addend: 0x0, symName: '__ZN4core3ptr117drop_in_place$LT$alloc..rc..Rc$LT$alloc..vec..Vec$LT$powersync_core..sync..line..BucketSubscriptionReason$GT$$GT$$GT$17h0332035039cc8094E', symObjAddr: 0xA2B4, symBinAddr: 0xA82C, symSize: 0x18 }
  - { offset: 0x60933, size: 0x8, addend: 0x0, symName: '__ZN4core3ptr117drop_in_place$LT$alloc..rc..Rc$LT$alloc..vec..Vec$LT$powersync_core..sync..line..BucketSubscriptionReason$GT$$GT$$GT$17h0332035039cc8094E', symObjAddr: 0xA2B4, symBinAddr: 0xA82C, symSize: 0x18 }
  - { offset: 0x609C5, size: 0x8, addend: 0x0, symName: '__ZN4core3ptr66drop_in_place$LT$powersync_core..sync..line..StreamDescription$GT$17h74a4a042d47e24aeE', symObjAddr: 0xA2CC, symBinAddr: 0xA844, symSize: 0x24 }
  - { offset: 0x609F6, size: 0x8, addend: 0x0, symName: '__ZN4core3ptr116drop_in_place$LT$alloc..rc..Rc$LT$alloc..vec..Vec$LT$powersync_core..sync..line..StreamSubscriptionError$GT$$GT$$GT$17hc5c2ff601575646fE', symObjAddr: 0xA2F0, symBinAddr: 0xA868, symSize: 0x18 }
  - { offset: 0x60A29, size: 0x8, addend: 0x0, symName: '__ZN4core3ptr116drop_in_place$LT$alloc..rc..Rc$LT$alloc..vec..Vec$LT$powersync_core..sync..line..StreamSubscriptionError$GT$$GT$$GT$17hc5c2ff601575646fE', symObjAddr: 0xA2F0, symBinAddr: 0xA868, symSize: 0x18 }
  - { offset: 0x60A45, size: 0x8, addend: 0x0, symName: '__ZN4core3ptr116drop_in_place$LT$alloc..rc..Rc$LT$alloc..vec..Vec$LT$powersync_core..sync..line..StreamSubscriptionError$GT$$GT$$GT$17hc5c2ff601575646fE', symObjAddr: 0xA2F0, symBinAddr: 0xA868, symSize: 0x18 }
  - { offset: 0x60A61, size: 0x8, addend: 0x0, symName: '__ZN4core3ptr116drop_in_place$LT$alloc..rc..Rc$LT$alloc..vec..Vec$LT$powersync_core..sync..line..StreamSubscriptionError$GT$$GT$$GT$17hc5c2ff601575646fE', symObjAddr: 0xA2F0, symBinAddr: 0xA868, symSize: 0x18 }
  - { offset: 0x60AF3, size: 0x8, addend: 0x0, symName: '__ZN4core3ptr65drop_in_place$LT$powersync_core..schema..table_info..RawTable$GT$17hd83b31061daab2d4E', symObjAddr: 0xA308, symBinAddr: 0xA880, symSize: 0x28 }
  - { offset: 0x60B24, size: 0x8, addend: 0x0, symName: '__ZN4core3ptr101drop_in_place$LT$core..option..Option$LT$powersync_core..schema..table_info..PendingStatement$GT$$GT$17hb9cda60dff31b993E', symObjAddr: 0xA330, symBinAddr: 0xA8A8, symSize: 0x1C }
  - { offset: 0x60B52, size: 0x8, addend: 0x0, symName: '__ZN4core3ptr70drop_in_place$LT$powersync_core..schema..table_info..IndexedColumn$GT$17ha6e11a7bbe714074E', symObjAddr: 0xA34C, symBinAddr: 0xA8C4, symSize: 0x1C }
  - { offset: 0x60BCD, size: 0x8, addend: 0x0, symName: '__ZN4core3ptr153drop_in_place$LT$core..option..Option$LT$core..option..Option$LT$serde_json..map..Map$LT$alloc..string..String$C$serde_json..value..Value$GT$$GT$$GT$$GT$17heab5ea0070f195f4E', symObjAddr: 0xA368, symBinAddr: 0xA8E0, symSize: 0x14 }
  - { offset: 0x60BFB, size: 0x8, addend: 0x0, symName: '__ZN4core3ptr79drop_in_place$LT$core..option..Option$LT$powersync_core..schema..Schema$GT$$GT$17h5377853b41345dcdE', symObjAddr: 0xA37C, symBinAddr: 0xA8F4, symSize: 0x1C }
  - { offset: 0x60C29, size: 0x8, addend: 0x0, symName: '__ZN4core3ptr139drop_in_place$LT$core..option..Option$LT$alloc..rc..Rc$LT$alloc..vec..Vec$LT$powersync_core..sync..subscriptions..StreamKey$GT$$GT$$GT$$GT$17h69cbc99ecf8cbe81E', symObjAddr: 0xA398, symBinAddr: 0xA910, symSize: 0xC }
  - { offset: 0x60C55, size: 0x8, addend: 0x0, symName: '__ZN4core3ptr63drop_in_place$LT$powersync_core..schema..table_info..Column$GT$17h2df5161f7c1e6435E', symObjAddr: 0xA3A4, symBinAddr: 0xA91C, symSize: 0x1C }
  - { offset: 0x6C012, size: 0x8, addend: 0x0, symName: '__ZN65_$LT$alloc..rc..Rc$LT$T$GT$$u20$as$u20$core..default..Default$GT$7default17h5ff2330a570aa5b7E', symObjAddr: 0xA260, symBinAddr: 0xA7D8, symSize: 0x24 }
  - { offset: 0x6C5EA, size: 0x8, addend: 0x0, symName: __ZN10serde_json2de12ParserNumber5visit17h105c6ee2805eb0acE, symObjAddr: 0x6F60, symBinAddr: 0x750C, symSize: 0xD4 }
  - { offset: 0x6C733, size: 0x8, addend: 0x0, symName: __ZN10serde_json2de12ParserNumber5visit17h15e71905117b9a5fE, symObjAddr: 0x7034, symBinAddr: 0x75E0, symSize: 0x6C }
  - { offset: 0x6C833, size: 0x8, addend: 0x0, symName: __ZN10serde_json2de12ParserNumber5visit17h167eca50b6afac96E, symObjAddr: 0x70A0, symBinAddr: 0x764C, symSize: 0x8C }
  - { offset: 0x6C8E2, size: 0x8, addend: 0x0, symName: __ZN10serde_json2de12ParserNumber5visit17h860d0e0ce91b3027E, symObjAddr: 0x712C, symBinAddr: 0x76D8, symSize: 0x74 }
  - { offset: 0x6C9D5, size: 0x8, addend: 0x0, symName: __ZN10serde_json2de12ParserNumber5visit17h89ac1a3431e2cf44E, symObjAddr: 0x71A0, symBinAddr: 0x774C, symSize: 0x84 }
  - { offset: 0x6CAE8, size: 0x8, addend: 0x0, symName: __ZN10serde_json2de12ParserNumber5visit17ha3c97a2a4d8c7b51E, symObjAddr: 0x7224, symBinAddr: 0x77D0, symSize: 0x78 }
  - { offset: 0x6CB96, size: 0x8, addend: 0x0, symName: __ZN10serde_json2de12ParserNumber5visit17hd70e576e83697811E, symObjAddr: 0x729C, symBinAddr: 0x7848, symSize: 0xA8 }
  - { offset: 0x6CC79, size: 0x8, addend: 0x0, symName: __ZN10serde_json2de12ParserNumber5visit17hea0b9ab546948e7fE, symObjAddr: 0x7344, symBinAddr: 0x78F0, symSize: 0x78 }
  - { offset: 0x6D9E8, size: 0x8, addend: 0x0, symName: _OUTLINED_FUNCTION_2, symObjAddr: 0x3B0B8, symBinAddr: 0x39CB8, symSize: 0x14 }
  - { offset: 0x6D9FF, size: 0x8, addend: 0x0, symName: _OUTLINED_FUNCTION_3, symObjAddr: 0x3B0CC, symBinAddr: 0x39CCC, symSize: 0x14 }
  - { offset: 0x6DA16, size: 0x8, addend: 0x0, symName: _OUTLINED_FUNCTION_5, symObjAddr: 0x3B0F4, symBinAddr: 0x39CF4, symSize: 0x14 }
  - { offset: 0x6DA2D, size: 0x8, addend: 0x0, symName: _OUTLINED_FUNCTION_7, symObjAddr: 0x3B11C, symBinAddr: 0x39D1C, symSize: 0x14 }
  - { offset: 0x6DA44, size: 0x8, addend: 0x0, symName: _OUTLINED_FUNCTION_18, symObjAddr: 0x3B1D8, symBinAddr: 0x39DD8, symSize: 0x10 }
  - { offset: 0x6DA5B, size: 0x8, addend: 0x0, symName: _OUTLINED_FUNCTION_21, symObjAddr: 0x3B208, symBinAddr: 0x39E08, symSize: 0x10 }
  - { offset: 0x6DA72, size: 0x8, addend: 0x0, symName: _OUTLINED_FUNCTION_22, symObjAddr: 0x3B218, symBinAddr: 0x39E18, symSize: 0x10 }
  - { offset: 0x6DA89, size: 0x8, addend: 0x0, symName: _OUTLINED_FUNCTION_25, symObjAddr: 0x3B250, symBinAddr: 0x39E50, symSize: 0x18 }
  - { offset: 0x6DAA0, size: 0x8, addend: 0x0, symName: _OUTLINED_FUNCTION_35, symObjAddr: 0x3B33C, symBinAddr: 0x39F3C, symSize: 0x10 }
  - { offset: 0x6DAB7, size: 0x8, addend: 0x0, symName: _OUTLINED_FUNCTION_36, symObjAddr: 0x3B34C, symBinAddr: 0x39F4C, symSize: 0xC }
  - { offset: 0x6DACE, size: 0x8, addend: 0x0, symName: _OUTLINED_FUNCTION_37, symObjAddr: 0x3B358, symBinAddr: 0x39F58, symSize: 0x10 }
  - { offset: 0x6DAE5, size: 0x8, addend: 0x0, symName: _OUTLINED_FUNCTION_43, symObjAddr: 0x3B3E4, symBinAddr: 0x39FE4, symSize: 0x10 }
  - { offset: 0x6DAFC, size: 0x8, addend: 0x0, symName: _OUTLINED_FUNCTION_47, symObjAddr: 0x3B430, symBinAddr: 0x3A030, symSize: 0x14 }
  - { offset: 0x6DB13, size: 0x8, addend: 0x0, symName: _OUTLINED_FUNCTION_48, symObjAddr: 0x3B444, symBinAddr: 0x3A044, symSize: 0xC }
  - { offset: 0x6DB2A, size: 0x8, addend: 0x0, symName: _OUTLINED_FUNCTION_49, symObjAddr: 0x3B450, symBinAddr: 0x3A050, symSize: 0xC }
  - { offset: 0x6DB41, size: 0x8, addend: 0x0, symName: _OUTLINED_FUNCTION_54, symObjAddr: 0x3B4B4, symBinAddr: 0x3A0B4, symSize: 0x10 }
  - { offset: 0x6DB58, size: 0x8, addend: 0x0, symName: _OUTLINED_FUNCTION_56, symObjAddr: 0x3B4D4, symBinAddr: 0x3A0D4, symSize: 0x10 }
  - { offset: 0x6DB6F, size: 0x8, addend: 0x0, symName: _OUTLINED_FUNCTION_57, symObjAddr: 0x3B4E4, symBinAddr: 0x3A0E4, symSize: 0x10 }
  - { offset: 0x6DB86, size: 0x8, addend: 0x0, symName: _OUTLINED_FUNCTION_58, symObjAddr: 0x3B4F4, symBinAddr: 0x3A0F4, symSize: 0x1C }
  - { offset: 0x6DB9D, size: 0x8, addend: 0x0, symName: _OUTLINED_FUNCTION_60, symObjAddr: 0x3B51C, symBinAddr: 0x3A11C, symSize: 0x10 }
  - { offset: 0x6DBB4, size: 0x8, addend: 0x0, symName: _OUTLINED_FUNCTION_61, symObjAddr: 0x3B52C, symBinAddr: 0x3A12C, symSize: 0x10 }
  - { offset: 0x6DBCB, size: 0x8, addend: 0x0, symName: _OUTLINED_FUNCTION_66, symObjAddr: 0x3B584, symBinAddr: 0x3A184, symSize: 0x10 }
  - { offset: 0x6DBE2, size: 0x8, addend: 0x0, symName: _OUTLINED_FUNCTION_72, symObjAddr: 0x3B638, symBinAddr: 0x3A238, symSize: 0x14 }
  - { offset: 0x6DBF9, size: 0x8, addend: 0x0, symName: _OUTLINED_FUNCTION_88, symObjAddr: 0x3B78C, symBinAddr: 0x3A38C, symSize: 0x10 }
  - { offset: 0x6DC10, size: 0x8, addend: 0x0, symName: _OUTLINED_FUNCTION_89, symObjAddr: 0x3B79C, symBinAddr: 0x3A39C, symSize: 0x14 }
  - { offset: 0x6DC27, size: 0x8, addend: 0x0, symName: _OUTLINED_FUNCTION_93, symObjAddr: 0x3B7E4, symBinAddr: 0x3A3E4, symSize: 0x10 }
  - { offset: 0x6DC3E, size: 0x8, addend: 0x0, symName: _OUTLINED_FUNCTION_100, symObjAddr: 0x3B874, symBinAddr: 0x3A474, symSize: 0xC }
  - { offset: 0x6DC55, size: 0x8, addend: 0x0, symName: _OUTLINED_FUNCTION_111, symObjAddr: 0x3B948, symBinAddr: 0x3A548, symSize: 0xC }
  - { offset: 0x6DC6C, size: 0x8, addend: 0x0, symName: _OUTLINED_FUNCTION_121, symObjAddr: 0x3BA34, symBinAddr: 0x3A634, symSize: 0xC }
  - { offset: 0x6DC83, size: 0x8, addend: 0x0, symName: _OUTLINED_FUNCTION_149, symObjAddr: 0x3BC84, symBinAddr: 0x3A884, symSize: 0x14 }
  - { offset: 0x6DC9A, size: 0x8, addend: 0x0, symName: _OUTLINED_FUNCTION_151, symObjAddr: 0x3BCA4, symBinAddr: 0x3A8A4, symSize: 0x14 }
  - { offset: 0x6DCB1, size: 0x8, addend: 0x0, symName: _OUTLINED_FUNCTION_166, symObjAddr: 0x3BDA0, symBinAddr: 0x3A9A0, symSize: 0x8 }
  - { offset: 0x6DCC8, size: 0x8, addend: 0x0, symName: _OUTLINED_FUNCTION_178, symObjAddr: 0x3BE60, symBinAddr: 0x3AA60, symSize: 0x10 }
  - { offset: 0x6DCDF, size: 0x8, addend: 0x0, symName: _OUTLINED_FUNCTION_179, symObjAddr: 0x3BE70, symBinAddr: 0x3AA70, symSize: 0x10 }
  - { offset: 0x6DCF6, size: 0x8, addend: 0x0, symName: _OUTLINED_FUNCTION_192, symObjAddr: 0x3BF4C, symBinAddr: 0x3AB4C, symSize: 0x8 }
  - { offset: 0x6DD0D, size: 0x8, addend: 0x0, symName: _OUTLINED_FUNCTION_193, symObjAddr: 0x3BF54, symBinAddr: 0x3AB54, symSize: 0xC }
  - { offset: 0x6DD24, size: 0x8, addend: 0x0, symName: _OUTLINED_FUNCTION_207, symObjAddr: 0x3C05C, symBinAddr: 0x3AC5C, symSize: 0x10 }
  - { offset: 0x6DD3B, size: 0x8, addend: 0x0, symName: _OUTLINED_FUNCTION_209, symObjAddr: 0x3C078, symBinAddr: 0x3AC78, symSize: 0xC }
  - { offset: 0x6DD52, size: 0x8, addend: 0x0, symName: _OUTLINED_FUNCTION_212, symObjAddr: 0x3C09C, symBinAddr: 0x3AC9C, symSize: 0x8 }
  - { offset: 0x6DD69, size: 0x8, addend: 0x0, symName: _OUTLINED_FUNCTION_214, symObjAddr: 0x3C0AC, symBinAddr: 0x3ACAC, symSize: 0x8 }
  - { offset: 0x6DD80, size: 0x8, addend: 0x0, symName: _OUTLINED_FUNCTION_216, symObjAddr: 0x3C0BC, symBinAddr: 0x3ACBC, symSize: 0x8 }
  - { offset: 0x6DD97, size: 0x8, addend: 0x0, symName: _OUTLINED_FUNCTION_218, symObjAddr: 0x3C0D0, symBinAddr: 0x3ACD0, symSize: 0x8 }
  - { offset: 0x6DDAE, size: 0x8, addend: 0x0, symName: _OUTLINED_FUNCTION_219, symObjAddr: 0x3C0D8, symBinAddr: 0x3ACD8, symSize: 0x8 }
  - { offset: 0x6DDC5, size: 0x8, addend: 0x0, symName: _OUTLINED_FUNCTION_220, symObjAddr: 0x3C0E0, symBinAddr: 0x3ACE0, symSize: 0x8 }
  - { offset: 0x6DDDC, size: 0x8, addend: 0x0, symName: _OUTLINED_FUNCTION_222, symObjAddr: 0x3C0F4, symBinAddr: 0x3ACF4, symSize: 0xC }
  - { offset: 0x6DDF3, size: 0x8, addend: 0x0, symName: _OUTLINED_FUNCTION_225, symObjAddr: 0x3C118, symBinAddr: 0x3AD18, symSize: 0xC }
  - { offset: 0x6DE0A, size: 0x8, addend: 0x0, symName: _OUTLINED_FUNCTION_229, symObjAddr: 0x3C144, symBinAddr: 0x3AD44, symSize: 0x18 }
  - { offset: 0x6DE21, size: 0x8, addend: 0x0, symName: _OUTLINED_FUNCTION_230, symObjAddr: 0x3C15C, symBinAddr: 0x3AD5C, symSize: 0x10 }
  - { offset: 0x6DE38, size: 0x8, addend: 0x0, symName: _OUTLINED_FUNCTION_246, symObjAddr: 0x3C298, symBinAddr: 0x3AE98, symSize: 0x10 }
  - { offset: 0x6DE4F, size: 0x8, addend: 0x0, symName: _OUTLINED_FUNCTION_247, symObjAddr: 0x3C2A8, symBinAddr: 0x3AEA8, symSize: 0x10 }
  - { offset: 0x6DE66, size: 0x8, addend: 0x0, symName: _OUTLINED_FUNCTION_249, symObjAddr: 0x3C2C8, symBinAddr: 0x3AEC8, symSize: 0x10 }
  - { offset: 0x6DE7D, size: 0x8, addend: 0x0, symName: _OUTLINED_FUNCTION_256, symObjAddr: 0x3C310, symBinAddr: 0x3AF10, symSize: 0x8 }
  - { offset: 0x6DE94, size: 0x8, addend: 0x0, symName: _OUTLINED_FUNCTION_261, symObjAddr: 0x3C35C, symBinAddr: 0x3AF5C, symSize: 0x8 }
  - { offset: 0x6DEAB, size: 0x8, addend: 0x0, symName: _OUTLINED_FUNCTION_266, symObjAddr: 0x3C38C, symBinAddr: 0x3AF8C, symSize: 0x8 }
  - { offset: 0x6DEC2, size: 0x8, addend: 0x0, symName: _OUTLINED_FUNCTION_267, symObjAddr: 0x3C394, symBinAddr: 0x3AF94, symSize: 0xC }
  - { offset: 0x6DED9, size: 0x8, addend: 0x0, symName: _OUTLINED_FUNCTION_276, symObjAddr: 0x3C428, symBinAddr: 0x3B028, symSize: 0x14 }
  - { offset: 0x6DEF0, size: 0x8, addend: 0x0, symName: _OUTLINED_FUNCTION_278, symObjAddr: 0x3C450, symBinAddr: 0x3B050, symSize: 0x14 }
  - { offset: 0x6DF07, size: 0x8, addend: 0x0, symName: _OUTLINED_FUNCTION_282, symObjAddr: 0x3C498, symBinAddr: 0x3B098, symSize: 0x8 }
  - { offset: 0x6DF1E, size: 0x8, addend: 0x0, symName: _OUTLINED_FUNCTION_286, symObjAddr: 0x3C4C0, symBinAddr: 0x3B0C0, symSize: 0x8 }
  - { offset: 0x6DF35, size: 0x8, addend: 0x0, symName: _OUTLINED_FUNCTION_289, symObjAddr: 0x3C4F4, symBinAddr: 0x3B0F4, symSize: 0xC }
  - { offset: 0x6DF4C, size: 0x8, addend: 0x0, symName: _OUTLINED_FUNCTION_291, symObjAddr: 0x3C508, symBinAddr: 0x3B108, symSize: 0x8 }
  - { offset: 0x6DF63, size: 0x8, addend: 0x0, symName: _OUTLINED_FUNCTION_292, symObjAddr: 0x3C510, symBinAddr: 0x3B110, symSize: 0xC }
  - { offset: 0x6DF7A, size: 0x8, addend: 0x0, symName: _OUTLINED_FUNCTION_293, symObjAddr: 0x3C51C, symBinAddr: 0x3B11C, symSize: 0xC }
  - { offset: 0x6DF91, size: 0x8, addend: 0x0, symName: _OUTLINED_FUNCTION_294, symObjAddr: 0x3C528, symBinAddr: 0x3B128, symSize: 0xC }
  - { offset: 0x6DFA8, size: 0x8, addend: 0x0, symName: _OUTLINED_FUNCTION_299, symObjAddr: 0x3C55C, symBinAddr: 0x3B15C, symSize: 0xC }
  - { offset: 0x6DFBF, size: 0x8, addend: 0x0, symName: _OUTLINED_FUNCTION_307, symObjAddr: 0x3C5C0, symBinAddr: 0x3B1C0, symSize: 0x18 }
  - { offset: 0x6DFD6, size: 0x8, addend: 0x0, symName: _OUTLINED_FUNCTION_311, symObjAddr: 0x3C604, symBinAddr: 0x3B204, symSize: 0xC }
  - { offset: 0x6DFED, size: 0x8, addend: 0x0, symName: _OUTLINED_FUNCTION_318, symObjAddr: 0x3C658, symBinAddr: 0x3B258, symSize: 0x8 }
  - { offset: 0x6E004, size: 0x8, addend: 0x0, symName: _OUTLINED_FUNCTION_327, symObjAddr: 0x3C6D0, symBinAddr: 0x3B2D0, symSize: 0x8 }
  - { offset: 0x6E01B, size: 0x8, addend: 0x0, symName: _OUTLINED_FUNCTION_356, symObjAddr: 0x3C854, symBinAddr: 0x3B454, symSize: 0xC }
  - { offset: 0x6E032, size: 0x8, addend: 0x0, symName: _OUTLINED_FUNCTION_362, symObjAddr: 0x3C894, symBinAddr: 0x3B494, symSize: 0x8 }
  - { offset: 0x6E049, size: 0x8, addend: 0x0, symName: _OUTLINED_FUNCTION_369, symObjAddr: 0x3C91C, symBinAddr: 0x3B51C, symSize: 0xC }
  - { offset: 0x6E060, size: 0x8, addend: 0x0, symName: _OUTLINED_FUNCTION_371, symObjAddr: 0x3C930, symBinAddr: 0x3B530, symSize: 0xC }
  - { offset: 0x6E077, size: 0x8, addend: 0x0, symName: _OUTLINED_FUNCTION_374, symObjAddr: 0x3C964, symBinAddr: 0x3B564, symSize: 0xC }
  - { offset: 0x6E08E, size: 0x8, addend: 0x0, symName: _OUTLINED_FUNCTION_380, symObjAddr: 0x3C9D0, symBinAddr: 0x3B5D0, symSize: 0x10 }
  - { offset: 0x6E0A5, size: 0x8, addend: 0x0, symName: _OUTLINED_FUNCTION_389, symObjAddr: 0x3CA6C, symBinAddr: 0x3B66C, symSize: 0x10 }
  - { offset: 0x6E0BC, size: 0x8, addend: 0x0, symName: _OUTLINED_FUNCTION_393, symObjAddr: 0x3CAA8, symBinAddr: 0x3B6A8, symSize: 0x8 }
  - { offset: 0x6E0D3, size: 0x8, addend: 0x0, symName: _OUTLINED_FUNCTION_396, symObjAddr: 0x3CAD4, symBinAddr: 0x3B6D4, symSize: 0x10 }
  - { offset: 0x6E0EA, size: 0x8, addend: 0x0, symName: _OUTLINED_FUNCTION_400, symObjAddr: 0x3CB08, symBinAddr: 0x3B708, symSize: 0xC }
  - { offset: 0x6E101, size: 0x8, addend: 0x0, symName: _OUTLINED_FUNCTION_403, symObjAddr: 0x3CB2C, symBinAddr: 0x3B72C, symSize: 0xC }
  - { offset: 0x6E118, size: 0x8, addend: 0x0, symName: _OUTLINED_FUNCTION_408, symObjAddr: 0x3CB78, symBinAddr: 0x3B778, symSize: 0x8 }
  - { offset: 0x6E12F, size: 0x8, addend: 0x0, symName: _OUTLINED_FUNCTION_419, symObjAddr: 0x3CBFC, symBinAddr: 0x3B7FC, symSize: 0xC }
  - { offset: 0x6E146, size: 0x8, addend: 0x0, symName: _OUTLINED_FUNCTION_423, symObjAddr: 0x3CC24, symBinAddr: 0x3B824, symSize: 0x8 }
  - { offset: 0x6E15D, size: 0x8, addend: 0x0, symName: _OUTLINED_FUNCTION_427, symObjAddr: 0x3CC48, symBinAddr: 0x3B848, symSize: 0x8 }
  - { offset: 0x6E174, size: 0x8, addend: 0x0, symName: _OUTLINED_FUNCTION_429, symObjAddr: 0x3CC58, symBinAddr: 0x3B858, symSize: 0x8 }
  - { offset: 0x6E18B, size: 0x8, addend: 0x0, symName: _OUTLINED_FUNCTION_436, symObjAddr: 0x3CC94, symBinAddr: 0x3B894, symSize: 0x8 }
  - { offset: 0x6E1A2, size: 0x8, addend: 0x0, symName: _OUTLINED_FUNCTION_437, symObjAddr: 0x3CC9C, symBinAddr: 0x3B89C, symSize: 0x8 }
  - { offset: 0x6E1B9, size: 0x8, addend: 0x0, symName: _OUTLINED_FUNCTION_444, symObjAddr: 0x3CD04, symBinAddr: 0x3B904, symSize: 0xC }
  - { offset: 0x6E1D0, size: 0x8, addend: 0x0, symName: _OUTLINED_FUNCTION_471, symObjAddr: 0x3CEB0, symBinAddr: 0x3BAB0, symSize: 0x8 }
  - { offset: 0x6E1E7, size: 0x8, addend: 0x0, symName: _OUTLINED_FUNCTION_472, symObjAddr: 0x3CEB8, symBinAddr: 0x3BAB8, symSize: 0x8 }
  - { offset: 0x6E1FE, size: 0x8, addend: 0x0, symName: _OUTLINED_FUNCTION_473, symObjAddr: 0x3CEC0, symBinAddr: 0x3BAC0, symSize: 0x8 }
  - { offset: 0x6E215, size: 0x8, addend: 0x0, symName: _OUTLINED_FUNCTION_478, symObjAddr: 0x3CF24, symBinAddr: 0x3BB24, symSize: 0x8 }
  - { offset: 0x6E22C, size: 0x8, addend: 0x0, symName: _OUTLINED_FUNCTION_480, symObjAddr: 0x3CF48, symBinAddr: 0x3BB48, symSize: 0x8 }
  - { offset: 0x6E243, size: 0x8, addend: 0x0, symName: _OUTLINED_FUNCTION_481, symObjAddr: 0x3CF50, symBinAddr: 0x3BB50, symSize: 0x8 }
  - { offset: 0x6E25A, size: 0x8, addend: 0x0, symName: _OUTLINED_FUNCTION_484, symObjAddr: 0x3CF68, symBinAddr: 0x3BB68, symSize: 0x1C }
  - { offset: 0x6E271, size: 0x8, addend: 0x0, symName: _OUTLINED_FUNCTION_494, symObjAddr: 0x3D030, symBinAddr: 0x3BC30, symSize: 0xC }
  - { offset: 0x6E288, size: 0x8, addend: 0x0, symName: _OUTLINED_FUNCTION_520, symObjAddr: 0x3D1AC, symBinAddr: 0x3BDAC, symSize: 0x8 }
  - { offset: 0x6E29F, size: 0x8, addend: 0x0, symName: _OUTLINED_FUNCTION_541, symObjAddr: 0x3D2E8, symBinAddr: 0x3BEE8, symSize: 0x8 }
  - { offset: 0x6E2B6, size: 0x8, addend: 0x0, symName: _OUTLINED_FUNCTION_545, symObjAddr: 0x3D314, symBinAddr: 0x3BF14, symSize: 0x8 }
  - { offset: 0x6E2CD, size: 0x8, addend: 0x0, symName: _OUTLINED_FUNCTION_546, symObjAddr: 0x3D31C, symBinAddr: 0x3BF1C, symSize: 0xC }
  - { offset: 0x6E2E4, size: 0x8, addend: 0x0, symName: _OUTLINED_FUNCTION_551, symObjAddr: 0x3D358, symBinAddr: 0x3BF58, symSize: 0x8 }
  - { offset: 0x6E2FB, size: 0x8, addend: 0x0, symName: _OUTLINED_FUNCTION_575, symObjAddr: 0x3D48C, symBinAddr: 0x3C08C, symSize: 0xC }
  - { offset: 0x6E312, size: 0x8, addend: 0x0, symName: _OUTLINED_FUNCTION_577, symObjAddr: 0x3D4A0, symBinAddr: 0x3C0A0, symSize: 0xC }
  - { offset: 0x6E329, size: 0x8, addend: 0x0, symName: _OUTLINED_FUNCTION_587, symObjAddr: 0x3D53C, symBinAddr: 0x3C13C, symSize: 0xC }
  - { offset: 0x6E340, size: 0x8, addend: 0x0, symName: _OUTLINED_FUNCTION_589, symObjAddr: 0x3D554, symBinAddr: 0x3C154, symSize: 0x8 }
  - { offset: 0x6E357, size: 0x8, addend: 0x0, symName: _OUTLINED_FUNCTION_590, symObjAddr: 0x3D55C, symBinAddr: 0x3C15C, symSize: 0x14 }
  - { offset: 0x6E36E, size: 0x8, addend: 0x0, symName: _OUTLINED_FUNCTION_591, symObjAddr: 0x3D570, symBinAddr: 0x3C170, symSize: 0xC }
  - { offset: 0x6E385, size: 0x8, addend: 0x0, symName: _OUTLINED_FUNCTION_593, symObjAddr: 0x3D584, symBinAddr: 0x3C184, symSize: 0xC }
  - { offset: 0x6E39C, size: 0x8, addend: 0x0, symName: _OUTLINED_FUNCTION_595, symObjAddr: 0x3D5A0, symBinAddr: 0x3C1A0, symSize: 0xC }
  - { offset: 0x6E3B3, size: 0x8, addend: 0x0, symName: _OUTLINED_FUNCTION_603, symObjAddr: 0x3D608, symBinAddr: 0x3C208, symSize: 0x8 }
  - { offset: 0x6E3CA, size: 0x8, addend: 0x0, symName: _OUTLINED_FUNCTION_606, symObjAddr: 0x3D620, symBinAddr: 0x3C220, symSize: 0x8 }
  - { offset: 0x6E3E1, size: 0x8, addend: 0x0, symName: _OUTLINED_FUNCTION_607, symObjAddr: 0x3D628, symBinAddr: 0x3C228, symSize: 0x8 }
  - { offset: 0x6E3F8, size: 0x8, addend: 0x0, symName: _OUTLINED_FUNCTION_612, symObjAddr: 0x3D660, symBinAddr: 0x3C260, symSize: 0xC }
  - { offset: 0x6E40F, size: 0x8, addend: 0x0, symName: _OUTLINED_FUNCTION_614, symObjAddr: 0x3D694, symBinAddr: 0x3C294, symSize: 0x10 }
  - { offset: 0x6E426, size: 0x8, addend: 0x0, symName: _OUTLINED_FUNCTION_615, symObjAddr: 0x3D6A4, symBinAddr: 0x3C2A4, symSize: 0xC }
  - { offset: 0x6E43D, size: 0x8, addend: 0x0, symName: _OUTLINED_FUNCTION_628, symObjAddr: 0x3D7D0, symBinAddr: 0x3C3D0, symSize: 0xC }
  - { offset: 0x6E454, size: 0x8, addend: 0x0, symName: _OUTLINED_FUNCTION_638, symObjAddr: 0x3D860, symBinAddr: 0x3C460, symSize: 0xC }
  - { offset: 0x6E46B, size: 0x8, addend: 0x0, symName: _OUTLINED_FUNCTION_658, symObjAddr: 0x3D970, symBinAddr: 0x3C570, symSize: 0x8 }
  - { offset: 0x6E482, size: 0x8, addend: 0x0, symName: _OUTLINED_FUNCTION_662, symObjAddr: 0x3D99C, symBinAddr: 0x3C59C, symSize: 0x8 }
  - { offset: 0x6E499, size: 0x8, addend: 0x0, symName: _OUTLINED_FUNCTION_664, symObjAddr: 0x3D9AC, symBinAddr: 0x3C5AC, symSize: 0x8 }
  - { offset: 0x6E4B0, size: 0x8, addend: 0x0, symName: _OUTLINED_FUNCTION_665, symObjAddr: 0x3D9B4, symBinAddr: 0x3C5B4, symSize: 0x8 }
  - { offset: 0x6E4C7, size: 0x8, addend: 0x0, symName: _OUTLINED_FUNCTION_671, symObjAddr: 0x3D9F0, symBinAddr: 0x3C5F0, symSize: 0xC }
  - { offset: 0x6E4DE, size: 0x8, addend: 0x0, symName: _OUTLINED_FUNCTION_672, symObjAddr: 0x3D9FC, symBinAddr: 0x3C5FC, symSize: 0xC }
  - { offset: 0x6E4F5, size: 0x8, addend: 0x0, symName: _OUTLINED_FUNCTION_675, symObjAddr: 0x3DA34, symBinAddr: 0x3C634, symSize: 0x20 }
  - { offset: 0x6E50C, size: 0x8, addend: 0x0, symName: _OUTLINED_FUNCTION_677, symObjAddr: 0x3DA74, symBinAddr: 0x3C674, symSize: 0x20 }
  - { offset: 0x6E523, size: 0x8, addend: 0x0, symName: _OUTLINED_FUNCTION_684, symObjAddr: 0x3DAF0, symBinAddr: 0x3C6F0, symSize: 0xC }
  - { offset: 0x6E53A, size: 0x8, addend: 0x0, symName: _OUTLINED_FUNCTION_694, symObjAddr: 0x3DB7C, symBinAddr: 0x3C77C, symSize: 0xC }
  - { offset: 0x6E551, size: 0x8, addend: 0x0, symName: _OUTLINED_FUNCTION_695, symObjAddr: 0x3DB88, symBinAddr: 0x3C788, symSize: 0xC }
  - { offset: 0x6E568, size: 0x8, addend: 0x0, symName: _OUTLINED_FUNCTION_697, symObjAddr: 0x3DBA0, symBinAddr: 0x3C7A0, symSize: 0xC }
  - { offset: 0x6E57F, size: 0x8, addend: 0x0, symName: _OUTLINED_FUNCTION_698, symObjAddr: 0x3DBAC, symBinAddr: 0x3C7AC, symSize: 0xC }
  - { offset: 0x6E596, size: 0x8, addend: 0x0, symName: _OUTLINED_FUNCTION_702, symObjAddr: 0x3DBDC, symBinAddr: 0x3C7DC, symSize: 0x18 }
  - { offset: 0x6E5AD, size: 0x8, addend: 0x0, symName: _OUTLINED_FUNCTION_754, symObjAddr: 0x3DEC8, symBinAddr: 0x3CAC8, symSize: 0x8 }
  - { offset: 0x6E5C4, size: 0x8, addend: 0x0, symName: _OUTLINED_FUNCTION_785, symObjAddr: 0x3E060, symBinAddr: 0x3CC60, symSize: 0x8 }
  - { offset: 0x6E5DB, size: 0x8, addend: 0x0, symName: _OUTLINED_FUNCTION_790, symObjAddr: 0x3E094, symBinAddr: 0x3CC94, symSize: 0x8 }
  - { offset: 0x6E5F2, size: 0x8, addend: 0x0, symName: _OUTLINED_FUNCTION_791, symObjAddr: 0x3E09C, symBinAddr: 0x3CC9C, symSize: 0x8 }
  - { offset: 0x6E609, size: 0x8, addend: 0x0, symName: _OUTLINED_FUNCTION_796, symObjAddr: 0x3E0D0, symBinAddr: 0x3CCD0, symSize: 0x8 }
  - { offset: 0x6E620, size: 0x8, addend: 0x0, symName: _OUTLINED_FUNCTION_799, symObjAddr: 0x3E0F0, symBinAddr: 0x3CCF0, symSize: 0xC }
  - { offset: 0x6E637, size: 0x8, addend: 0x0, symName: _OUTLINED_FUNCTION_800, symObjAddr: 0x3E0FC, symBinAddr: 0x3CCFC, symSize: 0xC }
  - { offset: 0x6E64E, size: 0x8, addend: 0x0, symName: _OUTLINED_FUNCTION_802, symObjAddr: 0x3E114, symBinAddr: 0x3CD14, symSize: 0x8 }
  - { offset: 0x6E665, size: 0x8, addend: 0x0, symName: _OUTLINED_FUNCTION_809, symObjAddr: 0x3E16C, symBinAddr: 0x3CD6C, symSize: 0x8 }
  - { offset: 0x6E67C, size: 0x8, addend: 0x0, symName: _OUTLINED_FUNCTION_821, symObjAddr: 0x3E21C, symBinAddr: 0x3CE1C, symSize: 0x8 }
  - { offset: 0x6E693, size: 0x8, addend: 0x0, symName: _OUTLINED_FUNCTION_830, symObjAddr: 0x3E284, symBinAddr: 0x3CE84, symSize: 0x10 }
  - { offset: 0x6E6AA, size: 0x8, addend: 0x0, symName: _OUTLINED_FUNCTION_832, symObjAddr: 0x3E2A4, symBinAddr: 0x3CEA4, symSize: 0x10 }
  - { offset: 0x6E6C1, size: 0x8, addend: 0x0, symName: _OUTLINED_FUNCTION_861, symObjAddr: 0x3E474, symBinAddr: 0x3D074, symSize: 0x10 }
  - { offset: 0x6E6D8, size: 0x8, addend: 0x0, symName: _OUTLINED_FUNCTION_865, symObjAddr: 0x3E4B4, symBinAddr: 0x3D0B4, symSize: 0x10 }
  - { offset: 0x6E6EF, size: 0x8, addend: 0x0, symName: _OUTLINED_FUNCTION_869, symObjAddr: 0x3E510, symBinAddr: 0x3D110, symSize: 0xC }
  - { offset: 0x6E706, size: 0x8, addend: 0x0, symName: _OUTLINED_FUNCTION_898, symObjAddr: 0x3E6FC, symBinAddr: 0x3D2FC, symSize: 0x18 }
  - { offset: 0x6E71D, size: 0x8, addend: 0x0, symName: _OUTLINED_FUNCTION_906, symObjAddr: 0x3E768, symBinAddr: 0x3D368, symSize: 0xC }
  - { offset: 0x6E734, size: 0x8, addend: 0x0, symName: _OUTLINED_FUNCTION_911, symObjAddr: 0x3E7B0, symBinAddr: 0x3D3B0, symSize: 0xC }
  - { offset: 0x6E74B, size: 0x8, addend: 0x0, symName: _OUTLINED_FUNCTION_912, symObjAddr: 0x3E7BC, symBinAddr: 0x3D3BC, symSize: 0xC }
  - { offset: 0x6E762, size: 0x8, addend: 0x0, symName: _OUTLINED_FUNCTION_913, symObjAddr: 0x3E7C8, symBinAddr: 0x3D3C8, symSize: 0xC }
  - { offset: 0x6E779, size: 0x8, addend: 0x0, symName: _OUTLINED_FUNCTION_915, symObjAddr: 0x3E7E0, symBinAddr: 0x3D3E0, symSize: 0xC }
  - { offset: 0x6E790, size: 0x8, addend: 0x0, symName: _OUTLINED_FUNCTION_916, symObjAddr: 0x3E7EC, symBinAddr: 0x3D3EC, symSize: 0xC }
  - { offset: 0x6E7A7, size: 0x8, addend: 0x0, symName: _OUTLINED_FUNCTION_919, symObjAddr: 0x3E810, symBinAddr: 0x3D410, symSize: 0xC }
  - { offset: 0x6E7BE, size: 0x8, addend: 0x0, symName: _OUTLINED_FUNCTION_920, symObjAddr: 0x3E81C, symBinAddr: 0x3D41C, symSize: 0xC }
  - { offset: 0x6E7D5, size: 0x8, addend: 0x0, symName: _OUTLINED_FUNCTION_927, symObjAddr: 0x3E870, symBinAddr: 0x3D470, symSize: 0xC }
  - { offset: 0x6E7EC, size: 0x8, addend: 0x0, symName: _OUTLINED_FUNCTION_955, symObjAddr: 0x3E9C4, symBinAddr: 0x3D5C4, symSize: 0xC }
  - { offset: 0x6E803, size: 0x8, addend: 0x0, symName: _OUTLINED_FUNCTION_988, symObjAddr: 0x3EB18, symBinAddr: 0x3D718, symSize: 0x8 }
  - { offset: 0x6E81A, size: 0x8, addend: 0x0, symName: _OUTLINED_FUNCTION_1003, symObjAddr: 0x3EBAC, symBinAddr: 0x3D7AC, symSize: 0x8 }
  - { offset: 0x6E831, size: 0x8, addend: 0x0, symName: _OUTLINED_FUNCTION_1008, symObjAddr: 0x3EBDC, symBinAddr: 0x3D7DC, symSize: 0x8 }
  - { offset: 0x6E848, size: 0x8, addend: 0x0, symName: _OUTLINED_FUNCTION_1024, symObjAddr: 0x3EC74, symBinAddr: 0x3D874, symSize: 0x8 }
  - { offset: 0x6E85F, size: 0x8, addend: 0x0, symName: _OUTLINED_FUNCTION_1025, symObjAddr: 0x3EC7C, symBinAddr: 0x3D87C, symSize: 0x8 }
  - { offset: 0x6E876, size: 0x8, addend: 0x0, symName: _OUTLINED_FUNCTION_1044, symObjAddr: 0x3ED38, symBinAddr: 0x3D938, symSize: 0x8 }
  - { offset: 0x6E88D, size: 0x8, addend: 0x0, symName: _OUTLINED_FUNCTION_1053, symObjAddr: 0x3ED8C, symBinAddr: 0x3D98C, symSize: 0x8 }
  - { offset: 0x6E8A4, size: 0x8, addend: 0x0, symName: _OUTLINED_FUNCTION_1054, symObjAddr: 0x3ED94, symBinAddr: 0x3D994, symSize: 0x8 }
  - { offset: 0x6E8BB, size: 0x8, addend: 0x0, symName: _OUTLINED_FUNCTION_1061, symObjAddr: 0x3EDDC, symBinAddr: 0x3D9DC, symSize: 0x8 }
  - { offset: 0x6E8D2, size: 0x8, addend: 0x0, symName: _OUTLINED_FUNCTION_1065, symObjAddr: 0x3EE04, symBinAddr: 0x3DA04, symSize: 0x8 }
  - { offset: 0x6E8E9, size: 0x8, addend: 0x0, symName: _OUTLINED_FUNCTION_1067, symObjAddr: 0x3EE14, symBinAddr: 0x3DA14, symSize: 0xC }
  - { offset: 0x6E900, size: 0x8, addend: 0x0, symName: _OUTLINED_FUNCTION_1085, symObjAddr: 0x3EEBC, symBinAddr: 0x3DABC, symSize: 0x8 }
  - { offset: 0x6E917, size: 0x8, addend: 0x0, symName: _OUTLINED_FUNCTION_1091, symObjAddr: 0x3EEF4, symBinAddr: 0x3DAF4, symSize: 0xC }
  - { offset: 0x6E92E, size: 0x8, addend: 0x0, symName: _OUTLINED_FUNCTION_1099, symObjAddr: 0x3EF44, symBinAddr: 0x3DB44, symSize: 0xC }
  - { offset: 0x6E945, size: 0x8, addend: 0x0, symName: _OUTLINED_FUNCTION_1166, symObjAddr: 0x3F334, symBinAddr: 0x3DF34, symSize: 0x14 }
  - { offset: 0x6E95C, size: 0x8, addend: 0x0, symName: _OUTLINED_FUNCTION_1177, symObjAddr: 0x3F3D0, symBinAddr: 0x3DFD0, symSize: 0x14 }
  - { offset: 0x6E973, size: 0x8, addend: 0x0, symName: _OUTLINED_FUNCTION_1178, symObjAddr: 0x3F3E4, symBinAddr: 0x3DFE4, symSize: 0x14 }
  - { offset: 0x6E98A, size: 0x8, addend: 0x0, symName: _OUTLINED_FUNCTION_1189, symObjAddr: 0x3F488, symBinAddr: 0x3E088, symSize: 0xC }
  - { offset: 0x6E9A1, size: 0x8, addend: 0x0, symName: _OUTLINED_FUNCTION_1195, symObjAddr: 0x3F4D0, symBinAddr: 0x3E0D0, symSize: 0x14 }
  - { offset: 0x6E9B8, size: 0x8, addend: 0x0, symName: _OUTLINED_FUNCTION_1199, symObjAddr: 0x3F508, symBinAddr: 0x3E108, symSize: 0xC }
  - { offset: 0x6E9CF, size: 0x8, addend: 0x0, symName: _OUTLINED_FUNCTION_1200, symObjAddr: 0x3F514, symBinAddr: 0x3E114, symSize: 0xC }
  - { offset: 0x6E9E6, size: 0x8, addend: 0x0, symName: _OUTLINED_FUNCTION_1205, symObjAddr: 0x3F560, symBinAddr: 0x3E160, symSize: 0x1C }
  - { offset: 0x6E9FD, size: 0x8, addend: 0x0, symName: _OUTLINED_FUNCTION_1212, symObjAddr: 0x3F620, symBinAddr: 0x3E220, symSize: 0x1C }
  - { offset: 0x6EA14, size: 0x8, addend: 0x0, symName: _OUTLINED_FUNCTION_1215, symObjAddr: 0x3F674, symBinAddr: 0x3E274, symSize: 0x14 }
  - { offset: 0x1A3C7B, size: 0x8, addend: 0x0, symName: '__ZN110_$LT$core..ops..range..RangeFrom$LT$usize$GT$$u20$as$u20$core..slice..index..SliceIndex$LT$$u5b$T$u5d$$GT$$GT$5index17h3e39933dcb2db6c0E', symObjAddr: 0x36018, symBinAddr: 0x35140, symSize: 0x1C }
  - { offset: 0x1A4262, size: 0x8, addend: 0x0, symName: __ZN10serde_json4read4HEX017h5b5d1e0340413b94E, symObjAddr: 0x4AF88, symBinAddr: 0x4B6F0, symSize: 0x0 }
  - { offset: 0x1A427E, size: 0x8, addend: 0x0, symName: __ZN10serde_json4read4HEX117hdbf6b43418d8188eE, symObjAddr: 0x4B188, symBinAddr: 0x4B8F0, symSize: 0x0 }
  - { offset: 0x1A42AA, size: 0x8, addend: 0x0, symName: '__ZN70_$LT$serde_json..read..SliceRead$u20$as$u20$serde_json..read..Read$GT$8position17he1e2b134e2b5c656E', symObjAddr: 0x35938, symBinAddr: 0x34AEC, symSize: 0x10 }
  - { offset: 0x1A4306, size: 0x8, addend: 0x0, symName: '__ZN70_$LT$serde_json..read..SliceRead$u20$as$u20$serde_json..read..Read$GT$17decode_hex_escape17h7274d478694cb536E', symObjAddr: 0x35E38, symBinAddr: 0x34F88, symSize: 0xB4 }
  - { offset: 0x1A45D3, size: 0x8, addend: 0x0, symName: '__ZN68_$LT$serde_json..read..StrRead$u20$as$u20$serde_json..read..Read$GT$9parse_str17h59735dad3ea20d85E', symObjAddr: 0x36098, symBinAddr: 0x3515C, symSize: 0x2F0 }
  - { offset: 0x1A491C, size: 0x8, addend: 0x0, symName: '__ZN68_$LT$serde_json..read..StrRead$u20$as$u20$serde_json..read..Read$GT$10ignore_str17hb9aabc9849779f20E', symObjAddr: 0x36388, symBinAddr: 0x3544C, symSize: 0x120 }
  - { offset: 0x1A4A1F, size: 0x8, addend: 0x0, symName: __ZN10serde_json4read5error17h740b0ce869654f95E, symObjAddr: 0x35D4C, symBinAddr: 0x3F794, symSize: 0x30 }
  - { offset: 0x1A4AC8, size: 0x8, addend: 0x0, symName: __ZN10serde_json4read11next_or_eof17hd866dec3ebff6ba2E, symObjAddr: 0x35D7C, symBinAddr: 0x34F00, symSize: 0x44 }
  - { offset: 0x1A4AFA, size: 0x8, addend: 0x0, symName: __ZN10serde_json4read11next_or_eof17hd866dec3ebff6ba2E, symObjAddr: 0x35D7C, symBinAddr: 0x34F00, symSize: 0x44 }
  - { offset: 0x1A4B4F, size: 0x8, addend: 0x0, symName: __ZN10serde_json4read5error17h0fd17659c2196ebeE, symObjAddr: 0x35DC0, symBinAddr: 0x3F7C4, symSize: 0x34 }
  - { offset: 0x1A4C99, size: 0x8, addend: 0x0, symName: __ZN10serde_json4read11peek_or_eof17h6e555685de59b4d9E, symObjAddr: 0x35EEC, symBinAddr: 0x3503C, symSize: 0x34 }
  - { offset: 0x1A4CCB, size: 0x8, addend: 0x0, symName: __ZN10serde_json4read11peek_or_eof17h6e555685de59b4d9E, symObjAddr: 0x35EEC, symBinAddr: 0x3503C, symSize: 0x34 }
  - { offset: 0x1A4CEE, size: 0x8, addend: 0x0, symName: __ZN10serde_json4read19push_wtf8_codepoint17h37351975a81655daE, symObjAddr: 0x35F20, symBinAddr: 0x35070, symSize: 0xD0 }
  - { offset: 0x1A5048, size: 0x8, addend: 0x0, symName: __ZN10serde_json4read5error17hdb16c415749aadb3E, symObjAddr: 0x35FF0, symBinAddr: 0x3F7F8, symSize: 0x28 }
  - { offset: 0x1A50B3, size: 0x8, addend: 0x0, symName: __ZN10serde_json4read5error17h9943015eee3ecf20E, symObjAddr: 0x36034, symBinAddr: 0x3F820, symSize: 0x28 }
  - { offset: 0x1A636F, size: 0x8, addend: 0x0, symName: __ZN10serde_json4read9SliceRead17position_of_index17h6354edb70771f47dE, symObjAddr: 0x35948, symBinAddr: 0x34AFC, symSize: 0x318 }
  - { offset: 0x1A7DFF, size: 0x8, addend: 0x0, symName: __ZN10serde_json4read9SliceRead14skip_to_escape17h24f7e92cf98219ccE, symObjAddr: 0x35C60, symBinAddr: 0x34E14, symSize: 0xEC }
  - { offset: 0x1A84C1, size: 0x8, addend: 0x0, symName: '__ZN5alloc3vec16Vec$LT$T$C$A$GT$4push17h7b6acf6be005ba77E', symObjAddr: 0x35DF4, symBinAddr: 0x34F44, symSize: 0x44 }
  - { offset: 0x1A8654, size: 0x8, addend: 0x0, symName: __ZN10serde_json4read9SliceRead19skip_to_escape_slow17h9440dc77d6595927E, symObjAddr: 0x3605C, symBinAddr: 0x3F848, symSize: 0x3C }
  - { offset: 0x1A885E, size: 0x8, addend: 0x0, symName: _OUTLINED_FUNCTION_238, symObjAddr: 0x3C1F0, symBinAddr: 0x3ADF0, symSize: 0x1C }
  - { offset: 0x1A8875, size: 0x8, addend: 0x0, symName: _OUTLINED_FUNCTION_288, symObjAddr: 0x3C4D0, symBinAddr: 0x3B0D0, symSize: 0x24 }
  - { offset: 0x1A888C, size: 0x8, addend: 0x0, symName: _OUTLINED_FUNCTION_743, symObjAddr: 0x3DE24, symBinAddr: 0x3CA24, symSize: 0x10 }
  - { offset: 0x1A88A3, size: 0x8, addend: 0x0, symName: _OUTLINED_FUNCTION_758, symObjAddr: 0x3DF00, symBinAddr: 0x3CB00, symSize: 0x10 }
  - { offset: 0x1A88BA, size: 0x8, addend: 0x0, symName: _OUTLINED_FUNCTION_1145, symObjAddr: 0x3F1F8, symBinAddr: 0x3DDF8, symSize: 0x14 }
  - { offset: 0x1C229, size: 0x8, addend: 0x0, symName: __ZN4core3num7flt2dec8strategy6dragon9mul_pow1017h14caad0ddecc6650E, symObjAddr: 0x428C, symBinAddr: 0x4838, symSize: 0xE8 }
  - { offset: 0x1C25D, size: 0x8, addend: 0x0, symName: __ZN4core3num7flt2dec8strategy6dragon5POW1017hfd86916fda90a044E, symObjAddr: 0x40F50, symBinAddr: 0x416B8, symSize: 0x0 }
  - { offset: 0x1C278, size: 0x8, addend: 0x0, symName: __ZN4core3num7flt2dec8strategy6dragon8POW5TO1617hcbd4899bec365c39E, symObjAddr: 0x40F78, symBinAddr: 0x416E0, symSize: 0x0 }
  - { offset: 0x1C293, size: 0x8, addend: 0x0, symName: __ZN4core3num7flt2dec8strategy6dragon8POW5TO3217h09c14bd6f10284fbE, symObjAddr: 0x40F80, symBinAddr: 0x416E8, symSize: 0x0 }
  - { offset: 0x1C2AE, size: 0x8, addend: 0x0, symName: __ZN4core3num7flt2dec8strategy6dragon8POW5TO6417he4521f378dc9db4dE, symObjAddr: 0x40F8C, symBinAddr: 0x416F4, symSize: 0x0 }
  - { offset: 0x1C2C9, size: 0x8, addend: 0x0, symName: __ZN4core3num7flt2dec8strategy6dragon9POW5TO12817h889916565d6124b7E, symObjAddr: 0x40FA0, symBinAddr: 0x41708, symSize: 0x0 }
  - { offset: 0x1C2E4, size: 0x8, addend: 0x0, symName: __ZN4core3num7flt2dec8strategy6dragon9POW5TO25617h746e1c62301d7953E, symObjAddr: 0x40FC8, symBinAddr: 0x41730, symSize: 0x0 }
  - { offset: 0x1C572, size: 0x8, addend: 0x0, symName: __ZN4core3num7flt2dec8strategy6dragon9mul_pow1017h14caad0ddecc6650E, symObjAddr: 0x428C, symBinAddr: 0x4838, symSize: 0xE8 }
  - { offset: 0x1C719, size: 0x8, addend: 0x0, symName: __ZN4core7unicode12unicode_data15grapheme_extend17SHORT_OFFSET_RUNS17h3a190c47203a962fE, symObjAddr: 0x41014, symBinAddr: 0x4177C, symSize: 0x0 }
  - { offset: 0x1C735, size: 0x8, addend: 0x0, symName: __ZN4core7unicode12unicode_data15grapheme_extend7OFFSETS17h6b0c21a29fe1fbebE, symObjAddr: 0x40C60, symBinAddr: 0x413C8, symSize: 0x0 }
  - { offset: 0x1C743, size: 0x8, addend: 0x0, symName: __ZN4core7unicode12unicode_data15grapheme_extend11lookup_slow17hbf9ce9eb8fa63f85E, symObjAddr: 0x43D8, symBinAddr: 0x4984, symSize: 0xB4 }
  - { offset: 0x1CBC9, size: 0x8, addend: 0x0, symName: __ZN4core3cmp10PartialOrd2ge17hfc8f9eaeafbc4f22E, symObjAddr: 0x4374, symBinAddr: 0x4920, symSize: 0x1C }
  - { offset: 0x1CF14, size: 0x8, addend: 0x0, symName: '__ZN106_$LT$core..ops..range..Range$LT$usize$GT$$u20$as$u20$core..slice..index..SliceIndex$LT$$u5b$T$u5d$$GT$$GT$9index_mut17ha53eaec8fae09092E', symObjAddr: 0x43A4, symBinAddr: 0x4950, symSize: 0x34 }
  - { offset: 0x1D00A, size: 0x8, addend: 0x0, symName: '__ZN108_$LT$core..ops..range..RangeTo$LT$usize$GT$$u20$as$u20$core..slice..index..SliceIndex$LT$$u5b$T$u5d$$GT$$GT$9index_mut17h7c3711edc9bf4be0E.354', symObjAddr: 0x4390, symBinAddr: 0x493C, symSize: 0x14 }
  - { offset: 0x6EF10, size: 0x8, addend: 0x0, symName: '__ZN5serde2de5impls80_$LT$impl$u20$serde..de..Deserialize$u20$for$u20$alloc..borrow..Cow$LT$T$GT$$GT$11deserialize17hba516c845ddc451bE', symObjAddr: 0xB750, symBinAddr: 0xBCC8, symSize: 0x34 }
  - { offset: 0x6F23B, size: 0x8, addend: 0x0, symName: __ZN5serde2de7Visitor20visit_borrowed_bytes17hc28c64a8c8e3c031E, symObjAddr: 0xA684, symBinAddr: 0xABFC, symSize: 0xA0 }
  - { offset: 0x6F279, size: 0x8, addend: 0x0, symName: __ZN5serde2de7Visitor20visit_borrowed_bytes17hc28c64a8c8e3c031E, symObjAddr: 0xA684, symBinAddr: 0xABFC, symSize: 0xA0 }
  - { offset: 0x6F320, size: 0x8, addend: 0x0, symName: __ZN5serde2de7Visitor20visit_borrowed_bytes17h10a805fffcd04cb5E, symObjAddr: 0xA8B4, symBinAddr: 0xAE2C, symSize: 0x128 }
  - { offset: 0x6F35E, size: 0x8, addend: 0x0, symName: __ZN5serde2de7Visitor20visit_borrowed_bytes17h10a805fffcd04cb5E, symObjAddr: 0xA8B4, symBinAddr: 0xAE2C, symSize: 0x128 }
  - { offset: 0x6F38D, size: 0x8, addend: 0x0, symName: __ZN5serde2de7Visitor20visit_borrowed_bytes17h7ad90bc2a9682c85E, symObjAddr: 0xA9DC, symBinAddr: 0xAF54, symSize: 0x230 }
  - { offset: 0x6F3CB, size: 0x8, addend: 0x0, symName: __ZN5serde2de7Visitor20visit_borrowed_bytes17h7ad90bc2a9682c85E, symObjAddr: 0xA9DC, symBinAddr: 0xAF54, symSize: 0x230 }
  - { offset: 0x6F3FA, size: 0x8, addend: 0x0, symName: __ZN5serde2de7Visitor20visit_borrowed_bytes17h370b88d84381630bE, symObjAddr: 0xAC0C, symBinAddr: 0xB184, symSize: 0x21C }
  - { offset: 0x6F438, size: 0x8, addend: 0x0, symName: __ZN5serde2de7Visitor20visit_borrowed_bytes17h370b88d84381630bE, symObjAddr: 0xAC0C, symBinAddr: 0xB184, symSize: 0x21C }
  - { offset: 0x6F467, size: 0x8, addend: 0x0, symName: __ZN5serde2de7Visitor20visit_borrowed_bytes17hbe60b84e9ac9f6d9E, symObjAddr: 0xAFA8, symBinAddr: 0xB520, symSize: 0x10C }
  - { offset: 0x6F4A5, size: 0x8, addend: 0x0, symName: __ZN5serde2de7Visitor20visit_borrowed_bytes17hbe60b84e9ac9f6d9E, symObjAddr: 0xAFA8, symBinAddr: 0xB520, symSize: 0x10C }
  - { offset: 0x6F4D4, size: 0x8, addend: 0x0, symName: __ZN5serde2de7Visitor20visit_borrowed_bytes17h3be1944590008addE, symObjAddr: 0xB0B4, symBinAddr: 0xB62C, symSize: 0x2DC }
  - { offset: 0x6F512, size: 0x8, addend: 0x0, symName: __ZN5serde2de7Visitor20visit_borrowed_bytes17h3be1944590008addE, symObjAddr: 0xB0B4, symBinAddr: 0xB62C, symSize: 0x2DC }
  - { offset: 0x6F541, size: 0x8, addend: 0x0, symName: __ZN5serde2de7Visitor20visit_borrowed_bytes17ha71509ea8eec50b0E, symObjAddr: 0xB4D0, symBinAddr: 0xBA48, symSize: 0x280 }
  - { offset: 0x6F57F, size: 0x8, addend: 0x0, symName: __ZN5serde2de7Visitor20visit_borrowed_bytes17ha71509ea8eec50b0E, symObjAddr: 0xB4D0, symBinAddr: 0xBA48, symSize: 0x280 }
  - { offset: 0x6F5AE, size: 0x8, addend: 0x0, symName: __ZN5serde2de7Visitor20visit_borrowed_bytes17h23965f66979b034fE, symObjAddr: 0xB8B8, symBinAddr: 0xBE30, symSize: 0x74 }
  - { offset: 0x6F5EC, size: 0x8, addend: 0x0, symName: __ZN5serde2de7Visitor20visit_borrowed_bytes17h23965f66979b034fE, symObjAddr: 0xB8B8, symBinAddr: 0xBE30, symSize: 0x74 }
  - { offset: 0x72A55, size: 0x8, addend: 0x0, symName: '__ZN94_$LT$$RF$mut$u20$powersync_core..bson..de..Deserializer$u20$as$u20$serde..de..Deserializer$GT$15deserialize_any17h11726b8ccfa6aeabE', symObjAddr: 0xA724, symBinAddr: 0xAC9C, symSize: 0x190 }
  - { offset: 0x72CD3, size: 0x8, addend: 0x0, symName: '__ZN94_$LT$$RF$mut$u20$powersync_core..bson..de..Deserializer$u20$as$u20$serde..de..Deserializer$GT$15deserialize_any17hc5263121d3cd9221E', symObjAddr: 0xAE28, symBinAddr: 0xB3A0, symSize: 0x180 }
  - { offset: 0x77EF8, size: 0x8, addend: 0x0, symName: '__ZN79_$LT$powersync_core..bson..de..Deserializer$u20$as$u20$serde..de..SeqAccess$GT$17next_element_seed17hd5c362d80b21f7e4E', symObjAddr: 0xB3AC, symBinAddr: 0xB924, symSize: 0x7C }
  - { offset: 0x77FC9, size: 0x8, addend: 0x0, symName: '__ZN79_$LT$powersync_core..bson..de..Deserializer$u20$as$u20$serde..de..SeqAccess$GT$17next_element_seed17h7d741f9d1c5c5f3aE', symObjAddr: 0xB428, symBinAddr: 0xB9A0, symSize: 0x7C }
  - { offset: 0x78094, size: 0x8, addend: 0x0, symName: '__ZN79_$LT$powersync_core..bson..de..Deserializer$u20$as$u20$serde..de..SeqAccess$GT$17next_element_seed17h1ebad2b912a1279dE', symObjAddr: 0xB784, symBinAddr: 0xBCFC, symSize: 0x74 }
  - { offset: 0x7815F, size: 0x8, addend: 0x0, symName: '__ZN79_$LT$powersync_core..bson..de..Deserializer$u20$as$u20$serde..de..SeqAccess$GT$17next_element_seed17h66977976dc046271E', symObjAddr: 0xB848, symBinAddr: 0xBDC0, symSize: 0x70 }
  - { offset: 0x78F7B, size: 0x8, addend: 0x0, symName: '__ZN92_$LT$$RF$mut$u20$powersync_core..bson..de..Deserializer$u20$as$u20$serde..de..EnumAccess$GT$12variant_seed17hb566c815407042f6E', symObjAddr: 0xB93C, symBinAddr: 0xBEB4, symSize: 0x200 }
  - { offset: 0x79354, size: 0x8, addend: 0x0, symName: '__ZN95_$LT$$RF$mut$u20$powersync_core..bson..de..Deserializer$u20$as$u20$serde..de..VariantAccess$GT$12unit_variant17hc1e57c235ee2cc78E', symObjAddr: 0xBB3C, symBinAddr: 0x3E3D0, symSize: 0x24 }
  - { offset: 0x7937F, size: 0x8, addend: 0x0, symName: '__ZN95_$LT$$RF$mut$u20$powersync_core..bson..de..Deserializer$u20$as$u20$serde..de..VariantAccess$GT$20newtype_variant_seed17h7de9a4c2258699f0E', symObjAddr: 0xBB60, symBinAddr: 0xC0B4, symSize: 0x188 }
  - { offset: 0x8191B, size: 0x8, addend: 0x0, symName: '__ZN4core3ptr106drop_in_place$LT$core..option..Option$LT$core..option..Option$LT$alloc..borrow..Cow$LT$str$GT$$GT$$GT$$GT$17h6f89be3b99be384fE.388', symObjAddr: 0xB390, symBinAddr: 0xB908, symSize: 0x1C }
  - { offset: 0x81947, size: 0x8, addend: 0x0, symName: '__ZN4core3ptr78drop_in_place$LT$core..option..Option$LT$alloc..borrow..Cow$LT$str$GT$$GT$$GT$17hee66c9244c260f49E.390', symObjAddr: 0xB4A4, symBinAddr: 0xBA1C, symSize: 0x18 }
  - { offset: 0x819D0, size: 0x8, addend: 0x0, symName: '__ZN4core3ptr50drop_in_place$LT$alloc..borrow..Cow$LT$str$GT$$GT$17h8c4ca9133348cf09E.391', symObjAddr: 0xB4BC, symBinAddr: 0xBA34, symSize: 0x14 }
  - { offset: 0x81A5C, size: 0x8, addend: 0x0, symName: '__ZN4core3ptr145drop_in_place$LT$core..option..Option$LT$alloc..rc..Rc$LT$alloc..vec..Vec$LT$powersync_core..sync..line..BucketSubscriptionReason$GT$$GT$$GT$$GT$17h33c03b565d1fa232E.393', symObjAddr: 0xB7F8, symBinAddr: 0xBD70, symSize: 0x1C }
  - { offset: 0x81BA5, size: 0x8, addend: 0x0, symName: '__ZN4core3ptr117drop_in_place$LT$core..option..Option$LT$alloc..vec..Vec$LT$powersync_core..sync..line..StreamDescription$GT$$GT$$GT$17h5a248080faf73fa3E.396', symObjAddr: 0xB814, symBinAddr: 0xBD8C, symSize: 0x34 }
  - { offset: 0x836D0, size: 0x8, addend: 0x0, symName: '__ZN4core3cmp5impls69_$LT$impl$u20$core..cmp..PartialEq$LT$$RF$B$GT$$u20$for$u20$$RF$A$GT$2eq17h5d47052c48a318e8E', symObjAddr: 0xB92C, symBinAddr: 0xBEA4, symSize: 0x10 }
  - { offset: 0x8370B, size: 0x8, addend: 0x0, symName: '__ZN4core3cmp5impls69_$LT$impl$u20$core..cmp..PartialEq$LT$$RF$B$GT$$u20$for$u20$$RF$A$GT$2eq17h5d47052c48a318e8E', symObjAddr: 0xB92C, symBinAddr: 0xBEA4, symSize: 0x10 }
  - { offset: 0x83732, size: 0x8, addend: 0x0, symName: '__ZN4core3cmp5impls69_$LT$impl$u20$core..cmp..PartialEq$LT$$RF$B$GT$$u20$for$u20$$RF$A$GT$2eq17h5d47052c48a318e8E', symObjAddr: 0xB92C, symBinAddr: 0xBEA4, symSize: 0x10 }
  - { offset: 0x83C8D, size: 0x8, addend: 0x0, symName: __ZN14powersync_core4bson2de12Deserializer15prepare_to_read17h9c222a2ae85e3322E, symObjAddr: 0xA3C0, symBinAddr: 0xA938, symSize: 0x14C }
  - { offset: 0x83E9F, size: 0x8, addend: 0x0, symName: __ZN14powersync_core4bson2de12Deserializer21prepare_to_read_value17hc860d7a008c14a57E, symObjAddr: 0xA50C, symBinAddr: 0xAA84, symSize: 0x54 }
  - { offset: 0x83F60, size: 0x8, addend: 0x0, symName: __ZN14powersync_core4bson2de12Deserializer13object_reader17h8b54aedeb80dfc8aE, symObjAddr: 0xA560, symBinAddr: 0xAAD8, symSize: 0x68 }
  - { offset: 0x84008, size: 0x8, addend: 0x0, symName: __ZN14powersync_core4bson2de12Deserializer20advance_to_next_name17hae650085a422bdf2E, symObjAddr: 0xA5C8, symBinAddr: 0xAB40, symSize: 0xBC }
  - { offset: 0x845F2, size: 0x8, addend: 0x0, symName: _OUTLINED_FUNCTION_59, symObjAddr: 0x3B510, symBinAddr: 0x3A110, symSize: 0xC }
  - { offset: 0x84609, size: 0x8, addend: 0x0, symName: _OUTLINED_FUNCTION_68, symObjAddr: 0x3B5A0, symBinAddr: 0x3A1A0, symSize: 0x10 }
  - { offset: 0x84620, size: 0x8, addend: 0x0, symName: _OUTLINED_FUNCTION_79, symObjAddr: 0x3B6C4, symBinAddr: 0x3A2C4, symSize: 0xC }
  - { offset: 0x84637, size: 0x8, addend: 0x0, symName: _OUTLINED_FUNCTION_99, symObjAddr: 0x3B864, symBinAddr: 0x3A464, symSize: 0x10 }
  - { offset: 0x8464E, size: 0x8, addend: 0x0, symName: _OUTLINED_FUNCTION_122, symObjAddr: 0x3BA40, symBinAddr: 0x3A640, symSize: 0xC }
  - { offset: 0x84665, size: 0x8, addend: 0x0, symName: _OUTLINED_FUNCTION_131, symObjAddr: 0x3BB08, symBinAddr: 0x3A708, symSize: 0x10 }
  - { offset: 0x8467C, size: 0x8, addend: 0x0, symName: _OUTLINED_FUNCTION_141, symObjAddr: 0x3BBE0, symBinAddr: 0x3A7E0, symSize: 0xC }
  - { offset: 0x84693, size: 0x8, addend: 0x0, symName: _OUTLINED_FUNCTION_169, symObjAddr: 0x3BDBC, symBinAddr: 0x3A9BC, symSize: 0x8 }
  - { offset: 0x846AA, size: 0x8, addend: 0x0, symName: _OUTLINED_FUNCTION_175, symObjAddr: 0x3BE20, symBinAddr: 0x3AA20, symSize: 0x10 }
  - { offset: 0x846C1, size: 0x8, addend: 0x0, symName: _OUTLINED_FUNCTION_180, symObjAddr: 0x3BE80, symBinAddr: 0x3AA80, symSize: 0x10 }
  - { offset: 0x846D8, size: 0x8, addend: 0x0, symName: _OUTLINED_FUNCTION_182, symObjAddr: 0x3BEB0, symBinAddr: 0x3AAB0, symSize: 0x10 }
  - { offset: 0x846EF, size: 0x8, addend: 0x0, symName: _OUTLINED_FUNCTION_187, symObjAddr: 0x3BF18, symBinAddr: 0x3AB18, symSize: 0x8 }
  - { offset: 0x84706, size: 0x8, addend: 0x0, symName: _OUTLINED_FUNCTION_190, symObjAddr: 0x3BF38, symBinAddr: 0x3AB38, symSize: 0x8 }
  - { offset: 0x8471D, size: 0x8, addend: 0x0, symName: _OUTLINED_FUNCTION_194, symObjAddr: 0x3BF60, symBinAddr: 0x3AB60, symSize: 0xC }
  - { offset: 0x84734, size: 0x8, addend: 0x0, symName: _OUTLINED_FUNCTION_208, symObjAddr: 0x3C06C, symBinAddr: 0x3AC6C, symSize: 0xC }
  - { offset: 0x8474B, size: 0x8, addend: 0x0, symName: _OUTLINED_FUNCTION_227, symObjAddr: 0x3C130, symBinAddr: 0x3AD30, symSize: 0x8 }
  - { offset: 0x84762, size: 0x8, addend: 0x0, symName: _OUTLINED_FUNCTION_251, symObjAddr: 0x3C2E8, symBinAddr: 0x3AEE8, symSize: 0x8 }
  - { offset: 0x84779, size: 0x8, addend: 0x0, symName: _OUTLINED_FUNCTION_252, symObjAddr: 0x3C2F0, symBinAddr: 0x3AEF0, symSize: 0x8 }
  - { offset: 0x84790, size: 0x8, addend: 0x0, symName: _OUTLINED_FUNCTION_253, symObjAddr: 0x3C2F8, symBinAddr: 0x3AEF8, symSize: 0x8 }
  - { offset: 0x847A7, size: 0x8, addend: 0x0, symName: _OUTLINED_FUNCTION_254, symObjAddr: 0x3C300, symBinAddr: 0x3AF00, symSize: 0x8 }
  - { offset: 0x847BE, size: 0x8, addend: 0x0, symName: _OUTLINED_FUNCTION_255, symObjAddr: 0x3C308, symBinAddr: 0x3AF08, symSize: 0x8 }
  - { offset: 0x847D5, size: 0x8, addend: 0x0, symName: _OUTLINED_FUNCTION_365, symObjAddr: 0x3C8B4, symBinAddr: 0x3B4B4, symSize: 0xC }
  - { offset: 0x847EC, size: 0x8, addend: 0x0, symName: _OUTLINED_FUNCTION_414, symObjAddr: 0x3CBC4, symBinAddr: 0x3B7C4, symSize: 0x8 }
  - { offset: 0x84803, size: 0x8, addend: 0x0, symName: _OUTLINED_FUNCTION_464, symObjAddr: 0x3CE28, symBinAddr: 0x3BA28, symSize: 0x8 }
  - { offset: 0x8481A, size: 0x8, addend: 0x0, symName: _OUTLINED_FUNCTION_495, symObjAddr: 0x3D03C, symBinAddr: 0x3BC3C, symSize: 0xC }
  - { offset: 0x84831, size: 0x8, addend: 0x0, symName: _OUTLINED_FUNCTION_560, symObjAddr: 0x3D3D0, symBinAddr: 0x3BFD0, symSize: 0x8 }
  - { offset: 0x84848, size: 0x8, addend: 0x0, symName: _OUTLINED_FUNCTION_568, symObjAddr: 0x3D434, symBinAddr: 0x3C034, symSize: 0xC }
  - { offset: 0x8485F, size: 0x8, addend: 0x0, symName: _OUTLINED_FUNCTION_574, symObjAddr: 0x3D480, symBinAddr: 0x3C080, symSize: 0xC }
  - { offset: 0x84876, size: 0x8, addend: 0x0, symName: _OUTLINED_FUNCTION_626, symObjAddr: 0x3D788, symBinAddr: 0x3C388, symSize: 0x24 }
  - { offset: 0x8488D, size: 0x8, addend: 0x0, symName: _OUTLINED_FUNCTION_669, symObjAddr: 0x3D9E0, symBinAddr: 0x3C5E0, symSize: 0x8 }
  - { offset: 0x848A4, size: 0x8, addend: 0x0, symName: _OUTLINED_FUNCTION_683, symObjAddr: 0x3DAE4, symBinAddr: 0x3C6E4, symSize: 0xC }
  - { offset: 0x848BB, size: 0x8, addend: 0x0, symName: _OUTLINED_FUNCTION_692, symObjAddr: 0x3DB64, symBinAddr: 0x3C764, symSize: 0xC }
  - { offset: 0x848D2, size: 0x8, addend: 0x0, symName: _OUTLINED_FUNCTION_696, symObjAddr: 0x3DB94, symBinAddr: 0x3C794, symSize: 0xC }
  - { offset: 0x848E9, size: 0x8, addend: 0x0, symName: _OUTLINED_FUNCTION_764, symObjAddr: 0x3DF60, symBinAddr: 0x3CB60, symSize: 0xC }
  - { offset: 0x84900, size: 0x8, addend: 0x0, symName: _OUTLINED_FUNCTION_765, symObjAddr: 0x3DF6C, symBinAddr: 0x3CB6C, symSize: 0xC }
  - { offset: 0x84917, size: 0x8, addend: 0x0, symName: _OUTLINED_FUNCTION_847, symObjAddr: 0x3E394, symBinAddr: 0x3CF94, symSize: 0x10 }
  - { offset: 0x8492E, size: 0x8, addend: 0x0, symName: _OUTLINED_FUNCTION_849, symObjAddr: 0x3E3B4, symBinAddr: 0x3CFB4, symSize: 0x10 }
  - { offset: 0x84945, size: 0x8, addend: 0x0, symName: _OUTLINED_FUNCTION_1047, symObjAddr: 0x3ED58, symBinAddr: 0x3D958, symSize: 0xC }
  - { offset: 0x8495C, size: 0x8, addend: 0x0, symName: _OUTLINED_FUNCTION_1064, symObjAddr: 0x3EDF8, symBinAddr: 0x3D9F8, symSize: 0xC }
  - { offset: 0x84973, size: 0x8, addend: 0x0, symName: _OUTLINED_FUNCTION_1079, symObjAddr: 0x3EE84, symBinAddr: 0x3DA84, symSize: 0x8 }
  - { offset: 0x8498A, size: 0x8, addend: 0x0, symName: _OUTLINED_FUNCTION_1124, symObjAddr: 0x3F0B4, symBinAddr: 0x3DCB4, symSize: 0xC }
  - { offset: 0x849A1, size: 0x8, addend: 0x0, symName: _OUTLINED_FUNCTION_1149, symObjAddr: 0x3F230, symBinAddr: 0x3DE30, symSize: 0xC }
  - { offset: 0x849B8, size: 0x8, addend: 0x0, symName: _OUTLINED_FUNCTION_1150, symObjAddr: 0x3F23C, symBinAddr: 0x3DE3C, symSize: 0xC }
  - { offset: 0x849CF, size: 0x8, addend: 0x0, symName: _OUTLINED_FUNCTION_1158, symObjAddr: 0x3F2BC, symBinAddr: 0x3DEBC, symSize: 0xC }
  - { offset: 0x1B091, size: 0x8, addend: 0x0, symName: __ZN4core3num7flt2dec8strategy5grisu12CACHED_POW1017hf83d14a315cc53acE, symObjAddr: 0x40750, symBinAddr: 0x40EB8, symSize: 0x0 }
  - { offset: 0x1B564, size: 0x8, addend: 0x0, symName: __ZN4core3num7flt2dec8strategy5grisu12cached_power17hf74380fbd0f3e5e1E, symObjAddr: 0x3ED4, symBinAddr: 0x4480, symSize: 0x64 }
  - { offset: 0x1B62D, size: 0x8, addend: 0x0, symName: __ZN4core3num7flt2dec8strategy5grisu22max_pow10_no_more_than17h9eb23ad3279e45f6E, symObjAddr: 0x4010, symBinAddr: 0x45BC, symSize: 0xC0 }
  - { offset: 0x1B65F, size: 0x8, addend: 0x0, symName: __ZN4core3num7flt2dec8strategy5grisu19format_shortest_opt14round_and_weed17h42c349b34ca1654fE, symObjAddr: 0x40F4, symBinAddr: 0x46A0, symSize: 0xD0 }
  - { offset: 0x1B788, size: 0x8, addend: 0x0, symName: __ZN4core3num7flt2dec8strategy5grisu16format_exact_opt14possibly_round17h6fa6a0c232be58c5E, symObjAddr: 0x41C4, symBinAddr: 0x4770, symSize: 0xC8 }
  - { offset: 0x1BC37, size: 0x8, addend: 0x0, symName: '__ZN108_$LT$core..ops..range..RangeTo$LT$usize$GT$$u20$as$u20$core..slice..index..SliceIndex$LT$$u5b$T$u5d$$GT$$GT$9index_mut17h7c3711edc9bf4be0E.337', symObjAddr: 0x40D0, symBinAddr: 0x467C, symSize: 0x24 }
  - { offset: 0x1BDBF, size: 0x8, addend: 0x0, symName: '__ZN4core3f6421_$LT$impl$u20$f64$GT$8classify17h620add73336b7bb7E', symObjAddr: 0x3E94, symBinAddr: 0x4440, symSize: 0x40 }
  - { offset: 0x1BF1F, size: 0x8, addend: 0x0, symName: __ZN4core3num9diy_float2Fp9normalize17h9bc846e4ba306791E, symObjAddr: 0x3F38, symBinAddr: 0x44E4, symSize: 0x8C }
  - { offset: 0x1BF3D, size: 0x8, addend: 0x0, symName: __ZN4core3num9diy_float2Fp9normalize17h9bc846e4ba306791E, symObjAddr: 0x3F38, symBinAddr: 0x44E4, symSize: 0x8C }
  - { offset: 0x1BF5B, size: 0x8, addend: 0x0, symName: __ZN4core3num9diy_float2Fp9normalize17h9bc846e4ba306791E, symObjAddr: 0x3F38, symBinAddr: 0x44E4, symSize: 0x8C }
  - { offset: 0x1BF7B, size: 0x8, addend: 0x0, symName: __ZN4core3num9diy_float2Fp3mul17hee1898c461ca5cd8E, symObjAddr: 0x3FC4, symBinAddr: 0x4570, symSize: 0x4C }
  - { offset: 0x1C15C, size: 0x8, addend: 0x0, symName: _OUTLINED_FUNCTION_20, symObjAddr: 0x3B1F8, symBinAddr: 0x39DF8, symSize: 0x10 }
  - { offset: 0x1C173, size: 0x8, addend: 0x0, symName: _OUTLINED_FUNCTION_338, symObjAddr: 0x3C768, symBinAddr: 0x3B368, symSize: 0x8 }
  - { offset: 0x1C18A, size: 0x8, addend: 0x0, symName: _OUTLINED_FUNCTION_433, symObjAddr: 0x3CC7C, symBinAddr: 0x3B87C, symSize: 0x8 }
  - { offset: 0x1C1A1, size: 0x8, addend: 0x0, symName: _OUTLINED_FUNCTION_641, symObjAddr: 0x3D884, symBinAddr: 0x3C484, symSize: 0xC }
  - { offset: 0x1C1B8, size: 0x8, addend: 0x0, symName: _OUTLINED_FUNCTION_808, symObjAddr: 0x3E164, symBinAddr: 0x3CD64, symSize: 0x8 }
  - { offset: 0x1C11F5, size: 0x8, addend: 0x0, symName: '__ZN44_$LT$$RF$T$u20$as$u20$core..fmt..Display$GT$3fmt17h74fb37cdf0e176b6E', symObjAddr: 0x39B00, symBinAddr: 0x3870C, symSize: 0x10 }
  - { offset: 0x1C1DB6, size: 0x8, addend: 0x0, symName: '__ZN44_$LT$$RF$T$u20$as$u20$core..fmt..Display$GT$3fmt17h74fb37cdf0e176b6E', symObjAddr: 0x39B00, symBinAddr: 0x3870C, symSize: 0x10 }
  - { offset: 0x1C1ECB, size: 0x8, addend: 0x0, symName: '__ZN4core5slice29_$LT$impl$u20$$u5b$T$u5d$$GT$11starts_with17hcee7992aa35950c7E', symObjAddr: 0x39B40, symBinAddr: 0x3874C, symSize: 0x20 }
  - { offset: 0x1C1F09, size: 0x8, addend: 0x0, symName: '__ZN4core5slice29_$LT$impl$u20$$u5b$T$u5d$$GT$11starts_with17hcee7992aa35950c7E', symObjAddr: 0x39B40, symBinAddr: 0x3874C, symSize: 0x20 }
  - { offset: 0x1C25B6, size: 0x8, addend: 0x0, symName: '__ZN65_$LT$serde_json..io..imp..Error$u20$as$u20$core..fmt..Display$GT$3fmt17he9ae1f7171bbd18aE', symObjAddr: 0x39B94, symBinAddr: 0x3FD3C, symSize: 0xC }
  - { offset: 0x1C27FC, size: 0x8, addend: 0x0, symName: '__ZN63_$LT$alloc..alloc..Global$u20$as$u20$core..alloc..Allocator$GT$8allocate17ha41d90b31a1caff6E.3085', symObjAddr: 0x39B60, symBinAddr: 0x3876C, symSize: 0x4 }
  - { offset: 0x1C2A70, size: 0x8, addend: 0x0, symName: '__ZN70_$LT$alloc..vec..Vec$LT$T$C$A$GT$$u20$as$u20$core..ops..drop..Drop$GT$4drop17h5f629121c5598747E', symObjAddr: 0x39B10, symBinAddr: 0x3871C, symSize: 0x30 }
  - { offset: 0x1C34CE, size: 0x8, addend: 0x0, symName: '__ZN5alloc7raw_vec19RawVec$LT$T$C$A$GT$8grow_one17he8c4d3a72e616679E', symObjAddr: 0x39B64, symBinAddr: 0x38770, symSize: 0x30 }
  - { offset: 0x131C8B, size: 0x8, addend: 0x0, symName: '__ZN67_$LT$serde_json..raw..RawValue$u20$as$u20$serde..ser..Serialize$GT$9serialize17h513107d5722e26deE', symObjAddr: 0x270EC, symBinAddr: 0x265F4, symSize: 0x20 }
  - { offset: 0x132894, size: 0x8, addend: 0x0, symName: '__ZN83_$LT$serde_json..ser..Compound$LT$W$C$F$GT$$u20$as$u20$serde..ser..SerializeMap$GT$13serialize_key17hdbf6a87cae2bd559E', symObjAddr: 0x26DF4, symBinAddr: 0x262FC, symSize: 0x48 }
  - { offset: 0x132A0D, size: 0x8, addend: 0x0, symName: '__ZN83_$LT$serde_json..ser..Compound$LT$W$C$F$GT$$u20$as$u20$serde..ser..SerializeMap$GT$13serialize_key17h608ed20d5b986b0fE', symObjAddr: 0x26F68, symBinAddr: 0x26470, symSize: 0x48 }
  - { offset: 0x13332A, size: 0x8, addend: 0x0, symName: '__ZN83_$LT$serde_json..ser..Compound$LT$W$C$F$GT$$u20$as$u20$serde..ser..SerializeSeq$GT$3end17h3c077e5df8659d62E', symObjAddr: 0x26B00, symBinAddr: 0x26008, symSize: 0x34 }
  - { offset: 0x133432, size: 0x8, addend: 0x0, symName: '__ZN83_$LT$serde_json..ser..Compound$LT$W$C$F$GT$$u20$as$u20$serde..ser..SerializeSeq$GT$17serialize_element17h5a203ad850b1e2ffE', symObjAddr: 0x26E5C, symBinAddr: 0x26364, symSize: 0x48 }
  - { offset: 0x13371F, size: 0x8, addend: 0x0, symName: '__ZN95_$LT$$RF$mut$u20$serde_json..ser..Serializer$LT$W$C$F$GT$$u20$as$u20$serde..ser..Serializer$GT$13serialize_seq17hac1f10ebc4a449baE', symObjAddr: 0x26AAC, symBinAddr: 0x25FB4, symSize: 0x54 }
  - { offset: 0x133815, size: 0x8, addend: 0x0, symName: '__ZN95_$LT$$RF$mut$u20$serde_json..ser..Serializer$LT$W$C$F$GT$$u20$as$u20$serde..ser..Serializer$GT$14serialize_unit17hbca5a1c424c625e5E', symObjAddr: 0x26D7C, symBinAddr: 0x26284, symSize: 0x10 }
  - { offset: 0x133842, size: 0x8, addend: 0x0, symName: '__ZN95_$LT$$RF$mut$u20$serde_json..ser..Serializer$LT$W$C$F$GT$$u20$as$u20$serde..ser..Serializer$GT$14serialize_unit17hbca5a1c424c625e5E', symObjAddr: 0x26D7C, symBinAddr: 0x26284, symSize: 0x10 }
  - { offset: 0x133856, size: 0x8, addend: 0x0, symName: '__ZN95_$LT$$RF$mut$u20$serde_json..ser..Serializer$LT$W$C$F$GT$$u20$as$u20$serde..ser..Serializer$GT$14serialize_unit17hbca5a1c424c625e5E', symObjAddr: 0x26D7C, symBinAddr: 0x26284, symSize: 0x10 }
  - { offset: 0x133874, size: 0x8, addend: 0x0, symName: '__ZN95_$LT$$RF$mut$u20$serde_json..ser..Serializer$LT$W$C$F$GT$$u20$as$u20$serde..ser..Serializer$GT$14serialize_unit17hbca5a1c424c625e5E', symObjAddr: 0x26D7C, symBinAddr: 0x26284, symSize: 0x10 }
  - { offset: 0x133898, size: 0x8, addend: 0x0, symName: '__ZN95_$LT$$RF$mut$u20$serde_json..ser..Serializer$LT$W$C$F$GT$$u20$as$u20$serde..ser..Serializer$GT$14serialize_unit17hbca5a1c424c625e5E', symObjAddr: 0x26D7C, symBinAddr: 0x26284, symSize: 0x10 }
  - { offset: 0x1338D0, size: 0x8, addend: 0x0, symName: '__ZN95_$LT$$RF$mut$u20$serde_json..ser..Serializer$LT$W$C$F$GT$$u20$as$u20$serde..ser..Serializer$GT$14serialize_bool17hbc02173638dcf2daE', symObjAddr: 0x26D8C, symBinAddr: 0x26294, symSize: 0x28 }
  - { offset: 0x13390C, size: 0x8, addend: 0x0, symName: '__ZN95_$LT$$RF$mut$u20$serde_json..ser..Serializer$LT$W$C$F$GT$$u20$as$u20$serde..ser..Serializer$GT$14serialize_bool17hbc02173638dcf2daE', symObjAddr: 0x26D8C, symBinAddr: 0x26294, symSize: 0x28 }
  - { offset: 0x133D7B, size: 0x8, addend: 0x0, symName: __ZN10serde_json3ser9Formatter9end_array17hc2fefa285da43e61E, symObjAddr: 0x26B34, symBinAddr: 0x2603C, symSize: 0xC }
  - { offset: 0x133DB6, size: 0x8, addend: 0x0, symName: __ZN10serde_json3ser9Formatter9end_array17hc2fefa285da43e61E, symObjAddr: 0x26B34, symBinAddr: 0x2603C, symSize: 0xC }
  - { offset: 0x133DD4, size: 0x8, addend: 0x0, symName: __ZN10serde_json3ser9Formatter9end_array17hc2fefa285da43e61E, symObjAddr: 0x26B34, symBinAddr: 0x2603C, symSize: 0xC }
  - { offset: 0x133DF8, size: 0x8, addend: 0x0, symName: __ZN10serde_json3ser9Formatter9end_array17hc2fefa285da43e61E, symObjAddr: 0x26B34, symBinAddr: 0x2603C, symSize: 0xC }
  - { offset: 0x133EC2, size: 0x8, addend: 0x0, symName: __ZN10serde_json3ser9Formatter18begin_object_value17hd5ffad24c818ad54E.2106, symObjAddr: 0x26E3C, symBinAddr: 0x26344, symSize: 0xC }
  - { offset: 0x133EFD, size: 0x8, addend: 0x0, symName: __ZN10serde_json3ser9Formatter18begin_object_value17hd5ffad24c818ad54E.2106, symObjAddr: 0x26E3C, symBinAddr: 0x26344, symSize: 0xC }
  - { offset: 0x133F1B, size: 0x8, addend: 0x0, symName: __ZN10serde_json3ser9Formatter18begin_object_value17hd5ffad24c818ad54E.2106, symObjAddr: 0x26E3C, symBinAddr: 0x26344, symSize: 0xC }
  - { offset: 0x133F3F, size: 0x8, addend: 0x0, symName: __ZN10serde_json3ser9Formatter18begin_object_value17hd5ffad24c818ad54E.2106, symObjAddr: 0x26E3C, symBinAddr: 0x26344, symSize: 0xC }
  - { offset: 0x133F76, size: 0x8, addend: 0x0, symName: __ZN10serde_json3ser9Formatter16begin_object_key17h50ad7902808f2c04E, symObjAddr: 0x26E48, symBinAddr: 0x26350, symSize: 0x14 }
  - { offset: 0x134113, size: 0x8, addend: 0x0, symName: '__ZN91_$LT$serde_json..ser..RawValueStrEmitter$LT$W$C$F$GT$$u20$as$u20$serde..ser..Serializer$GT$14serialize_bool17h64999fbe2390c377E', symObjAddr: 0x271BC, symBinAddr: 0x3F440, symSize: 0x10 }
  - { offset: 0x1343CC, size: 0x8, addend: 0x0, symName: __ZN10serde_json3ser18format_escaped_str17h4242e0baea602b27E, symObjAddr: 0x2656C, symBinAddr: 0x25ACC, symSize: 0x10C }
  - { offset: 0x134F53, size: 0x8, addend: 0x0, symName: '__ZN10serde_json5value3ser76_$LT$impl$u20$serde..ser..Serialize$u20$for$u20$serde_json..value..Value$GT$9serialize17h8abc3c01867d9bb5E', symObjAddr: 0x26B40, symBinAddr: 0x26048, symSize: 0x23C }
  - { offset: 0x135814, size: 0x8, addend: 0x0, symName: '__ZN189_$LT$serde_with..de..impls..$LT$impl$u20$serde_with..de..DeserializeAs$LT$T$GT$$u20$for$u20$serde_with..DisplayFromStr$GT$..deserialize_as..Helper$LT$S$GT$$u20$as$u20$serde..de..Visitor$GT$9visit_str17hbe3f4d7d6c5581b7E', symObjAddr: 0x267F0, symBinAddr: 0x25D50, symSize: 0x48 }
  - { offset: 0x137E89, size: 0x8, addend: 0x0, symName: '__ZN4core3str21_$LT$impl$u20$str$GT$5parse17hb826d8f12c079836E', symObjAddr: 0x26678, symBinAddr: 0x25BD8, symSize: 0x178 }
  - { offset: 0x137EBB, size: 0x8, addend: 0x0, symName: '__ZN4core3str21_$LT$impl$u20$str$GT$5parse17hb826d8f12c079836E', symObjAddr: 0x26678, symBinAddr: 0x25BD8, symSize: 0x178 }
  - { offset: 0x137ED9, size: 0x8, addend: 0x0, symName: '__ZN4core3str21_$LT$impl$u20$str$GT$5parse17hb826d8f12c079836E', symObjAddr: 0x26678, symBinAddr: 0x25BD8, symSize: 0x178 }
  - { offset: 0x137EFD, size: 0x8, addend: 0x0, symName: '__ZN4core3str21_$LT$impl$u20$str$GT$5parse17hb826d8f12c079836E', symObjAddr: 0x26678, symBinAddr: 0x25BD8, symSize: 0x178 }
  - { offset: 0x13867B, size: 0x8, addend: 0x0, symName: __ZN4core5slice4sort6shared5pivot11median3_rec17h0313e6c517f89332E, symObjAddr: 0x268D8, symBinAddr: 0x25E38, symSize: 0xC0 }
  - { offset: 0x1387E1, size: 0x8, addend: 0x0, symName: __ZN4core5slice4sort6shared5pivot11median3_rec17hcd982cde84db3ab7E, symObjAddr: 0x26998, symBinAddr: 0x25EF8, symSize: 0xBC }
  - { offset: 0x13AD14, size: 0x8, addend: 0x0, symName: '__ZN44_$LT$$RF$T$u20$as$u20$core..fmt..Display$GT$3fmt17he05b4e968ed572cdE', symObjAddr: 0x26850, symBinAddr: 0x25DB0, symSize: 0x88 }
  - { offset: 0x13C1AD, size: 0x8, addend: 0x0, symName: __ZN5serde2de7Visitor11visit_bytes17hdce443b64dc03254E, symObjAddr: 0x26A54, symBinAddr: 0x3F3E8, symSize: 0x2C }
  - { offset: 0x13C1FD, size: 0x8, addend: 0x0, symName: __ZN5serde2de7Visitor9visit_i6417h9eba9da46565129cE, symObjAddr: 0x26A80, symBinAddr: 0x3F414, symSize: 0x2C }
  - { offset: 0x13C2F9, size: 0x8, addend: 0x0, symName: '__ZN41_$LT$T$u20$as$u20$serde..de..Expected$GT$3fmt17h5f61106de055c397E', symObjAddr: 0x26838, symBinAddr: 0x25D98, symSize: 0x18 }
  - { offset: 0x13CAFD, size: 0x8, addend: 0x0, symName: __ZN5serde3ser12SerializeMap15serialize_entry17h25ae417709602e5eE, symObjAddr: 0x26DB4, symBinAddr: 0x262BC, symSize: 0x40 }
  - { offset: 0x13CB87, size: 0x8, addend: 0x0, symName: __ZN5serde3ser12SerializeMap15serialize_entry17h001283b2ab3bee26E, symObjAddr: 0x26F2C, symBinAddr: 0x26434, symSize: 0x3C }
  - { offset: 0x13CC23, size: 0x8, addend: 0x0, symName: __ZN5serde3ser12SerializeMap15serialize_entry17h524f8962f31d3d85E, symObjAddr: 0x26FB0, symBinAddr: 0x264B8, symSize: 0x34 }
  - { offset: 0x13CCDE, size: 0x8, addend: 0x0, symName: __ZN5serde3ser12SerializeMap15serialize_entry17h87fb47a1a536381fE, symObjAddr: 0x26FE4, symBinAddr: 0x264EC, symSize: 0x60 }
  - { offset: 0x13CDAC, size: 0x8, addend: 0x0, symName: __ZN5serde3ser12SerializeMap15serialize_entry17hc903d763e388ddb6E, symObjAddr: 0x27044, symBinAddr: 0x2654C, symSize: 0x6C }
  - { offset: 0x13CFF7, size: 0x8, addend: 0x0, symName: __ZN5serde3ser12SerializeMap15serialize_entry17hd6946663d5882e4eE, symObjAddr: 0x270B0, symBinAddr: 0x265B8, symSize: 0x3C }
  - { offset: 0x13D07E, size: 0x8, addend: 0x0, symName: __ZN5serde3ser12SerializeMap15serialize_entry17hf68ca53a3728a1eeE, symObjAddr: 0x2710C, symBinAddr: 0x26614, symSize: 0x58 }
  - { offset: 0x13DA45, size: 0x8, addend: 0x0, symName: __ZN5serde3ser10Serializer11collect_seq17hb29b99755c6c0363E, symObjAddr: 0x26EA4, symBinAddr: 0x263AC, symSize: 0x88 }
  - { offset: 0x13EA52, size: 0x8, addend: 0x0, symName: '__ZN86_$LT$alloc..vec..into_iter..IntoIter$LT$T$C$A$GT$$u20$as$u20$core..ops..drop..Drop$GT$4drop17h587a97e63aa6f0faE', symObjAddr: 0x27164, symBinAddr: 0x2666C, symSize: 0x58 }
  - { offset: 0x140E91, size: 0x8, addend: 0x0, symName: _OUTLINED_FUNCTION_136, symObjAddr: 0x3BB74, symBinAddr: 0x3A774, symSize: 0xC }
  - { offset: 0x140EA8, size: 0x8, addend: 0x0, symName: _OUTLINED_FUNCTION_351, symObjAddr: 0x3C80C, symBinAddr: 0x3B40C, symSize: 0xC }
  - { offset: 0x140EBF, size: 0x8, addend: 0x0, symName: _OUTLINED_FUNCTION_744, symObjAddr: 0x3DE34, symBinAddr: 0x3CA34, symSize: 0xC }
  - { offset: 0x140ED6, size: 0x8, addend: 0x0, symName: _OUTLINED_FUNCTION_774, symObjAddr: 0x3DFD4, symBinAddr: 0x3CBD4, symSize: 0x10 }
  - { offset: 0x140EED, size: 0x8, addend: 0x0, symName: _OUTLINED_FUNCTION_846, symObjAddr: 0x3E384, symBinAddr: 0x3CF84, symSize: 0x10 }
  - { offset: 0x140F04, size: 0x8, addend: 0x0, symName: _OUTLINED_FUNCTION_1014, symObjAddr: 0x3EC10, symBinAddr: 0x3D810, symSize: 0x8 }
  - { offset: 0x140F1B, size: 0x8, addend: 0x0, symName: _OUTLINED_FUNCTION_1015, symObjAddr: 0x3EC18, symBinAddr: 0x3D818, symSize: 0x8 }
  - { offset: 0x140F32, size: 0x8, addend: 0x0, symName: _OUTLINED_FUNCTION_1018, symObjAddr: 0x3EC34, symBinAddr: 0x3D834, symSize: 0xC }
  - { offset: 0x140F49, size: 0x8, addend: 0x0, symName: _OUTLINED_FUNCTION_1019, symObjAddr: 0x3EC40, symBinAddr: 0x3D840, symSize: 0xC }
  - { offset: 0x1A8915, size: 0x8, addend: 0x0, symName: __ZN10serde_json2de5POW1017h5aa763970fcf8f9cE, symObjAddr: 0x4B390, symBinAddr: 0x4BAF8, symSize: 0x0 }
  - { offset: 0x1A8EF5, size: 0x8, addend: 0x0, symName: '__ZN75_$LT$serde_json..de..SeqAccess$LT$R$GT$$u20$as$u20$serde..de..SeqAccess$GT$17next_element_seed16has_next_element17h88ab89035ef98ac3E', symObjAddr: 0x3768C, symBinAddr: 0x363F4, symSize: 0xD4 }
  - { offset: 0x1A9349, size: 0x8, addend: 0x0, symName: '__ZN75_$LT$serde_json..de..MapAccess$LT$R$GT$$u20$as$u20$serde..de..MapAccess$GT$13next_key_seed17h32db2ce325267c38E', symObjAddr: 0x37E34, symBinAddr: 0x36B9C, symSize: 0x8C }
  - { offset: 0x1A9448, size: 0x8, addend: 0x0, symName: '__ZN75_$LT$serde_json..de..MapAccess$LT$R$GT$$u20$as$u20$serde..de..MapAccess$GT$13next_key_seed12has_next_key17h1775cd3693715fe5E', symObjAddr: 0x37EC0, symBinAddr: 0x36C28, symSize: 0xF0 }
  - { offset: 0x1A9494, size: 0x8, addend: 0x0, symName: '__ZN75_$LT$serde_json..de..MapAccess$LT$R$GT$$u20$as$u20$serde..de..MapAccess$GT$15next_value_seed17h0cbc163ca81002a6E', symObjAddr: 0x37FB0, symBinAddr: 0x36D18, symSize: 0x38 }
  - { offset: 0x1A95FD, size: 0x8, addend: 0x0, symName: __ZN10serde_json2de8from_str17hf77211d60c993dc4E, symObjAddr: 0x37FE8, symBinAddr: 0x36D50, symSize: 0x64 }
  - { offset: 0x1A9D37, size: 0x8, addend: 0x0, symName: '__ZN10serde_json5value2de77_$LT$impl$u20$serde..de..Deserialize$u20$for$u20$serde_json..value..Value$GT$11deserialize17h40fc7c1c70a3242fE', symObjAddr: 0x37760, symBinAddr: 0x364C8, symSize: 0x6D4 }
  - { offset: 0x1AACD9, size: 0x8, addend: 0x0, symName: '__ZN4core3ptr45drop_in_place$LT$serde_json..value..Value$GT$17hc65f98d35b6f30bcE', symObjAddr: 0x36550, symBinAddr: 0x35614, symSize: 0x30 }
  - { offset: 0x1AAD73, size: 0x8, addend: 0x0, symName: '__ZN4core3ptr68drop_in_place$LT$alloc..vec..Vec$LT$serde_json..value..Value$GT$$GT$17h502ad02773c246d0E', symObjAddr: 0x36580, symBinAddr: 0x35644, symSize: 0x20 }
  - { offset: 0x1AC419, size: 0x8, addend: 0x0, symName: __ZN10serde_json2de12ParserNumber5visit17hc19850c7e7442dcdE, symObjAddr: 0x364A8, symBinAddr: 0x3556C, symSize: 0xA8 }
  - { offset: 0x1AC5D8, size: 0x8, addend: 0x0, symName: __ZN10serde_json2de12ParserNumber12invalid_type17h86776f050cb51978E, symObjAddr: 0x365A0, symBinAddr: 0x35664, symSize: 0x54 }
  - { offset: 0x1AC662, size: 0x8, addend: 0x0, symName: '__ZN10serde_json2de21Deserializer$LT$R$GT$3end17h540b7bbe37905997E', symObjAddr: 0x365F4, symBinAddr: 0x356B8, symSize: 0x44 }
  - { offset: 0x1AC6A9, size: 0x8, addend: 0x0, symName: '__ZN10serde_json2de21Deserializer$LT$R$GT$16parse_whitespace17hc2d590bc43603bb1E', symObjAddr: 0x36638, symBinAddr: 0x356FC, symSize: 0x5C }
  - { offset: 0x1AC7A2, size: 0x8, addend: 0x0, symName: '__ZN10serde_json2de21Deserializer$LT$R$GT$10peek_error17h992869539219039dE', symObjAddr: 0x36694, symBinAddr: 0x3F884, symSize: 0x48 }
  - { offset: 0x1AC8BF, size: 0x8, addend: 0x0, symName: '__ZN10serde_json2de21Deserializer$LT$R$GT$9next_char17h8c495d45341420f8E', symObjAddr: 0x366DC, symBinAddr: 0x35758, symSize: 0x34 }
  - { offset: 0x1AC8E3, size: 0x8, addend: 0x0, symName: '__ZN10serde_json2de21Deserializer$LT$R$GT$9next_char17h8c495d45341420f8E', symObjAddr: 0x366DC, symBinAddr: 0x35758, symSize: 0x34 }
  - { offset: 0x1AC900, size: 0x8, addend: 0x0, symName: '__ZN10serde_json2de21Deserializer$LT$R$GT$9next_char17h8c495d45341420f8E', symObjAddr: 0x366DC, symBinAddr: 0x35758, symSize: 0x34 }
  - { offset: 0x1AC95D, size: 0x8, addend: 0x0, symName: '__ZN10serde_json2de21Deserializer$LT$R$GT$17next_char_or_null17h3d68698960643716E', symObjAddr: 0x36710, symBinAddr: 0x3578C, symSize: 0x4C }
  - { offset: 0x1AC9AD, size: 0x8, addend: 0x0, symName: '__ZN10serde_json2de21Deserializer$LT$R$GT$5error17hd8507770f528aa51E', symObjAddr: 0x3675C, symBinAddr: 0x3F8CC, symSize: 0x38 }
  - { offset: 0x1ACAFF, size: 0x8, addend: 0x0, symName: '__ZN10serde_json2de21Deserializer$LT$R$GT$17peek_invalid_type17h2339ad2fcf622eb4E', symObjAddr: 0x36794, symBinAddr: 0x3F904, symSize: 0x1C4 }
  - { offset: 0x1ACD15, size: 0x8, addend: 0x0, symName: '__ZN10serde_json2de21Deserializer$LT$R$GT$11parse_ident17hbb4e7a5767b20757E', symObjAddr: 0x36958, symBinAddr: 0x357D8, symSize: 0x84 }
  - { offset: 0x1ACDBA, size: 0x8, addend: 0x0, symName: '__ZN10serde_json2de21Deserializer$LT$R$GT$13parse_integer17hb0e460654eb8fe95E', symObjAddr: 0x369DC, symBinAddr: 0x3585C, symSize: 0x15C }
  - { offset: 0x1ACFE7, size: 0x8, addend: 0x0, symName: '__ZN10serde_json2de21Deserializer$LT$R$GT$12parse_number17haeaa8b0108614adfE', symObjAddr: 0x36B38, symBinAddr: 0x359B8, symSize: 0xBC }
  - { offset: 0x1AD10A, size: 0x8, addend: 0x0, symName: '__ZN10serde_json2de21Deserializer$LT$R$GT$18parse_long_integer17h2e336babd896995fE', symObjAddr: 0x36BF4, symBinAddr: 0x3FAC8, symSize: 0x58 }
  - { offset: 0x1AD245, size: 0x8, addend: 0x0, symName: '__ZN10serde_json2de21Deserializer$LT$R$GT$14f64_from_parts17h3a921b16d852ab3dE', symObjAddr: 0x36C4C, symBinAddr: 0x35A74, symSize: 0xA4 }
  - { offset: 0x1AD313, size: 0x8, addend: 0x0, symName: '__ZN10serde_json2de21Deserializer$LT$R$GT$13parse_decimal17h45f33ca8930d5e3bE', symObjAddr: 0x36CF0, symBinAddr: 0x35B18, symSize: 0x108 }
  - { offset: 0x1AD531, size: 0x8, addend: 0x0, symName: '__ZN10serde_json2de21Deserializer$LT$R$GT$14parse_exponent17h354e7399143869ccE', symObjAddr: 0x36DF8, symBinAddr: 0x35C20, symSize: 0x184 }
  - { offset: 0x1AD8A6, size: 0x8, addend: 0x0, symName: '__ZN10serde_json2de21Deserializer$LT$R$GT$23parse_exponent_overflow17h345c613597907dd1E', symObjAddr: 0x36F7C, symBinAddr: 0x3FB20, symSize: 0x80 }
  - { offset: 0x1AD9D3, size: 0x8, addend: 0x0, symName: '__ZN10serde_json2de21Deserializer$LT$R$GT$22parse_decimal_overflow17h19f215c39478d28aE', symObjAddr: 0x36FFC, symBinAddr: 0x3FBA0, symSize: 0x40 }
  - { offset: 0x1ADB00, size: 0x8, addend: 0x0, symName: '__ZN10serde_json2de21Deserializer$LT$R$GT$18parse_object_colon17h55b72b2389379f8bE', symObjAddr: 0x3703C, symBinAddr: 0x35DA4, symSize: 0x5C }
  - { offset: 0x1ADB3A, size: 0x8, addend: 0x0, symName: '__ZN10serde_json2de21Deserializer$LT$R$GT$7end_seq17hfb7288315c6426c2E', symObjAddr: 0x37098, symBinAddr: 0x35E00, symSize: 0xD4 }
  - { offset: 0x1ADB86, size: 0x8, addend: 0x0, symName: '__ZN10serde_json2de21Deserializer$LT$R$GT$7end_map17hb726715319a85156E', symObjAddr: 0x3716C, symBinAddr: 0x35ED4, symSize: 0x6C }
  - { offset: 0x1ADBB3, size: 0x8, addend: 0x0, symName: '__ZN10serde_json2de21Deserializer$LT$R$GT$12ignore_value17hd37f8cafa564b5f2E', symObjAddr: 0x371D8, symBinAddr: 0x35F40, symSize: 0x2A0 }
  - { offset: 0x1ADFA1, size: 0x8, addend: 0x0, symName: '__ZN10serde_json2de21Deserializer$LT$R$GT$14ignore_integer17hc210bad9ae64c8faE', symObjAddr: 0x37478, symBinAddr: 0x361E0, symSize: 0x13C }
  - { offset: 0x1AE308, size: 0x8, addend: 0x0, symName: '__ZN5alloc3vec16Vec$LT$T$C$A$GT$3pop17h6c9648db6da764c3E', symObjAddr: 0x375B4, symBinAddr: 0x3631C, symSize: 0x28 }
  - { offset: 0x1AE3D4, size: 0x8, addend: 0x0, symName: '__ZN10serde_json2de21Deserializer$LT$R$GT$15ignore_exponent17h9cc4fbaf264f91aaE', symObjAddr: 0x375DC, symBinAddr: 0x36344, symSize: 0xB0 }
  - { offset: 0x1AE82C, size: 0x8, addend: 0x0, symName: _OUTLINED_FUNCTION_113, symObjAddr: 0x3B960, symBinAddr: 0x3A560, symSize: 0x10 }
  - { offset: 0x1AE843, size: 0x8, addend: 0x0, symName: _OUTLINED_FUNCTION_245, symObjAddr: 0x3C28C, symBinAddr: 0x3AE8C, symSize: 0xC }
  - { offset: 0x1AE85A, size: 0x8, addend: 0x0, symName: _OUTLINED_FUNCTION_644, symObjAddr: 0x3D8B8, symBinAddr: 0x3C4B8, symSize: 0x14 }
  - { offset: 0x1AE871, size: 0x8, addend: 0x0, symName: _OUTLINED_FUNCTION_742, symObjAddr: 0x3DE14, symBinAddr: 0x3CA14, symSize: 0x10 }
  - { offset: 0x1AE888, size: 0x8, addend: 0x0, symName: _OUTLINED_FUNCTION_1192, symObjAddr: 0x3F4AC, symBinAddr: 0x3E0AC, symSize: 0xC }
  - { offset: 0x1BA1C6, size: 0x8, addend: 0x0, symName: __ZN3ryu6buffer6Buffer13format_finite17h45156faef1f3caa7E, symObjAddr: 0x3914C, symBinAddr: 0x37D58, symSize: 0x24 }
  - { offset: 0x1BA6CE, size: 0x8, addend: 0x0, symName: '__ZN68_$LT$serde_json..number..Number$u20$as$u20$serde..ser..Serialize$GT$9serialize17h400c9a674a7bbe9eE', symObjAddr: 0x39170, symBinAddr: 0x37D7C, symSize: 0xB0 }
  - { offset: 0x1BAF13, size: 0x8, addend: 0x0, symName: __ZN3ryu6buffer6Buffer13format_finite17h45156faef1f3caa7E, symObjAddr: 0x3914C, symBinAddr: 0x37D58, symSize: 0x24 }
  - { offset: 0x152690, size: 0x8, addend: 0x0, symName: __ZN14powersync_core9crud_vtab6MODULE17hca8b6a42f09fb1a9E, symObjAddr: 0x4E208, symBinAddr: 0x51AF0, symSize: 0x0 }
  - { offset: 0x1528C5, size: 0x8, addend: 0x0, symName: __ZN14powersync_core9crud_vtab7connect17h7d9505328d447ca6E, symObjAddr: 0x2C1A8, symBinAddr: 0x2B3E0, symSize: 0xF0 }
  - { offset: 0x152F3B, size: 0x8, addend: 0x0, symName: __ZN14powersync_core9crud_vtab6update17h9c7af93e3de98f83E, symObjAddr: 0x2C298, symBinAddr: 0x2B4D0, symSize: 0x554 }
  - { offset: 0x1538DC, size: 0x8, addend: 0x0, symName: __ZN14powersync_core9crud_vtab5begin17h001b3eed9dc33e9cE, symObjAddr: 0x2C7EC, symBinAddr: 0x2BA24, symSize: 0xC4 }
  - { offset: 0x153A23, size: 0x8, addend: 0x0, symName: __ZN14powersync_core9crud_vtab6commit17hc1bf3ce3aad3562bE, symObjAddr: 0x2C8B0, symBinAddr: 0x2BAE8, symSize: 0x18 }
  - { offset: 0x1543F5, size: 0x8, addend: 0x0, symName: __ZN14powersync_core5state8register4func17h18134002621dde33E, symObjAddr: 0x2C0F0, symBinAddr: 0x2B328, symSize: 0x54 }
  - { offset: 0x154AD9, size: 0x8, addend: 0x0, symName: '__ZN124_$LT$core..result..Result$LT$T$C$sqlite_nostd..nostd..ResultCode$GT$$u20$as$u20$powersync_core..error..PSResult$LT$T$GT$$GT$14into_db_result17h24e30b5711e61a72E', symObjAddr: 0x2AFD4, symBinAddr: 0x2A20C, symSize: 0x54 }
  - { offset: 0x154B72, size: 0x8, addend: 0x0, symName: '__ZN124_$LT$core..result..Result$LT$T$C$sqlite_nostd..nostd..ResultCode$GT$$u20$as$u20$powersync_core..error..PSResult$LT$T$GT$$GT$14into_db_result17h5e9d4f2f562d6ad7E', symObjAddr: 0x2B028, symBinAddr: 0x2A260, symSize: 0x54 }
  - { offset: 0x154C17, size: 0x8, addend: 0x0, symName: '__ZN124_$LT$core..result..Result$LT$T$C$sqlite_nostd..nostd..ResultCode$GT$$u20$as$u20$powersync_core..error..PSResult$LT$T$GT$$GT$14into_db_result17h67959cad9febdf76E', symObjAddr: 0x2B07C, symBinAddr: 0x2A2B4, symSize: 0x4C }
  - { offset: 0x154CB8, size: 0x8, addend: 0x0, symName: '__ZN89_$LT$sqlite_nostd..nostd..ManagedStmt$u20$as$u20$powersync_core..ext..SafeManagedStmt$GT$4exec17h23ea231968205495E', symObjAddr: 0x2B0C8, symBinAddr: 0x2A300, symSize: 0x50 }
  - { offset: 0x154FF7, size: 0x8, addend: 0x0, symName: __ZN14powersync_core9json_util20powersync_json_merge17h0862bbe9487c0dacE, symObjAddr: 0x2B8F4, symBinAddr: 0x2AB2C, symSize: 0x198 }
  - { offset: 0x15553B, size: 0x8, addend: 0x0, symName: __ZN14powersync_core9json_util23powersync_strip_subtype17h1095b6f76140ca79E, symObjAddr: 0x2BA8C, symBinAddr: 0x2ACC4, symSize: 0x50 }
  - { offset: 0x15579A, size: 0x8, addend: 0x0, symName: __ZN14powersync_core10view_admin19powersync_drop_view17h5e8d0874ddc55587E, symObjAddr: 0x2BADC, symBinAddr: 0x2AD14, symSize: 0x148 }
  - { offset: 0x155C10, size: 0x8, addend: 0x0, symName: __ZN14powersync_core10view_admin14powersync_exec17h454a9dbacba7614cE, symObjAddr: 0x2BC24, symBinAddr: 0x2AE5C, symSize: 0x88 }
  - { offset: 0x155E2F, size: 0x8, addend: 0x0, symName: __ZN14powersync_core10view_admin14powersync_init17h52b998382ac498d1E, symObjAddr: 0x2BCAC, symBinAddr: 0x2AEE4, symSize: 0xBC }
  - { offset: 0x155FE1, size: 0x8, addend: 0x0, symName: __ZN14powersync_core10view_admin24powersync_test_migration17h5a65091091955b13E, symObjAddr: 0x2BD68, symBinAddr: 0x2AFA0, symSize: 0xBC }
  - { offset: 0x1561A4, size: 0x8, addend: 0x0, symName: __ZN14powersync_core10view_admin15powersync_clear17hab6d29fa36735a49E, symObjAddr: 0x2BE24, symBinAddr: 0x2B05C, symSize: 0xC0 }
  - { offset: 0x156305, size: 0x8, addend: 0x0, symName: __ZN14powersync_core10view_admin29powersync_external_table_name17hd1f203a9cc245ed6E, symObjAddr: 0x2BEE4, symBinAddr: 0x2B11C, symSize: 0xBC }
  - { offset: 0x156608, size: 0x8, addend: 0x0, symName: __ZN14powersync_core10view_admin29powersync_internal_table_name17h9d0394512a47234aE, symObjAddr: 0x2BFA0, symBinAddr: 0x2B1D8, symSize: 0x150 }
  - { offset: 0x156846, size: 0x8, addend: 0x0, symName: __ZN14powersync_core10view_admin20powersync_clear_impl17hc02f0381dadab5e2E, symObjAddr: 0x2CC7C, symBinAddr: 0x2BEB4, symSize: 0x264 }
  - { offset: 0x156E64, size: 0x8, addend: 0x0, symName: __ZN14powersync_core10view_admin29powersync_test_migration_impl17h488698fe4493aebeE, symObjAddr: 0x2CEF8, symBinAddr: 0x2C130, symSize: 0x50 }
  - { offset: 0x156F89, size: 0x8, addend: 0x0, symName: __ZN14powersync_core10view_admin19powersync_init_impl17h482f410f2911fee2E, symObjAddr: 0x2CF48, symBinAddr: 0x2C180, symSize: 0x8C }
  - { offset: 0x15708C, size: 0x8, addend: 0x0, symName: _sqlite3_powersync_init, symObjAddr: 0x2B140, symBinAddr: 0x2A378, symSize: 0x790 }
  - { offset: 0x15FC28, size: 0x8, addend: 0x0, symName: '__ZN4core3ptr58drop_in_place$LT$powersync_core..error..PowerSyncError$GT$17h14b396dea537116dE.2513', symObjAddr: 0x2C144, symBinAddr: 0x2B37C, symSize: 0x64 }
  - { offset: 0x15FDEF, size: 0x8, addend: 0x0, symName: '__ZN4core3ptr97drop_in_place$LT$core..option..Option$LT$powersync_core..crud_vtab..ActiveCrudTransaction$GT$$GT$17hed6d08e6e10946aaE', symObjAddr: 0x2C8F0, symBinAddr: 0x2BB28, symSize: 0x50 }
  - { offset: 0x15FE88, size: 0x8, addend: 0x0, symName: '__ZN4core3ptr81drop_in_place$LT$core..option..Option$LT$sqlite_nostd..nostd..ManagedStmt$GT$$GT$17ha2adf8b431d43a8eE', symObjAddr: 0x2C940, symBinAddr: 0x2BB78, symSize: 0x10 }
  - { offset: 0x15FF56, size: 0x8, addend: 0x0, symName: '__ZN4core3ptr110drop_in_place$LT$core..result..Result$LT$alloc..string..String$C$powersync_core..error..PowerSyncError$GT$$GT$17h0c08fc2268ca0a71E', symObjAddr: 0x2CEE0, symBinAddr: 0x2C118, symSize: 0x18 }
  - { offset: 0x162329, size: 0x8, addend: 0x0, symName: '__ZN4core3str6traits66_$LT$impl$u20$core..ops..index..Index$LT$I$GT$$u20$for$u20$str$GT$5index17h17876bda57edbce7E', symObjAddr: 0x2CC54, symBinAddr: 0x2BE8C, symSize: 0x28 }
  - { offset: 0x162367, size: 0x8, addend: 0x0, symName: '__ZN4core3str6traits66_$LT$impl$u20$core..ops..index..Index$LT$I$GT$$u20$for$u20$str$GT$5index17h17876bda57edbce7E', symObjAddr: 0x2CC54, symBinAddr: 0x2BE8C, symSize: 0x28 }
  - { offset: 0x162387, size: 0x8, addend: 0x0, symName: '__ZN4core3str6traits66_$LT$impl$u20$core..ops..index..Index$LT$I$GT$$u20$for$u20$str$GT$5index17h17876bda57edbce7E', symObjAddr: 0x2CC54, symBinAddr: 0x2BE8C, symSize: 0x28 }
  - { offset: 0x1623A6, size: 0x8, addend: 0x0, symName: '__ZN4core3str6traits66_$LT$impl$u20$core..ops..index..Index$LT$I$GT$$u20$for$u20$str$GT$5index17h17876bda57edbce7E', symObjAddr: 0x2CC54, symBinAddr: 0x2BE8C, symSize: 0x28 }
  - { offset: 0x1623CD, size: 0x8, addend: 0x0, symName: '__ZN4core3str6traits66_$LT$impl$u20$core..ops..index..Index$LT$I$GT$$u20$for$u20$str$GT$5index17h17876bda57edbce7E', symObjAddr: 0x2CC54, symBinAddr: 0x2BE8C, symSize: 0x28 }
  - { offset: 0x162DB4, size: 0x8, addend: 0x0, symName: '__ZN86_$LT$serde_json..ser..Compound$LT$W$C$F$GT$$u20$as$u20$serde..ser..SerializeStruct$GT$15serialize_field17haa67505f0c097c03E', symObjAddr: 0x2CAE4, symBinAddr: 0x2BD1C, symSize: 0x78 }
  - { offset: 0x162F1D, size: 0x8, addend: 0x0, symName: '__ZN86_$LT$serde_json..ser..Compound$LT$W$C$F$GT$$u20$as$u20$serde..ser..SerializeStruct$GT$15serialize_field17h7313ff56c36228c0E', symObjAddr: 0x2CB5C, symBinAddr: 0x2BD94, symSize: 0xAC }
  - { offset: 0x1636B6, size: 0x8, addend: 0x0, symName: '__ZN96_$LT$$BP$mut$u20$sqlite3_capi..bindings..sqlite3_value$u20$as$u20$sqlite_nostd..nostd..Value$GT$3int17h42e313feeba9cbb1E', symObjAddr: 0x2CA10, symBinAddr: 0x2BC48, symSize: 0x20 }
  - { offset: 0x1636E4, size: 0x8, addend: 0x0, symName: '__ZN96_$LT$$BP$mut$u20$sqlite3_capi..bindings..sqlite3_value$u20$as$u20$sqlite_nostd..nostd..Value$GT$3int17h42e313feeba9cbb1E', symObjAddr: 0x2CA10, symBinAddr: 0x2BC48, symSize: 0x20 }
  - { offset: 0x1637CE, size: 0x8, addend: 0x0, symName: '__ZN95_$LT$$BP$mut$u20$sqlite3_capi..bindings..sqlite3$u20$as$u20$sqlite_nostd..nostd..Connection$GT$10prepare_v217h763be88c8ff16965E.2526', symObjAddr: 0x2C950, symBinAddr: 0x2BB88, symSize: 0x48 }
  - { offset: 0x163868, size: 0x8, addend: 0x0, symName: '__ZN95_$LT$$BP$mut$u20$sqlite3_capi..bindings..sqlite3$u20$as$u20$sqlite_nostd..nostd..Connection$GT$10prepare_v317h221ea39edeb4d81bE', symObjAddr: 0x2C998, symBinAddr: 0x2BBD0, symSize: 0x78 }
  - { offset: 0x163967, size: 0x8, addend: 0x0, symName: '__ZN95_$LT$$BP$mut$u20$sqlite3_capi..bindings..sqlite3$u20$as$u20$sqlite_nostd..nostd..Connection$GT$9exec_safe17hb2135129173c6759E.2532', symObjAddr: 0x2CA80, symBinAddr: 0x2BCB8, symSize: 0x64 }
  - { offset: 0x163A40, size: 0x8, addend: 0x0, symName: '__ZN77_$LT$alloc..raw_vec..RawVec$LT$T$C$A$GT$$u20$as$u20$core..ops..drop..Drop$GT$4drop17h2a7a9c12ed7573c5E', symObjAddr: 0x2AEC0, symBinAddr: 0x2A0F8, symSize: 0xC }
  - { offset: 0x163A79, size: 0x8, addend: 0x0, symName: '__ZN77_$LT$alloc..raw_vec..RawVec$LT$T$C$A$GT$$u20$as$u20$core..ops..drop..Drop$GT$4drop17h1ffe1d505e1d804fE', symObjAddr: 0x2AF5C, symBinAddr: 0x2A194, symSize: 0xC }
  - { offset: 0x163AB2, size: 0x8, addend: 0x0, symName: '__ZN77_$LT$alloc..raw_vec..RawVec$LT$T$C$A$GT$$u20$as$u20$core..ops..drop..Drop$GT$4drop17h27bb5be6cadbcd8dE', symObjAddr: 0x2AF68, symBinAddr: 0x2A1A0, symSize: 0xC }
  - { offset: 0x163AEB, size: 0x8, addend: 0x0, symName: '__ZN77_$LT$alloc..raw_vec..RawVec$LT$T$C$A$GT$$u20$as$u20$core..ops..drop..Drop$GT$4drop17h4dbc1664d68e809aE', symObjAddr: 0x2AF74, symBinAddr: 0x2A1AC, symSize: 0xC }
  - { offset: 0x163B24, size: 0x8, addend: 0x0, symName: '__ZN77_$LT$alloc..raw_vec..RawVec$LT$T$C$A$GT$$u20$as$u20$core..ops..drop..Drop$GT$4drop17h5ea3c6654ce5c776E', symObjAddr: 0x2AF80, symBinAddr: 0x2A1B8, symSize: 0xC }
  - { offset: 0x163B5D, size: 0x8, addend: 0x0, symName: '__ZN77_$LT$alloc..raw_vec..RawVec$LT$T$C$A$GT$$u20$as$u20$core..ops..drop..Drop$GT$4drop17h89f84cf763b23ecbE', symObjAddr: 0x2AF8C, symBinAddr: 0x2A1C4, symSize: 0xC }
  - { offset: 0x163B96, size: 0x8, addend: 0x0, symName: '__ZN77_$LT$alloc..raw_vec..RawVec$LT$T$C$A$GT$$u20$as$u20$core..ops..drop..Drop$GT$4drop17h93a430a59b49f162E', symObjAddr: 0x2AF98, symBinAddr: 0x2A1D0, symSize: 0xC }
  - { offset: 0x163BCF, size: 0x8, addend: 0x0, symName: '__ZN77_$LT$alloc..raw_vec..RawVec$LT$T$C$A$GT$$u20$as$u20$core..ops..drop..Drop$GT$4drop17h9dbb65e07900d676E', symObjAddr: 0x2AFA4, symBinAddr: 0x2A1DC, symSize: 0xC }
  - { offset: 0x163C08, size: 0x8, addend: 0x0, symName: '__ZN77_$LT$alloc..raw_vec..RawVec$LT$T$C$A$GT$$u20$as$u20$core..ops..drop..Drop$GT$4drop17hcb306655ca68844aE', symObjAddr: 0x2AFB0, symBinAddr: 0x2A1E8, symSize: 0xC }
  - { offset: 0x163C41, size: 0x8, addend: 0x0, symName: '__ZN77_$LT$alloc..raw_vec..RawVec$LT$T$C$A$GT$$u20$as$u20$core..ops..drop..Drop$GT$4drop17hf307b075a6d76190E', symObjAddr: 0x2AFBC, symBinAddr: 0x2A1F4, symSize: 0xC }
  - { offset: 0x163C7A, size: 0x8, addend: 0x0, symName: '__ZN77_$LT$alloc..raw_vec..RawVec$LT$T$C$A$GT$$u20$as$u20$core..ops..drop..Drop$GT$4drop17hffe6c10bdd6cc1a6E', symObjAddr: 0x2AFC8, symBinAddr: 0x2A200, symSize: 0xC }
  - { offset: 0x164F86, size: 0x8, addend: 0x0, symName: __ZN5alloc5alloc15exchange_malloc17haebdea0162a682c3E.2510, symObjAddr: 0x2B8D0, symBinAddr: 0x2AB08, symSize: 0x24 }
  - { offset: 0x1653B1, size: 0x8, addend: 0x0, symName: '__ZN104_$LT$alloc..collections..btree..set..Iter$LT$T$GT$$u20$as$u20$core..iter..traits..iterator..Iterator$GT$4next17he23355d3ee459a89E', symObjAddr: 0x2ABF0, symBinAddr: 0x29E28, symSize: 0x4 }
  - { offset: 0x1653E1, size: 0x8, addend: 0x0, symName: '__ZN104_$LT$alloc..collections..btree..set..Iter$LT$T$GT$$u20$as$u20$core..iter..traits..iterator..Iterator$GT$4next17he23355d3ee459a89E', symObjAddr: 0x2ABF0, symBinAddr: 0x29E28, symSize: 0x4 }
  - { offset: 0x166483, size: 0x8, addend: 0x0, symName: '__ZN5alloc5slice29_$LT$impl$u20$$u5b$T$u5d$$GT$4sort17he077e2f024702e90E', symObjAddr: 0x2ABF4, symBinAddr: 0x29E2C, symSize: 0x6C }
  - { offset: 0x1677B0, size: 0x8, addend: 0x0, symName: '__ZN5alloc11collections5btree3set21BTreeSet$LT$T$C$A$GT$16from_sorted_iter17heac6d2c3678e2ae6E', symObjAddr: 0x2AC60, symBinAddr: 0x29E98, symSize: 0x260 }
  - { offset: 0x16807F, size: 0x8, addend: 0x0, symName: '__ZN5alloc7raw_vec19RawVec$LT$T$C$A$GT$8grow_one17h068e8497419cd131E', symObjAddr: 0x2AECC, symBinAddr: 0x2A104, symSize: 0x8 }
  - { offset: 0x1680C0, size: 0x8, addend: 0x0, symName: '__ZN5alloc7raw_vec20RawVecInner$LT$A$GT$8grow_one17he4d0bbf0310cd198E', symObjAddr: 0x2AED4, symBinAddr: 0x2A10C, symSize: 0x30 }
  - { offset: 0x168114, size: 0x8, addend: 0x0, symName: '__ZN5alloc7raw_vec19RawVec$LT$T$C$A$GT$8grow_one17h24de95e4ad18997eE', symObjAddr: 0x2AF04, symBinAddr: 0x2A13C, symSize: 0x8 }
  - { offset: 0x168155, size: 0x8, addend: 0x0, symName: '__ZN5alloc7raw_vec19RawVec$LT$T$C$A$GT$8grow_one17h31eee8e208ed6287E', symObjAddr: 0x2AF0C, symBinAddr: 0x2A144, symSize: 0x8 }
  - { offset: 0x168196, size: 0x8, addend: 0x0, symName: '__ZN5alloc7raw_vec19RawVec$LT$T$C$A$GT$8grow_one17h3989d7c211d5ec43E', symObjAddr: 0x2AF14, symBinAddr: 0x2A14C, symSize: 0x8 }
  - { offset: 0x1681D7, size: 0x8, addend: 0x0, symName: '__ZN5alloc7raw_vec19RawVec$LT$T$C$A$GT$8grow_one17h3a3cd626f39f8235E', symObjAddr: 0x2AF1C, symBinAddr: 0x2A154, symSize: 0x8 }
  - { offset: 0x16823F, size: 0x8, addend: 0x0, symName: '__ZN5alloc7raw_vec19RawVec$LT$T$C$A$GT$8grow_one17h3d4f4fa7dd94ca61E', symObjAddr: 0x2AF24, symBinAddr: 0x2A15C, symSize: 0x8 }
  - { offset: 0x168280, size: 0x8, addend: 0x0, symName: '__ZN5alloc7raw_vec19RawVec$LT$T$C$A$GT$8grow_one17h4cbbaec85beb0452E', symObjAddr: 0x2AF2C, symBinAddr: 0x2A164, symSize: 0x8 }
  - { offset: 0x1682DB, size: 0x8, addend: 0x0, symName: '__ZN5alloc7raw_vec19RawVec$LT$T$C$A$GT$8grow_one17h573027c2e021fcddE', symObjAddr: 0x2AF34, symBinAddr: 0x2A16C, symSize: 0x8 }
  - { offset: 0x16831C, size: 0x8, addend: 0x0, symName: '__ZN5alloc7raw_vec19RawVec$LT$T$C$A$GT$8grow_one17h5a4e3c46b9428f77E', symObjAddr: 0x2AF3C, symBinAddr: 0x2A174, symSize: 0x8 }
  - { offset: 0x16835D, size: 0x8, addend: 0x0, symName: '__ZN5alloc7raw_vec19RawVec$LT$T$C$A$GT$8grow_one17ha292abb6407bba99E', symObjAddr: 0x2AF44, symBinAddr: 0x2A17C, symSize: 0x8 }
  - { offset: 0x16839E, size: 0x8, addend: 0x0, symName: '__ZN5alloc7raw_vec19RawVec$LT$T$C$A$GT$8grow_one17hf94b24bfe1f1fa01E', symObjAddr: 0x2AF4C, symBinAddr: 0x2A184, symSize: 0x8 }
  - { offset: 0x1683DF, size: 0x8, addend: 0x0, symName: '__ZN5alloc7raw_vec19RawVec$LT$T$C$A$GT$8grow_one17hfb2ff4a4b7de3b16E', symObjAddr: 0x2AF54, symBinAddr: 0x2A18C, symSize: 0x8 }
  - { offset: 0x1685FC, size: 0x8, addend: 0x0, symName: __ZN14powersync_core5state13DatabaseState11destroy_arc17h48eb6e60047a78c7E, symObjAddr: 0x2B118, symBinAddr: 0x2A350, symSize: 0x28 }
  - { offset: 0x16A8F0, size: 0x8, addend: 0x0, symName: __ZN14powersync_core9crud_vtab12VirtualTable15end_transaction17h0eb09c721451048cE, symObjAddr: 0x2C8C8, symBinAddr: 0x2BB00, symSize: 0x28 }
  - { offset: 0x16A972, size: 0x8, addend: 0x0, symName: __ZN12sqlite_nostd5nostd11ManagedStmt10bind_int6417h159c52b803bcc6e0E.2529, symObjAddr: 0x2CA30, symBinAddr: 0x2BC68, symSize: 0x1C }
  - { offset: 0x16A9B0, size: 0x8, addend: 0x0, symName: __ZN14powersync_core9crud_vtab12VirtualTable13value_to_json17he076e5d1e3a84b90E, symObjAddr: 0x2CA4C, symBinAddr: 0x2BC84, symSize: 0x34 }
  - { offset: 0x16A9FD, size: 0x8, addend: 0x0, symName: __ZN12sqlite_nostd5nostd11ManagedStmt11column_text17ha73a913892e47e82E.2534, symObjAddr: 0x2CC08, symBinAddr: 0x2BE40, symSize: 0x4C }
  - { offset: 0x16AC5C, size: 0x8, addend: 0x0, symName: __ZN5alloc6string6String4push17h1eb71f766021a82dE.2537, symObjAddr: 0x2CFD4, symBinAddr: 0x2C20C, symSize: 0x3C }
  - { offset: 0x16B01D, size: 0x8, addend: 0x0, symName: _OUTLINED_FUNCTION_82, symObjAddr: 0x3B704, symBinAddr: 0x3A304, symSize: 0xC }
  - { offset: 0x16B034, size: 0x8, addend: 0x0, symName: _OUTLINED_FUNCTION_91, symObjAddr: 0x3B7C0, symBinAddr: 0x3A3C0, symSize: 0x14 }
  - { offset: 0x16B04B, size: 0x8, addend: 0x0, symName: _OUTLINED_FUNCTION_135, symObjAddr: 0x3BB64, symBinAddr: 0x3A764, symSize: 0x10 }
  - { offset: 0x16B062, size: 0x8, addend: 0x0, symName: _OUTLINED_FUNCTION_162, symObjAddr: 0x3BD5C, symBinAddr: 0x3A95C, symSize: 0xC }
  - { offset: 0x16B079, size: 0x8, addend: 0x0, symName: _OUTLINED_FUNCTION_215, symObjAddr: 0x3C0B4, symBinAddr: 0x3ACB4, symSize: 0x8 }
  - { offset: 0x16B090, size: 0x8, addend: 0x0, symName: _OUTLINED_FUNCTION_357, symObjAddr: 0x3C860, symBinAddr: 0x3B460, symSize: 0x10 }
  - { offset: 0x16B0A7, size: 0x8, addend: 0x0, symName: _OUTLINED_FUNCTION_367, symObjAddr: 0x3C8CC, symBinAddr: 0x3B4CC, symSize: 0xC }
  - { offset: 0x16B0BE, size: 0x8, addend: 0x0, symName: _OUTLINED_FUNCTION_459, symObjAddr: 0x3CDD8, symBinAddr: 0x3B9D8, symSize: 0x1C }
  - { offset: 0x16B0D5, size: 0x8, addend: 0x0, symName: _OUTLINED_FUNCTION_608, symObjAddr: 0x3D630, symBinAddr: 0x3C230, symSize: 0xC }
  - { offset: 0x16B0EC, size: 0x8, addend: 0x0, symName: _OUTLINED_FUNCTION_609, symObjAddr: 0x3D63C, symBinAddr: 0x3C23C, symSize: 0xC }
  - { offset: 0x16B103, size: 0x8, addend: 0x0, symName: _OUTLINED_FUNCTION_610, symObjAddr: 0x3D648, symBinAddr: 0x3C248, symSize: 0xC }
  - { offset: 0x16B11A, size: 0x8, addend: 0x0, symName: _OUTLINED_FUNCTION_1068, symObjAddr: 0x3EE20, symBinAddr: 0x3DA20, symSize: 0xC }
  - { offset: 0x16B131, size: 0x8, addend: 0x0, symName: _OUTLINED_FUNCTION_1069, symObjAddr: 0x3EE2C, symBinAddr: 0x3DA2C, symSize: 0x8 }
  - { offset: 0xB3E8A, size: 0x8, addend: 0x0, symName: '__ZN99_$LT$core..array..iter..IntoIter$LT$T$C$_$GT$$u20$as$u20$core..iter..traits..iterator..Iterator$GT$4next17h7e8622552c2a6c09E', symObjAddr: 0x14664, symBinAddr: 0x14378, symSize: 0x24 }
  - { offset: 0xB3EB8, size: 0x8, addend: 0x0, symName: '__ZN99_$LT$core..array..iter..IntoIter$LT$T$C$_$GT$$u20$as$u20$core..iter..traits..iterator..Iterator$GT$4next17h7e8622552c2a6c09E', symObjAddr: 0x14664, symBinAddr: 0x14378, symSize: 0x24 }
  - { offset: 0xB3ED5, size: 0x8, addend: 0x0, symName: '__ZN99_$LT$core..array..iter..IntoIter$LT$T$C$_$GT$$u20$as$u20$core..iter..traits..iterator..Iterator$GT$4next17h7e8622552c2a6c09E', symObjAddr: 0x14664, symBinAddr: 0x14378, symSize: 0x24 }
  - { offset: 0xB3EF2, size: 0x8, addend: 0x0, symName: '__ZN99_$LT$core..array..iter..IntoIter$LT$T$C$_$GT$$u20$as$u20$core..iter..traits..iterator..Iterator$GT$4next17h7e8622552c2a6c09E', symObjAddr: 0x14664, symBinAddr: 0x14378, symSize: 0x24 }
  - { offset: 0xB3F06, size: 0x8, addend: 0x0, symName: '__ZN99_$LT$core..array..iter..IntoIter$LT$T$C$_$GT$$u20$as$u20$core..iter..traits..iterator..Iterator$GT$4next17h7e8622552c2a6c09E', symObjAddr: 0x14664, symBinAddr: 0x14378, symSize: 0x24 }
  - { offset: 0xB3F21, size: 0x8, addend: 0x0, symName: '__ZN99_$LT$core..array..iter..IntoIter$LT$T$C$_$GT$$u20$as$u20$core..iter..traits..iterator..Iterator$GT$4next17h7e8622552c2a6c09E', symObjAddr: 0x14664, symBinAddr: 0x14378, symSize: 0x24 }
  - { offset: 0xB42E7, size: 0x8, addend: 0x0, symName: __ZN4core3cmp9PartialEq2ne17h9209b18f83bf498eE, symObjAddr: 0x140E4, symBinAddr: 0x13DF8, symSize: 0x18 }
  - { offset: 0xB86ED, size: 0x8, addend: 0x0, symName: __ZN4core5slice4sort6shared9smallsort11insert_tail17h4f1d32060e455864E, symObjAddr: 0x142B4, symBinAddr: 0x13FC8, symSize: 0x50 }
  - { offset: 0xB8812, size: 0x8, addend: 0x0, symName: __ZN4core5slice4sort6shared9smallsort11insert_tail17h6beab55872edfd57E, symObjAddr: 0x14318, symBinAddr: 0x1402C, symSize: 0x74 }
  - { offset: 0xB8978, size: 0x8, addend: 0x0, symName: __ZN4core5slice4sort6shared9smallsort12sort4_stable17h7439a9607267bc9dE, symObjAddr: 0x1438C, symBinAddr: 0x140A0, symSize: 0xC8 }
  - { offset: 0xB8CE5, size: 0x8, addend: 0x0, symName: __ZN4core5slice4sort6shared9smallsort12sort4_stable17hae6581b839cb7734E, symObjAddr: 0x14454, symBinAddr: 0x14168, symSize: 0xF4 }
  - { offset: 0xB9160, size: 0x8, addend: 0x0, symName: __ZN4core5slice4sort6shared9smallsort12sort8_stable17hb3ed4d6bd7101d74E, symObjAddr: 0x14548, symBinAddr: 0x1425C, symSize: 0x44 }
  - { offset: 0xB92F3, size: 0x8, addend: 0x0, symName: __ZN4core5slice4sort6shared9smallsort19bidirectional_merge17h2ca07cefa9af0e97E, symObjAddr: 0x1458C, symBinAddr: 0x142A0, symSize: 0xD8 }
  - { offset: 0xBADBE, size: 0x8, addend: 0x0, symName: '__ZN4core4hash5impls52_$LT$impl$u20$core..hash..Hash$u20$for$u20$$RF$T$GT$4hash17hd5d269ce10d13c39E', symObjAddr: 0x15150, symBinAddr: 0x14E64, symSize: 0xFC }
  - { offset: 0xBBBC9, size: 0x8, addend: 0x0, symName: '__ZN92_$LT$powersync_core..sync..checkpoint..OwnedBucketChecksum$u20$as$u20$core..clone..Clone$GT$5clone17hfa93fbaf5eab6cbdE', symObjAddr: 0x153A8, symBinAddr: 0x150BC, symSize: 0x60 }
  - { offset: 0xBD1F2, size: 0x8, addend: 0x0, symName: '__ZN110_$LT$alloc..collections..btree..map..Values$LT$K$C$V$GT$$u20$as$u20$core..iter..traits..iterator..Iterator$GT$4next17hf913ec6df8ec6f8eE', symObjAddr: 0x13F84, symBinAddr: 0x13C98, symSize: 0x1C }
  - { offset: 0xBDADB, size: 0x8, addend: 0x0, symName: '__ZN108_$LT$alloc..collections..btree..map..Iter$LT$K$C$V$GT$$u20$as$u20$core..iter..traits..iterator..Iterator$GT$4next17h5146d5552677dc90E', symObjAddr: 0x13DF0, symBinAddr: 0x13B04, symSize: 0xD0 }
  - { offset: 0xBE00B, size: 0x8, addend: 0x0, symName: '__ZN108_$LT$alloc..collections..btree..map..Iter$LT$K$C$V$GT$$u20$as$u20$core..iter..traits..iterator..Iterator$GT$4next17h7fab77e631c23094E', symObjAddr: 0x13EC0, symBinAddr: 0x13BD4, symSize: 0xC4 }
  - { offset: 0xBE8BC, size: 0x8, addend: 0x0, symName: '__ZN99_$LT$alloc..collections..btree..map..BTreeMap$LT$K$C$V$C$A$GT$$u20$as$u20$core..ops..drop..Drop$GT$4drop17hf2b560cbc5e9ff86E', symObjAddr: 0x146C4, symBinAddr: 0x143D8, symSize: 0x38 }
  - { offset: 0xBE98E, size: 0x8, addend: 0x0, symName: '__ZN99_$LT$alloc..collections..btree..map..BTreeMap$LT$K$C$V$C$A$GT$$u20$as$u20$core..ops..drop..Drop$GT$4drop17h3b967900f4e9315eE', symObjAddr: 0x15408, symBinAddr: 0x1511C, symSize: 0x124 }
  - { offset: 0xBEE33, size: 0x8, addend: 0x0, symName: '__ZN99_$LT$alloc..collections..btree..map..BTreeMap$LT$K$C$V$C$A$GT$$u20$as$u20$core..ops..drop..Drop$GT$4drop17h6bf7ec85ee5b2149E', symObjAddr: 0x1552C, symBinAddr: 0x15240, symSize: 0x10C }
  - { offset: 0xBF2A8, size: 0x8, addend: 0x0, symName: '__ZN99_$LT$alloc..collections..btree..map..BTreeMap$LT$K$C$V$C$A$GT$$u20$as$u20$core..ops..drop..Drop$GT$4drop17h8a1bf2c9bf3a8b58E', symObjAddr: 0x15638, symBinAddr: 0x1534C, symSize: 0x100 }
  - { offset: 0xBF7A6, size: 0x8, addend: 0x0, symName: '__ZN99_$LT$alloc..collections..btree..map..BTreeMap$LT$K$C$V$C$A$GT$$u20$as$u20$core..ops..drop..Drop$GT$4drop17he1ad5b361b4dba48E', symObjAddr: 0x15738, symBinAddr: 0x1544C, symSize: 0x114 }
  - { offset: 0xBFC5A, size: 0x8, addend: 0x0, symName: '__ZN99_$LT$alloc..collections..btree..map..IntoIter$LT$K$C$V$C$A$GT$$u20$as$u20$core..ops..drop..Drop$GT$4drop17hfc110882153cdb5bE', symObjAddr: 0x146FC, symBinAddr: 0x14410, symSize: 0x44 }
  - { offset: 0xC038D, size: 0x8, addend: 0x0, symName: '__ZN96_$LT$alloc..collections..btree..map..BTreeMap$LT$K$C$V$C$A$GT$$u20$as$u20$core..clone..Clone$GT$5clone13clone_subtree17h59e54eb6c91c5b4eE', symObjAddr: 0x1524C, symBinAddr: 0x14F60, symSize: 0x15C }
  - { offset: 0xC3725, size: 0x8, addend: 0x0, symName: '__ZN5alloc5slice29_$LT$impl$u20$$u5b$T$u5d$$GT$11sort_by_key28_$u7b$$u7b$closure$u7d$$u7d$17h77e65445b1f7ccc1E.980', symObjAddr: 0x14304, symBinAddr: 0x14018, symSize: 0x14 }
  - { offset: 0xC3D53, size: 0x8, addend: 0x0, symName: '__ZN65_$LT$serde_json..value..Value$u20$as$u20$core..cmp..PartialEq$GT$2eq17hb3203b7ee80d605dE', symObjAddr: 0x140FC, symBinAddr: 0x13E10, symSize: 0x1B8 }
  - { offset: 0xC575E, size: 0x8, addend: 0x0, symName: '__ZN5alloc11collections5btree3map25IntoIter$LT$K$C$V$C$A$GT$10dying_next17hee12ecc7cdf619feE', symObjAddr: 0x13FA0, symBinAddr: 0x13CB4, symSize: 0x144 }
  - { offset: 0xC603A, size: 0x8, addend: 0x0, symName: '__ZN5alloc11collections5btree3map25BTreeMap$LT$K$C$V$C$A$GT$16extract_if_inner17hc7d9cecd0d689f94E', symObjAddr: 0x14688, symBinAddr: 0x1439C, symSize: 0x3C }
  - { offset: 0xC605B, size: 0x8, addend: 0x0, symName: '__ZN5alloc11collections5btree3map25BTreeMap$LT$K$C$V$C$A$GT$16extract_if_inner17hc7d9cecd0d689f94E', symObjAddr: 0x14688, symBinAddr: 0x1439C, symSize: 0x3C }
  - { offset: 0xC6079, size: 0x8, addend: 0x0, symName: '__ZN5alloc11collections5btree3map25BTreeMap$LT$K$C$V$C$A$GT$16extract_if_inner17hc7d9cecd0d689f94E', symObjAddr: 0x14688, symBinAddr: 0x1439C, symSize: 0x3C }
  - { offset: 0xC64CE, size: 0x8, addend: 0x0, symName: '__ZN5alloc11collections5btree3map25BTreeMap$LT$K$C$V$C$A$GT$6insert17h414030359e826f42E', symObjAddr: 0x14740, symBinAddr: 0x14454, symSize: 0x4F4 }
  - { offset: 0xC780E, size: 0x8, addend: 0x0, symName: '__ZN5alloc11collections5btree3map25BTreeMap$LT$K$C$V$C$A$GT$6insert17h582978d607274474E', symObjAddr: 0x14C34, symBinAddr: 0x14948, symSize: 0x490 }
  - { offset: 0xC8690, size: 0x8, addend: 0x0, symName: '__ZN5alloc11collections5btree3map25BTreeMap$LT$K$C$V$C$A$GT$7get_mut17hc4a096f01b5ef96aE', symObjAddr: 0x150C4, symBinAddr: 0x14DD8, symSize: 0x8C }
  - { offset: 0xC9194, size: 0x8, addend: 0x0, symName: __ZN14powersync_core4bson6parser6Parser5error17h3a98ad34e9ac399eE, symObjAddr: 0x1584C, symBinAddr: 0x3EC34, symSize: 0x14 }
  - { offset: 0xC930A, size: 0x8, addend: 0x0, symName: __ZN14powersync_core4bson6parser6Parser10read_int3217hd7f8ec30789c2a76E, symObjAddr: 0x15860, symBinAddr: 0x15560, symSize: 0x58 }
  - { offset: 0xC9469, size: 0x8, addend: 0x0, symName: __ZN14powersync_core4bson6parser6Parser15advance_checked17h01397b4bbeabe6f0E, symObjAddr: 0x158B8, symBinAddr: 0x155B8, symSize: 0x58 }
  - { offset: 0xC95BD, size: 0x8, addend: 0x0, symName: __ZN14powersync_core4bson6parser6Parser10read_int6417h3d621e6d09547250E, symObjAddr: 0x15910, symBinAddr: 0x15610, symSize: 0x28 }
  - { offset: 0xC967E, size: 0x8, addend: 0x0, symName: __ZN14powersync_core4bson6parser6Parser13advance_bytes17h6771ad55f49c3d00E, symObjAddr: 0x15938, symBinAddr: 0x15638, symSize: 0x50 }
  - { offset: 0xC972F, size: 0x8, addend: 0x0, symName: __ZN14powersync_core4bson6parser6Parser11read_double17h4e69af9bcfaeaf2cE, symObjAddr: 0x15988, symBinAddr: 0x15688, symSize: 0x3C }
  - { offset: 0xC97DE, size: 0x8, addend: 0x0, symName: __ZN14powersync_core4bson6parser6Parser9read_bool17h44cf2cc7ba0b4486E, symObjAddr: 0x159C4, symBinAddr: 0x156C4, symSize: 0x48 }
  - { offset: 0xC9860, size: 0x8, addend: 0x0, symName: __ZN14powersync_core4bson6parser6Parser12advance_byte17h35436c2d136e98aeE, symObjAddr: 0x15A0C, symBinAddr: 0x1570C, symSize: 0x50 }
  - { offset: 0xC98F0, size: 0x8, addend: 0x0, symName: __ZN14powersync_core4bson6parser6Parser14read_object_id17hba5c05eaf76b15dcE, symObjAddr: 0x15A5C, symBinAddr: 0x1575C, symSize: 0x8 }
  - { offset: 0xC9972, size: 0x8, addend: 0x0, symName: __ZN14powersync_core4bson6parser6Parser11read_string17hd603830a30a41be1E, symObjAddr: 0x15A64, symBinAddr: 0x15764, symSize: 0xA0 }
  - { offset: 0xC9B85, size: 0x8, addend: 0x0, symName: __ZN14powersync_core4bson6parser6Parser11read_length17h300b86b44d29030bE, symObjAddr: 0x15B04, symBinAddr: 0x15804, symSize: 0x5C }
  - { offset: 0xC9C18, size: 0x8, addend: 0x0, symName: __ZN14powersync_core4bson6parser6Parser11read_binary17h7bb3786b7e80a6c4E, symObjAddr: 0x15B60, symBinAddr: 0x15860, symSize: 0x7C }
  - { offset: 0xC9D6C, size: 0x8, addend: 0x0, symName: __ZN14powersync_core4bson6parser6Parser9subreader17h2299dc8a2df1f5bfE, symObjAddr: 0x15BDC, symBinAddr: 0x158DC, symSize: 0x38 }
  - { offset: 0xC9E56, size: 0x8, addend: 0x0, symName: __ZN14powersync_core4bson6parser6Parser13skip_document17haba247311d41304eE, symObjAddr: 0x15C14, symBinAddr: 0x15914, symSize: 0x74 }
  - { offset: 0xCAB4C, size: 0x8, addend: 0x0, symName: _OUTLINED_FUNCTION_44, symObjAddr: 0x3B3F4, symBinAddr: 0x39FF4, symSize: 0x18 }
  - { offset: 0xCAB63, size: 0x8, addend: 0x0, symName: _OUTLINED_FUNCTION_116, symObjAddr: 0x3B9C8, symBinAddr: 0x3A5C8, symSize: 0x1C }
  - { offset: 0xCAB7A, size: 0x8, addend: 0x0, symName: _OUTLINED_FUNCTION_264, symObjAddr: 0x3C378, symBinAddr: 0x3AF78, symSize: 0xC }
  - { offset: 0xCAB91, size: 0x8, addend: 0x0, symName: _OUTLINED_FUNCTION_290, symObjAddr: 0x3C500, symBinAddr: 0x3B100, symSize: 0x8 }
  - { offset: 0xCABA8, size: 0x8, addend: 0x0, symName: _OUTLINED_FUNCTION_326, symObjAddr: 0x3C6C0, symBinAddr: 0x3B2C0, symSize: 0x10 }
  - { offset: 0xCABBF, size: 0x8, addend: 0x0, symName: _OUTLINED_FUNCTION_335, symObjAddr: 0x3C740, symBinAddr: 0x3B340, symSize: 0x10 }
  - { offset: 0xCABD6, size: 0x8, addend: 0x0, symName: _OUTLINED_FUNCTION_375, symObjAddr: 0x3C970, symBinAddr: 0x3B570, symSize: 0x10 }
  - { offset: 0xCABED, size: 0x8, addend: 0x0, symName: _OUTLINED_FUNCTION_422, symObjAddr: 0x3CC1C, symBinAddr: 0x3B81C, symSize: 0x8 }
  - { offset: 0xCAC04, size: 0x8, addend: 0x0, symName: _OUTLINED_FUNCTION_446, symObjAddr: 0x3CD1C, symBinAddr: 0x3B91C, symSize: 0xC }
  - { offset: 0xCAC1B, size: 0x8, addend: 0x0, symName: _OUTLINED_FUNCTION_463, symObjAddr: 0x3CE20, symBinAddr: 0x3BA20, symSize: 0x8 }
  - { offset: 0xCAC32, size: 0x8, addend: 0x0, symName: _OUTLINED_FUNCTION_487, symObjAddr: 0x3CFBC, symBinAddr: 0x3BBBC, symSize: 0xC }
  - { offset: 0xCAC49, size: 0x8, addend: 0x0, symName: _OUTLINED_FUNCTION_504, symObjAddr: 0x3D0A4, symBinAddr: 0x3BCA4, symSize: 0x18 }
  - { offset: 0xCAC60, size: 0x8, addend: 0x0, symName: _OUTLINED_FUNCTION_505, symObjAddr: 0x3D0BC, symBinAddr: 0x3BCBC, symSize: 0xC }
  - { offset: 0xCAC77, size: 0x8, addend: 0x0, symName: _OUTLINED_FUNCTION_506, symObjAddr: 0x3D0C8, symBinAddr: 0x3BCC8, symSize: 0x10 }
  - { offset: 0xCAC8E, size: 0x8, addend: 0x0, symName: _OUTLINED_FUNCTION_518, symObjAddr: 0x3D188, symBinAddr: 0x3BD88, symSize: 0x8 }
  - { offset: 0xCACA5, size: 0x8, addend: 0x0, symName: _OUTLINED_FUNCTION_522, symObjAddr: 0x3D1C8, symBinAddr: 0x3BDC8, symSize: 0xC }
  - { offset: 0xCACBC, size: 0x8, addend: 0x0, symName: _OUTLINED_FUNCTION_524, symObjAddr: 0x3D1E8, symBinAddr: 0x3BDE8, symSize: 0x14 }
  - { offset: 0xCACD3, size: 0x8, addend: 0x0, symName: _OUTLINED_FUNCTION_571, symObjAddr: 0x3D454, symBinAddr: 0x3C054, symSize: 0x14 }
  - { offset: 0xCACEA, size: 0x8, addend: 0x0, symName: _OUTLINED_FUNCTION_621, symObjAddr: 0x3D71C, symBinAddr: 0x3C31C, symSize: 0x24 }
  - { offset: 0xCAD01, size: 0x8, addend: 0x0, symName: _OUTLINED_FUNCTION_724, symObjAddr: 0x3DD44, symBinAddr: 0x3C944, symSize: 0x10 }
  - { offset: 0xCAD18, size: 0x8, addend: 0x0, symName: _OUTLINED_FUNCTION_741, symObjAddr: 0x3DDF8, symBinAddr: 0x3C9F8, symSize: 0x1C }
  - { offset: 0xCAD2F, size: 0x8, addend: 0x0, symName: _OUTLINED_FUNCTION_746, symObjAddr: 0x3DE48, symBinAddr: 0x3CA48, symSize: 0x10 }
  - { offset: 0xCAD46, size: 0x8, addend: 0x0, symName: _OUTLINED_FUNCTION_767, symObjAddr: 0x3DF88, symBinAddr: 0x3CB88, symSize: 0x8 }
  - { offset: 0xCAD5D, size: 0x8, addend: 0x0, symName: _OUTLINED_FUNCTION_778, symObjAddr: 0x3E004, symBinAddr: 0x3CC04, symSize: 0x8 }
  - { offset: 0xCAD74, size: 0x8, addend: 0x0, symName: _OUTLINED_FUNCTION_873, symObjAddr: 0x3E564, symBinAddr: 0x3D164, symSize: 0x18 }
  - { offset: 0xCAD8B, size: 0x8, addend: 0x0, symName: _OUTLINED_FUNCTION_879, symObjAddr: 0x3E5C4, symBinAddr: 0x3D1C4, symSize: 0xC }
  - { offset: 0xCADA2, size: 0x8, addend: 0x0, symName: _OUTLINED_FUNCTION_883, symObjAddr: 0x3E600, symBinAddr: 0x3D200, symSize: 0x18 }
  - { offset: 0xCADB9, size: 0x8, addend: 0x0, symName: _OUTLINED_FUNCTION_905, symObjAddr: 0x3E75C, symBinAddr: 0x3D35C, symSize: 0xC }
  - { offset: 0xCADD0, size: 0x8, addend: 0x0, symName: _OUTLINED_FUNCTION_947, symObjAddr: 0x3E954, symBinAddr: 0x3D554, symSize: 0x18 }
  - { offset: 0xCADE7, size: 0x8, addend: 0x0, symName: _OUTLINED_FUNCTION_951, symObjAddr: 0x3E990, symBinAddr: 0x3D590, symSize: 0x18 }
  - { offset: 0xCADFE, size: 0x8, addend: 0x0, symName: _OUTLINED_FUNCTION_957, symObjAddr: 0x3E9D8, symBinAddr: 0x3D5D8, symSize: 0xC }
  - { offset: 0xCAE15, size: 0x8, addend: 0x0, symName: _OUTLINED_FUNCTION_976, symObjAddr: 0x3EAA4, symBinAddr: 0x3D6A4, symSize: 0xC }
  - { offset: 0xCAE2C, size: 0x8, addend: 0x0, symName: _OUTLINED_FUNCTION_1070, symObjAddr: 0x3EE34, symBinAddr: 0x3DA34, symSize: 0x8 }
  - { offset: 0xCAE43, size: 0x8, addend: 0x0, symName: _OUTLINED_FUNCTION_1113, symObjAddr: 0x3F010, symBinAddr: 0x3DC10, symSize: 0xC }
  - { offset: 0xCAE5A, size: 0x8, addend: 0x0, symName: _OUTLINED_FUNCTION_1114, symObjAddr: 0x3F01C, symBinAddr: 0x3DC1C, symSize: 0xC }
  - { offset: 0xCAE71, size: 0x8, addend: 0x0, symName: _OUTLINED_FUNCTION_1147, symObjAddr: 0x3F218, symBinAddr: 0x3DE18, symSize: 0xC }
  - { offset: 0xCAE88, size: 0x8, addend: 0x0, symName: _OUTLINED_FUNCTION_1206, symObjAddr: 0x3F57C, symBinAddr: 0x3E17C, symSize: 0x1C }
  - { offset: 0x13A5A, size: 0x8, addend: 0x0, symName: __ZN4core3num7dec2flt5float8RawFloat14integer_decode17hbdb71b696659fe6eE, symObjAddr: 0x31E0, symBinAddr: 0x37B0, symSize: 0x3C }
  - { offset: 0x13AED, size: 0x8, addend: 0x0, symName: __ZN4core3num7dec2flt5float8RawFloat14integer_decode17hbdb71b696659fe6eE, symObjAddr: 0x31E0, symBinAddr: 0x37B0, symSize: 0x3C }
  - { offset: 0x13B1D, size: 0x8, addend: 0x0, symName: __ZN4core3num7dec2flt5float8RawFloat14integer_decode17hbdb71b696659fe6eE, symObjAddr: 0x31E0, symBinAddr: 0x37B0, symSize: 0x3C }
  - { offset: 0x13B3A, size: 0x8, addend: 0x0, symName: __ZN4core3num7dec2flt5float8RawFloat14integer_decode17hbdb71b696659fe6eE, symObjAddr: 0x31E0, symBinAddr: 0x37B0, symSize: 0x3C }
  - { offset: 0x13C0E, size: 0x8, addend: 0x0, symName: __ZN4core3num14overflow_panic3add17h1febeb60d1e2f954E, symObjAddr: 0x321C, symBinAddr: 0x3E378, symSize: 0xC }
  - { offset: 0x13E79, size: 0x8, addend: 0x0, symName: __ZN4core3num6bignum8Big32x4010mul_digits9mul_inner17h485a3b59fedb482bE, symObjAddr: 0x35EC, symBinAddr: 0x3BB0, symSize: 0xB4 }
  - { offset: 0x141DE, size: 0x8, addend: 0x0, symName: '__ZN62_$LT$core..num..bignum..Big32x40$u20$as$u20$core..cmp..Ord$GT$3cmp17h551bb189b8235208E', symObjAddr: 0x36F8, symBinAddr: 0x3CBC, symSize: 0x7C }
  - { offset: 0x1501B, size: 0x8, addend: 0x0, symName: '__ZN4core5array85_$LT$impl$u20$core..ops..index..Index$LT$I$GT$$u20$for$u20$$u5b$T$u3b$$u20$N$u5d$$GT$5index17hdb3c8c3496945f0fE', symObjAddr: 0x3288, symBinAddr: 0x384C, symSize: 0x1C }
  - { offset: 0x150E0, size: 0x8, addend: 0x0, symName: '__ZN4core5array88_$LT$impl$u20$core..ops..index..IndexMut$LT$I$GT$$u20$for$u20$$u5b$T$u3b$$u20$N$u5d$$GT$9index_mut17h440be9e34fecc988E', symObjAddr: 0x332C, symBinAddr: 0x38F0, symSize: 0x1C }
  - { offset: 0x15A31, size: 0x8, addend: 0x0, symName: __ZN4core3num6bignum8Big32x408from_u6417hab51c71bb2fcadbbE, symObjAddr: 0x3228, symBinAddr: 0x37EC, symSize: 0x58 }
  - { offset: 0x15AA4, size: 0x8, addend: 0x0, symName: __ZN4core3num6bignum8Big32x406digits17h67da5bfaea684ec7E, symObjAddr: 0x3280, symBinAddr: 0x3844, symSize: 0x8 }
  - { offset: 0x15B1B, size: 0x8, addend: 0x0, symName: __ZN4core3num6bignum8Big32x403add17h3bd57d0b0464a418E, symObjAddr: 0x32A4, symBinAddr: 0x3868, symSize: 0x88 }
  - { offset: 0x15D00, size: 0x8, addend: 0x0, symName: __ZN4core3num6bignum8Big32x403sub17hec6cde08c35c4b42E, symObjAddr: 0x3348, symBinAddr: 0x390C, symSize: 0x78 }
  - { offset: 0x15EF2, size: 0x8, addend: 0x0, symName: __ZN4core3num6bignum8Big32x409mul_small17h4adf6506a420b576E, symObjAddr: 0x33C0, symBinAddr: 0x3984, symSize: 0x78 }
  - { offset: 0x1601A, size: 0x8, addend: 0x0, symName: __ZN4core3num6bignum8Big32x408mul_pow217h6f5861bbacff47a9E, symObjAddr: 0x3438, symBinAddr: 0x39FC, symSize: 0x138 }
  - { offset: 0x16223, size: 0x8, addend: 0x0, symName: __ZN4core3num6bignum8Big32x4010mul_digits17h90eafcfcbd1fd1a4E, symObjAddr: 0x3570, symBinAddr: 0x3B34, symSize: 0x7C }
  - { offset: 0x1632D, size: 0x8, addend: 0x0, symName: __ZN4core3num6bignum8Big32x4013div_rem_small17habb2345b5becc83dE, symObjAddr: 0x36A0, symBinAddr: 0x3C64, symSize: 0x58 }
  - { offset: 0x164BC, size: 0x8, addend: 0x0, symName: _OUTLINED_FUNCTION_186, symObjAddr: 0x3BF0C, symBinAddr: 0x3AB0C, symSize: 0xC }
  - { offset: 0x164D3, size: 0x8, addend: 0x0, symName: _OUTLINED_FUNCTION_303, symObjAddr: 0x3C58C, symBinAddr: 0x3B18C, symSize: 0x10 }
  - { offset: 0x164EA, size: 0x8, addend: 0x0, symName: _OUTLINED_FUNCTION_372, symObjAddr: 0x3C93C, symBinAddr: 0x3B53C, symSize: 0x18 }
  - { offset: 0x16501, size: 0x8, addend: 0x0, symName: _OUTLINED_FUNCTION_431, symObjAddr: 0x3CC68, symBinAddr: 0x3B868, symSize: 0xC }
  - { offset: 0x16518, size: 0x8, addend: 0x0, symName: _OUTLINED_FUNCTION_454, symObjAddr: 0x3CD88, symBinAddr: 0x3B988, symSize: 0x8 }
  - { offset: 0x1652F, size: 0x8, addend: 0x0, symName: _OUTLINED_FUNCTION_667, symObjAddr: 0x3D9C4, symBinAddr: 0x3C5C4, symSize: 0x14 }
  - { offset: 0x16546, size: 0x8, addend: 0x0, symName: _OUTLINED_FUNCTION_668, symObjAddr: 0x3D9D8, symBinAddr: 0x3C5D8, symSize: 0x8 }
  - { offset: 0x1655D, size: 0x8, addend: 0x0, symName: _OUTLINED_FUNCTION_715, symObjAddr: 0x3DCD8, symBinAddr: 0x3C8D8, symSize: 0x10 }
  - { offset: 0x16574, size: 0x8, addend: 0x0, symName: _OUTLINED_FUNCTION_1080, symObjAddr: 0x3EE8C, symBinAddr: 0x3DA8C, symSize: 0xC }
  - { offset: 0x8A55, size: 0x8, addend: 0x0, symName: __ZN4core3fmt5write17hfa822d18e2bc53f3E, symObjAddr: 0x9A8, symBinAddr: 0xFCC, symSize: 0x190 }
  - { offset: 0x8FDD, size: 0x8, addend: 0x0, symName: __ZN4core3fmt9Formatter12pad_integral12write_prefix17h0a47d797ea7acac9E, symObjAddr: 0xE84, symBinAddr: 0x14A8, symSize: 0x68 }
  - { offset: 0x909D, size: 0x8, addend: 0x0, symName: '__ZN43_$LT$bool$u20$as$u20$core..fmt..Display$GT$3fmt17hbda6257fc75db779E', symObjAddr: 0x146C, symBinAddr: 0x1A90, symSize: 0x2C }
  - { offset: 0x90E1, size: 0x8, addend: 0x0, symName: '__ZN43_$LT$char$u20$as$u20$core..fmt..Display$GT$3fmt17h98933d7e51af15d0E', symObjAddr: 0x16DC, symBinAddr: 0x1D00, symSize: 0xE0 }
  - { offset: 0x91E9, size: 0x8, addend: 0x0, symName: '__ZN44_$LT$$RF$T$u20$as$u20$core..fmt..Display$GT$3fmt17h93435b4fb93f7bffE', symObjAddr: 0x17BC, symBinAddr: 0x1DE0, symSize: 0xC }
  - { offset: 0x9882, size: 0x8, addend: 0x0, symName: '__ZN81_$LT$core..str..iter..Chars$u20$as$u20$core..iter..traits..iterator..Iterator$GT$5count17hcc704f32d43170c7E', symObjAddr: 0xD2C, symBinAddr: 0x1350, symSize: 0x158 }
  - { offset: 0x98B2, size: 0x8, addend: 0x0, symName: '__ZN81_$LT$core..str..iter..Chars$u20$as$u20$core..iter..traits..iterator..Iterator$GT$5count17hcc704f32d43170c7E', symObjAddr: 0xD2C, symBinAddr: 0x1350, symSize: 0x158 }
  - { offset: 0x98C6, size: 0x8, addend: 0x0, symName: '__ZN81_$LT$core..str..iter..Chars$u20$as$u20$core..iter..traits..iterator..Iterator$GT$5count17hcc704f32d43170c7E', symObjAddr: 0xD2C, symBinAddr: 0x1350, symSize: 0x158 }
  - { offset: 0x98DA, size: 0x8, addend: 0x0, symName: '__ZN81_$LT$core..str..iter..Chars$u20$as$u20$core..iter..traits..iterator..Iterator$GT$5count17hcc704f32d43170c7E', symObjAddr: 0xD2C, symBinAddr: 0x1350, symSize: 0x158 }
  - { offset: 0x98EA, size: 0x8, addend: 0x0, symName: '__ZN81_$LT$core..str..iter..Chars$u20$as$u20$core..iter..traits..iterator..Iterator$GT$5count17hcc704f32d43170c7E', symObjAddr: 0xD2C, symBinAddr: 0x1350, symSize: 0x158 }
  - { offset: 0x9902, size: 0x8, addend: 0x0, symName: '__ZN81_$LT$core..str..iter..Chars$u20$as$u20$core..iter..traits..iterator..Iterator$GT$5count17hcc704f32d43170c7E', symObjAddr: 0xD2C, symBinAddr: 0x1350, symSize: 0x158 }
  - { offset: 0x9924, size: 0x8, addend: 0x0, symName: '__ZN81_$LT$core..str..iter..Chars$u20$as$u20$core..iter..traits..iterator..Iterator$GT$5count17hcc704f32d43170c7E', symObjAddr: 0xD2C, symBinAddr: 0x1350, symSize: 0x158 }
  - { offset: 0x9947, size: 0x8, addend: 0x0, symName: '__ZN81_$LT$core..str..iter..Chars$u20$as$u20$core..iter..traits..iterator..Iterator$GT$5count17hcc704f32d43170c7E', symObjAddr: 0xD2C, symBinAddr: 0x1350, symSize: 0x158 }
  - { offset: 0x9966, size: 0x8, addend: 0x0, symName: '__ZN81_$LT$core..str..iter..Chars$u20$as$u20$core..iter..traits..iterator..Iterator$GT$5count17hcc704f32d43170c7E', symObjAddr: 0xD2C, symBinAddr: 0x1350, symSize: 0x158 }
  - { offset: 0xA0E7, size: 0x8, addend: 0x0, symName: '__ZN81_$LT$core..str..iter..Chars$u20$as$u20$core..iter..traits..iterator..Iterator$GT$4next17h6723c9f6d9635bf8E.151', symObjAddr: 0x10F0, symBinAddr: 0x1714, symSize: 0x94 }
  - { offset: 0xA467, size: 0x8, addend: 0x0, symName: '__ZN4core3str6traits66_$LT$impl$u20$core..ops..index..Index$LT$I$GT$$u20$for$u20$str$GT$5index17h619aa03d84b2c886E', symObjAddr: 0x1498, symBinAddr: 0x1ABC, symSize: 0x54 }
  - { offset: 0xA4A7, size: 0x8, addend: 0x0, symName: '__ZN4core3str6traits66_$LT$impl$u20$core..ops..index..Index$LT$I$GT$$u20$for$u20$str$GT$5index17h619aa03d84b2c886E', symObjAddr: 0x1498, symBinAddr: 0x1ABC, symSize: 0x54 }
  - { offset: 0xA4C9, size: 0x8, addend: 0x0, symName: '__ZN4core3str6traits66_$LT$impl$u20$core..ops..index..Index$LT$I$GT$$u20$for$u20$str$GT$5index17h619aa03d84b2c886E', symObjAddr: 0x1498, symBinAddr: 0x1ABC, symSize: 0x54 }
  - { offset: 0xAEE1, size: 0x8, addend: 0x0, symName: '__ZN4core4char7methods22_$LT$impl$u20$char$GT$16escape_debug_ext17h17040a79b0de8e40E', symObjAddr: 0x14EC, symBinAddr: 0x1B10, symSize: 0x1F0 }
  - { offset: 0xC199, size: 0x8, addend: 0x0, symName: __ZN4core3fmt11PostPadding5write17h1c4a37e94b1515f3E, symObjAddr: 0xB38, symBinAddr: 0x115C, symSize: 0x58 }
  - { offset: 0xC300, size: 0x8, addend: 0x0, symName: __ZN4core3fmt9Formatter12pad_integral17hd7b337e6230b7527E, symObjAddr: 0xB90, symBinAddr: 0x11B4, symSize: 0x19C }
  - { offset: 0xC576, size: 0x8, addend: 0x0, symName: __ZN4core3fmt9Formatter7padding17h242292518144f3fcE, symObjAddr: 0xEEC, symBinAddr: 0x1510, symSize: 0xA8 }
  - { offset: 0xC75E, size: 0x8, addend: 0x0, symName: __ZN4core3fmt9Formatter3pad17h0eb1cb6ac300b7b4E, symObjAddr: 0xF94, symBinAddr: 0x15B8, symSize: 0x15C }
  - { offset: 0xCB7A, size: 0x8, addend: 0x0, symName: __ZN4core3fmt9Formatter19pad_formatted_parts17h5f3d5ee811449d3fE, symObjAddr: 0x1184, symBinAddr: 0x17A8, symSize: 0x194 }
  - { offset: 0xCE2E, size: 0x8, addend: 0x0, symName: __ZN4core3fmt9Formatter21write_formatted_parts17hf8a2f3730128ba5bE, symObjAddr: 0x1318, symBinAddr: 0x193C, symSize: 0x154 }
  - { offset: 0xD158, size: 0x8, addend: 0x0, symName: _OUTLINED_FUNCTION_167, symObjAddr: 0x3BDA8, symBinAddr: 0x3A9A8, symSize: 0x8 }
  - { offset: 0xD16F, size: 0x8, addend: 0x0, symName: _OUTLINED_FUNCTION_189, symObjAddr: 0x3BF2C, symBinAddr: 0x3AB2C, symSize: 0xC }
  - { offset: 0xD186, size: 0x8, addend: 0x0, symName: _OUTLINED_FUNCTION_221, symObjAddr: 0x3C0E8, symBinAddr: 0x3ACE8, symSize: 0xC }
  - { offset: 0xD19D, size: 0x8, addend: 0x0, symName: _OUTLINED_FUNCTION_323, symObjAddr: 0x3C69C, symBinAddr: 0x3B29C, symSize: 0xC }
  - { offset: 0xD1B4, size: 0x8, addend: 0x0, symName: _OUTLINED_FUNCTION_328, symObjAddr: 0x3C6D8, symBinAddr: 0x3B2D8, symSize: 0x10 }
  - { offset: 0xD1CB, size: 0x8, addend: 0x0, symName: _OUTLINED_FUNCTION_341, symObjAddr: 0x3C784, symBinAddr: 0x3B384, symSize: 0x10 }
  - { offset: 0xD1E2, size: 0x8, addend: 0x0, symName: _OUTLINED_FUNCTION_468, symObjAddr: 0x3CE5C, symBinAddr: 0x3BA5C, symSize: 0x1C }
  - { offset: 0xD1F9, size: 0x8, addend: 0x0, symName: _OUTLINED_FUNCTION_469, symObjAddr: 0x3CE78, symBinAddr: 0x3BA78, symSize: 0x1C }
  - { offset: 0xD210, size: 0x8, addend: 0x0, symName: _OUTLINED_FUNCTION_486, symObjAddr: 0x3CFA0, symBinAddr: 0x3BBA0, symSize: 0x1C }
  - { offset: 0xD227, size: 0x8, addend: 0x0, symName: _OUTLINED_FUNCTION_491, symObjAddr: 0x3D00C, symBinAddr: 0x3BC0C, symSize: 0xC }
  - { offset: 0xD23E, size: 0x8, addend: 0x0, symName: _OUTLINED_FUNCTION_543, symObjAddr: 0x3D304, symBinAddr: 0x3BF04, symSize: 0x8 }
  - { offset: 0xD255, size: 0x8, addend: 0x0, symName: _OUTLINED_FUNCTION_567, symObjAddr: 0x3D42C, symBinAddr: 0x3C02C, symSize: 0x8 }
  - { offset: 0xD26C, size: 0x8, addend: 0x0, symName: _OUTLINED_FUNCTION_600, symObjAddr: 0x3D5E4, symBinAddr: 0x3C1E4, symSize: 0xC }
  - { offset: 0xD283, size: 0x8, addend: 0x0, symName: _OUTLINED_FUNCTION_643, symObjAddr: 0x3D89C, symBinAddr: 0x3C49C, symSize: 0x1C }
  - { offset: 0xD29A, size: 0x8, addend: 0x0, symName: _OUTLINED_FUNCTION_661, symObjAddr: 0x3D988, symBinAddr: 0x3C588, symSize: 0x14 }
  - { offset: 0xD2B1, size: 0x8, addend: 0x0, symName: _OUTLINED_FUNCTION_686, symObjAddr: 0x3DB08, symBinAddr: 0x3C708, symSize: 0xC }
  - { offset: 0xD2C8, size: 0x8, addend: 0x0, symName: _OUTLINED_FUNCTION_688, symObjAddr: 0x3DB20, symBinAddr: 0x3C720, symSize: 0xC }
  - { offset: 0xD2DF, size: 0x8, addend: 0x0, symName: _OUTLINED_FUNCTION_788, symObjAddr: 0x3E07C, symBinAddr: 0x3CC7C, symSize: 0xC }
  - { offset: 0xD2F6, size: 0x8, addend: 0x0, symName: _OUTLINED_FUNCTION_804, symObjAddr: 0x3E124, symBinAddr: 0x3CD24, symSize: 0x10 }
  - { offset: 0xD30D, size: 0x8, addend: 0x0, symName: _OUTLINED_FUNCTION_885, symObjAddr: 0x3E624, symBinAddr: 0x3D224, symSize: 0xC }
  - { offset: 0xD324, size: 0x8, addend: 0x0, symName: _OUTLINED_FUNCTION_910, symObjAddr: 0x3E7A4, symBinAddr: 0x3D3A4, symSize: 0xC }
  - { offset: 0xD33B, size: 0x8, addend: 0x0, symName: _OUTLINED_FUNCTION_994, symObjAddr: 0x3EB5C, symBinAddr: 0x3D75C, symSize: 0x8 }
  - { offset: 0xD352, size: 0x8, addend: 0x0, symName: _OUTLINED_FUNCTION_998, symObjAddr: 0x3EB7C, symBinAddr: 0x3D77C, symSize: 0xC }
  - { offset: 0xD369, size: 0x8, addend: 0x0, symName: _OUTLINED_FUNCTION_1087, symObjAddr: 0x3EECC, symBinAddr: 0x3DACC, symSize: 0x8 }
  - { offset: 0x4E47, size: 0x8, addend: 0x0, symName: __ZN5alloc7raw_vec12handle_error17ha37a43e84d21f715E, symObjAddr: 0x570, symBinAddr: 0x3E288, symSize: 0x14 }
  - { offset: 0x4EE8, size: 0x8, addend: 0x0, symName: __ZN5alloc7raw_vec11finish_grow17hf261adc957ba5a7cE, symObjAddr: 0x584, symBinAddr: 0x3E29C, symSize: 0x68 }
  - { offset: 0x5078, size: 0x8, addend: 0x0, symName: '__ZN77_$LT$alloc..raw_vec..RawVec$LT$T$C$A$GT$$u20$as$u20$core..ops..drop..Drop$GT$4drop17hed1ed9b8b403741cE', symObjAddr: 0x61C, symBinAddr: 0xC60, symSize: 0xC }
  - { offset: 0x50BC, size: 0x8, addend: 0x0, symName: '__ZN5alloc7raw_vec20RawVecInner$LT$A$GT$7reserve21do_reserve_and_handle17h2576e1523356b7ccE', symObjAddr: 0x6FC, symBinAddr: 0x3E304, symSize: 0x20 }
  - { offset: 0x5562, size: 0x8, addend: 0x0, symName: '__ZN5alloc7raw_vec19RawVec$LT$T$C$A$GT$8grow_one17h2252db7627699da6E', symObjAddr: 0x464, symBinAddr: 0xB24, symSize: 0x30 }
  - { offset: 0x57AF, size: 0x8, addend: 0x0, symName: '__ZN5alloc7raw_vec20RawVecInner$LT$A$GT$14grow_amortized17haa27f9ad5ae239f9E', symObjAddr: 0x494, symBinAddr: 0xB54, symSize: 0xDC }
  - { offset: 0x5C73, size: 0x8, addend: 0x0, symName: __ZN5alloc5alloc6Global10alloc_impl17h41bf5776db611206E, symObjAddr: 0x5EC, symBinAddr: 0xC30, symSize: 0x30 }
  - { offset: 0x5D05, size: 0x8, addend: 0x0, symName: '__ZN5alloc7raw_vec20RawVecInner$LT$A$GT$10deallocate17h9e816c368a7159a0E', symObjAddr: 0x628, symBinAddr: 0xC6C, symSize: 0x48 }
  - { offset: 0x5E33, size: 0x8, addend: 0x0, symName: '__ZN5alloc7raw_vec20RawVecInner$LT$A$GT$15try_allocate_in17hff21df1625c5eb15E', symObjAddr: 0x670, symBinAddr: 0xCB4, symSize: 0x8C }
  - { offset: 0x61A9, size: 0x8, addend: 0x0, symName: _OUTLINED_FUNCTION_223, symObjAddr: 0x3C100, symBinAddr: 0x3AD00, symSize: 0xC }
  - { offset: 0x61C0, size: 0x8, addend: 0x0, symName: _OUTLINED_FUNCTION_281, symObjAddr: 0x3C48C, symBinAddr: 0x3B08C, symSize: 0xC }
  - { offset: 0x61D7, size: 0x8, addend: 0x0, symName: _OUTLINED_FUNCTION_340, symObjAddr: 0x3C778, symBinAddr: 0x3B378, symSize: 0xC }
  - { offset: 0x61EE, size: 0x8, addend: 0x0, symName: _OUTLINED_FUNCTION_663, symObjAddr: 0x3D9A4, symBinAddr: 0x3C5A4, symSize: 0x8 }
  - { offset: 0x6205, size: 0x8, addend: 0x0, symName: _OUTLINED_FUNCTION_922, symObjAddr: 0x3E834, symBinAddr: 0x3D434, symSize: 0xC }
  - { offset: 0x621C, size: 0x8, addend: 0x0, symName: _OUTLINED_FUNCTION_929, symObjAddr: 0x3E894, symBinAddr: 0x3D494, symSize: 0xC }
  - { offset: 0x10C94, size: 0x8, addend: 0x0, symName: '__ZN4core6escape24EscapeIterInner$LT$_$GT$7unicode17h3d4e327fa360c5ccE', symObjAddr: 0x2280, symBinAddr: 0x28A4, symSize: 0xBC }
  - { offset: 0x10ED4, size: 0x8, addend: 0x0, symName: '__ZN4core5slice29_$LT$impl$u20$$u5b$T$u5d$$GT$15copy_from_slice17len_mismatch_fail17h90850655368338caE', symObjAddr: 0x2370, symBinAddr: 0x3E324, symSize: 0xC }
  - { offset: 0x116CF, size: 0x8, addend: 0x0, symName: __ZN4core4iter6traits8iterator8Iterator3sum17h58693dc364207b6eE, symObjAddr: 0x233C, symBinAddr: 0x2960, symSize: 0x34 }
  - { offset: 0x11701, size: 0x8, addend: 0x0, symName: __ZN4core4iter6traits8iterator8Iterator3sum17h58693dc364207b6eE, symObjAddr: 0x233C, symBinAddr: 0x2960, symSize: 0x34 }
  - { offset: 0x1171F, size: 0x8, addend: 0x0, symName: __ZN4core4iter6traits8iterator8Iterator3sum17h58693dc364207b6eE, symObjAddr: 0x233C, symBinAddr: 0x2960, symSize: 0x34 }
  - { offset: 0x11742, size: 0x8, addend: 0x0, symName: __ZN4core4iter6traits8iterator8Iterator3sum17h58693dc364207b6eE, symObjAddr: 0x233C, symBinAddr: 0x2960, symSize: 0x34 }
  - { offset: 0x11A58, size: 0x8, addend: 0x0, symName: '__ZN4core6escape24EscapeIterInner$LT$_$GT$7unicode17h3d4e327fa360c5ccE', symObjAddr: 0x2280, symBinAddr: 0x28A4, symSize: 0xBC }
  - { offset: 0x18812D, size: 0x8, addend: 0x0, symName: '__ZN145_$LT$$LT$powersync_core..sync..checksum..Checksum$u20$as$u20$serde..de..Deserialize$GT$..deserialize..MyVisitor$u20$as$u20$serde..de..Visitor$GT$9visit_i6417h14f85c42ce2be181E', symObjAddr: 0x335E8, symBinAddr: 0x3279C, symSize: 0x58 }
  - { offset: 0x1881C6, size: 0x8, addend: 0x0, symName: '__ZN145_$LT$$LT$powersync_core..sync..checksum..Checksum$u20$as$u20$serde..de..Deserialize$GT$..deserialize..MyVisitor$u20$as$u20$serde..de..Visitor$GT$9visit_i6417h667e38e6ad82c8e4E', symObjAddr: 0x33640, symBinAddr: 0x327F4, symSize: 0x58 }
  - { offset: 0x1882AD, size: 0x8, addend: 0x0, symName: '__ZN83_$LT$powersync_core..sync..checksum..Checksum$u20$as$u20$serde..de..Deserialize$GT$11deserialize17h59e31a1b4e4682d8E', symObjAddr: 0x332E8, symBinAddr: 0x3249C, symSize: 0x20C }
  - { offset: 0x1885E7, size: 0x8, addend: 0x0, symName: '__ZN83_$LT$powersync_core..sync..checksum..Checksum$u20$as$u20$serde..de..Deserialize$GT$11deserialize17hd9c62df24bc2cb27E', symObjAddr: 0x334F4, symBinAddr: 0x326A8, symSize: 0xF4 }
  - { offset: 0x1886ED, size: 0x8, addend: 0x0, symName: '__ZN79_$LT$powersync_core..sync..checksum..Checksum$u20$as$u20$core..fmt..Display$GT$3fmt17h985237a60750e5b1E', symObjAddr: 0x3328C, symBinAddr: 0x32440, symSize: 0x5C }
  - { offset: 0x188BE8, size: 0x8, addend: 0x0, symName: '__ZN14powersync_core4sync13subscriptions1_99_$LT$impl$u20$serde..de..Deserialize$u20$for$u20$powersync_core..sync..subscriptions..StreamKey$GT$11deserialize17h3b3b21a04b1a4866E', symObjAddr: 0x344F0, symBinAddr: 0x336A4, symSize: 0x3B4 }
  - { offset: 0x189E21, size: 0x8, addend: 0x0, symName: __ZN14powersync_core8fix_data39powersync_remove_duplicate_key_encoding17hbd9bb916e3b22fd4E, symObjAddr: 0x32F50, symBinAddr: 0x32104, symSize: 0x264 }
  - { offset: 0x18AC2D, size: 0x8, addend: 0x0, symName: '__ZN95_$LT$$BP$mut$u20$sqlite3_capi..bindings..sqlite3$u20$as$u20$sqlite_nostd..nostd..Connection$GT$9exec_safe17hb2135129173c6759E.2722', symObjAddr: 0x34234, symBinAddr: 0x333E8, symSize: 0x54 }
  - { offset: 0x18B504, size: 0x8, addend: 0x0, symName: '__ZN4core3ptr67drop_in_place$LT$powersync_core..sync..subscriptions..StreamKey$GT$17hdec8817c3f47d0caE.2717', symObjAddr: 0x336C0, symBinAddr: 0x32874, symSize: 0x30 }
  - { offset: 0x18B69A, size: 0x8, addend: 0x0, symName: '__ZN4core3ptr94drop_in_place$LT$core..option..Option$LT$powersync_core..sync_local..ParsedSchemaTable$GT$$GT$17h4690c7c93c1bd268E', symObjAddr: 0x341EC, symBinAddr: 0x333A0, symSize: 0x48 }
  - { offset: 0x18B75C, size: 0x8, addend: 0x0, symName: '__ZN4core3ptr114drop_in_place$LT$core..option..Option$LT$powersync_core..sync_local..SyncOperation..apply..CachedStatement$GT$$GT$17hf5e65749931d305eE', symObjAddr: 0x34288, symBinAddr: 0x3343C, symSize: 0x38 }
  - { offset: 0x18B847, size: 0x8, addend: 0x0, symName: '__ZN4core3ptr45drop_in_place$LT$serde_json..value..Value$GT$17h0a42cf7db0282f37E.2724', symObjAddr: 0x34408, symBinAddr: 0x335BC, symSize: 0x58 }
  - { offset: 0x18B918, size: 0x8, addend: 0x0, symName: '__ZN4core3ptr83drop_in_place$LT$powersync_core..sync..subscriptions..SubscriptionChangeRequest$GT$17hafcb1e971e88de97E', symObjAddr: 0x344D4, symBinAddr: 0x33688, symSize: 0x1C }
  - { offset: 0x18DCD2, size: 0x8, addend: 0x0, symName: '__ZN4core3str6traits66_$LT$impl$u20$core..ops..index..Index$LT$I$GT$$u20$for$u20$str$GT$5index17h2e6139c0e4c0935dE', symObjAddr: 0x32E54, symBinAddr: 0x32034, symSize: 0x54 }
  - { offset: 0x18DD12, size: 0x8, addend: 0x0, symName: '__ZN4core3str6traits66_$LT$impl$u20$core..ops..index..Index$LT$I$GT$$u20$for$u20$str$GT$5index17h2e6139c0e4c0935dE', symObjAddr: 0x32E54, symBinAddr: 0x32034, symSize: 0x54 }
  - { offset: 0x18DD34, size: 0x8, addend: 0x0, symName: '__ZN4core3str6traits66_$LT$impl$u20$core..ops..index..Index$LT$I$GT$$u20$for$u20$str$GT$5index17h2e6139c0e4c0935dE', symObjAddr: 0x32E54, symBinAddr: 0x32034, symSize: 0x54 }
  - { offset: 0x18DDC5, size: 0x8, addend: 0x0, symName: '__ZN4core3str6traits66_$LT$impl$u20$core..ops..index..Index$LT$I$GT$$u20$for$u20$str$GT$5index17h02f134fb97b01e70E', symObjAddr: 0x32ED4, symBinAddr: 0x32088, symSize: 0x34 }
  - { offset: 0x18DFD0, size: 0x8, addend: 0x0, symName: '__ZN4core3str6traits112_$LT$impl$u20$core..slice..index..SliceIndex$LT$str$GT$$u20$for$u20$core..ops..range..RangeFrom$LT$usize$GT$$GT$3get17h3fb4e9d0de96ac88E', symObjAddr: 0x33258, symBinAddr: 0x3240C, symSize: 0x34 }
  - { offset: 0x18E012, size: 0x8, addend: 0x0, symName: '__ZN4core3str6traits112_$LT$impl$u20$core..slice..index..SliceIndex$LT$str$GT$$u20$for$u20$core..ops..range..RangeFrom$LT$usize$GT$$GT$3get17h3fb4e9d0de96ac88E', symObjAddr: 0x33258, symBinAddr: 0x3240C, symSize: 0x34 }
  - { offset: 0x18E277, size: 0x8, addend: 0x0, symName: '__ZN102_$LT$core..str..iter..CharIndices$u20$as$u20$core..iter..traits..double_ended..DoubleEndedIterator$GT$9next_back17h75d0fd69dc905e57E', symObjAddr: 0x331B4, symBinAddr: 0x32368, symSize: 0xA4 }
  - { offset: 0x1909C2, size: 0x8, addend: 0x0, symName: '__ZN4core5slice29_$LT$impl$u20$$u5b$T$u5d$$GT$15copy_from_slice17h874be3e8b933ec20E', symObjAddr: 0x32D58, symBinAddr: 0x31F90, symSize: 0x28 }
  - { offset: 0x190B3A, size: 0x8, addend: 0x0, symName: '__ZN104_$LT$core..iter..adapters..cloned..Cloned$LT$I$GT$$u20$as$u20$core..iter..traits..iterator..Iterator$GT$4next17h1bb9410b98b12105E', symObjAddr: 0x32C9C, symBinAddr: 0x31ED4, symSize: 0x34 }
  - { offset: 0x19176A, size: 0x8, addend: 0x0, symName: '__ZN84_$LT$serde..de..value..StrDeserializer$LT$E$GT$$u20$as$u20$serde..de..EnumAccess$GT$12variant_seed17hfd9f02ae51b5f04dE', symObjAddr: 0x32EA8, symBinAddr: 0x3F768, symSize: 0x2C }
  - { offset: 0x191A70, size: 0x8, addend: 0x0, symName: __ZN5serde2de7Visitor11visit_bytes17hf4f9d2633c299325E, symObjAddr: 0x32DFC, symBinAddr: 0x3F710, symSize: 0x2C }
  - { offset: 0x191AC1, size: 0x8, addend: 0x0, symName: __ZN5serde2de7Visitor9visit_str17hd01787532dccaaa9E, symObjAddr: 0x32E28, symBinAddr: 0x3F73C, symSize: 0x2C }
  - { offset: 0x191B90, size: 0x8, addend: 0x0, symName: '__ZN41_$LT$T$u20$as$u20$serde..de..Expected$GT$3fmt17h1c5b670713bac099E', symObjAddr: 0x32CD0, symBinAddr: 0x31F08, symSize: 0x2C }
  - { offset: 0x191C09, size: 0x8, addend: 0x0, symName: '__ZN41_$LT$T$u20$as$u20$serde..de..Expected$GT$3fmt17h260a030ce1a5bf68E', symObjAddr: 0x32CFC, symBinAddr: 0x31F34, symSize: 0x18 }
  - { offset: 0x191C82, size: 0x8, addend: 0x0, symName: '__ZN41_$LT$T$u20$as$u20$serde..de..Expected$GT$3fmt17haf3fc01b5dd081a8E', symObjAddr: 0x32D14, symBinAddr: 0x31F4C, symSize: 0x18 }
  - { offset: 0x191CFB, size: 0x8, addend: 0x0, symName: '__ZN41_$LT$T$u20$as$u20$serde..de..Expected$GT$3fmt17he636a13649572ebaE', symObjAddr: 0x32D2C, symBinAddr: 0x31F64, symSize: 0x14 }
  - { offset: 0x191D74, size: 0x8, addend: 0x0, symName: '__ZN41_$LT$T$u20$as$u20$serde..de..Expected$GT$3fmt17hf59c45886499ff62E', symObjAddr: 0x32D40, symBinAddr: 0x31F78, symSize: 0x18 }
  - { offset: 0x1946B8, size: 0x8, addend: 0x0, symName: '__ZN5alloc4sync16Arc$LT$T$C$A$GT$9drop_slow17habed45198e22faedE', symObjAddr: 0x32D80, symBinAddr: 0x31FB8, symSize: 0x28 }
  - { offset: 0x1946DB, size: 0x8, addend: 0x0, symName: '__ZN5alloc4sync16Arc$LT$T$C$A$GT$9drop_slow17habed45198e22faedE', symObjAddr: 0x32D80, symBinAddr: 0x31FB8, symSize: 0x28 }
  - { offset: 0x1946F0, size: 0x8, addend: 0x0, symName: '__ZN5alloc4sync16Arc$LT$T$C$A$GT$9drop_slow17habed45198e22faedE', symObjAddr: 0x32D80, symBinAddr: 0x31FB8, symSize: 0x28 }
  - { offset: 0x1948DD, size: 0x8, addend: 0x0, symName: '__ZN5alloc4sync16Arc$LT$T$C$A$GT$9drop_slow17hc4c6f9a39786d665E', symObjAddr: 0x32DA8, symBinAddr: 0x31FE0, symSize: 0x54 }
  - { offset: 0x194BEE, size: 0x8, addend: 0x0, symName: __ZN12sqlite_nostd5nostd11ManagedStmt11column_text17ha73a913892e47e82E.2669, symObjAddr: 0x32F08, symBinAddr: 0x320BC, symSize: 0x34 }
  - { offset: 0x194C5A, size: 0x8, addend: 0x0, symName: __ZN12sqlite_nostd5nostd11ManagedStmt9bind_text17hbb4837cd72115dcaE.2673, symObjAddr: 0x32F3C, symBinAddr: 0x320F0, symSize: 0x14 }
  - { offset: 0x19515A, size: 0x8, addend: 0x0, symName: __ZN12sqlite_nostd5nostd11ManagedStmt8bind_int17h12094834e63a92adE.2715, symObjAddr: 0x33698, symBinAddr: 0x3284C, symSize: 0x14 }
  - { offset: 0x19519A, size: 0x8, addend: 0x0, symName: __ZN12sqlite_nostd5nostd11ManagedStmt9bind_null17h2625c3043d03952dE.2716, symObjAddr: 0x336AC, symBinAddr: 0x32860, symSize: 0x14 }
  - { offset: 0x195B7B, size: 0x8, addend: 0x0, symName: __ZN14powersync_core10sync_local13SyncOperation5apply17h2734c0ec63066ad9E, symObjAddr: 0x336F0, symBinAddr: 0x328A4, symSize: 0xAFC }
  - { offset: 0x1973B6, size: 0x8, addend: 0x0, symName: __ZN14powersync_core10sync_local28RawTableWithCachedStatements14prepare_lazily17h4b9ff45a10d57153E, symObjAddr: 0x342C0, symBinAddr: 0x33474, symSize: 0x148 }
  - { offset: 0x197761, size: 0x8, addend: 0x0, symName: __ZN14powersync_core10sync_local13SyncOperation10use_schema17h01d2b367c780efdfE, symObjAddr: 0x34460, symBinAddr: 0x33614, symSize: 0x74 }
  - { offset: 0x19783D, size: 0x8, addend: 0x0, symName: _OUTLINED_FUNCTION_120, symObjAddr: 0x3BA28, symBinAddr: 0x3A628, symSize: 0xC }
  - { offset: 0x197854, size: 0x8, addend: 0x0, symName: _OUTLINED_FUNCTION_447, symObjAddr: 0x3CD28, symBinAddr: 0x3B928, symSize: 0xC }
  - { offset: 0x19786B, size: 0x8, addend: 0x0, symName: _OUTLINED_FUNCTION_477, symObjAddr: 0x3CF08, symBinAddr: 0x3BB08, symSize: 0x1C }
  - { offset: 0x197882, size: 0x8, addend: 0x0, symName: _OUTLINED_FUNCTION_564, symObjAddr: 0x3D40C, symBinAddr: 0x3C00C, symSize: 0xC }
  - { offset: 0x197899, size: 0x8, addend: 0x0, symName: _OUTLINED_FUNCTION_570, symObjAddr: 0x3D44C, symBinAddr: 0x3C04C, symSize: 0x8 }
  - { offset: 0x1978B0, size: 0x8, addend: 0x0, symName: _OUTLINED_FUNCTION_763, symObjAddr: 0x3DF50, symBinAddr: 0x3CB50, symSize: 0x10 }
  - { offset: 0x1978C7, size: 0x8, addend: 0x0, symName: _OUTLINED_FUNCTION_783, symObjAddr: 0x3E050, symBinAddr: 0x3CC50, symSize: 0x8 }
  - { offset: 0x1978DE, size: 0x8, addend: 0x0, symName: _OUTLINED_FUNCTION_810, symObjAddr: 0x3E174, symBinAddr: 0x3CD74, symSize: 0x1C }
  - { offset: 0x1978F5, size: 0x8, addend: 0x0, symName: _OUTLINED_FUNCTION_904, symObjAddr: 0x3E750, symBinAddr: 0x3D350, symSize: 0xC }
  - { offset: 0x19790C, size: 0x8, addend: 0x0, symName: _OUTLINED_FUNCTION_907, symObjAddr: 0x3E774, symBinAddr: 0x3D374, symSize: 0xC }
  - { offset: 0x197923, size: 0x8, addend: 0x0, symName: _OUTLINED_FUNCTION_944, symObjAddr: 0x3E934, symBinAddr: 0x3D534, symSize: 0x8 }
  - { offset: 0x19793A, size: 0x8, addend: 0x0, symName: _OUTLINED_FUNCTION_961, symObjAddr: 0x3EA04, symBinAddr: 0x3D604, symSize: 0x8 }
  - { offset: 0x197951, size: 0x8, addend: 0x0, symName: _OUTLINED_FUNCTION_1020, symObjAddr: 0x3EC4C, symBinAddr: 0x3D84C, symSize: 0xC }
  - { offset: 0x197968, size: 0x8, addend: 0x0, symName: _OUTLINED_FUNCTION_1041, symObjAddr: 0x3ED18, symBinAddr: 0x3D918, symSize: 0xC }
  - { offset: 0x19797F, size: 0x8, addend: 0x0, symName: _OUTLINED_FUNCTION_1045, symObjAddr: 0x3ED40, symBinAddr: 0x3D940, symSize: 0xC }
  - { offset: 0x197996, size: 0x8, addend: 0x0, symName: _OUTLINED_FUNCTION_1066, symObjAddr: 0x3EE0C, symBinAddr: 0x3DA0C, symSize: 0x8 }
  - { offset: 0x197AFC, size: 0x8, addend: 0x0, symName: __ZN3ryu14d2s_full_table21DOUBLE_POW5_INV_SPLIT17hc9379a5e440b667aE, symObjAddr: 0x48500, symBinAddr: 0x48C68, symSize: 0x0 }
  - { offset: 0x197B18, size: 0x8, addend: 0x0, symName: __ZN3ryu14d2s_full_table17DOUBLE_POW5_SPLIT17hcc14bba8192f424bE, symObjAddr: 0x49A60, symBinAddr: 0x4A1C8, symSize: 0x0 }
  - { offset: 0x197F37, size: 0x8, addend: 0x0, symName: __ZN3ryu14d2s_intrinsics16mul_shift_all_6417hc9810bd3f988447cE, symObjAddr: 0x34ED0, symBinAddr: 0x34084, symSize: 0xB4 }
  - { offset: 0x19808A, size: 0x8, addend: 0x0, symName: __ZN3ryu14d2s_intrinsics22multiple_of_power_of_517hac7344afea692e48E, symObjAddr: 0x34F84, symBinAddr: 0x34138, symSize: 0x30 }
  - { offset: 0x198129, size: 0x8, addend: 0x0, symName: __ZN3ryu6pretty8format6417h8f3ac11f429a8340E, symObjAddr: 0x348A4, symBinAddr: 0x33A58, symSize: 0x62C }
  - { offset: 0x198D0E, size: 0x8, addend: 0x0, symName: __ZN3ryu6pretty8mantissa19write_mantissa_long17hc6ed031bb344f0b1E, symObjAddr: 0x34FB4, symBinAddr: 0x34168, symSize: 0x108 }
  - { offset: 0x198F15, size: 0x8, addend: 0x0, symName: __ZN3ryu6pretty8exponent15write_exponent317h2961056b69e0d6caE, symObjAddr: 0x350BC, symBinAddr: 0x34270, symSize: 0x8C }
  - { offset: 0x198F4E, size: 0x8, addend: 0x0, symName: __ZN3ryu6pretty8exponent15write_exponent317h2961056b69e0d6caE, symObjAddr: 0x350BC, symBinAddr: 0x34270, symSize: 0x8C }
  - { offset: 0x19966C, size: 0x8, addend: 0x0, symName: _OUTLINED_FUNCTION_1000, symObjAddr: 0x3EB90, symBinAddr: 0x3D790, symSize: 0x8 }
  - { offset: 0x1B7FA1, size: 0x8, addend: 0x0, symName: __ZN4itoa6Buffer6format17h19f9ed2e78343186E, symObjAddr: 0x38F58, symBinAddr: 0x37B64, symSize: 0xBC }
  - { offset: 0x1B8459, size: 0x8, addend: 0x0, symName: __ZN4itoa6Buffer6format17h19f9ed2e78343186E, symObjAddr: 0x38F58, symBinAddr: 0x37B64, symSize: 0xBC }
  - { offset: 0x1B85D3, size: 0x8, addend: 0x0, symName: __ZN4itoa6Buffer6format17hd4d34d5558fd78f8E, symObjAddr: 0x39014, symBinAddr: 0x37C20, symSize: 0xD8 }
  - { offset: 0xF56C, size: 0x8, addend: 0x0, symName: __ZN4core3str7pattern11StrSearcher3new17h69d31aa3b911c6a7E, symObjAddr: 0x1DEC, symBinAddr: 0x2410, symSize: 0x14C }
  - { offset: 0xF857, size: 0x8, addend: 0x0, symName: __ZN4core3str7pattern14TwoWaySearcher14maximal_suffix17h9bb828c095efc3f8E, symObjAddr: 0x1F38, symBinAddr: 0x255C, symSize: 0xA4 }
  - { offset: 0xF919, size: 0x8, addend: 0x0, symName: __ZN4core3str7pattern14TwoWaySearcher22reverse_maximal_suffix17hd8e92b5a1e4f70b2E, symObjAddr: 0x1FDC, symBinAddr: 0x2600, symSize: 0xD8 }
  - { offset: 0xFAB3, size: 0x8, addend: 0x0, symName: _OUTLINED_FUNCTION_11, symObjAddr: 0x3B164, symBinAddr: 0x39D64, symSize: 0x14 }
  - { offset: 0xFACA, size: 0x8, addend: 0x0, symName: _OUTLINED_FUNCTION_241, symObjAddr: 0x3C22C, symBinAddr: 0x3AE2C, symSize: 0xC }
  - { offset: 0xFAE1, size: 0x8, addend: 0x0, symName: _OUTLINED_FUNCTION_284, symObjAddr: 0x3C4A8, symBinAddr: 0x3B0A8, symSize: 0xC }
  - { offset: 0xFAF8, size: 0x8, addend: 0x0, symName: _OUTLINED_FUNCTION_1101, symObjAddr: 0x3EF58, symBinAddr: 0x3DB58, symSize: 0x14 }
  - { offset: 0xFB0F, size: 0x8, addend: 0x0, symName: _OUTLINED_FUNCTION_1131, symObjAddr: 0x3F120, symBinAddr: 0x3DD20, symSize: 0xC }
  - { offset: 0x1AE0, size: 0x8, addend: 0x0, symName: '__ZN42_$LT$$RF$T$u20$as$u20$core..fmt..Debug$GT$3fmt17hefc34a2f9593de2bE', symObjAddr: 0xEC, symBinAddr: 0x7AC, symSize: 0x194 }
  - { offset: 0x2A1D, size: 0x8, addend: 0x0, symName: '__ZN132_$LT$alloc..vec..Vec$LT$T$C$A$GT$$u20$as$u20$alloc..vec..spec_extend..SpecExtend$LT$$RF$T$C$core..slice..iter..Iter$LT$T$GT$$GT$$GT$11spec_extend17h2ad64fea1824674eE', symObjAddr: 0x34C, symBinAddr: 0xA0C, symSize: 0x44 }
  - { offset: 0x2FC1, size: 0x8, addend: 0x0, symName: __ZN5alloc3fmt6format12format_inner17h33f3adc5e3c6144aE, symObjAddr: 0x280, symBinAddr: 0x940, symSize: 0x94 }
  - { offset: 0x3273, size: 0x8, addend: 0x0, symName: '__ZN5alloc5slice29_$LT$impl$u20$$u5b$T$u5d$$GT$9to_vec_in17hbde20ffb828c6c80E', symObjAddr: 0x3B8, symBinAddr: 0xA78, symSize: 0x44 }
  - { offset: 0x36C3, size: 0x8, addend: 0x0, symName: '__ZN5alloc3vec16Vec$LT$T$C$A$GT$16with_capacity_in17hc1e752ffa639d050E', symObjAddr: 0x314, symBinAddr: 0x9D4, symSize: 0x38 }
  - { offset: 0x3952, size: 0x8, addend: 0x0, symName: '__ZN5alloc3vec16Vec$LT$T$C$A$GT$7reserve17h863636cebe88ad0dE', symObjAddr: 0x390, symBinAddr: 0xA50, symSize: 0x28 }
  - { offset: 0x3BD5, size: 0x8, addend: 0x0, symName: '__ZN5alloc3vec16Vec$LT$T$C$A$GT$16into_boxed_slice17ha12001414fc10769E', symObjAddr: 0x3FC, symBinAddr: 0xABC, symSize: 0x68 }
  - { offset: 0x3EAE, size: 0x8, addend: 0x0, symName: _OUTLINED_FUNCTION_13, symObjAddr: 0x3B190, symBinAddr: 0x39D90, symSize: 0xC }
  - { offset: 0x3EC5, size: 0x8, addend: 0x0, symName: _OUTLINED_FUNCTION_16, symObjAddr: 0x3B1B8, symBinAddr: 0x39DB8, symSize: 0xC }
  - { offset: 0x3EDC, size: 0x8, addend: 0x0, symName: _OUTLINED_FUNCTION_31, symObjAddr: 0x3B2B8, symBinAddr: 0x39EB8, symSize: 0x14 }
  - { offset: 0x3EF3, size: 0x8, addend: 0x0, symName: _OUTLINED_FUNCTION_95, symObjAddr: 0x3B804, symBinAddr: 0x3A404, symSize: 0x10 }
  - { offset: 0x3F0A, size: 0x8, addend: 0x0, symName: _OUTLINED_FUNCTION_97, symObjAddr: 0x3B844, symBinAddr: 0x3A444, symSize: 0x10 }
  - { offset: 0x3F21, size: 0x8, addend: 0x0, symName: _OUTLINED_FUNCTION_108, symObjAddr: 0x3B914, symBinAddr: 0x3A514, symSize: 0xC }
  - { offset: 0x3F38, size: 0x8, addend: 0x0, symName: _OUTLINED_FUNCTION_168, symObjAddr: 0x3BDB0, symBinAddr: 0x3A9B0, symSize: 0xC }
  - { offset: 0x3F4F, size: 0x8, addend: 0x0, symName: _OUTLINED_FUNCTION_170, symObjAddr: 0x3BDC4, symBinAddr: 0x3A9C4, symSize: 0xC }
  - { offset: 0x3F66, size: 0x8, addend: 0x0, symName: _OUTLINED_FUNCTION_210, symObjAddr: 0x3C084, symBinAddr: 0x3AC84, symSize: 0xC }
  - { offset: 0x3F7D, size: 0x8, addend: 0x0, symName: _OUTLINED_FUNCTION_211, symObjAddr: 0x3C090, symBinAddr: 0x3AC90, symSize: 0xC }
  - { offset: 0x3F94, size: 0x8, addend: 0x0, symName: _OUTLINED_FUNCTION_217, symObjAddr: 0x3C0C4, symBinAddr: 0x3ACC4, symSize: 0xC }
  - { offset: 0x3FAB, size: 0x8, addend: 0x0, symName: _OUTLINED_FUNCTION_250, symObjAddr: 0x3C2D8, symBinAddr: 0x3AED8, symSize: 0x10 }
  - { offset: 0x3FC2, size: 0x8, addend: 0x0, symName: _OUTLINED_FUNCTION_363, symObjAddr: 0x3C89C, symBinAddr: 0x3B49C, symSize: 0xC }
  - { offset: 0x3FD9, size: 0x8, addend: 0x0, symName: _OUTLINED_FUNCTION_417, symObjAddr: 0x3CBE4, symBinAddr: 0x3B7E4, symSize: 0xC }
  - { offset: 0x3FF0, size: 0x8, addend: 0x0, symName: _OUTLINED_FUNCTION_450, symObjAddr: 0x3CD4C, symBinAddr: 0x3B94C, symSize: 0xC }
  - { offset: 0x4007, size: 0x8, addend: 0x0, symName: _OUTLINED_FUNCTION_474, symObjAddr: 0x3CEC8, symBinAddr: 0x3BAC8, symSize: 0x8 }
  - { offset: 0x401E, size: 0x8, addend: 0x0, symName: _OUTLINED_FUNCTION_475, symObjAddr: 0x3CED0, symBinAddr: 0x3BAD0, symSize: 0x1C }
  - { offset: 0x4035, size: 0x8, addend: 0x0, symName: _OUTLINED_FUNCTION_576, symObjAddr: 0x3D498, symBinAddr: 0x3C098, symSize: 0x8 }
  - { offset: 0x404C, size: 0x8, addend: 0x0, symName: _OUTLINED_FUNCTION_866, symObjAddr: 0x3E4C4, symBinAddr: 0x3D0C4, symSize: 0x1C }
  - { offset: 0x4063, size: 0x8, addend: 0x0, symName: _OUTLINED_FUNCTION_1074, symObjAddr: 0x3EE54, symBinAddr: 0x3DA54, symSize: 0xC }
  - { offset: 0x407A, size: 0x8, addend: 0x0, symName: _OUTLINED_FUNCTION_1094, symObjAddr: 0x3EF10, symBinAddr: 0x3DB10, symSize: 0xC }
  - { offset: 0xF88A9, size: 0x8, addend: 0x0, symName: '__ZN4core3ptr208drop_in_place$LT$powersync_core..sync..streaming_sync..StreamingSyncIteration..resolve_subscription_state..LocalAndServerSubscription$LT$powersync_core..sync..subscriptions..LocallyTrackedSubscription$GT$$GT$17hdd0c110371cebd38E', symObjAddr: 0x1D448, symBinAddr: 0x1CFC8, symSize: 0x2C }
  - { offset: 0xF8962, size: 0x8, addend: 0x0, symName: '__ZN4core3ptr106drop_in_place$LT$core..option..Option$LT$alloc..boxed..Box$LT$powersync_core..util..JsonString$GT$$GT$$GT$17hc69507b4296c4b81E', symObjAddr: 0x1D474, symBinAddr: 0x1CFF4, symSize: 0x10 }
  - { offset: 0xF8B19, size: 0x8, addend: 0x0, symName: '__ZN4core3ptr59drop_in_place$LT$serde..__private..de..content..Content$GT$17hc75cc8c56da81266E.1404', symObjAddr: 0x22EE4, symBinAddr: 0x22998, symSize: 0x70 }
  - { offset: 0xF8BBF, size: 0x8, addend: 0x0, symName: '__ZN4core3ptr84drop_in_place$LT$alloc..boxed..Box$LT$serde..__private..de..content..Content$GT$$GT$17hc52b5449d0231028E.1407', symObjAddr: 0x22F84, symBinAddr: 0x22A38, symSize: 0x20 }
  - { offset: 0xF8CA0, size: 0x8, addend: 0x0, symName: '__ZN4core3ptr108drop_in_place$LT$$LP$serde..__private..de..content..Content$C$serde..__private..de..content..Content$RP$$GT$17h93f71afef46731b5E', symObjAddr: 0x22FA4, symBinAddr: 0x22A58, symSize: 0x24 }
  - { offset: 0xF8D0F, size: 0x8, addend: 0x0, symName: '__ZN4core3ptr136drop_in_place$LT$core..option..Option$LT$$LP$serde..__private..de..content..Content$C$serde..__private..de..content..Content$RP$$GT$$GT$17h96f7626acbce6d40E', symObjAddr: 0x23024, symBinAddr: 0x22AD8, symSize: 0x14 }
  - { offset: 0xF9389, size: 0x8, addend: 0x0, symName: '__ZN4core3ptr73drop_in_place$LT$powersync_core..schema..table_info..PendingStatement$GT$17h59254bc29e9a12a7E.1446', symObjAddr: 0x23458, symBinAddr: 0x22F0C, symSize: 0x2C }
  - { offset: 0xFD285, size: 0x8, addend: 0x0, symName: '__ZN115_$LT$core..iter..adapters..filter_map..FilterMap$LT$I$C$F$GT$$u20$as$u20$core..iter..traits..iterator..Iterator$GT$4next17ha6c5d34967cff8eaE', symObjAddr: 0x1D3F4, symBinAddr: 0x1CF74, symSize: 0x44 }
  - { offset: 0xFE76F, size: 0x8, addend: 0x0, symName: '__ZN5serde2de5impls82_$LT$impl$u20$serde..de..Deserialize$u20$for$u20$core..option..Option$LT$T$GT$$GT$11deserialize17h0a235ee8f04a3100E', symObjAddr: 0x2246C, symBinAddr: 0x21FEC, symSize: 0x114 }
  - { offset: 0xFE8A8, size: 0x8, addend: 0x0, symName: '__ZN5serde2de5impls82_$LT$impl$u20$serde..de..Deserialize$u20$for$u20$core..option..Option$LT$T$GT$$GT$11deserialize17h1d41200d5b516025E', symObjAddr: 0x22580, symBinAddr: 0x22100, symSize: 0x6C }
  - { offset: 0xFE987, size: 0x8, addend: 0x0, symName: '__ZN5serde2de5impls82_$LT$impl$u20$serde..de..Deserialize$u20$for$u20$core..option..Option$LT$T$GT$$GT$11deserialize17h4edc0597a25c98bcE', symObjAddr: 0x225EC, symBinAddr: 0x2216C, symSize: 0x78 }
  - { offset: 0xFEABD, size: 0x8, addend: 0x0, symName: '__ZN5serde2de5impls82_$LT$impl$u20$serde..de..Deserialize$u20$for$u20$core..option..Option$LT$T$GT$$GT$11deserialize17h5ee40bebc12b97c7E', symObjAddr: 0x22664, symBinAddr: 0x221E4, symSize: 0x1C0 }
  - { offset: 0xFED8E, size: 0x8, addend: 0x0, symName: '__ZN5serde2de5impls82_$LT$impl$u20$serde..de..Deserialize$u20$for$u20$core..option..Option$LT$T$GT$$GT$11deserialize17h89bc498ca486baa3E', symObjAddr: 0x22824, symBinAddr: 0x223A4, symSize: 0x68 }
  - { offset: 0xFEE68, size: 0x8, addend: 0x0, symName: '__ZN5serde2de5impls82_$LT$impl$u20$serde..de..Deserialize$u20$for$u20$core..option..Option$LT$T$GT$$GT$11deserialize17h8b6495cfa645b1b3E', symObjAddr: 0x2288C, symBinAddr: 0x2240C, symSize: 0x10C }
  - { offset: 0xFF0B6, size: 0x8, addend: 0x0, symName: '__ZN5serde2de5impls82_$LT$impl$u20$serde..de..Deserialize$u20$for$u20$core..option..Option$LT$T$GT$$GT$11deserialize17h9b3de8170c976b51E', symObjAddr: 0x22998, symBinAddr: 0x22518, symSize: 0x25C }
  - { offset: 0xFF3D2, size: 0x8, addend: 0x0, symName: '__ZN5serde2de5impls82_$LT$impl$u20$serde..de..Deserialize$u20$for$u20$core..option..Option$LT$T$GT$$GT$11deserialize17he71b686a34701e55E', symObjAddr: 0x22BF4, symBinAddr: 0x22774, symSize: 0x94 }
  - { offset: 0xFF4E4, size: 0x8, addend: 0x0, symName: '__ZN5serde2de5impls82_$LT$impl$u20$serde..de..Deserialize$u20$for$u20$core..option..Option$LT$T$GT$$GT$11deserialize17hed26ed62bb720c2fE', symObjAddr: 0x22C88, symBinAddr: 0x22808, symSize: 0x88 }
  - { offset: 0xFF5D4, size: 0x8, addend: 0x0, symName: '__ZN5serde2de5impls82_$LT$impl$u20$serde..de..Deserialize$u20$for$u20$core..option..Option$LT$T$GT$$GT$11deserialize17hf2e48de091fa9761E', symObjAddr: 0x22D10, symBinAddr: 0x22890, symSize: 0x9C }
  - { offset: 0xFFDFC, size: 0x8, addend: 0x0, symName: '__ZN5serde2de5impls77_$LT$impl$u20$serde..de..Deserialize$u20$for$u20$alloc..vec..Vec$LT$T$GT$$GT$11deserialize17h1994ea6da15135daE', symObjAddr: 0x1D484, symBinAddr: 0x1D004, symSize: 0x130 }
  - { offset: 0xFFF4F, size: 0x8, addend: 0x0, symName: '__ZN5serde2de5impls77_$LT$impl$u20$serde..de..Deserialize$u20$for$u20$alloc..vec..Vec$LT$T$GT$$GT$11deserialize17h210f93c3fcf20213E', symObjAddr: 0x1D5B4, symBinAddr: 0x1D134, symSize: 0x744 }
  - { offset: 0x10080E, size: 0x8, addend: 0x0, symName: '__ZN5serde2de5impls77_$LT$impl$u20$serde..de..Deserialize$u20$for$u20$alloc..vec..Vec$LT$T$GT$$GT$11deserialize17h21c4da6526402027E', symObjAddr: 0x1DCF8, symBinAddr: 0x1D878, symSize: 0x360 }
  - { offset: 0x100C8D, size: 0x8, addend: 0x0, symName: '__ZN5serde2de5impls77_$LT$impl$u20$serde..de..Deserialize$u20$for$u20$alloc..vec..Vec$LT$T$GT$$GT$11deserialize17h2265aac4edaed50bE', symObjAddr: 0x1E058, symBinAddr: 0x1DBD8, symSize: 0x64C }
  - { offset: 0x10163A, size: 0x8, addend: 0x0, symName: '__ZN5serde2de5impls77_$LT$impl$u20$serde..de..Deserialize$u20$for$u20$alloc..vec..Vec$LT$T$GT$$GT$11deserialize17h464527dac4bce185E', symObjAddr: 0x1E6A4, symBinAddr: 0x1E224, symSize: 0xB38 }
  - { offset: 0x102DC0, size: 0x8, addend: 0x0, symName: '__ZN5serde2de5impls77_$LT$impl$u20$serde..de..Deserialize$u20$for$u20$alloc..vec..Vec$LT$T$GT$$GT$11deserialize17h67cbd3369a2a5462E', symObjAddr: 0x1F1DC, symBinAddr: 0x1ED5C, symSize: 0x198 }
  - { offset: 0x103039, size: 0x8, addend: 0x0, symName: '__ZN5serde2de5impls77_$LT$impl$u20$serde..de..Deserialize$u20$for$u20$alloc..vec..Vec$LT$T$GT$$GT$11deserialize17hc311c6f70b42688dE', symObjAddr: 0x1F374, symBinAddr: 0x1EEF4, symSize: 0xAE0 }
  - { offset: 0x104346, size: 0x8, addend: 0x0, symName: '__ZN5serde2de5impls77_$LT$impl$u20$serde..de..Deserialize$u20$for$u20$alloc..vec..Vec$LT$T$GT$$GT$11deserialize17hcea3d17745145349E', symObjAddr: 0x1FE54, symBinAddr: 0x1F9D4, symSize: 0x1AC }
  - { offset: 0x104631, size: 0x8, addend: 0x0, symName: '__ZN5serde2de5impls77_$LT$impl$u20$serde..de..Deserialize$u20$for$u20$alloc..vec..Vec$LT$T$GT$$GT$11deserialize17hd8765a6a8ab3f185E', symObjAddr: 0x20000, symBinAddr: 0x1FB80, symSize: 0x9F8 }
  - { offset: 0x105231, size: 0x8, addend: 0x0, symName: '__ZN5serde2de5impls77_$LT$impl$u20$serde..de..Deserialize$u20$for$u20$alloc..vec..Vec$LT$T$GT$$GT$11deserialize17he2bb40aaf7934c35E', symObjAddr: 0x209F8, symBinAddr: 0x20578, symSize: 0x25C }
  - { offset: 0x1055C0, size: 0x8, addend: 0x0, symName: '__ZN5serde2de5impls77_$LT$impl$u20$serde..de..Deserialize$u20$for$u20$alloc..vec..Vec$LT$T$GT$$GT$11deserialize17he3f98086a4e9bb85E', symObjAddr: 0x20C54, symBinAddr: 0x207D4, symSize: 0x910 }
  - { offset: 0x106718, size: 0x8, addend: 0x0, symName: '__ZN5serde2de5impls77_$LT$impl$u20$serde..de..Deserialize$u20$for$u20$alloc..vec..Vec$LT$T$GT$$GT$11deserialize17he73d4ef599bece11E', symObjAddr: 0x21564, symBinAddr: 0x210E4, symSize: 0x760 }
  - { offset: 0x1071A1, size: 0x8, addend: 0x0, symName: '__ZN5serde2de5impls77_$LT$impl$u20$serde..de..Deserialize$u20$for$u20$alloc..vec..Vec$LT$T$GT$$GT$11deserialize17he855f0f7e77c2503E', symObjAddr: 0x21CC4, symBinAddr: 0x21844, symSize: 0x674 }
  - { offset: 0x107A62, size: 0x8, addend: 0x0, symName: '__ZN5serde2de5impls77_$LT$impl$u20$serde..de..Deserialize$u20$for$u20$alloc..vec..Vec$LT$T$GT$$GT$11deserialize17hf18e4932f63a1035E', symObjAddr: 0x22338, symBinAddr: 0x21EB8, symSize: 0x134 }
  - { offset: 0x1092E8, size: 0x8, addend: 0x0, symName: __ZN5serde9__private2de13missing_field17h17b4f835450461bfE, symObjAddr: 0x22DAC, symBinAddr: 0x3EDC8, symSize: 0x2C }
  - { offset: 0x1093A1, size: 0x8, addend: 0x0, symName: __ZN5serde9__private2de13missing_field17h7d60873707c3c68dE, symObjAddr: 0x22DD8, symBinAddr: 0x3EDF4, symSize: 0x2C }
  - { offset: 0x10945A, size: 0x8, addend: 0x0, symName: __ZN5serde9__private2de13missing_field17ha5c83bf0135d2570E, symObjAddr: 0x22E04, symBinAddr: 0x3EE20, symSize: 0x24 }
  - { offset: 0x10950D, size: 0x8, addend: 0x0, symName: __ZN5serde9__private2de13missing_field17he039fe30ff75ec08E, symObjAddr: 0x22E28, symBinAddr: 0x3EE44, symSize: 0x24 }
  - { offset: 0x1095C0, size: 0x8, addend: 0x0, symName: __ZN5serde9__private2de13missing_field17hffb1325a6b0672e9E, symObjAddr: 0x22E4C, symBinAddr: 0x3EE68, symSize: 0x2C }
  - { offset: 0x109A54, size: 0x8, addend: 0x0, symName: '__ZN70_$LT$alloc..vec..Vec$LT$T$C$A$GT$$u20$as$u20$core..ops..drop..Drop$GT$4drop17h15af6eb8ee884a6cE', symObjAddr: 0x22E78, symBinAddr: 0x2292C, symSize: 0x3C }
  - { offset: 0x109ACB, size: 0x8, addend: 0x0, symName: '__ZN70_$LT$alloc..vec..Vec$LT$T$C$A$GT$$u20$as$u20$core..ops..drop..Drop$GT$4drop17h1880533642a315edE', symObjAddr: 0x22EB4, symBinAddr: 0x22968, symSize: 0x30 }
  - { offset: 0x109B9B, size: 0x8, addend: 0x0, symName: '__ZN70_$LT$alloc..vec..Vec$LT$T$C$A$GT$$u20$as$u20$core..ops..drop..Drop$GT$4drop17hc14dd5946e13a427E', symObjAddr: 0x22F54, symBinAddr: 0x22A08, symSize: 0x30 }
  - { offset: 0x109C6B, size: 0x8, addend: 0x0, symName: '__ZN70_$LT$alloc..vec..Vec$LT$T$C$A$GT$$u20$as$u20$core..ops..drop..Drop$GT$4drop17h3bf2b21505547b0aE', symObjAddr: 0x22FC8, symBinAddr: 0x22A7C, symSize: 0x2C }
  - { offset: 0x109CC3, size: 0x8, addend: 0x0, symName: '__ZN70_$LT$alloc..vec..Vec$LT$T$C$A$GT$$u20$as$u20$core..ops..drop..Drop$GT$4drop17h3cd687ec5622d0acE', symObjAddr: 0x22FF4, symBinAddr: 0x22AA8, symSize: 0x30 }
  - { offset: 0x109D1B, size: 0x8, addend: 0x0, symName: '__ZN70_$LT$alloc..vec..Vec$LT$T$C$A$GT$$u20$as$u20$core..ops..drop..Drop$GT$4drop17h4b60547fdad38e00E', symObjAddr: 0x23038, symBinAddr: 0x22AEC, symSize: 0x40 }
  - { offset: 0x109E1A, size: 0x8, addend: 0x0, symName: '__ZN70_$LT$alloc..vec..Vec$LT$T$C$A$GT$$u20$as$u20$core..ops..drop..Drop$GT$4drop17h67e4572e7fd2cf74E', symObjAddr: 0x23078, symBinAddr: 0x22B2C, symSize: 0x34 }
  - { offset: 0x109E72, size: 0x8, addend: 0x0, symName: '__ZN70_$LT$alloc..vec..Vec$LT$T$C$A$GT$$u20$as$u20$core..ops..drop..Drop$GT$4drop17h5bde03f5270550dcE', symObjAddr: 0x230AC, symBinAddr: 0x22B60, symSize: 0x2C }
  - { offset: 0x109ECA, size: 0x8, addend: 0x0, symName: '__ZN70_$LT$alloc..vec..Vec$LT$T$C$A$GT$$u20$as$u20$core..ops..drop..Drop$GT$4drop17h79ede6ef939b0046E', symObjAddr: 0x230D8, symBinAddr: 0x22B8C, symSize: 0x44 }
  - { offset: 0x109FC6, size: 0x8, addend: 0x0, symName: '__ZN70_$LT$alloc..vec..Vec$LT$T$C$A$GT$$u20$as$u20$core..ops..drop..Drop$GT$4drop17hadff4ba7e1d0298eE', symObjAddr: 0x2311C, symBinAddr: 0x22BD0, symSize: 0x28 }
  - { offset: 0x10A01E, size: 0x8, addend: 0x0, symName: '__ZN70_$LT$alloc..vec..Vec$LT$T$C$A$GT$$u20$as$u20$core..ops..drop..Drop$GT$4drop17hb387a74cd3f541a9E', symObjAddr: 0x23144, symBinAddr: 0x22BF8, symSize: 0x34 }
  - { offset: 0x10A093, size: 0x8, addend: 0x0, symName: '__ZN70_$LT$alloc..vec..Vec$LT$T$C$A$GT$$u20$as$u20$core..ops..drop..Drop$GT$4drop17hb5cb943a263bfae9E', symObjAddr: 0x23178, symBinAddr: 0x22C2C, symSize: 0x40 }
  - { offset: 0x10A148, size: 0x8, addend: 0x0, symName: '__ZN70_$LT$alloc..vec..Vec$LT$T$C$A$GT$$u20$as$u20$core..ops..drop..Drop$GT$4drop17hd15a10ba50a4c3d9E', symObjAddr: 0x231B8, symBinAddr: 0x22C6C, symSize: 0x60 }
  - { offset: 0x10A1FD, size: 0x8, addend: 0x0, symName: '__ZN70_$LT$alloc..vec..Vec$LT$T$C$A$GT$$u20$as$u20$core..ops..drop..Drop$GT$4drop17hcd3bc3f32374f2e1E', symObjAddr: 0x23218, symBinAddr: 0x22CCC, symSize: 0x44 }
  - { offset: 0x10A2BE, size: 0x8, addend: 0x0, symName: '__ZN70_$LT$alloc..vec..Vec$LT$T$C$A$GT$$u20$as$u20$core..ops..drop..Drop$GT$4drop17hd2821e7db4220f85E', symObjAddr: 0x2325C, symBinAddr: 0x22D10, symSize: 0x40 }
  - { offset: 0x10A42E, size: 0x8, addend: 0x0, symName: '__ZN70_$LT$alloc..vec..Vec$LT$T$C$A$GT$$u20$as$u20$core..ops..drop..Drop$GT$4drop17he42869a00ec39431E', symObjAddr: 0x2329C, symBinAddr: 0x22D50, symSize: 0xC8 }
  - { offset: 0x10A793, size: 0x8, addend: 0x0, symName: '__ZN70_$LT$alloc..vec..Vec$LT$T$C$A$GT$$u20$as$u20$core..ops..drop..Drop$GT$4drop17he55e481385e33ebbE', symObjAddr: 0x23364, symBinAddr: 0x22E18, symSize: 0x80 }
  - { offset: 0x10A8EF, size: 0x8, addend: 0x0, symName: '__ZN70_$LT$alloc..vec..Vec$LT$T$C$A$GT$$u20$as$u20$core..ops..drop..Drop$GT$4drop17he6d570a970420e7fE', symObjAddr: 0x233E4, symBinAddr: 0x22E98, symSize: 0x30 }
  - { offset: 0x10A947, size: 0x8, addend: 0x0, symName: '__ZN70_$LT$alloc..vec..Vec$LT$T$C$A$GT$$u20$as$u20$core..ops..drop..Drop$GT$4drop17hedb5ed1b77a1df66E', symObjAddr: 0x23414, symBinAddr: 0x22EC8, symSize: 0x44 }
  - { offset: 0x10AA0A, size: 0x8, addend: 0x0, symName: '__ZN70_$LT$alloc..vec..Vec$LT$T$C$A$GT$$u20$as$u20$core..ops..drop..Drop$GT$4drop17hfe778a4252f05b51E', symObjAddr: 0x23484, symBinAddr: 0x22F38, symSize: 0x38 }
  - { offset: 0x10E4F4, size: 0x8, addend: 0x0, symName: '__ZN5alloc7raw_vec20RawVecInner$LT$A$GT$16with_capacity_in17he67208dd9b65800dE.1234', symObjAddr: 0x1D39C, symBinAddr: 0x1CF1C, symSize: 0x38 }
  - { offset: 0x10E597, size: 0x8, addend: 0x0, symName: '__ZN5alloc7raw_vec20RawVecInner$LT$A$GT$7reserve17h244b258550dafb05E', symObjAddr: 0x1D3D4, symBinAddr: 0x1CF54, symSize: 0x20 }
  - { offset: 0x10E757, size: 0x8, addend: 0x0, symName: '__ZN5alloc3vec16Vec$LT$T$C$A$GT$7reserve17h5efcba5252573cddE', symObjAddr: 0x1D438, symBinAddr: 0x1CFB8, symSize: 0x10 }
  - { offset: 0x110BF3, size: 0x8, addend: 0x0, symName: _OUTLINED_FUNCTION_26, symObjAddr: 0x3B268, symBinAddr: 0x39E68, symSize: 0x10 }
  - { offset: 0x110C0A, size: 0x8, addend: 0x0, symName: _OUTLINED_FUNCTION_101, symObjAddr: 0x3B880, symBinAddr: 0x3A480, symSize: 0xC }
  - { offset: 0x110C21, size: 0x8, addend: 0x0, symName: _OUTLINED_FUNCTION_118, symObjAddr: 0x3BA00, symBinAddr: 0x3A600, symSize: 0x1C }
  - { offset: 0x110C38, size: 0x8, addend: 0x0, symName: _OUTLINED_FUNCTION_126, symObjAddr: 0x3BAC4, symBinAddr: 0x3A6C4, symSize: 0x10 }
  - { offset: 0x110C4F, size: 0x8, addend: 0x0, symName: _OUTLINED_FUNCTION_154, symObjAddr: 0x3BCEC, symBinAddr: 0x3A8EC, symSize: 0x10 }
  - { offset: 0x110C66, size: 0x8, addend: 0x0, symName: _OUTLINED_FUNCTION_188, symObjAddr: 0x3BF20, symBinAddr: 0x3AB20, symSize: 0xC }
  - { offset: 0x110C7D, size: 0x8, addend: 0x0, symName: _OUTLINED_FUNCTION_191, symObjAddr: 0x3BF40, symBinAddr: 0x3AB40, symSize: 0xC }
  - { offset: 0x110C94, size: 0x8, addend: 0x0, symName: _OUTLINED_FUNCTION_248, symObjAddr: 0x3C2B8, symBinAddr: 0x3AEB8, symSize: 0x10 }
  - { offset: 0x110CAB, size: 0x8, addend: 0x0, symName: _OUTLINED_FUNCTION_279, symObjAddr: 0x3C464, symBinAddr: 0x3B064, symSize: 0x14 }
  - { offset: 0x110CC2, size: 0x8, addend: 0x0, symName: _OUTLINED_FUNCTION_280, symObjAddr: 0x3C478, symBinAddr: 0x3B078, symSize: 0x14 }
  - { offset: 0x110CD9, size: 0x8, addend: 0x0, symName: _OUTLINED_FUNCTION_305, symObjAddr: 0x3C5A8, symBinAddr: 0x3B1A8, symSize: 0xC }
  - { offset: 0x110CF0, size: 0x8, addend: 0x0, symName: _OUTLINED_FUNCTION_306, symObjAddr: 0x3C5B4, symBinAddr: 0x3B1B4, symSize: 0xC }
  - { offset: 0x110D07, size: 0x8, addend: 0x0, symName: _OUTLINED_FUNCTION_330, symObjAddr: 0x3C6F8, symBinAddr: 0x3B2F8, symSize: 0xC }
  - { offset: 0x110D1E, size: 0x8, addend: 0x0, symName: _OUTLINED_FUNCTION_344, symObjAddr: 0x3C7B4, symBinAddr: 0x3B3B4, symSize: 0x8 }
  - { offset: 0x110D35, size: 0x8, addend: 0x0, symName: _OUTLINED_FUNCTION_390, symObjAddr: 0x3CA7C, symBinAddr: 0x3B67C, symSize: 0x8 }
  - { offset: 0x110D4C, size: 0x8, addend: 0x0, symName: _OUTLINED_FUNCTION_401, symObjAddr: 0x3CB14, symBinAddr: 0x3B714, symSize: 0xC }
  - { offset: 0x110D63, size: 0x8, addend: 0x0, symName: _OUTLINED_FUNCTION_412, symObjAddr: 0x3CB98, symBinAddr: 0x3B798, symSize: 0x8 }
  - { offset: 0x110D7A, size: 0x8, addend: 0x0, symName: _OUTLINED_FUNCTION_418, symObjAddr: 0x3CBF0, symBinAddr: 0x3B7F0, symSize: 0xC }
  - { offset: 0x110D91, size: 0x8, addend: 0x0, symName: _OUTLINED_FUNCTION_426, symObjAddr: 0x3CC40, symBinAddr: 0x3B840, symSize: 0x8 }
  - { offset: 0x110DA8, size: 0x8, addend: 0x0, symName: _OUTLINED_FUNCTION_430, symObjAddr: 0x3CC60, symBinAddr: 0x3B860, symSize: 0x8 }
  - { offset: 0x110DBF, size: 0x8, addend: 0x0, symName: _OUTLINED_FUNCTION_470, symObjAddr: 0x3CE94, symBinAddr: 0x3BA94, symSize: 0x1C }
  - { offset: 0x110DD6, size: 0x8, addend: 0x0, symName: _OUTLINED_FUNCTION_479, symObjAddr: 0x3CF2C, symBinAddr: 0x3BB2C, symSize: 0x1C }
  - { offset: 0x110DED, size: 0x8, addend: 0x0, symName: _OUTLINED_FUNCTION_485, symObjAddr: 0x3CF84, symBinAddr: 0x3BB84, symSize: 0x1C }
  - { offset: 0x110E04, size: 0x8, addend: 0x0, symName: _OUTLINED_FUNCTION_500, symObjAddr: 0x3D074, symBinAddr: 0x3BC74, symSize: 0xC }
  - { offset: 0x110E1B, size: 0x8, addend: 0x0, symName: _OUTLINED_FUNCTION_501, symObjAddr: 0x3D080, symBinAddr: 0x3BC80, symSize: 0xC }
  - { offset: 0x110E32, size: 0x8, addend: 0x0, symName: _OUTLINED_FUNCTION_502, symObjAddr: 0x3D08C, symBinAddr: 0x3BC8C, symSize: 0xC }
  - { offset: 0x110E49, size: 0x8, addend: 0x0, symName: _OUTLINED_FUNCTION_511, symObjAddr: 0x3D120, symBinAddr: 0x3BD20, symSize: 0xC }
  - { offset: 0x110E60, size: 0x8, addend: 0x0, symName: _OUTLINED_FUNCTION_516, symObjAddr: 0x3D164, symBinAddr: 0x3BD64, symSize: 0x14 }
  - { offset: 0x110E77, size: 0x8, addend: 0x0, symName: _OUTLINED_FUNCTION_539, symObjAddr: 0x3D2D4, symBinAddr: 0x3BED4, symSize: 0x8 }
  - { offset: 0x110E8E, size: 0x8, addend: 0x0, symName: _OUTLINED_FUNCTION_569, symObjAddr: 0x3D440, symBinAddr: 0x3C040, symSize: 0xC }
  - { offset: 0x110EA5, size: 0x8, addend: 0x0, symName: _OUTLINED_FUNCTION_586, symObjAddr: 0x3D52C, symBinAddr: 0x3C12C, symSize: 0x10 }
  - { offset: 0x110EBC, size: 0x8, addend: 0x0, symName: _OUTLINED_FUNCTION_594, symObjAddr: 0x3D590, symBinAddr: 0x3C190, symSize: 0x10 }
  - { offset: 0x110ED3, size: 0x8, addend: 0x0, symName: _OUTLINED_FUNCTION_599, symObjAddr: 0x3D5D8, symBinAddr: 0x3C1D8, symSize: 0xC }
  - { offset: 0x110EEA, size: 0x8, addend: 0x0, symName: _OUTLINED_FUNCTION_616, symObjAddr: 0x3D6B0, symBinAddr: 0x3C2B0, symSize: 0x24 }
  - { offset: 0x110F01, size: 0x8, addend: 0x0, symName: _OUTLINED_FUNCTION_617, symObjAddr: 0x3D6D4, symBinAddr: 0x3C2D4, symSize: 0xC }
  - { offset: 0x110F18, size: 0x8, addend: 0x0, symName: _OUTLINED_FUNCTION_622, symObjAddr: 0x3D740, symBinAddr: 0x3C340, symSize: 0xC }
  - { offset: 0x110F2F, size: 0x8, addend: 0x0, symName: _OUTLINED_FUNCTION_627, symObjAddr: 0x3D7AC, symBinAddr: 0x3C3AC, symSize: 0x24 }
  - { offset: 0x110F46, size: 0x8, addend: 0x0, symName: _OUTLINED_FUNCTION_635, symObjAddr: 0x3D83C, symBinAddr: 0x3C43C, symSize: 0xC }
  - { offset: 0x110F5D, size: 0x8, addend: 0x0, symName: _OUTLINED_FUNCTION_636, symObjAddr: 0x3D848, symBinAddr: 0x3C448, symSize: 0xC }
  - { offset: 0x110F74, size: 0x8, addend: 0x0, symName: _OUTLINED_FUNCTION_639, symObjAddr: 0x3D86C, symBinAddr: 0x3C46C, symSize: 0xC }
  - { offset: 0x110F8B, size: 0x8, addend: 0x0, symName: _OUTLINED_FUNCTION_645, symObjAddr: 0x3D8CC, symBinAddr: 0x3C4CC, symSize: 0x8 }
  - { offset: 0x110FA2, size: 0x8, addend: 0x0, symName: _OUTLINED_FUNCTION_650, symObjAddr: 0x3D900, symBinAddr: 0x3C500, symSize: 0x14 }
  - { offset: 0x110FB9, size: 0x8, addend: 0x0, symName: _OUTLINED_FUNCTION_689, symObjAddr: 0x3DB2C, symBinAddr: 0x3C72C, symSize: 0xC }
  - { offset: 0x110FD0, size: 0x8, addend: 0x0, symName: _OUTLINED_FUNCTION_706, symObjAddr: 0x3DC48, symBinAddr: 0x3C848, symSize: 0x1C }
  - { offset: 0x110FE7, size: 0x8, addend: 0x0, symName: _OUTLINED_FUNCTION_710, symObjAddr: 0x3DCA8, symBinAddr: 0x3C8A8, symSize: 0x8 }
  - { offset: 0x110FFE, size: 0x8, addend: 0x0, symName: _OUTLINED_FUNCTION_711, symObjAddr: 0x3DCB0, symBinAddr: 0x3C8B0, symSize: 0x8 }
  - { offset: 0x111015, size: 0x8, addend: 0x0, symName: _OUTLINED_FUNCTION_729, symObjAddr: 0x3DD7C, symBinAddr: 0x3C97C, symSize: 0xC }
  - { offset: 0x11102C, size: 0x8, addend: 0x0, symName: _OUTLINED_FUNCTION_731, symObjAddr: 0x3DD94, symBinAddr: 0x3C994, symSize: 0x8 }
  - { offset: 0x111043, size: 0x8, addend: 0x0, symName: _OUTLINED_FUNCTION_753, symObjAddr: 0x3DEC0, symBinAddr: 0x3CAC0, symSize: 0x8 }
  - { offset: 0x11105A, size: 0x8, addend: 0x0, symName: _OUTLINED_FUNCTION_806, symObjAddr: 0x3E13C, symBinAddr: 0x3CD3C, symSize: 0xC }
  - { offset: 0x111071, size: 0x8, addend: 0x0, symName: _OUTLINED_FUNCTION_807, symObjAddr: 0x3E148, symBinAddr: 0x3CD48, symSize: 0x1C }
  - { offset: 0x111088, size: 0x8, addend: 0x0, symName: _OUTLINED_FUNCTION_824, symObjAddr: 0x3E234, symBinAddr: 0x3CE34, symSize: 0x8 }
  - { offset: 0x11109F, size: 0x8, addend: 0x0, symName: _OUTLINED_FUNCTION_848, symObjAddr: 0x3E3A4, symBinAddr: 0x3CFA4, symSize: 0x10 }
  - { offset: 0x1110B6, size: 0x8, addend: 0x0, symName: _OUTLINED_FUNCTION_860, symObjAddr: 0x3E464, symBinAddr: 0x3D064, symSize: 0x10 }
  - { offset: 0x1110CD, size: 0x8, addend: 0x0, symName: _OUTLINED_FUNCTION_867, symObjAddr: 0x3E4E0, symBinAddr: 0x3D0E0, symSize: 0x18 }
  - { offset: 0x1110E4, size: 0x8, addend: 0x0, symName: _OUTLINED_FUNCTION_868, symObjAddr: 0x3E4F8, symBinAddr: 0x3D0F8, symSize: 0x18 }
  - { offset: 0x1110FB, size: 0x8, addend: 0x0, symName: _OUTLINED_FUNCTION_874, symObjAddr: 0x3E57C, symBinAddr: 0x3D17C, symSize: 0xC }
  - { offset: 0x111112, size: 0x8, addend: 0x0, symName: _OUTLINED_FUNCTION_892, symObjAddr: 0x3E684, symBinAddr: 0x3D284, symSize: 0x18 }
  - { offset: 0x111129, size: 0x8, addend: 0x0, symName: _OUTLINED_FUNCTION_900, symObjAddr: 0x3E720, symBinAddr: 0x3D320, symSize: 0xC }
  - { offset: 0x111140, size: 0x8, addend: 0x0, symName: _OUTLINED_FUNCTION_903, symObjAddr: 0x3E744, symBinAddr: 0x3D344, symSize: 0xC }
  - { offset: 0x111157, size: 0x8, addend: 0x0, symName: _OUTLINED_FUNCTION_914, symObjAddr: 0x3E7D4, symBinAddr: 0x3D3D4, symSize: 0xC }
  - { offset: 0x11116E, size: 0x8, addend: 0x0, symName: _OUTLINED_FUNCTION_928, symObjAddr: 0x3E87C, symBinAddr: 0x3D47C, symSize: 0x18 }
  - { offset: 0x111185, size: 0x8, addend: 0x0, symName: _OUTLINED_FUNCTION_931, symObjAddr: 0x3E8A8, symBinAddr: 0x3D4A8, symSize: 0xC }
  - { offset: 0x11119C, size: 0x8, addend: 0x0, symName: _OUTLINED_FUNCTION_932, symObjAddr: 0x3E8B4, symBinAddr: 0x3D4B4, symSize: 0xC }
  - { offset: 0x1111B3, size: 0x8, addend: 0x0, symName: _OUTLINED_FUNCTION_991, symObjAddr: 0x3EB3C, symBinAddr: 0x3D73C, symSize: 0xC }
  - { offset: 0x1111CA, size: 0x8, addend: 0x0, symName: _OUTLINED_FUNCTION_1002, symObjAddr: 0x3EBA4, symBinAddr: 0x3D7A4, symSize: 0x8 }
  - { offset: 0x1111E1, size: 0x8, addend: 0x0, symName: _OUTLINED_FUNCTION_1009, symObjAddr: 0x3EBE4, symBinAddr: 0x3D7E4, symSize: 0x8 }
  - { offset: 0x1111F8, size: 0x8, addend: 0x0, symName: _OUTLINED_FUNCTION_1021, symObjAddr: 0x3EC58, symBinAddr: 0x3D858, symSize: 0xC }
  - { offset: 0x11120F, size: 0x8, addend: 0x0, symName: _OUTLINED_FUNCTION_1037, symObjAddr: 0x3ECF0, symBinAddr: 0x3D8F0, symSize: 0xC }
  - { offset: 0x111226, size: 0x8, addend: 0x0, symName: _OUTLINED_FUNCTION_1042, symObjAddr: 0x3ED24, symBinAddr: 0x3D924, symSize: 0xC }
  - { offset: 0x11123D, size: 0x8, addend: 0x0, symName: _OUTLINED_FUNCTION_1078, symObjAddr: 0x3EE7C, symBinAddr: 0x3DA7C, symSize: 0x8 }
  - { offset: 0x111254, size: 0x8, addend: 0x0, symName: _OUTLINED_FUNCTION_1089, symObjAddr: 0x3EEDC, symBinAddr: 0x3DADC, symSize: 0xC }
  - { offset: 0x11126B, size: 0x8, addend: 0x0, symName: _OUTLINED_FUNCTION_1095, symObjAddr: 0x3EF1C, symBinAddr: 0x3DB1C, symSize: 0xC }
  - { offset: 0x111282, size: 0x8, addend: 0x0, symName: _OUTLINED_FUNCTION_1098, symObjAddr: 0x3EF38, symBinAddr: 0x3DB38, symSize: 0xC }
  - { offset: 0x111299, size: 0x8, addend: 0x0, symName: _OUTLINED_FUNCTION_1104, symObjAddr: 0x3EF84, symBinAddr: 0x3DB84, symSize: 0xC }
  - { offset: 0x1112B0, size: 0x8, addend: 0x0, symName: _OUTLINED_FUNCTION_1105, symObjAddr: 0x3EF90, symBinAddr: 0x3DB90, symSize: 0xC }
  - { offset: 0x1112C7, size: 0x8, addend: 0x0, symName: _OUTLINED_FUNCTION_1107, symObjAddr: 0x3EFA8, symBinAddr: 0x3DBA8, symSize: 0x14 }
  - { offset: 0x1112DE, size: 0x8, addend: 0x0, symName: _OUTLINED_FUNCTION_1117, symObjAddr: 0x3F050, symBinAddr: 0x3DC50, symSize: 0xC }
  - { offset: 0x1112F5, size: 0x8, addend: 0x0, symName: _OUTLINED_FUNCTION_1120, symObjAddr: 0x3F07C, symBinAddr: 0x3DC7C, symSize: 0xC }
  - { offset: 0x11130C, size: 0x8, addend: 0x0, symName: _OUTLINED_FUNCTION_1152, symObjAddr: 0x3F25C, symBinAddr: 0x3DE5C, symSize: 0xC }
  - { offset: 0x111323, size: 0x8, addend: 0x0, symName: _OUTLINED_FUNCTION_1153, symObjAddr: 0x3F268, symBinAddr: 0x3DE68, symSize: 0xC }
  - { offset: 0x11133A, size: 0x8, addend: 0x0, symName: _OUTLINED_FUNCTION_1168, symObjAddr: 0x3F354, symBinAddr: 0x3DF54, symSize: 0x14 }
  - { offset: 0x111351, size: 0x8, addend: 0x0, symName: _OUTLINED_FUNCTION_1173, symObjAddr: 0x3F398, symBinAddr: 0x3DF98, symSize: 0xC }
  - { offset: 0x111368, size: 0x8, addend: 0x0, symName: _OUTLINED_FUNCTION_1174, symObjAddr: 0x3F3A4, symBinAddr: 0x3DFA4, symSize: 0xC }
  - { offset: 0x11137F, size: 0x8, addend: 0x0, symName: _OUTLINED_FUNCTION_1181, symObjAddr: 0x3F410, symBinAddr: 0x3E010, symSize: 0xC }
  - { offset: 0x111396, size: 0x8, addend: 0x0, symName: _OUTLINED_FUNCTION_1184, symObjAddr: 0x3F444, symBinAddr: 0x3E044, symSize: 0xC }
  - { offset: 0x1113AD, size: 0x8, addend: 0x0, symName: _OUTLINED_FUNCTION_1185, symObjAddr: 0x3F450, symBinAddr: 0x3E050, symSize: 0xC }
  - { offset: 0x1113C4, size: 0x8, addend: 0x0, symName: _OUTLINED_FUNCTION_1186, symObjAddr: 0x3F45C, symBinAddr: 0x3E05C, symSize: 0xC }
  - { offset: 0x1113DB, size: 0x8, addend: 0x0, symName: _OUTLINED_FUNCTION_1188, symObjAddr: 0x3F474, symBinAddr: 0x3E074, symSize: 0x14 }
  - { offset: 0x1113F2, size: 0x8, addend: 0x0, symName: _OUTLINED_FUNCTION_1194, symObjAddr: 0x3F4C4, symBinAddr: 0x3E0C4, symSize: 0xC }
  - { offset: 0x111409, size: 0x8, addend: 0x0, symName: _OUTLINED_FUNCTION_1201, symObjAddr: 0x3F520, symBinAddr: 0x3E120, symSize: 0xC }
  - { offset: 0x111420, size: 0x8, addend: 0x0, symName: _OUTLINED_FUNCTION_1207, symObjAddr: 0x3F598, symBinAddr: 0x3E198, symSize: 0x1C }
  - { offset: 0x111437, size: 0x8, addend: 0x0, symName: _OUTLINED_FUNCTION_1209, symObjAddr: 0x3F5D0, symBinAddr: 0x3E1D0, symSize: 0x1C }
  - { offset: 0x11144E, size: 0x8, addend: 0x0, symName: _OUTLINED_FUNCTION_1210, symObjAddr: 0x3F5EC, symBinAddr: 0x3E1EC, symSize: 0x1C }
  - { offset: 0xDDAE7, size: 0x8, addend: 0x0, symName: '__ZN45_$LT$T$u20$as$u20$alloc..string..ToString$GT$9to_string17h946b0427e9dfbcfcE', symObjAddr: 0x1A334, symBinAddr: 0x19EB4, symSize: 0x5C }
  - { offset: 0xDDBD9, size: 0x8, addend: 0x0, symName: '__ZN58_$LT$alloc..string..String$u20$as$u20$core..fmt..Write$GT$10write_char17he88dc481726ff1a5E.1222', symObjAddr: 0x1A4C8, symBinAddr: 0x1A048, symSize: 0x68 }
  - { offset: 0xDE5F1, size: 0x8, addend: 0x0, symName: '__ZN63_$LT$alloc..alloc..Global$u20$as$u20$core..alloc..Allocator$GT$8allocate17ha41d90b31a1caff6E.1180', symObjAddr: 0x18E54, symBinAddr: 0x189D4, symSize: 0x4 }
  - { offset: 0xDE644, size: 0x8, addend: 0x0, symName: __ZN5alloc5alloc15exchange_malloc17haebdea0162a682c3E.1203, symObjAddr: 0x18E78, symBinAddr: 0x189F8, symSize: 0x1C }
  - { offset: 0xDF41F, size: 0x8, addend: 0x0, symName: '__ZN5alloc5boxed16Box$LT$T$C$A$GT$13new_uninit_in17hc87b2ac06b6e6040E', symObjAddr: 0x18E58, symBinAddr: 0x189D8, symSize: 0x20 }
  - { offset: 0xDF62B, size: 0x8, addend: 0x0, symName: '__ZN69_$LT$alloc..boxed..Box$LT$T$C$A$GT$$u20$as$u20$core..fmt..Display$GT$3fmt17h43ff0b4f13c1beabE', symObjAddr: 0x18EF0, symBinAddr: 0x18A70, symSize: 0x210 }
  - { offset: 0xE2256, size: 0x8, addend: 0x0, symName: '__ZN4core3ptr65drop_in_place$LT$powersync_core..checkpoint..CheckpointResult$GT$17h41c847307ab25d72E', symObjAddr: 0x196B4, symBinAddr: 0x19234, symSize: 0x20 }
  - { offset: 0xE22D9, size: 0x8, addend: 0x0, symName: '__ZN4core3ptr97drop_in_place$LT$alloc..vec..Vec$LT$powersync_core..sync..checkpoint..OwnedBucketChecksum$GT$$GT$17hee561d88ae8f2b0aE', symObjAddr: 0x196D4, symBinAddr: 0x19254, symSize: 0x54 }
  - { offset: 0xE2456, size: 0x8, addend: 0x0, symName: '__ZN4core3ptr59drop_in_place$LT$powersync_core..sync..line..Checkpoint$GT$17h4da5b9df7cc8b517E.1209', symObjAddr: 0x19728, symBinAddr: 0x192A8, symSize: 0x40 }
  - { offset: 0xE2681, size: 0x8, addend: 0x0, symName: '__ZN4core3ptr58drop_in_place$LT$powersync_core..error..PowerSyncError$GT$17h14b396dea537116dE', symObjAddr: 0x1A390, symBinAddr: 0x19F10, symSize: 0x64 }
  - { offset: 0xE2902, size: 0x8, addend: 0x0, symName: '__ZN4core3ptr63drop_in_place$LT$powersync_core..error..PowerSyncErrorCause$GT$17h8fe44e496262594bE', symObjAddr: 0x1A464, symBinAddr: 0x19FE4, symSize: 0x64 }
  - { offset: 0xE2C64, size: 0x8, addend: 0x0, symName: '__ZN4core3ptr74drop_in_place$LT$powersync_core..sync..sync_status..DownloadSyncStatus$GT$17ha1c3ace4a54c0baaE', symObjAddr: 0x1C858, symBinAddr: 0x1C3D8, symSize: 0x48 }
  - { offset: 0xE2D59, size: 0x8, addend: 0x0, symName: '__ZN4core3ptr81drop_in_place$LT$alloc..sync..Arc$LT$powersync_core..state..DatabaseState$GT$$GT$17h4b8f2fffd9516650E', symObjAddr: 0x1C8A0, symBinAddr: 0x1C420, symSize: 0x24 }
  - { offset: 0xE2D84, size: 0x8, addend: 0x0, symName: '__ZN4core3ptr81drop_in_place$LT$alloc..sync..Arc$LT$powersync_core..state..DatabaseState$GT$$GT$17h4b8f2fffd9516650E', symObjAddr: 0x1C8A0, symBinAddr: 0x1C420, symSize: 0x24 }
  - { offset: 0xE2DA2, size: 0x8, addend: 0x0, symName: '__ZN4core3ptr81drop_in_place$LT$alloc..sync..Arc$LT$powersync_core..state..DatabaseState$GT$$GT$17h4b8f2fffd9516650E', symObjAddr: 0x1C8A0, symBinAddr: 0x1C420, symSize: 0x24 }
  - { offset: 0xE2DBE, size: 0x8, addend: 0x0, symName: '__ZN4core3ptr81drop_in_place$LT$alloc..sync..Arc$LT$powersync_core..state..DatabaseState$GT$$GT$17h4b8f2fffd9516650E', symObjAddr: 0x1C8A0, symBinAddr: 0x1C420, symSize: 0x24 }
  - { offset: 0xE2E6F, size: 0x8, addend: 0x0, symName: '__ZN4core3ptr88drop_in_place$LT$alloc..vec..Vec$LT$powersync_core..sync..interface..Instruction$GT$$GT$17h3ea299d5790cf768E', symObjAddr: 0x1C8E4, symBinAddr: 0x1C464, symSize: 0x24 }
  - { offset: 0xE347C, size: 0x8, addend: 0x0, symName: '__ZN44_$LT$$RF$T$u20$as$u20$core..fmt..Display$GT$3fmt17h3afe895f14481a5eE', symObjAddr: 0x18B20, symBinAddr: 0x186A0, symSize: 0xC }
  - { offset: 0xE76C1, size: 0x8, addend: 0x0, symName: __ZN4core3ops8function6FnOnce9call_once17h49c316181f641569E, symObjAddr: 0x18ECC, symBinAddr: 0x18A4C, symSize: 0x24 }
  - { offset: 0xE7E2B, size: 0x8, addend: 0x0, symName: __ZN14powersync_core15operations_vtab6MODULE17h40d06878a7bbc495E, symObjAddr: 0x4D620, symBinAddr: 0x50F08, symSize: 0x0 }
  - { offset: 0xE7E7D, size: 0x8, addend: 0x0, symName: __ZN14powersync_core15operations_vtab7connect17hcd8e4a134f1bfc95E, symObjAddr: 0x19888, symBinAddr: 0x19408, symSize: 0x78 }
  - { offset: 0xE800C, size: 0x8, addend: 0x0, symName: __ZN14powersync_core15operations_vtab10disconnect17hf2a115a778ce0ef3E, symObjAddr: 0x19900, symBinAddr: 0x19480, symSize: 0x18 }
  - { offset: 0xE811B, size: 0x8, addend: 0x0, symName: __ZN14powersync_core15operations_vtab6update17h22ceece2059f9472E, symObjAddr: 0x19928, symBinAddr: 0x194A8, symSize: 0x9E4 }
  - { offset: 0xE9978, size: 0x8, addend: 0x0, symName: __ZN14powersync_core4sync9interface8register7control17h1f31fed33ff6b42cE, symObjAddr: 0x1A530, symBinAddr: 0x1A0B0, symSize: 0x218C }
  - { offset: 0xECECC, size: 0x8, addend: 0x0, symName: __ZN14powersync_core4sync9interface8register7destroy17h94008bff095ab4c2E, symObjAddr: 0x1C6BC, symBinAddr: 0x1C23C, symSize: 0x54 }
  - { offset: 0xED516, size: 0x8, addend: 0x0, symName: __ZN14powersync_core4sync9interface29powersync_offline_sync_status17hf8dda633ecc7f3b8E, symObjAddr: 0x1C710, symBinAddr: 0x1C290, symSize: 0x148 }
  - { offset: 0xEE180, size: 0x8, addend: 0x0, symName: '__ZN14powersync_core6schema1_83_$LT$impl$u20$serde..de..Deserialize$u20$for$u20$powersync_core..schema..Schema$GT$11deserialize17hcb2186ef99fa4288E', symObjAddr: 0x1CEA4, symBinAddr: 0x1CA24, symSize: 0x3EC }
  - { offset: 0xEEAE1, size: 0x8, addend: 0x0, symName: __ZN14powersync_core10checkpoint29powersync_validate_checkpoint17h55c540a60c0049f9E, symObjAddr: 0x19100, symBinAddr: 0x18C80, symSize: 0x510 }
  - { offset: 0xEFE88, size: 0x8, addend: 0x0, symName: __ZN14powersync_core9vtab_util12vtab_no_open17h690165db74b5864cE, symObjAddr: 0x19918, symBinAddr: 0x19498, symSize: 0x4 }
  - { offset: 0xEFEA6, size: 0x8, addend: 0x0, symName: __ZN14powersync_core9vtab_util14vtab_no_filter17h618b8d46790aaa59E, symObjAddr: 0x1991C, symBinAddr: 0x1949C, symSize: 0x4 }
  - { offset: 0xEFEC4, size: 0x8, addend: 0x0, symName: __ZN14powersync_core9vtab_util11vtab_no_eof17hf82c77941f48ce82E, symObjAddr: 0x19920, symBinAddr: 0x194A0, symSize: 0x4 }
  - { offset: 0xEFEE2, size: 0x8, addend: 0x0, symName: __ZN14powersync_core9vtab_util14vtab_no_column17h6095115337dba594E, symObjAddr: 0x19924, symBinAddr: 0x194A4, symSize: 0x4 }
  - { offset: 0xEFFA9, size: 0x8, addend: 0x0, symName: __ZN14powersync_core9vtab_util11vtab_result17h61a4fee30a71d5bcE, symObjAddr: 0x1A3F4, symBinAddr: 0x19F74, symSize: 0x70 }
  - { offset: 0xF012F, size: 0x8, addend: 0x0, symName: __ZN14powersync_core12update_hooks22powersync_update_hooks17h41a124f63e27d26bE, symObjAddr: 0x1C908, symBinAddr: 0x1C488, symSize: 0x274 }
  - { offset: 0xF0A9C, size: 0x8, addend: 0x0, symName: __ZN14powersync_core12update_hooks16destroy_function17hd7dd9d5d7da6a6a1E, symObjAddr: 0x1CB7C, symBinAddr: 0x1C6FC, symSize: 0x6C }
  - { offset: 0xF0C0D, size: 0x8, addend: 0x0, symName: __ZN14powersync_core12update_hooks14check_previous17hf8b066b17598920cE, symObjAddr: 0x1CBE8, symBinAddr: 0x1C768, symSize: 0x3C }
  - { offset: 0xF0DF2, size: 0x8, addend: 0x0, symName: __ZN14powersync_core12update_hooks16update_hook_impl17hb8486e71ff57d777E, symObjAddr: 0x1CC24, symBinAddr: 0x1C7A4, symSize: 0xE8 }
  - { offset: 0xF11CE, size: 0x8, addend: 0x0, symName: __ZN14powersync_core12update_hooks16commit_hook_impl17h2f04322e0c80ad3fE, symObjAddr: 0x1CD0C, symBinAddr: 0x1C88C, symSize: 0x154 }
  - { offset: 0xF16FC, size: 0x8, addend: 0x0, symName: __ZN14powersync_core12update_hooks18rollback_hook_impl17h8f06337c45a51b77E, symObjAddr: 0x1CE60, symBinAddr: 0x1C9E0, symSize: 0x44 }
  - { offset: 0xF1F65, size: 0x8, addend: 0x0, symName: '__ZN100_$LT$$BP$mut$u20$sqlite3_capi..bindings..sqlite3_context$u20$as$u20$sqlite_nostd..nostd..Context$GT$9user_data17h863bac080ed626d2E', symObjAddr: 0x1C8C4, symBinAddr: 0x1C444, symSize: 0x20 }
  - { offset: 0xF1F93, size: 0x8, addend: 0x0, symName: '__ZN100_$LT$$BP$mut$u20$sqlite3_capi..bindings..sqlite3_context$u20$as$u20$sqlite_nostd..nostd..Context$GT$9user_data17h863bac080ed626d2E', symObjAddr: 0x1C8C4, symBinAddr: 0x1C444, symSize: 0x20 }
  - { offset: 0xF2035, size: 0x8, addend: 0x0, symName: '__ZN96_$LT$$BP$mut$u20$sqlite3_capi..bindings..sqlite3_value$u20$as$u20$sqlite_nostd..nostd..Value$GT$10value_type17h1bb16ae90d043dcaE', symObjAddr: 0x1A30C, symBinAddr: 0x19E8C, symSize: 0x28 }
  - { offset: 0xF233C, size: 0x8, addend: 0x0, symName: '__ZN86_$LT$serde_json..ser..Compound$LT$W$C$F$GT$$u20$as$u20$serde..ser..SerializeStruct$GT$15serialize_field17h785ad034cdc053baE.1212', symObjAddr: 0x197C4, symBinAddr: 0x19344, symSize: 0x40 }
  - { offset: 0xF2425, size: 0x8, addend: 0x0, symName: '__ZN86_$LT$serde_json..ser..Compound$LT$W$C$F$GT$$u20$as$u20$serde..ser..SerializeStruct$GT$3end17hda197b685ff2afc9E.1213', symObjAddr: 0x19804, symBinAddr: 0x19384, symSize: 0x20 }
  - { offset: 0xF2852, size: 0x8, addend: 0x0, symName: '__ZN86_$LT$serde_json..ser..Compound$LT$W$C$F$GT$$u20$as$u20$serde..ser..SerializeStruct$GT$15serialize_field17h6f84f85ba029db08E', symObjAddr: 0x1D33C, symBinAddr: 0x1CEBC, symSize: 0x60 }
  - { offset: 0xF2927, size: 0x8, addend: 0x0, symName: '__ZN95_$LT$$RF$mut$u20$serde_json..ser..Serializer$LT$W$C$F$GT$$u20$as$u20$serde..ser..Serializer$GT$16serialize_struct17h256b7d98c422d5fbE.1211', symObjAddr: 0x19768, symBinAddr: 0x192E8, symSize: 0x5C }
  - { offset: 0xF29C5, size: 0x8, addend: 0x0, symName: '__ZN95_$LT$$RF$mut$u20$serde_json..ser..Serializer$LT$W$C$F$GT$$u20$as$u20$serde..ser..Serializer$GT$13serialize_map17h589f8e421e93d055E.1216', symObjAddr: 0x19834, symBinAddr: 0x193B4, symSize: 0x48 }
  - { offset: 0xF2BD6, size: 0x8, addend: 0x0, symName: '__ZN95_$LT$$RF$mut$u20$serde_json..ser..Serializer$LT$W$C$F$GT$$u20$as$u20$serde..ser..Serializer$GT$24serialize_struct_variant17h3b73832c4f9abc94E', symObjAddr: 0x1D290, symBinAddr: 0x1CE10, symSize: 0x64 }
  - { offset: 0xF2CEF, size: 0x8, addend: 0x0, symName: __ZN10serde_json3ser9Formatter10end_object17h3c93583157809c3bE.1214, symObjAddr: 0x19824, symBinAddr: 0x193A4, symSize: 0xC }
  - { offset: 0xF2D3A, size: 0x8, addend: 0x0, symName: __ZN10serde_json3ser9Formatter12begin_object17hdd8cf664a455ba8dE, symObjAddr: 0x1987C, symBinAddr: 0x193FC, symSize: 0xC }
  - { offset: 0xF2D85, size: 0x8, addend: 0x0, symName: __ZN10serde_json3ser9Formatter18begin_object_value17hd5ffad24c818ad54E, symObjAddr: 0x1D2F4, symBinAddr: 0x1CE74, symSize: 0xC }
  - { offset: 0xF306D, size: 0x8, addend: 0x0, symName: '__ZN93_$LT$serde_json..ser..Compound$LT$W$C$F$GT$$u20$as$u20$serde..ser..SerializeStructVariant$GT$3end17h83a1abbcf9c530ceE', symObjAddr: 0x1D300, symBinAddr: 0x1CE80, symSize: 0x3C }
  - { offset: 0xF3783, size: 0x8, addend: 0x0, symName: '__ZN60_$LT$$RF$mut$u20$W$u20$as$u20$serde_json..io..imp..Write$GT$9write_all17h6430a235e22a288dE.1215', symObjAddr: 0x19830, symBinAddr: 0x193B0, symSize: 0x4 }
  - { offset: 0xF41E2, size: 0x8, addend: 0x0, symName: '__ZN41_$LT$T$u20$as$u20$serde..de..Expected$GT$3fmt17h9e4e2011a496a7c8E', symObjAddr: 0x18AF0, symBinAddr: 0x18670, symSize: 0x18 }
  - { offset: 0xF425B, size: 0x8, addend: 0x0, symName: '__ZN41_$LT$T$u20$as$u20$serde..de..Expected$GT$3fmt17hee5672ad67706199E', symObjAddr: 0x18B08, symBinAddr: 0x18688, symSize: 0x18 }
  - { offset: 0xF45FD, size: 0x8, addend: 0x0, symName: '__ZN5alloc11collections5btree3map5entry28VacantEntry$LT$K$C$V$C$A$GT$12insert_entry17h01e9827d61cb110fE', symObjAddr: 0x18B2C, symBinAddr: 0x186AC, symSize: 0x328 }
  - { offset: 0xF4F23, size: 0x8, addend: 0x0, symName: '__ZN4core6result19Result$LT$T$C$E$GT$3map17haaaf8e962ffe9baaE', symObjAddr: 0x18E94, symBinAddr: 0x18A14, symSize: 0x38 }
  - { offset: 0xF5578, size: 0x8, addend: 0x0, symName: '__ZN5alloc7raw_vec20RawVecInner$LT$A$GT$16with_capacity_in17he67208dd9b65800dE.1207', symObjAddr: 0x19610, symBinAddr: 0x19190, symSize: 0x30 }
  - { offset: 0xF5621, size: 0x8, addend: 0x0, symName: '__ZN5alloc3vec12Vec$LT$T$GT$13with_capacity17h474fa6eee7c88f14E', symObjAddr: 0x19640, symBinAddr: 0x191C0, symSize: 0x30 }
  - { offset: 0xF5687, size: 0x8, addend: 0x0, symName: '__ZN4core6result19Result$LT$T$C$E$GT$7map_err17hf96f78e5b0c6ff3aE', symObjAddr: 0x19670, symBinAddr: 0x191F0, symSize: 0x44 }
  - { offset: 0xF6863, size: 0x8, addend: 0x0, symName: _OUTLINED_FUNCTION_23, symObjAddr: 0x3B228, symBinAddr: 0x39E28, symSize: 0x14 }
  - { offset: 0xF687A, size: 0x8, addend: 0x0, symName: _OUTLINED_FUNCTION_107, symObjAddr: 0x3B900, symBinAddr: 0x3A500, symSize: 0x14 }
  - { offset: 0xF6891, size: 0x8, addend: 0x0, symName: _OUTLINED_FUNCTION_142, symObjAddr: 0x3BBEC, symBinAddr: 0x3A7EC, symSize: 0x10 }
  - { offset: 0xF68A8, size: 0x8, addend: 0x0, symName: _OUTLINED_FUNCTION_177, symObjAddr: 0x3BE50, symBinAddr: 0x3AA50, symSize: 0x10 }
  - { offset: 0xF68BF, size: 0x8, addend: 0x0, symName: _OUTLINED_FUNCTION_184, symObjAddr: 0x3BEE0, symBinAddr: 0x3AAE0, symSize: 0x20 }
  - { offset: 0xF68D6, size: 0x8, addend: 0x0, symName: _OUTLINED_FUNCTION_199, symObjAddr: 0x3BFBC, symBinAddr: 0x3ABBC, symSize: 0xC }
  - { offset: 0xF68ED, size: 0x8, addend: 0x0, symName: _OUTLINED_FUNCTION_270, symObjAddr: 0x3C3B8, symBinAddr: 0x3AFB8, symSize: 0x14 }
  - { offset: 0xF6904, size: 0x8, addend: 0x0, symName: _OUTLINED_FUNCTION_273, symObjAddr: 0x3C3EC, symBinAddr: 0x3AFEC, symSize: 0x14 }
  - { offset: 0xF691B, size: 0x8, addend: 0x0, symName: _OUTLINED_FUNCTION_274, symObjAddr: 0x3C400, symBinAddr: 0x3B000, symSize: 0x14 }
  - { offset: 0xF6932, size: 0x8, addend: 0x0, symName: _OUTLINED_FUNCTION_295, symObjAddr: 0x3C534, symBinAddr: 0x3B134, symSize: 0x8 }
  - { offset: 0xF6949, size: 0x8, addend: 0x0, symName: _OUTLINED_FUNCTION_332, symObjAddr: 0x3C714, symBinAddr: 0x3B314, symSize: 0x10 }
  - { offset: 0xF6960, size: 0x8, addend: 0x0, symName: _OUTLINED_FUNCTION_373, symObjAddr: 0x3C954, symBinAddr: 0x3B554, symSize: 0x10 }
  - { offset: 0xF6977, size: 0x8, addend: 0x0, symName: _OUTLINED_FUNCTION_405, symObjAddr: 0x3CB44, symBinAddr: 0x3B744, symSize: 0x24 }
  - { offset: 0xF698E, size: 0x8, addend: 0x0, symName: _OUTLINED_FUNCTION_424, symObjAddr: 0x3CC2C, symBinAddr: 0x3B82C, symSize: 0xC }
  - { offset: 0xF69A5, size: 0x8, addend: 0x0, symName: _OUTLINED_FUNCTION_489, symObjAddr: 0x3CFD4, symBinAddr: 0x3BBD4, symSize: 0x2C }
  - { offset: 0xF69BC, size: 0x8, addend: 0x0, symName: _OUTLINED_FUNCTION_507, symObjAddr: 0x3D0D8, symBinAddr: 0x3BCD8, symSize: 0xC }
  - { offset: 0xF69D3, size: 0x8, addend: 0x0, symName: _OUTLINED_FUNCTION_523, symObjAddr: 0x3D1D4, symBinAddr: 0x3BDD4, symSize: 0x14 }
  - { offset: 0xF69EA, size: 0x8, addend: 0x0, symName: _OUTLINED_FUNCTION_526, symObjAddr: 0x3D208, symBinAddr: 0x3BE08, symSize: 0x28 }
  - { offset: 0xF6A01, size: 0x8, addend: 0x0, symName: _OUTLINED_FUNCTION_536, symObjAddr: 0x3D2BC, symBinAddr: 0x3BEBC, symSize: 0x8 }
  - { offset: 0xF6A18, size: 0x8, addend: 0x0, symName: _OUTLINED_FUNCTION_573, symObjAddr: 0x3D474, symBinAddr: 0x3C074, symSize: 0xC }
  - { offset: 0xF6A2F, size: 0x8, addend: 0x0, symName: _OUTLINED_FUNCTION_579, symObjAddr: 0x3D4BC, symBinAddr: 0x3C0BC, symSize: 0x10 }
  - { offset: 0xF6A46, size: 0x8, addend: 0x0, symName: _OUTLINED_FUNCTION_601, symObjAddr: 0x3D5F0, symBinAddr: 0x3C1F0, symSize: 0xC }
  - { offset: 0xF6A5D, size: 0x8, addend: 0x0, symName: _OUTLINED_FUNCTION_605, symObjAddr: 0x3D618, symBinAddr: 0x3C218, symSize: 0x8 }
  - { offset: 0xF6A74, size: 0x8, addend: 0x0, symName: _OUTLINED_FUNCTION_623, symObjAddr: 0x3D74C, symBinAddr: 0x3C34C, symSize: 0xC }
  - { offset: 0xF6A8B, size: 0x8, addend: 0x0, symName: _OUTLINED_FUNCTION_624, symObjAddr: 0x3D758, symBinAddr: 0x3C358, symSize: 0xC }
  - { offset: 0xF6AA2, size: 0x8, addend: 0x0, symName: _OUTLINED_FUNCTION_625, symObjAddr: 0x3D764, symBinAddr: 0x3C364, symSize: 0x24 }
  - { offset: 0xF6AB9, size: 0x8, addend: 0x0, symName: _OUTLINED_FUNCTION_637, symObjAddr: 0x3D854, symBinAddr: 0x3C454, symSize: 0xC }
  - { offset: 0xF6AD0, size: 0x8, addend: 0x0, symName: _OUTLINED_FUNCTION_647, symObjAddr: 0x3D8DC, symBinAddr: 0x3C4DC, symSize: 0x8 }
  - { offset: 0xF6AE7, size: 0x8, addend: 0x0, symName: _OUTLINED_FUNCTION_648, symObjAddr: 0x3D8E4, symBinAddr: 0x3C4E4, symSize: 0x14 }
  - { offset: 0xF6AFE, size: 0x8, addend: 0x0, symName: _OUTLINED_FUNCTION_653, symObjAddr: 0x3D930, symBinAddr: 0x3C530, symSize: 0x14 }
  - { offset: 0xF6B15, size: 0x8, addend: 0x0, symName: _OUTLINED_FUNCTION_654, symObjAddr: 0x3D944, symBinAddr: 0x3C544, symSize: 0x8 }
  - { offset: 0xF6B2C, size: 0x8, addend: 0x0, symName: _OUTLINED_FUNCTION_655, symObjAddr: 0x3D94C, symBinAddr: 0x3C54C, symSize: 0x8 }
  - { offset: 0xF6B43, size: 0x8, addend: 0x0, symName: _OUTLINED_FUNCTION_679, symObjAddr: 0x3DAA0, symBinAddr: 0x3C6A0, symSize: 0xC }
  - { offset: 0xF6B5A, size: 0x8, addend: 0x0, symName: _OUTLINED_FUNCTION_681, symObjAddr: 0x3DACC, symBinAddr: 0x3C6CC, symSize: 0xC }
  - { offset: 0xF6B71, size: 0x8, addend: 0x0, symName: _OUTLINED_FUNCTION_682, symObjAddr: 0x3DAD8, symBinAddr: 0x3C6D8, symSize: 0xC }
  - { offset: 0xF6B88, size: 0x8, addend: 0x0, symName: _OUTLINED_FUNCTION_690, symObjAddr: 0x3DB38, symBinAddr: 0x3C738, symSize: 0x20 }
  - { offset: 0xF6B9F, size: 0x8, addend: 0x0, symName: _OUTLINED_FUNCTION_699, symObjAddr: 0x3DBB8, symBinAddr: 0x3C7B8, symSize: 0xC }
  - { offset: 0xF6BB6, size: 0x8, addend: 0x0, symName: _OUTLINED_FUNCTION_700, symObjAddr: 0x3DBC4, symBinAddr: 0x3C7C4, symSize: 0xC }
  - { offset: 0xF6BCD, size: 0x8, addend: 0x0, symName: _OUTLINED_FUNCTION_717, symObjAddr: 0x3DD04, symBinAddr: 0x3C904, symSize: 0xC }
  - { offset: 0xF6BE4, size: 0x8, addend: 0x0, symName: _OUTLINED_FUNCTION_718, symObjAddr: 0x3DD10, symBinAddr: 0x3C910, symSize: 0xC }
  - { offset: 0xF6BFB, size: 0x8, addend: 0x0, symName: _OUTLINED_FUNCTION_720, symObjAddr: 0x3DD24, symBinAddr: 0x3C924, symSize: 0x8 }
  - { offset: 0xF6C12, size: 0x8, addend: 0x0, symName: _OUTLINED_FUNCTION_721, symObjAddr: 0x3DD2C, symBinAddr: 0x3C92C, symSize: 0x8 }
  - { offset: 0xF6C29, size: 0x8, addend: 0x0, symName: _OUTLINED_FUNCTION_722, symObjAddr: 0x3DD34, symBinAddr: 0x3C934, symSize: 0x8 }
  - { offset: 0xF6C40, size: 0x8, addend: 0x0, symName: _OUTLINED_FUNCTION_734, symObjAddr: 0x3DDB4, symBinAddr: 0x3C9B4, symSize: 0x8 }
  - { offset: 0xF6C57, size: 0x8, addend: 0x0, symName: _OUTLINED_FUNCTION_747, symObjAddr: 0x3DE58, symBinAddr: 0x3CA58, symSize: 0x10 }
  - { offset: 0xF6C6E, size: 0x8, addend: 0x0, symName: _OUTLINED_FUNCTION_750, symObjAddr: 0x3DE84, symBinAddr: 0x3CA84, symSize: 0x1C }
  - { offset: 0xF6C85, size: 0x8, addend: 0x0, symName: _OUTLINED_FUNCTION_752, symObjAddr: 0x3DEA8, symBinAddr: 0x3CAA8, symSize: 0x18 }
  - { offset: 0xF6C9C, size: 0x8, addend: 0x0, symName: _OUTLINED_FUNCTION_756, symObjAddr: 0x3DEDC, symBinAddr: 0x3CADC, symSize: 0x8 }
  - { offset: 0xF6CB3, size: 0x8, addend: 0x0, symName: _OUTLINED_FUNCTION_769, symObjAddr: 0x3DF98, symBinAddr: 0x3CB98, symSize: 0xC }
  - { offset: 0xF6CCA, size: 0x8, addend: 0x0, symName: _OUTLINED_FUNCTION_803, symObjAddr: 0x3E11C, symBinAddr: 0x3CD1C, symSize: 0x8 }
  - { offset: 0xF6CE1, size: 0x8, addend: 0x0, symName: _OUTLINED_FUNCTION_837, symObjAddr: 0x3E2F4, symBinAddr: 0x3CEF4, symSize: 0x10 }
  - { offset: 0xF6CF8, size: 0x8, addend: 0x0, symName: _OUTLINED_FUNCTION_843, symObjAddr: 0x3E354, symBinAddr: 0x3CF54, symSize: 0x10 }
  - { offset: 0xF6D0F, size: 0x8, addend: 0x0, symName: _OUTLINED_FUNCTION_850, symObjAddr: 0x3E3C4, symBinAddr: 0x3CFC4, symSize: 0x10 }
  - { offset: 0xF6D26, size: 0x8, addend: 0x0, symName: _OUTLINED_FUNCTION_858, symObjAddr: 0x3E444, symBinAddr: 0x3D044, symSize: 0x10 }
  - { offset: 0xF6D3D, size: 0x8, addend: 0x0, symName: _OUTLINED_FUNCTION_859, symObjAddr: 0x3E454, symBinAddr: 0x3D054, symSize: 0x10 }
  - { offset: 0xF6D54, size: 0x8, addend: 0x0, symName: _OUTLINED_FUNCTION_863, symObjAddr: 0x3E494, symBinAddr: 0x3D094, symSize: 0x10 }
  - { offset: 0xF6D6B, size: 0x8, addend: 0x0, symName: _OUTLINED_FUNCTION_880, symObjAddr: 0x3E5D0, symBinAddr: 0x3D1D0, symSize: 0xC }
  - { offset: 0xF6D82, size: 0x8, addend: 0x0, symName: _OUTLINED_FUNCTION_884, symObjAddr: 0x3E618, symBinAddr: 0x3D218, symSize: 0xC }
  - { offset: 0xF6D99, size: 0x8, addend: 0x0, symName: _OUTLINED_FUNCTION_890, symObjAddr: 0x3E66C, symBinAddr: 0x3D26C, symSize: 0xC }
  - { offset: 0xF6DB0, size: 0x8, addend: 0x0, symName: _OUTLINED_FUNCTION_954, symObjAddr: 0x3E9BC, symBinAddr: 0x3D5BC, symSize: 0x8 }
  - { offset: 0xF6DC7, size: 0x8, addend: 0x0, symName: _OUTLINED_FUNCTION_960, symObjAddr: 0x3E9FC, symBinAddr: 0x3D5FC, symSize: 0x8 }
  - { offset: 0xF6DDE, size: 0x8, addend: 0x0, symName: _OUTLINED_FUNCTION_963, symObjAddr: 0x3EA18, symBinAddr: 0x3D618, symSize: 0xC }
  - { offset: 0xF6DF5, size: 0x8, addend: 0x0, symName: _OUTLINED_FUNCTION_969, symObjAddr: 0x3EA5C, symBinAddr: 0x3D65C, symSize: 0x8 }
  - { offset: 0xF6E0C, size: 0x8, addend: 0x0, symName: _OUTLINED_FUNCTION_971, symObjAddr: 0x3EA70, symBinAddr: 0x3D670, symSize: 0xC }
  - { offset: 0xF6E23, size: 0x8, addend: 0x0, symName: _OUTLINED_FUNCTION_979, symObjAddr: 0x3EAC0, symBinAddr: 0x3D6C0, symSize: 0xC }
  - { offset: 0xF6E3A, size: 0x8, addend: 0x0, symName: _OUTLINED_FUNCTION_980, symObjAddr: 0x3EACC, symBinAddr: 0x3D6CC, symSize: 0x8 }
  - { offset: 0xF6E51, size: 0x8, addend: 0x0, symName: _OUTLINED_FUNCTION_981, symObjAddr: 0x3EAD4, symBinAddr: 0x3D6D4, symSize: 0x8 }
  - { offset: 0xF6E68, size: 0x8, addend: 0x0, symName: _OUTLINED_FUNCTION_982, symObjAddr: 0x3EADC, symBinAddr: 0x3D6DC, symSize: 0xC }
  - { offset: 0xF6E7F, size: 0x8, addend: 0x0, symName: _OUTLINED_FUNCTION_983, symObjAddr: 0x3EAE8, symBinAddr: 0x3D6E8, symSize: 0x8 }
  - { offset: 0xF6E96, size: 0x8, addend: 0x0, symName: _OUTLINED_FUNCTION_989, symObjAddr: 0x3EB20, symBinAddr: 0x3D720, symSize: 0x8 }
  - { offset: 0xF6EAD, size: 0x8, addend: 0x0, symName: _OUTLINED_FUNCTION_992, symObjAddr: 0x3EB48, symBinAddr: 0x3D748, symSize: 0xC }
  - { offset: 0xF6EC4, size: 0x8, addend: 0x0, symName: _OUTLINED_FUNCTION_995, symObjAddr: 0x3EB64, symBinAddr: 0x3D764, symSize: 0x8 }
  - { offset: 0xF6EDB, size: 0x8, addend: 0x0, symName: _OUTLINED_FUNCTION_1005, symObjAddr: 0x3EBC0, symBinAddr: 0x3D7C0, symSize: 0x8 }
  - { offset: 0xF6EF2, size: 0x8, addend: 0x0, symName: _OUTLINED_FUNCTION_1010, symObjAddr: 0x3EBEC, symBinAddr: 0x3D7EC, symSize: 0x8 }
  - { offset: 0xF6F09, size: 0x8, addend: 0x0, symName: _OUTLINED_FUNCTION_1011, symObjAddr: 0x3EBF4, symBinAddr: 0x3D7F4, symSize: 0xC }
  - { offset: 0xF6F20, size: 0x8, addend: 0x0, symName: _OUTLINED_FUNCTION_1033, symObjAddr: 0x3ECCC, symBinAddr: 0x3D8CC, symSize: 0x8 }
  - { offset: 0xF6F37, size: 0x8, addend: 0x0, symName: _OUTLINED_FUNCTION_1088, symObjAddr: 0x3EED4, symBinAddr: 0x3DAD4, symSize: 0x8 }
  - { offset: 0xF6F4E, size: 0x8, addend: 0x0, symName: _OUTLINED_FUNCTION_1110, symObjAddr: 0x3EFDC, symBinAddr: 0x3DBDC, symSize: 0x14 }
  - { offset: 0xF6F65, size: 0x8, addend: 0x0, symName: _OUTLINED_FUNCTION_1116, symObjAddr: 0x3F03C, symBinAddr: 0x3DC3C, symSize: 0x14 }
  - { offset: 0xF6F7C, size: 0x8, addend: 0x0, symName: _OUTLINED_FUNCTION_1118, symObjAddr: 0x3F05C, symBinAddr: 0x3DC5C, symSize: 0xC }
  - { offset: 0xF6F93, size: 0x8, addend: 0x0, symName: _OUTLINED_FUNCTION_1121, symObjAddr: 0x3F088, symBinAddr: 0x3DC88, symSize: 0xC }
  - { offset: 0xF6FAA, size: 0x8, addend: 0x0, symName: _OUTLINED_FUNCTION_1137, symObjAddr: 0x3F188, symBinAddr: 0x3DD88, symSize: 0x14 }
  - { offset: 0xF6FC1, size: 0x8, addend: 0x0, symName: _OUTLINED_FUNCTION_1138, symObjAddr: 0x3F19C, symBinAddr: 0x3DD9C, symSize: 0x14 }
  - { offset: 0xF6FD8, size: 0x8, addend: 0x0, symName: _OUTLINED_FUNCTION_1142, symObjAddr: 0x3F1D4, symBinAddr: 0x3DDD4, symSize: 0xC }
  - { offset: 0xF6FEF, size: 0x8, addend: 0x0, symName: _OUTLINED_FUNCTION_1159, symObjAddr: 0x3F2C8, symBinAddr: 0x3DEC8, symSize: 0xC }
  - { offset: 0xF7006, size: 0x8, addend: 0x0, symName: _OUTLINED_FUNCTION_1160, symObjAddr: 0x3F2D4, symBinAddr: 0x3DED4, symSize: 0xC }
  - { offset: 0x16B405, size: 0x8, addend: 0x0, symName: '__ZN14powersync_core4sync14streaming_sync22StreamingSyncIteration3run28_$u7b$$u7b$closure$u7d$$u7d$17h7779242e58b96f0dE', symObjAddr: 0x2D05C, symBinAddr: 0x2C294, symSize: 0x329C }
  - { offset: 0x172902, size: 0x8, addend: 0x0, symName: '__ZN105_$LT$powersync_core..sync..streaming_sync..RequestedStreamSubscriptions$u20$as$u20$core..clone..Clone$GT$5clone17h64240e1afa810188E', symObjAddr: 0x306C0, symBinAddr: 0x2F8F8, symSize: 0x28 }
  - { offset: 0x172930, size: 0x8, addend: 0x0, symName: '__ZN105_$LT$powersync_core..sync..streaming_sync..RequestedStreamSubscriptions$u20$as$u20$core..clone..Clone$GT$5clone17h64240e1afa810188E', symObjAddr: 0x306C0, symBinAddr: 0x2F8F8, symSize: 0x28 }
  - { offset: 0x172945, size: 0x8, addend: 0x0, symName: '__ZN105_$LT$powersync_core..sync..streaming_sync..RequestedStreamSubscriptions$u20$as$u20$core..clone..Clone$GT$5clone17h64240e1afa810188E', symObjAddr: 0x306C0, symBinAddr: 0x2F8F8, symSize: 0x28 }
  - { offset: 0x172961, size: 0x8, addend: 0x0, symName: '__ZN105_$LT$powersync_core..sync..streaming_sync..RequestedStreamSubscriptions$u20$as$u20$core..clone..Clone$GT$5clone17h64240e1afa810188E', symObjAddr: 0x306C0, symBinAddr: 0x2F8F8, symSize: 0x28 }
  - { offset: 0x17297D, size: 0x8, addend: 0x0, symName: '__ZN105_$LT$powersync_core..sync..streaming_sync..RequestedStreamSubscriptions$u20$as$u20$core..clone..Clone$GT$5clone17h64240e1afa810188E', symObjAddr: 0x306C0, symBinAddr: 0x2F8F8, symSize: 0x28 }
  - { offset: 0x172B83, size: 0x8, addend: 0x0, symName: '__ZN92_$LT$powersync_core..sync..streaming_sync..OwnedCheckpoint$u20$as$u20$core..clone..Clone$GT$5clone17h2a6fe18baefe94cbE', symObjAddr: 0x3194C, symBinAddr: 0x30B84, symSize: 0x5C }
  - { offset: 0x176A66, size: 0x8, addend: 0x0, symName: '__ZN67_$LT$alloc..rc..Rc$LT$T$C$A$GT$$u20$as$u20$core..cmp..PartialEq$GT$2ne17h1d2353519252b1adE', symObjAddr: 0x304A8, symBinAddr: 0x2F6E0, symSize: 0xF8 }
  - { offset: 0x176AA0, size: 0x8, addend: 0x0, symName: '__ZN67_$LT$alloc..rc..Rc$LT$T$C$A$GT$$u20$as$u20$core..cmp..PartialEq$GT$2ne17h1d2353519252b1adE', symObjAddr: 0x304A8, symBinAddr: 0x2F6E0, symSize: 0xF8 }
  - { offset: 0x176AB5, size: 0x8, addend: 0x0, symName: '__ZN67_$LT$alloc..rc..Rc$LT$T$C$A$GT$$u20$as$u20$core..cmp..PartialEq$GT$2ne17h1d2353519252b1adE', symObjAddr: 0x304A8, symBinAddr: 0x2F6E0, symSize: 0xF8 }
  - { offset: 0x176ADC, size: 0x8, addend: 0x0, symName: '__ZN67_$LT$alloc..rc..Rc$LT$T$C$A$GT$$u20$as$u20$core..cmp..PartialEq$GT$2ne17h1d2353519252b1adE', symObjAddr: 0x304A8, symBinAddr: 0x2F6E0, symSize: 0xF8 }
  - { offset: 0x177D6A, size: 0x8, addend: 0x0, symName: '__ZN4core3ptr115drop_in_place$LT$powersync_core..sync..streaming_sync..StreamingSyncIteration..run..$u7b$$u7b$closure$u7d$$u7d$$GT$17h6d2755e1a4cb94bfE', symObjAddr: 0x2D010, symBinAddr: 0x2C248, symSize: 0x4C }
  - { offset: 0x177E7D, size: 0x8, addend: 0x0, symName: '__ZN4core3ptr87drop_in_place$LT$powersync_core..sync..streaming_sync..RequestedStreamSubscriptions$GT$17h20431e73eba050d7E', symObjAddr: 0x302F8, symBinAddr: 0x2F530, symSize: 0x4C }
  - { offset: 0x17819D, size: 0x8, addend: 0x0, symName: '__ZN4core3ptr69drop_in_place$LT$powersync_core..sync..streaming_sync..SyncTarget$GT$17ha833960fa17f379cE', symObjAddr: 0x30384, symBinAddr: 0x2F5BC, symSize: 0x40 }
  - { offset: 0x1782FA, size: 0x8, addend: 0x0, symName: '__ZN4core3ptr57drop_in_place$LT$powersync_core..sync..line..SyncLine$GT$17h6ad69316ea2e69cfE.2539', symObjAddr: 0x303C4, symBinAddr: 0x2F5FC, symSize: 0x78 }
  - { offset: 0x1784FC, size: 0x8, addend: 0x0, symName: '__ZN4core3ptr86drop_in_place$LT$core..option..Option$LT$powersync_core..error..PowerSyncError$GT$$GT$17hf68211880ba61bbcE', symObjAddr: 0x3043C, symBinAddr: 0x2F674, symSize: 0x6C }
  - { offset: 0x1786E8, size: 0x8, addend: 0x0, symName: '__ZN4core3ptr81drop_in_place$LT$powersync_core..sync..streaming_sync..StreamingSyncIteration$GT$17h9999550a375661c8E', symObjAddr: 0x305A0, symBinAddr: 0x2F7D8, symSize: 0x68 }
  - { offset: 0x178A14, size: 0x8, addend: 0x0, symName: '__ZN4core3ptr69drop_in_place$LT$powersync_core..sync..interface..StartSyncStream$GT$17h16dcf8cc42b9827eE.2542', symObjAddr: 0x30608, symBinAddr: 0x2F840, symSize: 0x5C }
  - { offset: 0x178B68, size: 0x8, addend: 0x0, symName: '__ZN4core3ptr102drop_in_place$LT$core..option..Option$LT$powersync_core..sync..streaming_sync..OwnedCheckpoint$GT$$GT$17hed71f243c3b0d94dE', symObjAddr: 0x30664, symBinAddr: 0x2F89C, symSize: 0x18 }
  - { offset: 0x178C68, size: 0x8, addend: 0x0, symName: '__ZN4core3ptr102drop_in_place$LT$core..option..Option$LT$powersync_core..sync..checkpoint..OwnedBucketChecksum$GT$$GT$17h73797c3d2335e8e3E', symObjAddr: 0x3067C, symBinAddr: 0x2F8B4, symSize: 0x44 }
  - { offset: 0x178F2F, size: 0x8, addend: 0x0, symName: '__ZN4core3ptr76drop_in_place$LT$powersync_core..sync..streaming_sync..TrackedCheckpoint$GT$17h6120d0c5064b971fE', symObjAddr: 0x319A8, symBinAddr: 0x30BE0, symSize: 0x68 }
  - { offset: 0x1790FB, size: 0x8, addend: 0x0, symName: '__ZN4core3ptr76drop_in_place$LT$powersync_core..sync..storage_adapter..CheckpointResult$GT$17hce5f7314c412c5e0E', symObjAddr: 0x32990, symBinAddr: 0x31BC8, symSize: 0x20 }
  - { offset: 0x17915F, size: 0x8, addend: 0x0, symName: '__ZN4core3ptr75drop_in_place$LT$powersync_core..sync..storage_adapter..SyncLocalResult$GT$17h21143c31d6327f3fE', symObjAddr: 0x32A5C, symBinAddr: 0x31C94, symSize: 0x1C }
  - { offset: 0x1791AC, size: 0x8, addend: 0x0, symName: '__ZN4core3ptr70drop_in_place$LT$powersync_core..sync..streaming_sync..ActiveEvent$GT$17he40989362a43bb0bE', symObjAddr: 0x32C00, symBinAddr: 0x31E38, symSize: 0x2C }
  - { offset: 0x1791DD, size: 0x8, addend: 0x0, symName: '__ZN4core3ptr63drop_in_place$LT$powersync_core..sync..interface..SyncEvent$GT$17he14d6900252b3b48E', symObjAddr: 0x32C2C, symBinAddr: 0x31E64, symSize: 0x14 }
  - { offset: 0x179247, size: 0x8, addend: 0x0, symName: '__ZN4core3ptr78drop_in_place$LT$powersync_core..sync..streaming_sync..SyncIterationHandle$GT$17h5e7a8ec06c3dd5c8E', symObjAddr: 0x32C40, symBinAddr: 0x31E78, symSize: 0x3C }
  - { offset: 0x179339, size: 0x8, addend: 0x0, symName: '__ZN4core3ptr70drop_in_place$LT$powersync_core..sync..streaming_sync..ClientState$GT$17h34aa5a676a0cc34bE', symObjAddr: 0x32C7C, symBinAddr: 0x31EB4, symSize: 0xC }
  - { offset: 0x17CF2D, size: 0x8, addend: 0x0, symName: __ZN4core3ops8function6FnOnce9call_once17h4d386991337e3eebE, symObjAddr: 0x32C88, symBinAddr: 0x31EC0, symSize: 0x10 }
  - { offset: 0x17CF6C, size: 0x8, addend: 0x0, symName: __ZN4core3ops8function6FnOnce9call_once17h852ca19c5c4c6139E, symObjAddr: 0x32C98, symBinAddr: 0x31ED0, symSize: 0x4 }
  - { offset: 0x17E3ED, size: 0x8, addend: 0x0, symName: '__ZN44_$LT$$RF$T$u20$as$u20$core..fmt..Display$GT$3fmt17h4443b58073bf4fabE', symObjAddr: 0x32A78, symBinAddr: 0x31CB0, symSize: 0x24 }
  - { offset: 0x17E48C, size: 0x8, addend: 0x0, symName: '__ZN44_$LT$$RF$T$u20$as$u20$core..fmt..Display$GT$3fmt17h6cefa11aab17df81E', symObjAddr: 0x32A9C, symBinAddr: 0x31CD4, symSize: 0x8 }
  - { offset: 0x180327, size: 0x8, addend: 0x0, symName: '__ZN5alloc3vec16Vec$LT$T$C$A$GT$4push17h50836da8fd92a965E', symObjAddr: 0x30344, symBinAddr: 0x2F57C, symSize: 0x40 }
  - { offset: 0x180793, size: 0x8, addend: 0x0, symName: __ZN14powersync_core4sync14streaming_sync22StreamingSyncIteration13load_progress17h298840aab54420f6E, symObjAddr: 0x306E8, symBinAddr: 0x2F920, symSize: 0x7F0 }
  - { offset: 0x183352, size: 0x8, addend: 0x0, symName: __ZN14powersync_core4sync14streaming_sync22StreamingSyncIteration26resolve_subscription_state17h98048a6a49cf15f9E, symObjAddr: 0x30ED8, symBinAddr: 0x30110, symSize: 0xA74 }
  - { offset: 0x185897, size: 0x8, addend: 0x0, symName: __ZN14powersync_core4sync14streaming_sync22StreamingSyncIteration10sync_local17h5ee7b611f2932edaE, symObjAddr: 0x31A10, symBinAddr: 0x30C48, symSize: 0xF80 }
  - { offset: 0x18736C, size: 0x8, addend: 0x0, symName: __ZN14powersync_core4sync14streaming_sync22StreamingSyncIteration25handle_checkpoint_applied17h4a98e284a00d162cE, symObjAddr: 0x329B0, symBinAddr: 0x31BE8, symSize: 0xAC }
  - { offset: 0x18760E, size: 0x8, addend: 0x0, symName: __ZN14powersync_core4sync14streaming_sync11ClientState9tear_down17haeed9fc565938e86E, symObjAddr: 0x32AA4, symBinAddr: 0x31CDC, symSize: 0xB4 }
  - { offset: 0x187724, size: 0x8, addend: 0x0, symName: __ZN14powersync_core4sync14streaming_sync19SyncIterationHandle3run17h045cab9f5a8ccfd2E, symObjAddr: 0x32B58, symBinAddr: 0x31D90, symSize: 0xA8 }
  - { offset: 0x187929, size: 0x8, addend: 0x0, symName: _OUTLINED_FUNCTION_28, symObjAddr: 0x3B288, symBinAddr: 0x39E88, symSize: 0x10 }
  - { offset: 0x187940, size: 0x8, addend: 0x0, symName: _OUTLINED_FUNCTION_51, symObjAddr: 0x3B468, symBinAddr: 0x3A068, symSize: 0x14 }
  - { offset: 0x187957, size: 0x8, addend: 0x0, symName: _OUTLINED_FUNCTION_137, symObjAddr: 0x3BB80, symBinAddr: 0x3A780, symSize: 0x18 }
  - { offset: 0x18796E, size: 0x8, addend: 0x0, symName: _OUTLINED_FUNCTION_143, symObjAddr: 0x3BBFC, symBinAddr: 0x3A7FC, symSize: 0x10 }
  - { offset: 0x187985, size: 0x8, addend: 0x0, symName: _OUTLINED_FUNCTION_145, symObjAddr: 0x3BC24, symBinAddr: 0x3A824, symSize: 0xC }
  - { offset: 0x18799C, size: 0x8, addend: 0x0, symName: _OUTLINED_FUNCTION_195, symObjAddr: 0x3BF6C, symBinAddr: 0x3AB6C, symSize: 0x14 }
  - { offset: 0x1879B3, size: 0x8, addend: 0x0, symName: _OUTLINED_FUNCTION_204, symObjAddr: 0x3C038, symBinAddr: 0x3AC38, symSize: 0xC }
  - { offset: 0x1879CA, size: 0x8, addend: 0x0, symName: _OUTLINED_FUNCTION_275, symObjAddr: 0x3C414, symBinAddr: 0x3B014, symSize: 0x14 }
  - { offset: 0x1879E1, size: 0x8, addend: 0x0, symName: _OUTLINED_FUNCTION_415, symObjAddr: 0x3CBCC, symBinAddr: 0x3B7CC, symSize: 0xC }
  - { offset: 0x1879F8, size: 0x8, addend: 0x0, symName: _OUTLINED_FUNCTION_508, symObjAddr: 0x3D0E4, symBinAddr: 0x3BCE4, symSize: 0x18 }
  - { offset: 0x187A0F, size: 0x8, addend: 0x0, symName: _OUTLINED_FUNCTION_534, symObjAddr: 0x3D2A4, symBinAddr: 0x3BEA4, symSize: 0xC }
  - { offset: 0x187A26, size: 0x8, addend: 0x0, symName: _OUTLINED_FUNCTION_565, symObjAddr: 0x3D418, symBinAddr: 0x3C018, symSize: 0xC }
  - { offset: 0x187A3D, size: 0x8, addend: 0x0, symName: _OUTLINED_FUNCTION_761, symObjAddr: 0x3DF24, symBinAddr: 0x3CB24, symSize: 0x1C }
  - { offset: 0x187A54, size: 0x8, addend: 0x0, symName: _OUTLINED_FUNCTION_782, symObjAddr: 0x3E034, symBinAddr: 0x3CC34, symSize: 0x1C }
  - { offset: 0x187A6B, size: 0x8, addend: 0x0, symName: _OUTLINED_FUNCTION_786, symObjAddr: 0x3E068, symBinAddr: 0x3CC68, symSize: 0x8 }
  - { offset: 0x187A82, size: 0x8, addend: 0x0, symName: _OUTLINED_FUNCTION_789, symObjAddr: 0x3E088, symBinAddr: 0x3CC88, symSize: 0xC }
  - { offset: 0x187A99, size: 0x8, addend: 0x0, symName: _OUTLINED_FUNCTION_833, symObjAddr: 0x3E2B4, symBinAddr: 0x3CEB4, symSize: 0x10 }
  - { offset: 0x187AB0, size: 0x8, addend: 0x0, symName: _OUTLINED_FUNCTION_851, symObjAddr: 0x3E3D4, symBinAddr: 0x3CFD4, symSize: 0x10 }
  - { offset: 0x187AC7, size: 0x8, addend: 0x0, symName: _OUTLINED_FUNCTION_852, symObjAddr: 0x3E3E4, symBinAddr: 0x3CFE4, symSize: 0x10 }
  - { offset: 0x187ADE, size: 0x8, addend: 0x0, symName: _OUTLINED_FUNCTION_875, symObjAddr: 0x3E588, symBinAddr: 0x3D188, symSize: 0xC }
  - { offset: 0x187AF5, size: 0x8, addend: 0x0, symName: _OUTLINED_FUNCTION_886, symObjAddr: 0x3E630, symBinAddr: 0x3D230, symSize: 0xC }
  - { offset: 0x187B0C, size: 0x8, addend: 0x0, symName: _OUTLINED_FUNCTION_887, symObjAddr: 0x3E63C, symBinAddr: 0x3D23C, symSize: 0x18 }
  - { offset: 0x187B23, size: 0x8, addend: 0x0, symName: _OUTLINED_FUNCTION_888, symObjAddr: 0x3E654, symBinAddr: 0x3D254, symSize: 0xC }
  - { offset: 0x187B3A, size: 0x8, addend: 0x0, symName: _OUTLINED_FUNCTION_889, symObjAddr: 0x3E660, symBinAddr: 0x3D260, symSize: 0xC }
  - { offset: 0x187B51, size: 0x8, addend: 0x0, symName: _OUTLINED_FUNCTION_901, symObjAddr: 0x3E72C, symBinAddr: 0x3D32C, symSize: 0xC }
  - { offset: 0x187B68, size: 0x8, addend: 0x0, symName: _OUTLINED_FUNCTION_933, symObjAddr: 0x3E8C0, symBinAddr: 0x3D4C0, symSize: 0x8 }
  - { offset: 0x187B7F, size: 0x8, addend: 0x0, symName: _OUTLINED_FUNCTION_934, symObjAddr: 0x3E8C8, symBinAddr: 0x3D4C8, symSize: 0xC }
  - { offset: 0x187B96, size: 0x8, addend: 0x0, symName: _OUTLINED_FUNCTION_941, symObjAddr: 0x3E918, symBinAddr: 0x3D518, symSize: 0x8 }
  - { offset: 0x187BAD, size: 0x8, addend: 0x0, symName: _OUTLINED_FUNCTION_956, symObjAddr: 0x3E9D0, symBinAddr: 0x3D5D0, symSize: 0x8 }
  - { offset: 0x187BC4, size: 0x8, addend: 0x0, symName: _OUTLINED_FUNCTION_970, symObjAddr: 0x3EA64, symBinAddr: 0x3D664, symSize: 0xC }
  - { offset: 0x187BDB, size: 0x8, addend: 0x0, symName: _OUTLINED_FUNCTION_973, symObjAddr: 0x3EA84, symBinAddr: 0x3D684, symSize: 0xC }
  - { offset: 0x187BF2, size: 0x8, addend: 0x0, symName: _OUTLINED_FUNCTION_1017, symObjAddr: 0x3EC28, symBinAddr: 0x3D828, symSize: 0xC }
  - { offset: 0x187C09, size: 0x8, addend: 0x0, symName: _OUTLINED_FUNCTION_1022, symObjAddr: 0x3EC64, symBinAddr: 0x3D864, symSize: 0x8 }
  - { offset: 0x187C20, size: 0x8, addend: 0x0, symName: _OUTLINED_FUNCTION_1036, symObjAddr: 0x3ECE4, symBinAddr: 0x3D8E4, symSize: 0xC }
  - { offset: 0x187C37, size: 0x8, addend: 0x0, symName: _OUTLINED_FUNCTION_1038, symObjAddr: 0x3ECFC, symBinAddr: 0x3D8FC, symSize: 0xC }
  - { offset: 0x187C4E, size: 0x8, addend: 0x0, symName: _OUTLINED_FUNCTION_1039, symObjAddr: 0x3ED08, symBinAddr: 0x3D908, symSize: 0x8 }
  - { offset: 0x187C65, size: 0x8, addend: 0x0, symName: _OUTLINED_FUNCTION_1115, symObjAddr: 0x3F028, symBinAddr: 0x3DC28, symSize: 0x14 }
  - { offset: 0x187C7C, size: 0x8, addend: 0x0, symName: _OUTLINED_FUNCTION_1126, symObjAddr: 0x3F0CC, symBinAddr: 0x3DCCC, symSize: 0x14 }
  - { offset: 0x187C93, size: 0x8, addend: 0x0, symName: _OUTLINED_FUNCTION_1133, symObjAddr: 0x3F140, symBinAddr: 0x3DD40, symSize: 0x14 }
  - { offset: 0x187CAA, size: 0x8, addend: 0x0, symName: _OUTLINED_FUNCTION_1139, symObjAddr: 0x3F1B0, symBinAddr: 0x3DDB0, symSize: 0xC }
  - { offset: 0x187CC1, size: 0x8, addend: 0x0, symName: _OUTLINED_FUNCTION_1163, symObjAddr: 0x3F300, symBinAddr: 0x3DF00, symSize: 0x14 }
  - { offset: 0x187CD8, size: 0x8, addend: 0x0, symName: _OUTLINED_FUNCTION_1164, symObjAddr: 0x3F314, symBinAddr: 0x3DF14, symSize: 0x14 }
  - { offset: 0x187CEF, size: 0x8, addend: 0x0, symName: _OUTLINED_FUNCTION_1167, symObjAddr: 0x3F348, symBinAddr: 0x3DF48, symSize: 0xC }
  - { offset: 0x187D06, size: 0x8, addend: 0x0, symName: _OUTLINED_FUNCTION_1169, symObjAddr: 0x3F368, symBinAddr: 0x3DF68, symSize: 0xC }
  - { offset: 0x187D1D, size: 0x8, addend: 0x0, symName: _OUTLINED_FUNCTION_1171, symObjAddr: 0x3F380, symBinAddr: 0x3DF80, symSize: 0xC }
  - { offset: 0x1C35A7, size: 0x8, addend: 0x0, symName: '__ZN99_$LT$sqlite3_allocator..allocator..SQLite3Allocator$u20$as$u20$core..alloc..global..GlobalAlloc$GT$5alloc17hebb668f60c7362f7E', symObjAddr: 0x39BA0, symBinAddr: 0x387A0, symSize: 0x20 }
  - { offset: 0x1C37FB, size: 0x8, addend: 0x0, symName: '__ZN99_$LT$sqlite3_allocator..allocator..SQLite3Allocator$u20$as$u20$core..alloc..global..GlobalAlloc$GT$5alloc17hebb668f60c7362f7E', symObjAddr: 0x39BA0, symBinAddr: 0x387A0, symSize: 0x20 }
  - { offset: 0x1C3837, size: 0x8, addend: 0x0, symName: '__ZN99_$LT$sqlite3_allocator..allocator..SQLite3Allocator$u20$as$u20$core..alloc..global..GlobalAlloc$GT$5alloc17hebb668f60c7362f7E', symObjAddr: 0x39BA0, symBinAddr: 0x387A0, symSize: 0x20 }
  - { offset: 0x1C3867, size: 0x8, addend: 0x0, symName: '__ZN99_$LT$sqlite3_allocator..allocator..SQLite3Allocator$u20$as$u20$core..alloc..global..GlobalAlloc$GT$7dealloc17h7d23f600014a24b3E', symObjAddr: 0x39BC0, symBinAddr: 0x387C0, symSize: 0x20 }
  - { offset: 0x1C38AA, size: 0x8, addend: 0x0, symName: '__ZN99_$LT$sqlite3_allocator..allocator..SQLite3Allocator$u20$as$u20$core..alloc..global..GlobalAlloc$GT$7dealloc17h7d23f600014a24b3E', symObjAddr: 0x39BC0, symBinAddr: 0x387C0, symSize: 0x20 }
  - { offset: 0x1410D9, size: 0x8, addend: 0x0, symName: '__ZN45_$LT$T$u20$as$u20$alloc..string..ToString$GT$9to_string17h27e94924bb32677bE', symObjAddr: 0x29100, symBinAddr: 0x28358, symSize: 0x70 }
  - { offset: 0x1411CF, size: 0x8, addend: 0x0, symName: '__ZN45_$LT$T$u20$as$u20$alloc..string..ToString$GT$9to_string17h946b0427e9dfbcfcE.2267', symObjAddr: 0x291F0, symBinAddr: 0x28448, symSize: 0x48 }
  - { offset: 0x14132D, size: 0x8, addend: 0x0, symName: '__ZN58_$LT$alloc..string..String$u20$as$u20$core..fmt..Write$GT$10write_char17he88dc481726ff1a5E.2262', symObjAddr: 0x29188, symBinAddr: 0x283E0, symSize: 0x68 }
  - { offset: 0x141998, size: 0x8, addend: 0x0, symName: '__ZN63_$LT$alloc..alloc..Global$u20$as$u20$core..alloc..Allocator$GT$8allocate17ha41d90b31a1caff6E.2200', symObjAddr: 0x2743C, symBinAddr: 0x26934, symSize: 0x10 }
  - { offset: 0x1419D4, size: 0x8, addend: 0x0, symName: '__ZN63_$LT$alloc..alloc..Global$u20$as$u20$core..alloc..Allocator$GT$8allocate17ha41d90b31a1caff6E.2200', symObjAddr: 0x2743C, symBinAddr: 0x26934, symSize: 0x10 }
  - { offset: 0x141A2C, size: 0x8, addend: 0x0, symName: __ZN5alloc5alloc15exchange_malloc17haebdea0162a682c3E.2203, symObjAddr: 0x2744C, symBinAddr: 0x26944, symSize: 0x1C }
  - { offset: 0x143745, size: 0x8, addend: 0x0, symName: '__ZN4core3ptr58drop_in_place$LT$powersync_core..error..PowerSyncError$GT$17h14b396dea537116dE.2268', symObjAddr: 0x29238, symBinAddr: 0x28490, symSize: 0x80 }
  - { offset: 0x143892, size: 0x8, addend: 0x0, symName: '__ZN4core3ptr50drop_in_place$LT$alloc..borrow..Cow$LT$str$GT$$GT$17h8c4ca9133348cf09E.2270', symObjAddr: 0x292B8, symBinAddr: 0x28510, symSize: 0x1C }
  - { offset: 0x1439D7, size: 0x8, addend: 0x0, symName: '__ZN4core3ptr63drop_in_place$LT$powersync_core..error..PowerSyncErrorCause$GT$17h8fe44e496262594bE.2271', symObjAddr: 0x292D4, symBinAddr: 0x2852C, symSize: 0x64 }
  - { offset: 0x143E06, size: 0x8, addend: 0x0, symName: '__ZN4core3ptr62drop_in_place$LT$powersync_core..schema..table_info..Table$GT$17h7313fe32f4872e86E.2309', symObjAddr: 0x2AA84, symBinAddr: 0x29CBC, symSize: 0x6C }
  - { offset: 0x1443F7, size: 0x8, addend: 0x0, symName: '__ZN44_$LT$$RF$T$u20$as$u20$core..fmt..Display$GT$3fmt17h0e9f9773fafc22e0E', symObjAddr: 0x271CC, symBinAddr: 0x266C4, symSize: 0x130 }
  - { offset: 0x144551, size: 0x8, addend: 0x0, symName: '__ZN44_$LT$$RF$T$u20$as$u20$core..fmt..Display$GT$3fmt17ha84c0414a7455ed2E', symObjAddr: 0x27328, symBinAddr: 0x26820, symSize: 0x114 }
  - { offset: 0x1446D1, size: 0x8, addend: 0x0, symName: '__ZN115_$LT$core..iter..adapters..filter_map..FilterMap$LT$I$C$F$GT$$u20$as$u20$core..iter..traits..iterator..Iterator$GT$4next17h4849b37477d8b786E', symObjAddr: 0x2AAF0, symBinAddr: 0x29D28, symSize: 0xB0 }
  - { offset: 0x144C01, size: 0x8, addend: 0x0, symName: '__ZN91_$LT$core..slice..iter..Iter$LT$T$GT$$u20$as$u20$core..iter..traits..iterator..Iterator$GT$4next17hbf293b7a6e213c93E', symObjAddr: 0x2ABC8, symBinAddr: 0x29E00, symSize: 0x28 }
  - { offset: 0x146F46, size: 0x8, addend: 0x0, symName: __ZN14powersync_core5views18powersync_view_sql17h88a65d058d7cf165E, symObjAddr: 0x29878, symBinAddr: 0x28AB0, symSize: 0x2DC }
  - { offset: 0x147849, size: 0x8, addend: 0x0, symName: __ZN14powersync_core5views28powersync_trigger_delete_sql17h1612a7cb3080f6d6E, symObjAddr: 0x29B54, symBinAddr: 0x28D8C, symSize: 0x3E0 }
  - { offset: 0x148491, size: 0x8, addend: 0x0, symName: __ZN14powersync_core5views28powersync_trigger_insert_sql17hdba0d4157d8979e9E, symObjAddr: 0x29F34, symBinAddr: 0x2916C, symSize: 0x298 }
  - { offset: 0x148BE0, size: 0x8, addend: 0x0, symName: __ZN14powersync_core5views28powersync_trigger_update_sql17h3dc61d5b1769347dE, symObjAddr: 0x2A1CC, symBinAddr: 0x29404, symSize: 0x658 }
  - { offset: 0x1499B3, size: 0x8, addend: 0x0, symName: __ZN14powersync_core5views20json_object_fragment17haa414532d81c449fE, symObjAddr: 0x2A868, symBinAddr: 0x29AA0, symSize: 0x21C }
  - { offset: 0x14A49A, size: 0x8, addend: 0x0, symName: '__ZN75_$LT$powersync_core..bson..error..BsonError$u20$as$u20$serde..de..Error$GT$6custom17hc56a1060c7068756E', symObjAddr: 0x276A0, symBinAddr: 0x26B50, symSize: 0x28 }
  - { offset: 0x14A50A, size: 0x8, addend: 0x0, symName: '__ZN75_$LT$powersync_core..bson..error..BsonError$u20$as$u20$serde..de..Error$GT$6custom17h20d094678ce7f4fbE', symObjAddr: 0x294C4, symBinAddr: 0x286FC, symSize: 0x30 }
  - { offset: 0x14A665, size: 0x8, addend: 0x0, symName: '__ZN77_$LT$powersync_core..bson..error..ErrorKind$u20$as$u20$core..fmt..Display$GT$3fmt17hbba57bd9193142ccE', symObjAddr: 0x29358, symBinAddr: 0x28590, symSize: 0x16C }
  - { offset: 0x14B08D, size: 0x8, addend: 0x0, symName: '__ZN76_$LT$powersync_core..error..PowerSyncError$u20$as$u20$core..fmt..Display$GT$3fmt17h42aca42552d32773E', symObjAddr: 0x2983C, symBinAddr: 0x28A74, symSize: 0x10 }
  - { offset: 0x14B0B9, size: 0x8, addend: 0x0, symName: '__ZN125_$LT$powersync_core..error..PowerSyncError$u20$as$u20$core..convert..From$LT$powersync_core..error..RawPowerSyncError$GT$$GT$4from17hb55dc294eef3646eE', symObjAddr: 0x29590, symBinAddr: 0x287C8, symSize: 0x38 }
  - { offset: 0x14B109, size: 0x8, addend: 0x0, symName: '__ZN116_$LT$powersync_core..error..PowerSyncError$u20$as$u20$core..convert..From$LT$sqlite_nostd..nostd..ResultCode$GT$$GT$4from17hc16c612ff016e4c5E', symObjAddr: 0x2984C, symBinAddr: 0x28A84, symSize: 0x2C }
  - { offset: 0x14B803, size: 0x8, addend: 0x0, symName: '__ZN62_$LT$serde_json..error..Error$u20$as$u20$serde..ser..Error$GT$6custom17h26f518937ea5daa5E', symObjAddr: 0x29338, symBinAddr: 0x3F6F0, symSize: 0x20 }
  - { offset: 0x14BE94, size: 0x8, addend: 0x0, symName: '__ZN5serde2de5impls75_$LT$impl$u20$serde..de..Deserialize$u20$for$u20$alloc..rc..Rc$LT$T$GT$$GT$11deserialize17h46a199f9cde2e08eE', symObjAddr: 0x27958, symBinAddr: 0x26BB0, symSize: 0x5DC }
  - { offset: 0x14C96D, size: 0x8, addend: 0x0, symName: '__ZN5serde2de5impls75_$LT$impl$u20$serde..de..Deserialize$u20$for$u20$alloc..rc..Rc$LT$T$GT$$GT$11deserialize17h5f8d4e757ecfb920E', symObjAddr: 0x27F5C, symBinAddr: 0x271B4, symSize: 0x474 }
  - { offset: 0x14D09D, size: 0x8, addend: 0x0, symName: '__ZN5serde2de5impls75_$LT$impl$u20$serde..de..Deserialize$u20$for$u20$alloc..rc..Rc$LT$T$GT$$GT$11deserialize17h6f24210b837076d7E', symObjAddr: 0x283D0, symBinAddr: 0x27628, symSize: 0x7E8 }
  - { offset: 0x14E02B, size: 0x8, addend: 0x0, symName: '__ZN5serde2de5impls75_$LT$impl$u20$serde..de..Deserialize$u20$for$u20$alloc..rc..Rc$LT$T$GT$$GT$11deserialize17hb188cb1e8ebe6489E', symObjAddr: 0x28BB8, symBinAddr: 0x27E10, symSize: 0x354 }
  - { offset: 0x14E58A, size: 0x8, addend: 0x0, symName: '__ZN5serde2de5impls75_$LT$impl$u20$serde..de..Deserialize$u20$for$u20$alloc..rc..Rc$LT$T$GT$$GT$11deserialize17hefc00b3b98d73cf6E', symObjAddr: 0x28F0C, symBinAddr: 0x28164, symSize: 0x1F4 }
  - { offset: 0x14EC09, size: 0x8, addend: 0x0, symName: __ZN5serde2de5Error12invalid_type17h43d505c9bbaa473aE, symObjAddr: 0x27658, symBinAddr: 0x3F450, symSize: 0x48 }
  - { offset: 0x14EC75, size: 0x8, addend: 0x0, symName: __ZN5serde2de5Error13invalid_value17he254a8bd4f58ebfbE, symObjAddr: 0x27700, symBinAddr: 0x3F498, symSize: 0x48 }
  - { offset: 0x14ECE0, size: 0x8, addend: 0x0, symName: __ZN5serde2de5Error13missing_field17h603d6c17b67e4ce8E, symObjAddr: 0x27748, symBinAddr: 0x3F4E0, symSize: 0x34 }
  - { offset: 0x14ED3F, size: 0x8, addend: 0x0, symName: __ZN5serde2de5Error13missing_field17h7c997e3128e19333E, symObjAddr: 0x2777C, symBinAddr: 0x3F514, symSize: 0x34 }
  - { offset: 0x14ED9F, size: 0x8, addend: 0x0, symName: __ZN5serde2de5Error14invalid_length17h284a63f09ef52b5eE, symObjAddr: 0x277B0, symBinAddr: 0x3F548, symSize: 0x50 }
  - { offset: 0x14EE0B, size: 0x8, addend: 0x0, symName: __ZN5serde2de5Error14invalid_length17hf718b7f7bff19bbfE, symObjAddr: 0x27800, symBinAddr: 0x3F598, symSize: 0x50 }
  - { offset: 0x14EE76, size: 0x8, addend: 0x0, symName: __ZN5serde2de5Error15duplicate_field17h4d3db3c1c7d4f6d7E, symObjAddr: 0x27850, symBinAddr: 0x3F5E8, symSize: 0x34 }
  - { offset: 0x14EED5, size: 0x8, addend: 0x0, symName: __ZN5serde2de5Error15duplicate_field17h6138480d4b75c5c6E, symObjAddr: 0x27884, symBinAddr: 0x3F61C, symSize: 0x34 }
  - { offset: 0x14EF35, size: 0x8, addend: 0x0, symName: __ZN5serde2de5Error15unknown_variant17h26d1a18728c70076E, symObjAddr: 0x278B8, symBinAddr: 0x3F650, symSize: 0x50 }
  - { offset: 0x14EFA1, size: 0x8, addend: 0x0, symName: __ZN5serde2de5Error15unknown_variant17h75fe3262db19a496E, symObjAddr: 0x27908, symBinAddr: 0x3F6A0, symSize: 0x50 }
  - { offset: 0x14F38C, size: 0x8, addend: 0x0, symName: __ZN4core3fmt9Formatter9write_fmt17h4fea1c6f215d0450E.2198, symObjAddr: 0x272FC, symBinAddr: 0x267F4, symSize: 0x2C }
  - { offset: 0x14F69A, size: 0x8, addend: 0x0, symName: '__ZN5alloc2rc15Rc$LT$T$C$A$GT$11from_box_in17ha217785578e5a8c0E', symObjAddr: 0x27468, symBinAddr: 0x26960, symSize: 0x48 }
  - { offset: 0x14F8FE, size: 0x8, addend: 0x0, symName: '__ZN5alloc2rc15Rc$LT$T$C$A$GT$9drop_slow17h07e45212d5dae66eE', symObjAddr: 0x274B0, symBinAddr: 0x269A8, symSize: 0x3C }
  - { offset: 0x14FAE3, size: 0x8, addend: 0x0, symName: '__ZN5alloc2rc15Rc$LT$T$C$A$GT$9drop_slow17h235829ecfa66575bE', symObjAddr: 0x274EC, symBinAddr: 0x269E4, symSize: 0x44 }
  - { offset: 0x14FD06, size: 0x8, addend: 0x0, symName: '__ZN5alloc2rc15Rc$LT$T$C$A$GT$9drop_slow17h811693a821e05d96E', symObjAddr: 0x27530, symBinAddr: 0x26A28, symSize: 0x44 }
  - { offset: 0x14FEF5, size: 0x8, addend: 0x0, symName: '__ZN5alloc2rc15Rc$LT$T$C$A$GT$9drop_slow17h891f7bba1ae2c9f2E', symObjAddr: 0x27574, symBinAddr: 0x26A6C, symSize: 0x3C }
  - { offset: 0x150142, size: 0x8, addend: 0x0, symName: '__ZN5alloc2rc15Rc$LT$T$C$A$GT$9drop_slow17h8c8e284080353095E', symObjAddr: 0x275B0, symBinAddr: 0x26AA8, symSize: 0x64 }
  - { offset: 0x150432, size: 0x8, addend: 0x0, symName: '__ZN5alloc2rc15Rc$LT$T$C$A$GT$9drop_slow17hfd5e9ef3915f1527E', symObjAddr: 0x27614, symBinAddr: 0x26B0C, symSize: 0x44 }
  - { offset: 0x1505F6, size: 0x8, addend: 0x0, symName: __ZN14powersync_core4bson5error9BsonError3new17hacc506e6ef393809E, symObjAddr: 0x276C8, symBinAddr: 0x26B78, symSize: 0x38 }
  - { offset: 0x15070A, size: 0x8, addend: 0x0, symName: '__ZN4core6result19Result$LT$T$C$E$GT$3map17h3fdafb88ac73e456E', symObjAddr: 0x27F34, symBinAddr: 0x2718C, symSize: 0x28 }
  - { offset: 0x150B5C, size: 0x8, addend: 0x0, symName: '__ZN4core6result19Result$LT$T$C$E$GT$6expect17h946f0c0e9850d890E.2258', symObjAddr: 0x29170, symBinAddr: 0x283C8, symSize: 0x18 }
  - { offset: 0x150ECC, size: 0x8, addend: 0x0, symName: __ZN14powersync_core5error14PowerSyncError6errstr17h5dea6ec96fb3359fE, symObjAddr: 0x294F4, symBinAddr: 0x2872C, symSize: 0x9C }
  - { offset: 0x15124D, size: 0x8, addend: 0x0, symName: __ZN14powersync_core5error14PowerSyncError14argument_error17h780b39e223ef49dcE, symObjAddr: 0x295C8, symBinAddr: 0x28800, symSize: 0x30 }
  - { offset: 0x151279, size: 0x8, addend: 0x0, symName: __ZN14powersync_core5error14PowerSyncError17as_argument_error17h340e5fc9c14513b8E, symObjAddr: 0x295F8, symBinAddr: 0x28830, symSize: 0x30 }
  - { offset: 0x1512A5, size: 0x8, addend: 0x0, symName: __ZN14powersync_core5error14PowerSyncError11state_error17h2c0be7656568d562E, symObjAddr: 0x29628, symBinAddr: 0x28860, symSize: 0x24 }
  - { offset: 0x1512C8, size: 0x8, addend: 0x0, symName: __ZN14powersync_core5error14PowerSyncError19sync_protocol_error17h113bfb9bfa2376f3E, symObjAddr: 0x2964C, symBinAddr: 0x28884, symSize: 0x28 }
  - { offset: 0x15131E, size: 0x8, addend: 0x0, symName: __ZN14powersync_core5error14PowerSyncError16unknown_internal17h73496147ba611c7aE, symObjAddr: 0x29674, symBinAddr: 0x288AC, symSize: 0x24 }
  - { offset: 0x151350, size: 0x8, addend: 0x0, symName: __ZN14powersync_core5error14PowerSyncError8internal17hc504f3f7ec76ce47E, symObjAddr: 0x29698, symBinAddr: 0x288D0, symSize: 0x24 }
  - { offset: 0x151396, size: 0x8, addend: 0x0, symName: __ZN14powersync_core5error14PowerSyncError12apply_to_ctx17h71b4ee67745316e3E, symObjAddr: 0x296BC, symBinAddr: 0x288F4, symSize: 0x98 }
  - { offset: 0x15155C, size: 0x8, addend: 0x0, symName: __ZN5alloc6string6String10insert_str17hc623bdf499a0e6f3E, symObjAddr: 0x29754, symBinAddr: 0x2898C, symSize: 0x8C }
  - { offset: 0x1517A2, size: 0x8, addend: 0x0, symName: __ZN14powersync_core5error14PowerSyncError17sqlite_error_code17h88952a539516ac2fE, symObjAddr: 0x297E0, symBinAddr: 0x28A18, symSize: 0x5C }
  - { offset: 0x151E73, size: 0x8, addend: 0x0, symName: '__ZN4core6result19Result$LT$T$C$E$GT$7map_err17h11591a1704599356E', symObjAddr: 0x2A824, symBinAddr: 0x29A5C, symSize: 0x44 }
  - { offset: 0x151FF5, size: 0x8, addend: 0x0, symName: '__ZN5alloc3vec16Vec$LT$T$C$A$GT$4push17h242bd60bc29f3c05E.2312', symObjAddr: 0x2ABA0, symBinAddr: 0x29DD8, symSize: 0x28 }
  - { offset: 0x15214B, size: 0x8, addend: 0x0, symName: _OUTLINED_FUNCTION_73, symObjAddr: 0x3B64C, symBinAddr: 0x3A24C, symSize: 0x20 }
  - { offset: 0x152162, size: 0x8, addend: 0x0, symName: _OUTLINED_FUNCTION_196, symObjAddr: 0x3BF80, symBinAddr: 0x3AB80, symSize: 0x14 }
  - { offset: 0x152179, size: 0x8, addend: 0x0, symName: _OUTLINED_FUNCTION_258, symObjAddr: 0x3C334, symBinAddr: 0x3AF34, symSize: 0x10 }
  - { offset: 0x152190, size: 0x8, addend: 0x0, symName: _OUTLINED_FUNCTION_301, symObjAddr: 0x3C574, symBinAddr: 0x3B174, symSize: 0xC }
  - { offset: 0x1521A7, size: 0x8, addend: 0x0, symName: _OUTLINED_FUNCTION_304, symObjAddr: 0x3C59C, symBinAddr: 0x3B19C, symSize: 0xC }
  - { offset: 0x1521BE, size: 0x8, addend: 0x0, symName: _OUTLINED_FUNCTION_310, symObjAddr: 0x3C5F8, symBinAddr: 0x3B1F8, symSize: 0xC }
  - { offset: 0x1521D5, size: 0x8, addend: 0x0, symName: _OUTLINED_FUNCTION_313, symObjAddr: 0x3C61C, symBinAddr: 0x3B21C, symSize: 0xC }
  - { offset: 0x1521EC, size: 0x8, addend: 0x0, symName: _OUTLINED_FUNCTION_347, symObjAddr: 0x3C7D4, symBinAddr: 0x3B3D4, symSize: 0xC }
  - { offset: 0x152203, size: 0x8, addend: 0x0, symName: _OUTLINED_FUNCTION_398, symObjAddr: 0x3CAF0, symBinAddr: 0x3B6F0, symSize: 0xC }
  - { offset: 0x15221A, size: 0x8, addend: 0x0, symName: _OUTLINED_FUNCTION_413, symObjAddr: 0x3CBA0, symBinAddr: 0x3B7A0, symSize: 0x24 }
  - { offset: 0x152231, size: 0x8, addend: 0x0, symName: _OUTLINED_FUNCTION_460, symObjAddr: 0x3CDF4, symBinAddr: 0x3B9F4, symSize: 0x8 }
  - { offset: 0x152248, size: 0x8, addend: 0x0, symName: _OUTLINED_FUNCTION_498, symObjAddr: 0x3D05C, symBinAddr: 0x3BC5C, symSize: 0xC }
  - { offset: 0x15225F, size: 0x8, addend: 0x0, symName: _OUTLINED_FUNCTION_499, symObjAddr: 0x3D068, symBinAddr: 0x3BC68, symSize: 0xC }
  - { offset: 0x152276, size: 0x8, addend: 0x0, symName: _OUTLINED_FUNCTION_503, symObjAddr: 0x3D098, symBinAddr: 0x3BC98, symSize: 0xC }
  - { offset: 0x15228D, size: 0x8, addend: 0x0, symName: _OUTLINED_FUNCTION_513, symObjAddr: 0x3D134, symBinAddr: 0x3BD34, symSize: 0x14 }
  - { offset: 0x1522A4, size: 0x8, addend: 0x0, symName: _OUTLINED_FUNCTION_585, symObjAddr: 0x3D524, symBinAddr: 0x3C124, symSize: 0x8 }
  - { offset: 0x1522BB, size: 0x8, addend: 0x0, symName: _OUTLINED_FUNCTION_619, symObjAddr: 0x3D6EC, symBinAddr: 0x3C2EC, symSize: 0x24 }
  - { offset: 0x1522D2, size: 0x8, addend: 0x0, symName: _OUTLINED_FUNCTION_676, symObjAddr: 0x3DA54, symBinAddr: 0x3C654, symSize: 0x20 }
  - { offset: 0x1522E9, size: 0x8, addend: 0x0, symName: _OUTLINED_FUNCTION_712, symObjAddr: 0x3DCB8, symBinAddr: 0x3C8B8, symSize: 0x8 }
  - { offset: 0x152300, size: 0x8, addend: 0x0, symName: _OUTLINED_FUNCTION_716, symObjAddr: 0x3DCE8, symBinAddr: 0x3C8E8, symSize: 0x1C }
  - { offset: 0x152317, size: 0x8, addend: 0x0, symName: _OUTLINED_FUNCTION_755, symObjAddr: 0x3DED0, symBinAddr: 0x3CAD0, symSize: 0xC }
  - { offset: 0x15232E, size: 0x8, addend: 0x0, symName: _OUTLINED_FUNCTION_762, symObjAddr: 0x3DF40, symBinAddr: 0x3CB40, symSize: 0x10 }
  - { offset: 0x152345, size: 0x8, addend: 0x0, symName: _OUTLINED_FUNCTION_793, symObjAddr: 0x3E0AC, symBinAddr: 0x3CCAC, symSize: 0x10 }
  - { offset: 0x15235C, size: 0x8, addend: 0x0, symName: _OUTLINED_FUNCTION_795, symObjAddr: 0x3E0C8, symBinAddr: 0x3CCC8, symSize: 0x8 }
  - { offset: 0x152373, size: 0x8, addend: 0x0, symName: _OUTLINED_FUNCTION_813, symObjAddr: 0x3E1A4, symBinAddr: 0x3CDA4, symSize: 0x1C }
  - { offset: 0x15238A, size: 0x8, addend: 0x0, symName: _OUTLINED_FUNCTION_826, symObjAddr: 0x3E244, symBinAddr: 0x3CE44, symSize: 0x10 }
  - { offset: 0x1523A1, size: 0x8, addend: 0x0, symName: _OUTLINED_FUNCTION_836, symObjAddr: 0x3E2E4, symBinAddr: 0x3CEE4, symSize: 0x10 }
  - { offset: 0x1523B8, size: 0x8, addend: 0x0, symName: _OUTLINED_FUNCTION_870, symObjAddr: 0x3E51C, symBinAddr: 0x3D11C, symSize: 0x18 }
  - { offset: 0x1523CF, size: 0x8, addend: 0x0, symName: _OUTLINED_FUNCTION_871, symObjAddr: 0x3E534, symBinAddr: 0x3D134, symSize: 0x18 }
  - { offset: 0x1523E6, size: 0x8, addend: 0x0, symName: _OUTLINED_FUNCTION_925, symObjAddr: 0x3E858, symBinAddr: 0x3D458, symSize: 0xC }
  - { offset: 0x1523FD, size: 0x8, addend: 0x0, symName: _OUTLINED_FUNCTION_935, symObjAddr: 0x3E8D4, symBinAddr: 0x3D4D4, symSize: 0xC }
  - { offset: 0x152414, size: 0x8, addend: 0x0, symName: _OUTLINED_FUNCTION_936, symObjAddr: 0x3E8E0, symBinAddr: 0x3D4E0, symSize: 0xC }
  - { offset: 0x15242B, size: 0x8, addend: 0x0, symName: _OUTLINED_FUNCTION_937, symObjAddr: 0x3E8EC, symBinAddr: 0x3D4EC, symSize: 0xC }
  - { offset: 0x152442, size: 0x8, addend: 0x0, symName: _OUTLINED_FUNCTION_942, symObjAddr: 0x3E920, symBinAddr: 0x3D520, symSize: 0x8 }
  - { offset: 0x152459, size: 0x8, addend: 0x0, symName: _OUTLINED_FUNCTION_950, symObjAddr: 0x3E984, symBinAddr: 0x3D584, symSize: 0xC }
  - { offset: 0x152470, size: 0x8, addend: 0x0, symName: _OUTLINED_FUNCTION_1007, symObjAddr: 0x3EBD0, symBinAddr: 0x3D7D0, symSize: 0xC }
  - { offset: 0x152487, size: 0x8, addend: 0x0, symName: _OUTLINED_FUNCTION_1026, symObjAddr: 0x3EC84, symBinAddr: 0x3D884, symSize: 0x8 }
  - { offset: 0x15249E, size: 0x8, addend: 0x0, symName: _OUTLINED_FUNCTION_1035, symObjAddr: 0x3ECDC, symBinAddr: 0x3D8DC, symSize: 0x8 }
  - { offset: 0x1524B5, size: 0x8, addend: 0x0, symName: _OUTLINED_FUNCTION_1063, symObjAddr: 0x3EDF0, symBinAddr: 0x3D9F0, symSize: 0x8 }
  - { offset: 0x1524CC, size: 0x8, addend: 0x0, symName: _OUTLINED_FUNCTION_1090, symObjAddr: 0x3EEE8, symBinAddr: 0x3DAE8, symSize: 0xC }
  - { offset: 0x1524E3, size: 0x8, addend: 0x0, symName: _OUTLINED_FUNCTION_1111, symObjAddr: 0x3EFF0, symBinAddr: 0x3DBF0, symSize: 0x14 }
  - { offset: 0x1524FA, size: 0x8, addend: 0x0, symName: _OUTLINED_FUNCTION_1125, symObjAddr: 0x3F0C0, symBinAddr: 0x3DCC0, symSize: 0xC }
  - { offset: 0x152511, size: 0x8, addend: 0x0, symName: _OUTLINED_FUNCTION_1128, symObjAddr: 0x3F0F4, symBinAddr: 0x3DCF4, symSize: 0x14 }
  - { offset: 0x152528, size: 0x8, addend: 0x0, symName: _OUTLINED_FUNCTION_1146, symObjAddr: 0x3F20C, symBinAddr: 0x3DE0C, symSize: 0xC }
  - { offset: 0x15253F, size: 0x8, addend: 0x0, symName: _OUTLINED_FUNCTION_1151, symObjAddr: 0x3F248, symBinAddr: 0x3DE48, symSize: 0x14 }
  - { offset: 0x11244E, size: 0x8, addend: 0x0, symName: '__ZN5serde2de5impls74_$LT$impl$u20$serde..de..Deserialize$u20$for$u20$alloc..string..String$GT$11deserialize17h4d31640d4eea38d3E', symObjAddr: 0x240F4, symBinAddr: 0x23BA8, symSize: 0xA4 }
  - { offset: 0x1124F6, size: 0x8, addend: 0x0, symName: '__ZN5serde2de5impls74_$LT$impl$u20$serde..de..Deserialize$u20$for$u20$alloc..string..String$GT$11deserialize17h79d6fc8495ef0756E', symObjAddr: 0x24198, symBinAddr: 0x23C4C, symSize: 0x184 }
  - { offset: 0x11280F, size: 0x8, addend: 0x0, symName: '__ZN5serde2de5impls60_$LT$impl$u20$serde..de..Deserialize$u20$for$u20$$RF$str$GT$11deserialize17h64fc3cd4e8788c3fE', symObjAddr: 0x2403C, symBinAddr: 0x23AF0, symSize: 0xB8 }
  - { offset: 0x112A00, size: 0x8, addend: 0x0, symName: '__ZN67_$LT$serde..de..impls..StrVisitor$u20$as$u20$serde..de..Visitor$GT$20visit_borrowed_bytes17hbc080f1f1397e86dE', symObjAddr: 0x2483C, symBinAddr: 0x23DD0, symSize: 0x58 }
  - { offset: 0x112AFC, size: 0x8, addend: 0x0, symName: '__ZN5serde2de5impls57_$LT$impl$u20$serde..de..Deserialize$u20$for$u20$bool$GT$11deserialize17h4dcec170a4134d7eE', symObjAddr: 0x23DE4, symBinAddr: 0x23898, symSize: 0x1AC }
  - { offset: 0x112D67, size: 0x8, addend: 0x0, symName: '__ZN5serde2de5impls57_$LT$impl$u20$serde..de..Deserialize$u20$for$u20$bool$GT$11deserialize17hb6a76df05aa6c93aE', symObjAddr: 0x23F90, symBinAddr: 0x23A44, symSize: 0xAC }
  - { offset: 0x112E2A, size: 0x8, addend: 0x0, symName: '__ZN70_$LT$serde..de..impls..StringVisitor$u20$as$u20$serde..de..Visitor$GT$11visit_bytes17hb6e698edb15dd4a8E', symObjAddr: 0x24894, symBinAddr: 0x23E28, symSize: 0x68 }
  - { offset: 0x113B9B, size: 0x8, addend: 0x0, symName: __ZN5serde2de7Visitor11visit_bytes17h059b37f2f3e433b0E, symObjAddr: 0x2431C, symBinAddr: 0x3EE94, symSize: 0x2C }
  - { offset: 0x113BEB, size: 0x8, addend: 0x0, symName: __ZN5serde2de7Visitor11visit_bytes17h376f6322f273d517E, symObjAddr: 0x24348, symBinAddr: 0x3EEC0, symSize: 0x2C }
  - { offset: 0x113C3C, size: 0x8, addend: 0x0, symName: __ZN5serde2de7Visitor11visit_bytes17h6885537e121707bbE, symObjAddr: 0x24374, symBinAddr: 0x3EEEC, symSize: 0x2C }
  - { offset: 0x113C8D, size: 0x8, addend: 0x0, symName: __ZN5serde2de7Visitor11visit_bytes17h833bac0c667e8b20E, symObjAddr: 0x243A0, symBinAddr: 0x3EF18, symSize: 0x2C }
  - { offset: 0x113CDD, size: 0x8, addend: 0x0, symName: __ZN5serde2de7Visitor11visit_bytes17h92a4456020dbc0ceE, symObjAddr: 0x243CC, symBinAddr: 0x3EF44, symSize: 0x2C }
  - { offset: 0x113D2D, size: 0x8, addend: 0x0, symName: __ZN5serde2de7Visitor11visit_bytes17h9c3071bf67757e53E, symObjAddr: 0x243F8, symBinAddr: 0x3EF70, symSize: 0x2C }
  - { offset: 0x113D7E, size: 0x8, addend: 0x0, symName: __ZN5serde2de7Visitor11visit_bytes17ha1ce68556dd879e1E, symObjAddr: 0x24424, symBinAddr: 0x3EF9C, symSize: 0x2C }
  - { offset: 0x113DCF, size: 0x8, addend: 0x0, symName: __ZN5serde2de7Visitor11visit_bytes17hde5ce44d9aae2171E, symObjAddr: 0x24450, symBinAddr: 0x3EFC8, symSize: 0x2C }
  - { offset: 0x113E1F, size: 0x8, addend: 0x0, symName: __ZN5serde2de7Visitor11visit_bytes17he97e75fa39ad0b86E, symObjAddr: 0x2447C, symBinAddr: 0x3EFF4, symSize: 0x2C }
  - { offset: 0x113E6F, size: 0x8, addend: 0x0, symName: __ZN5serde2de7Visitor11visit_bytes17hef14c86d5012acedE, symObjAddr: 0x244A8, symBinAddr: 0x3F020, symSize: 0x2C }
  - { offset: 0x113EBF, size: 0x8, addend: 0x0, symName: __ZN5serde2de7Visitor9visit_i6417hec1cf13a0bd68289E, symObjAddr: 0x244D4, symBinAddr: 0x3F04C, symSize: 0x2C }
  - { offset: 0x113F10, size: 0x8, addend: 0x0, symName: __ZN5serde2de7Visitor9visit_i6417h0384a8bd035ea25cE, symObjAddr: 0x24500, symBinAddr: 0x3F078, symSize: 0x2C }
  - { offset: 0x113F61, size: 0x8, addend: 0x0, symName: __ZN5serde2de7Visitor9visit_i6417h694e152c09c8f5ccE, symObjAddr: 0x2452C, symBinAddr: 0x3F0A4, symSize: 0x2C }
  - { offset: 0x113FB1, size: 0x8, addend: 0x0, symName: __ZN5serde2de7Visitor9visit_i6417ha8ab7786dddc31f9E, symObjAddr: 0x24558, symBinAddr: 0x3F0D0, symSize: 0x2C }
  - { offset: 0x114001, size: 0x8, addend: 0x0, symName: __ZN5serde2de7Visitor9visit_i6417h9b3eaa9d379f8240E, symObjAddr: 0x24584, symBinAddr: 0x3F0FC, symSize: 0x2C }
  - { offset: 0x114051, size: 0x8, addend: 0x0, symName: __ZN5serde2de7Visitor9visit_i6417h090da8eb3b3ec147E, symObjAddr: 0x245B0, symBinAddr: 0x3F128, symSize: 0x2C }
  - { offset: 0x1140A1, size: 0x8, addend: 0x0, symName: __ZN5serde2de7Visitor9visit_i6417h902bbc2f71190c73E, symObjAddr: 0x245DC, symBinAddr: 0x3F154, symSize: 0x2C }
  - { offset: 0x1140F1, size: 0x8, addend: 0x0, symName: __ZN5serde2de7Visitor9visit_i6417h706e9d9177c0ddb8E, symObjAddr: 0x24608, symBinAddr: 0x3F180, symSize: 0x2C }
  - { offset: 0x114141, size: 0x8, addend: 0x0, symName: __ZN5serde2de7Visitor9visit_i6417h3242f4d5fda8d50fE, symObjAddr: 0x24634, symBinAddr: 0x3F1AC, symSize: 0x2C }
  - { offset: 0x114192, size: 0x8, addend: 0x0, symName: __ZN5serde2de7Visitor9visit_str17h0505b81690cf6cddE, symObjAddr: 0x24660, symBinAddr: 0x3F1D8, symSize: 0x2C }
  - { offset: 0x1141E3, size: 0x8, addend: 0x0, symName: __ZN5serde2de7Visitor9visit_str17h08acbf7961ea7f9aE, symObjAddr: 0x2468C, symBinAddr: 0x3F204, symSize: 0x2C }
  - { offset: 0x114234, size: 0x8, addend: 0x0, symName: __ZN5serde2de7Visitor9visit_str17h0ed515c10e8af181E, symObjAddr: 0x246B8, symBinAddr: 0x3F230, symSize: 0x2C }
  - { offset: 0x114284, size: 0x8, addend: 0x0, symName: __ZN5serde2de7Visitor9visit_str17h2a88d19a04188167E, symObjAddr: 0x246E4, symBinAddr: 0x3F25C, symSize: 0x2C }
  - { offset: 0x1142D4, size: 0x8, addend: 0x0, symName: __ZN5serde2de7Visitor9visit_str17h4a2cb2962e18e1b6E, symObjAddr: 0x24710, symBinAddr: 0x3F288, symSize: 0x2C }
  - { offset: 0x114324, size: 0x8, addend: 0x0, symName: __ZN5serde2de7Visitor9visit_str17h8f7dd0b4cc77c653E, symObjAddr: 0x2473C, symBinAddr: 0x3F2B4, symSize: 0x28 }
  - { offset: 0x114375, size: 0x8, addend: 0x0, symName: __ZN5serde2de7Visitor9visit_str17ha9ca80d5cf7703f2E, symObjAddr: 0x24764, symBinAddr: 0x3F2DC, symSize: 0x28 }
  - { offset: 0x1143C6, size: 0x8, addend: 0x0, symName: __ZN5serde2de7Visitor9visit_str17hb119e2700af933efE, symObjAddr: 0x2478C, symBinAddr: 0x3F304, symSize: 0x2C }
  - { offset: 0x114416, size: 0x8, addend: 0x0, symName: __ZN5serde2de7Visitor9visit_str17hb4e46e95376ff8c1E, symObjAddr: 0x247B8, symBinAddr: 0x3F330, symSize: 0x2C }
  - { offset: 0x114466, size: 0x8, addend: 0x0, symName: __ZN5serde2de7Visitor9visit_str17hb8d16b8070128934E, symObjAddr: 0x247E4, symBinAddr: 0x3F35C, symSize: 0x2C }
  - { offset: 0x1144B7, size: 0x8, addend: 0x0, symName: __ZN5serde2de7Visitor9visit_str17hf47f331b09652ac5E, symObjAddr: 0x24810, symBinAddr: 0x3F388, symSize: 0x2C }
  - { offset: 0x114E74, size: 0x8, addend: 0x0, symName: '__ZN41_$LT$T$u20$as$u20$serde..de..Expected$GT$3fmt17h03ab5d7787732481E', symObjAddr: 0x23938, symBinAddr: 0x233EC, symSize: 0x18 }
  - { offset: 0x114EEE, size: 0x8, addend: 0x0, symName: '__ZN41_$LT$T$u20$as$u20$serde..de..Expected$GT$3fmt17h1889d6f6be794a4fE', symObjAddr: 0x23950, symBinAddr: 0x23404, symSize: 0x18 }
  - { offset: 0x114F68, size: 0x8, addend: 0x0, symName: '__ZN41_$LT$T$u20$as$u20$serde..de..Expected$GT$3fmt17h19fb2b560a9e3c34E', symObjAddr: 0x23968, symBinAddr: 0x2341C, symSize: 0x14 }
  - { offset: 0x114FE0, size: 0x8, addend: 0x0, symName: '__ZN41_$LT$T$u20$as$u20$serde..de..Expected$GT$3fmt17h2db4635a7e57b53fE', symObjAddr: 0x2397C, symBinAddr: 0x23430, symSize: 0x40 }
  - { offset: 0x115093, size: 0x8, addend: 0x0, symName: '__ZN41_$LT$T$u20$as$u20$serde..de..Expected$GT$3fmt17h7c405d8e90c94905E', symObjAddr: 0x239F0, symBinAddr: 0x234A4, symSize: 0x18 }
  - { offset: 0x11510C, size: 0x8, addend: 0x0, symName: '__ZN41_$LT$T$u20$as$u20$serde..de..Expected$GT$3fmt17h899476dd5205e920E', symObjAddr: 0x23A08, symBinAddr: 0x234BC, symSize: 0x18 }
  - { offset: 0x115185, size: 0x8, addend: 0x0, symName: '__ZN41_$LT$T$u20$as$u20$serde..de..Expected$GT$3fmt17ha538d62ed478a5a9E', symObjAddr: 0x23A20, symBinAddr: 0x234D4, symSize: 0x14 }
  - { offset: 0x1151FE, size: 0x8, addend: 0x0, symName: '__ZN41_$LT$T$u20$as$u20$serde..de..Expected$GT$3fmt17ha5dd3a713f93f116E', symObjAddr: 0x23A34, symBinAddr: 0x234E8, symSize: 0x14 }
  - { offset: 0x115277, size: 0x8, addend: 0x0, symName: '__ZN41_$LT$T$u20$as$u20$serde..de..Expected$GT$3fmt17hc429262f0ef29634E', symObjAddr: 0x23A48, symBinAddr: 0x234FC, symSize: 0x14 }
  - { offset: 0x1152F0, size: 0x8, addend: 0x0, symName: '__ZN41_$LT$T$u20$as$u20$serde..de..Expected$GT$3fmt17hd77e43da9ddaa49cE', symObjAddr: 0x23A5C, symBinAddr: 0x23510, symSize: 0x18 }
  - { offset: 0x115369, size: 0x8, addend: 0x0, symName: '__ZN41_$LT$T$u20$as$u20$serde..de..Expected$GT$3fmt17hd7bc6fcebacb8444E', symObjAddr: 0x23A74, symBinAddr: 0x23528, symSize: 0x18 }
  - { offset: 0x1153E2, size: 0x8, addend: 0x0, symName: '__ZN41_$LT$T$u20$as$u20$serde..de..Expected$GT$3fmt17hdd6c6da3b0863eefE', symObjAddr: 0x23A8C, symBinAddr: 0x23540, symSize: 0x18 }
  - { offset: 0x11545B, size: 0x8, addend: 0x0, symName: '__ZN41_$LT$T$u20$as$u20$serde..de..Expected$GT$3fmt17he28e28af0cbd0157E', symObjAddr: 0x23AA4, symBinAddr: 0x23558, symSize: 0x14 }
  - { offset: 0x1154D5, size: 0x8, addend: 0x0, symName: '__ZN41_$LT$T$u20$as$u20$serde..de..Expected$GT$3fmt17heeb7cd4a3b432a52E', symObjAddr: 0x23AB8, symBinAddr: 0x2356C, symSize: 0x18 }
  - { offset: 0x11554E, size: 0x8, addend: 0x0, symName: '__ZN41_$LT$T$u20$as$u20$serde..de..Expected$GT$3fmt17hf73dcb743a3850f0E', symObjAddr: 0x23AD0, symBinAddr: 0x23584, symSize: 0x14 }
  - { offset: 0x11662E, size: 0x8, addend: 0x0, symName: '__ZN14powersync_core6schema10table_info1_105_$LT$impl$u20$serde..de..Deserialize$u20$for$u20$powersync_core..schema..table_info..PendingStatement$GT$11deserialize17ha21e8f6e9fcb5ebbE', symObjAddr: 0x24AAC, symBinAddr: 0x24040, symSize: 0x474 }
  - { offset: 0x118179, size: 0x8, addend: 0x0, symName: '__ZN81_$LT$alloc..vec..Vec$LT$T$C$A$GT$$u20$as$u20$core..ops..index..Index$LT$I$GT$$GT$5index17h5157d20e0d3c9036E', symObjAddr: 0x23B0C, symBinAddr: 0x235C0, symSize: 0x20 }
  - { offset: 0x11915F, size: 0x8, addend: 0x0, symName: '__ZN5alloc5slice29_$LT$impl$u20$$u5b$T$u5d$$GT$4join17h44e32233eff7fd84E', symObjAddr: 0x23CC0, symBinAddr: 0x23774, symSize: 0x124 }
  - { offset: 0x119BA7, size: 0x8, addend: 0x0, symName: __ZN5alloc3fmt6format17h0529b63aa8275af9E.1929, symObjAddr: 0x2496C, symBinAddr: 0x23F00, symSize: 0x38 }
  - { offset: 0x11A615, size: 0x8, addend: 0x0, symName: '__ZN4core3ptr95drop_in_place$LT$alloc..vec..Vec$LT$powersync_core..sync..line..StreamSubscriptionError$GT$$GT$17hbc919dc6cd53e5e1E', symObjAddr: 0x236C0, symBinAddr: 0x23174, symSize: 0x20 }
  - { offset: 0x11A682, size: 0x8, addend: 0x0, symName: '__ZN4core3ptr100drop_in_place$LT$core..option..Option$LT$powersync_core..sync..line..StreamSubscriptionError$GT$$GT$17hf88ab95d59cb9514E', symObjAddr: 0x23708, symBinAddr: 0x231BC, symSize: 0x18 }
  - { offset: 0x11A778, size: 0x8, addend: 0x0, symName: '__ZN4core3ptr87drop_in_place$LT$core..option..Option$LT$powersync_core..sync..line..OplogEntry$GT$$GT$17hc12fa42dbf39c5afE', symObjAddr: 0x237C0, symBinAddr: 0x23274, symSize: 0x48 }
  - { offset: 0x11A844, size: 0x8, addend: 0x0, symName: '__ZN4core3ptr91drop_in_place$LT$core..option..Option$LT$powersync_core..sync..line..BucketChecksum$GT$$GT$17h3c5d71ee7afb619dE', symObjAddr: 0x2384C, symBinAddr: 0x23300, symSize: 0x34 }
  - { offset: 0x11A8F7, size: 0x8, addend: 0x0, symName: '__ZN4core3ptr94drop_in_place$LT$core..option..Option$LT$powersync_core..sync..line..StreamDescription$GT$$GT$17hc993e1a10552ee18E', symObjAddr: 0x238F0, symBinAddr: 0x233A4, symSize: 0x48 }
  - { offset: 0x11AAAC, size: 0x8, addend: 0x0, symName: '__ZN4core3ptr101drop_in_place$LT$core..option..Option$LT$powersync_core..sync_local..PreparedPendingStatement$GT$$GT$17hb8ddb169e88b62f3E', symObjAddr: 0x23AEC, symBinAddr: 0x235A0, symSize: 0x10 }
  - { offset: 0x11ABBD, size: 0x8, addend: 0x0, symName: '__ZN4core3ptr59drop_in_place$LT$serde..__private..de..content..Content$GT$17hc75cc8c56da81266E.1937', symObjAddr: 0x24A1C, symBinAddr: 0x23FB0, symSize: 0x70 }
  - { offset: 0x11AC44, size: 0x8, addend: 0x0, symName: '__ZN4core3ptr84drop_in_place$LT$alloc..boxed..Box$LT$serde..__private..de..content..Content$GT$$GT$17hc52b5449d0231028E.1938', symObjAddr: 0x24A8C, symBinAddr: 0x24020, symSize: 0x20 }
  - { offset: 0x11AD25, size: 0x8, addend: 0x0, symName: '__ZN4core3ptr78drop_in_place$LT$powersync_core..schema..table_info..PendingStatementValue$GT$17h15cc04aabc5e92b6E', symObjAddr: 0x24F20, symBinAddr: 0x244B4, symSize: 0x14 }
  - { offset: 0x11F1CD, size: 0x8, addend: 0x0, symName: '__ZN4core5slice29_$LT$impl$u20$$u5b$T$u5d$$GT$20binary_search_by_key28_$u7b$$u7b$closure$u7d$$u7d$17h7c8997709b28e0ceE', symObjAddr: 0x23AFC, symBinAddr: 0x235B0, symSize: 0x10 }
  - { offset: 0x11F42A, size: 0x8, addend: 0x0, symName: __ZN4core5slice4sort6stable14driftsort_main17h03a95c65ea3c8899E, symObjAddr: 0x23B2C, symBinAddr: 0x235E0, symSize: 0x58 }
  - { offset: 0x11F578, size: 0x8, addend: 0x0, symName: __ZN4core5slice4sort6stable14driftsort_main17h051758a8f524e408E, symObjAddr: 0x23B84, symBinAddr: 0x23638, symSize: 0x58 }
  - { offset: 0x11F6C6, size: 0x8, addend: 0x0, symName: __ZN4core5slice4sort6stable14driftsort_main17h30c829bcdf569c1cE, symObjAddr: 0x23BDC, symBinAddr: 0x23690, symSize: 0x8C }
  - { offset: 0x11F8DD, size: 0x8, addend: 0x0, symName: __ZN4core5slice4sort6stable14driftsort_main17h6656869dd1453bbbE, symObjAddr: 0x23C68, symBinAddr: 0x2371C, symSize: 0x58 }
  - { offset: 0x11FFE5, size: 0x8, addend: 0x0, symName: '__ZN44_$LT$$RF$T$u20$as$u20$core..fmt..Display$GT$3fmt17he34ed9dcaa3cfa61E', symObjAddr: 0x23AE4, symBinAddr: 0x23598, symSize: 0x8 }
  - { offset: 0x120095, size: 0x8, addend: 0x0, symName: __ZN4core4iter6traits8iterator8Iterator7collect17hdb0d52f376153f11E, symObjAddr: 0x249A4, symBinAddr: 0x23F38, symSize: 0x78 }
  - { offset: 0x12252C, size: 0x8, addend: 0x0, symName: '__ZN10serde_with2de41_$LT$impl$u20$serde_with..As$LT$T$GT$$GT$11deserialize17ha6715a1e9c683edcE', symObjAddr: 0x234BC, symBinAddr: 0x22F70, symSize: 0x11C }
  - { offset: 0x1226A3, size: 0x8, addend: 0x0, symName: '__ZN10serde_with2de41_$LT$impl$u20$serde_with..As$LT$T$GT$$GT$11deserialize17hb90d16cab3c51e65E', symObjAddr: 0x235D8, symBinAddr: 0x2308C, symSize: 0x80 }
  - { offset: 0x122774, size: 0x8, addend: 0x0, symName: '__ZN10serde_with2de41_$LT$impl$u20$serde_with..As$LT$T$GT$$GT$11deserialize17hfed7252b683e30c1E', symObjAddr: 0x23658, symBinAddr: 0x2310C, symSize: 0x68 }
  - { offset: 0x1228ED, size: 0x8, addend: 0x0, symName: '__ZN5alloc3vec16Vec$LT$T$C$A$GT$4push17hb261b61714b25719E', symObjAddr: 0x236E0, symBinAddr: 0x23194, symSize: 0x28 }
  - { offset: 0x12295B, size: 0x8, addend: 0x0, symName: '__ZN5alloc7raw_vec20RawVecInner$LT$A$GT$16with_capacity_in17he67208dd9b65800dE.1480', symObjAddr: 0x23720, symBinAddr: 0x231D4, symSize: 0x38 }
  - { offset: 0x1229AF, size: 0x8, addend: 0x0, symName: '__ZN5alloc3vec16Vec$LT$T$C$A$GT$4push17hd264623d98259dadE', symObjAddr: 0x23758, symBinAddr: 0x2320C, symSize: 0x28 }
  - { offset: 0x122AD8, size: 0x8, addend: 0x0, symName: '__ZN5alloc3vec16Vec$LT$T$C$A$GT$4push17hfb2a186a41766624E', symObjAddr: 0x23780, symBinAddr: 0x23234, symSize: 0x40 }
  - { offset: 0x122CF5, size: 0x8, addend: 0x0, symName: '__ZN5alloc3vec16Vec$LT$T$C$A$GT$4push17h13bd11a257136d19E', symObjAddr: 0x23808, symBinAddr: 0x232BC, symSize: 0x44 }
  - { offset: 0x122EF4, size: 0x8, addend: 0x0, symName: '__ZN5alloc3vec16Vec$LT$T$C$A$GT$4push17h4e1b956eaeb8df2bE', symObjAddr: 0x23880, symBinAddr: 0x23334, symSize: 0x48 }
  - { offset: 0x123041, size: 0x8, addend: 0x0, symName: '__ZN5alloc3vec16Vec$LT$T$C$A$GT$4push17h88324be2eb9fb4b7E', symObjAddr: 0x238C8, symBinAddr: 0x2337C, symSize: 0x28 }
  - { offset: 0x123234, size: 0x8, addend: 0x0, symName: __ZN4core3fmt9Arguments6as_str17h4380a9918dacf37aE.1545, symObjAddr: 0x239BC, symBinAddr: 0x23470, symSize: 0x34 }
  - { offset: 0x1233CD, size: 0x8, addend: 0x0, symName: __ZN14powersync_core6schema10table_info5Table9from_json17h07de956847f81adfE, symObjAddr: 0x248FC, symBinAddr: 0x23E90, symSize: 0x70 }
  - { offset: 0x123BCA, size: 0x8, addend: 0x0, symName: _OUTLINED_FUNCTION_46, symObjAddr: 0x3B418, symBinAddr: 0x3A018, symSize: 0x18 }
  - { offset: 0x123BE1, size: 0x8, addend: 0x0, symName: _OUTLINED_FUNCTION_115, symObjAddr: 0x3B99C, symBinAddr: 0x3A59C, symSize: 0x2C }
  - { offset: 0x123BF8, size: 0x8, addend: 0x0, symName: _OUTLINED_FUNCTION_124, symObjAddr: 0x3BA74, symBinAddr: 0x3A674, symSize: 0x28 }
  - { offset: 0x123C0F, size: 0x8, addend: 0x0, symName: _OUTLINED_FUNCTION_139, symObjAddr: 0x3BBBC, symBinAddr: 0x3A7BC, symSize: 0x18 }
  - { offset: 0x123C26, size: 0x8, addend: 0x0, symName: _OUTLINED_FUNCTION_153, symObjAddr: 0x3BCC8, symBinAddr: 0x3A8C8, symSize: 0x24 }
  - { offset: 0x123C3D, size: 0x8, addend: 0x0, symName: _OUTLINED_FUNCTION_300, symObjAddr: 0x3C568, symBinAddr: 0x3B168, symSize: 0xC }
  - { offset: 0x123C54, size: 0x8, addend: 0x0, symName: _OUTLINED_FUNCTION_342, symObjAddr: 0x3C794, symBinAddr: 0x3B394, symSize: 0x10 }
  - { offset: 0x123C6B, size: 0x8, addend: 0x0, symName: _OUTLINED_FUNCTION_343, symObjAddr: 0x3C7A4, symBinAddr: 0x3B3A4, symSize: 0x10 }
  - { offset: 0x123C82, size: 0x8, addend: 0x0, symName: _OUTLINED_FUNCTION_531, symObjAddr: 0x3D278, symBinAddr: 0x3BE78, symSize: 0x10 }
  - { offset: 0x123C99, size: 0x8, addend: 0x0, symName: _OUTLINED_FUNCTION_613, symObjAddr: 0x3D66C, symBinAddr: 0x3C26C, symSize: 0x28 }
  - { offset: 0x123CB0, size: 0x8, addend: 0x0, symName: _OUTLINED_FUNCTION_719, symObjAddr: 0x3DD1C, symBinAddr: 0x3C91C, symSize: 0x8 }
  - { offset: 0x123CC7, size: 0x8, addend: 0x0, symName: _OUTLINED_FUNCTION_751, symObjAddr: 0x3DEA0, symBinAddr: 0x3CAA0, symSize: 0x8 }
  - { offset: 0x123CDE, size: 0x8, addend: 0x0, symName: _OUTLINED_FUNCTION_817, symObjAddr: 0x3E1F0, symBinAddr: 0x3CDF0, symSize: 0xC }
  - { offset: 0x123CF5, size: 0x8, addend: 0x0, symName: _OUTLINED_FUNCTION_940, symObjAddr: 0x3E90C, symBinAddr: 0x3D50C, symSize: 0xC }
  - { offset: 0x123D0C, size: 0x8, addend: 0x0, symName: _OUTLINED_FUNCTION_996, symObjAddr: 0x3EB6C, symBinAddr: 0x3D76C, symSize: 0x8 }
  - { offset: 0x123D23, size: 0x8, addend: 0x0, symName: _OUTLINED_FUNCTION_999, symObjAddr: 0x3EB88, symBinAddr: 0x3D788, symSize: 0x8 }
  - { offset: 0x123D3A, size: 0x8, addend: 0x0, symName: _OUTLINED_FUNCTION_1016, symObjAddr: 0x3EC20, symBinAddr: 0x3D820, symSize: 0x8 }
  - { offset: 0x123D51, size: 0x8, addend: 0x0, symName: _OUTLINED_FUNCTION_1046, symObjAddr: 0x3ED4C, symBinAddr: 0x3D94C, symSize: 0xC }
  - { offset: 0x123D68, size: 0x8, addend: 0x0, symName: _OUTLINED_FUNCTION_1051, symObjAddr: 0x3ED7C, symBinAddr: 0x3D97C, symSize: 0x8 }
  - { offset: 0x123D7F, size: 0x8, addend: 0x0, symName: _OUTLINED_FUNCTION_1092, symObjAddr: 0x3EF00, symBinAddr: 0x3DB00, symSize: 0x8 }
  - { offset: 0x123D96, size: 0x8, addend: 0x0, symName: _OUTLINED_FUNCTION_1176, symObjAddr: 0x3F3C4, symBinAddr: 0x3DFC4, symSize: 0xC }
  - { offset: 0x66BC, size: 0x8, addend: 0x0, symName: '__ZN72_$LT$$RF$str$u20$as$u20$alloc..ffi..c_str..CString..new..SpecNewImpl$GT$13spec_new_impl17he0b49577d0068055E', symObjAddr: 0x800, symBinAddr: 0xE24, symSize: 0xF0 }
  - { offset: 0x708E, size: 0x8, addend: 0x0, symName: __ZN5alloc3ffi5c_str7CString19_from_vec_unchecked17h26c3023a4411235cE, symObjAddr: 0x71C, symBinAddr: 0xD40, symSize: 0xE4 }
  - { offset: 0x766D, size: 0x8, addend: 0x0, symName: _OUTLINED_FUNCTION_55, symObjAddr: 0x3B4C4, symBinAddr: 0x3A0C4, symSize: 0x10 }
  - { offset: 0x7684, size: 0x8, addend: 0x0, symName: _OUTLINED_FUNCTION_92, symObjAddr: 0x3B7D4, symBinAddr: 0x3A3D4, symSize: 0x10 }
  - { offset: 0x769B, size: 0x8, addend: 0x0, symName: _OUTLINED_FUNCTION_445, symObjAddr: 0x3CD10, symBinAddr: 0x3B910, symSize: 0xC }
  - { offset: 0x76B2, size: 0x8, addend: 0x0, symName: _OUTLINED_FUNCTION_596, symObjAddr: 0x3D5AC, symBinAddr: 0x3C1AC, symSize: 0xC }
  - { offset: 0x76C9, size: 0x8, addend: 0x0, symName: _OUTLINED_FUNCTION_630, symObjAddr: 0x3D7E8, symBinAddr: 0x3C3E8, symSize: 0xC }
  - { offset: 0x1996E8, size: 0x8, addend: 0x0, symName: '__ZN128_$LT$$LT$serde..de..WithDecimalPoint$u20$as$u20$core..fmt..Display$GT$..fmt..LookForDecimalPoint$u20$as$u20$core..fmt..Write$GT$9write_str17h44c8eb49254e43d1E', symObjAddr: 0x351CC, symBinAddr: 0x34380, symSize: 0x74 }
  - { offset: 0x19982A, size: 0x8, addend: 0x0, symName: '__ZN128_$LT$$LT$serde..de..WithDecimalPoint$u20$as$u20$core..fmt..Display$GT$..fmt..LookForDecimalPoint$u20$as$u20$core..fmt..Write$GT$10write_char17hdec278dc97e7617dE', symObjAddr: 0x35240, symBinAddr: 0x343F4, symSize: 0x1C }
  - { offset: 0x199868, size: 0x8, addend: 0x0, symName: '__ZN66_$LT$serde..de..WithDecimalPoint$u20$as$u20$core..fmt..Display$GT$3fmt17h9bba7b377f3ca408E', symObjAddr: 0x354EC, symBinAddr: 0x346A0, symSize: 0xBC }
  - { offset: 0x199CE6, size: 0x8, addend: 0x0, symName: '__ZN60_$LT$serde..de..Unexpected$u20$as$u20$core..fmt..Display$GT$3fmt17h5a25b1d665aa157cE', symObjAddr: 0x352A8, symBinAddr: 0x3445C, symSize: 0x244 }
  - { offset: 0x19A032, size: 0x8, addend: 0x0, symName: '__ZN47_$LT$$RF$str$u20$as$u20$serde..de..Expected$GT$3fmt17hcc8ffd3d393b9e91E', symObjAddr: 0x355A8, symBinAddr: 0x3475C, symSize: 0x8 }
  - { offset: 0x19A073, size: 0x8, addend: 0x0, symName: '__ZN55_$LT$serde..de..OneOf$u20$as$u20$core..fmt..Display$GT$3fmt17h23ab9c7eb7e4af21E', symObjAddr: 0x355B0, symBinAddr: 0x34764, symSize: 0x164 }
  - { offset: 0x19A6AF, size: 0x8, addend: 0x0, symName: '__ZN44_$LT$$RF$T$u20$as$u20$core..fmt..Display$GT$3fmt17hf6c6dfc492dbb2d3E', symObjAddr: 0x35148, symBinAddr: 0x342FC, symSize: 0x8 }
  - { offset: 0x19A746, size: 0x8, addend: 0x0, symName: __ZN4core3fmt5Write9write_fmt17h6eae2a53aca954e0E, symObjAddr: 0x35150, symBinAddr: 0x34304, symSize: 0x48 }
  - { offset: 0x19BCAA, size: 0x8, addend: 0x0, symName: __ZN4core3fmt9Arguments23as_statically_known_str17hdf11e8f18910e68bE.2759, symObjAddr: 0x35198, symBinAddr: 0x3434C, symSize: 0x34 }
  - { offset: 0x19BCCF, size: 0x8, addend: 0x0, symName: __ZN4core3fmt9Arguments23as_statically_known_str17hdf11e8f18910e68bE.2759, symObjAddr: 0x35198, symBinAddr: 0x3434C, symSize: 0x34 }
  - { offset: 0x19BD29, size: 0x8, addend: 0x0, symName: __ZN4core3fmt9Formatter9write_fmt17h4fea1c6f215d0450E.2762, symObjAddr: 0x3525C, symBinAddr: 0x34410, symSize: 0x4C }
  - { offset: 0x19BEB4, size: 0x8, addend: 0x0, symName: _OUTLINED_FUNCTION_272, symObjAddr: 0x3C3D8, symBinAddr: 0x3AFD8, symSize: 0x14 }
  - { offset: 0x19BECB, size: 0x8, addend: 0x0, symName: _OUTLINED_FUNCTION_881, symObjAddr: 0x3E5DC, symBinAddr: 0x3D1DC, symSize: 0xC }
  - { offset: 0x9E7AE, size: 0x8, addend: 0x0, symName: '__ZN60_$LT$alloc..string..String$u20$as$u20$core..fmt..Display$GT$3fmt17ha955edb0988c2e07E', symObjAddr: 0x13B20, symBinAddr: 0x13834, symSize: 0xC }
  - { offset: 0xA0418, size: 0x8, addend: 0x0, symName: '__ZN5alloc3str21_$LT$impl$u20$str$GT$7replace17h0b6a10f907e657e0E', symObjAddr: 0x138EC, symBinAddr: 0x13600, symSize: 0x234 }
  - { offset: 0xA0BA6, size: 0x8, addend: 0x0, symName: __ZN5alloc3fmt6format17h0529b63aa8275af9E, symObjAddr: 0x13550, symBinAddr: 0x13264, symSize: 0x38 }
  - { offset: 0xA116A, size: 0x8, addend: 0x0, symName: '__ZN4core3ptr104drop_in_place$LT$core..option..Option$LT$powersync_core..sync..sync_status..SyncDownloadProgress$GT$$GT$17hb6645da27a686091E', symObjAddr: 0x1236C, symBinAddr: 0x12080, symSize: 0x14 }
  - { offset: 0xA1290, size: 0x8, addend: 0x0, symName: '__ZN4core3ptr103drop_in_place$LT$alloc..vec..Vec$LT$powersync_core..sync..sync_status..ActiveStreamSubscription$GT$$GT$17h00ccfb45cfd95c2bE', symObjAddr: 0x13530, symBinAddr: 0x13244, symSize: 0x20 }
  - { offset: 0xA1BEA, size: 0x8, addend: 0x0, symName: '__ZN4core4hash5impls50_$LT$impl$u20$core..hash..Hash$u20$for$u20$str$GT$4hash17h82dc738e22a5dab0E', symObjAddr: 0x115B8, symBinAddr: 0x112CC, symSize: 0xFC }
  - { offset: 0xA2C64, size: 0x8, addend: 0x0, symName: '__ZN110_$LT$core..ops..range..RangeFrom$LT$usize$GT$$u20$as$u20$core..slice..index..SliceIndex$LT$$u5b$T$u5d$$GT$$GT$5index17h87548baaa124d408E', symObjAddr: 0x116B4, symBinAddr: 0x113C8, symSize: 0x1C }
  - { offset: 0xA2DE4, size: 0x8, addend: 0x0, symName: '__ZN110_$LT$core..ops..range..RangeFrom$LT$usize$GT$$u20$as$u20$core..slice..index..SliceIndex$LT$$u5b$T$u5d$$GT$$GT$9index_mut17h1dd7187f55465181E.949', symObjAddr: 0x11E70, symBinAddr: 0x11B84, symSize: 0x1C }
  - { offset: 0xA2FDA, size: 0x8, addend: 0x0, symName: '__ZN4core5slice4sort6stable9quicksort9quicksort28_$u7b$$u7b$closure$u7d$$u7d$17h3c885a1b67d96568E', symObjAddr: 0x116D0, symBinAddr: 0x113E4, symSize: 0x1C }
  - { offset: 0xA3353, size: 0x8, addend: 0x0, symName: __ZN4core5slice4sort6stable9quicksort9quicksort17h5fa6300d3b915195E, symObjAddr: 0x116EC, symBinAddr: 0x11400, symSize: 0x514 }
  - { offset: 0xA4738, size: 0x8, addend: 0x0, symName: __ZN4core5slice4sort6stable9quicksort9quicksort17ha043887187984002E, symObjAddr: 0x11C00, symBinAddr: 0x11914, symSize: 0x270 }
  - { offset: 0xA50E4, size: 0x8, addend: 0x0, symName: __ZN4core5slice4sort6stable9quicksort9quicksort17he226aef7fff98166E, symObjAddr: 0x11E8C, symBinAddr: 0x11BA0, symSize: 0x270 }
  - { offset: 0xA5A90, size: 0x8, addend: 0x0, symName: __ZN4core5slice4sort6stable9quicksort9quicksort17hef2f2c75b0bf1464E, symObjAddr: 0x120FC, symBinAddr: 0x11E10, symSize: 0x270 }
  - { offset: 0xA9335, size: 0x8, addend: 0x0, symName: '__ZN86_$LT$serde_json..ser..Compound$LT$W$C$F$GT$$u20$as$u20$serde..ser..SerializeStruct$GT$15serialize_field17h785ad034cdc053baE', symObjAddr: 0x13138, symBinAddr: 0x12E4C, symSize: 0x40 }
  - { offset: 0xA941E, size: 0x8, addend: 0x0, symName: '__ZN86_$LT$serde_json..ser..Compound$LT$W$C$F$GT$$u20$as$u20$serde..ser..SerializeStruct$GT$3end17hda197b685ff2afc9E', symObjAddr: 0x13178, symBinAddr: 0x12E8C, symSize: 0x10 }
  - { offset: 0xA945F, size: 0x8, addend: 0x0, symName: '__ZN86_$LT$serde_json..ser..Compound$LT$W$C$F$GT$$u20$as$u20$serde..ser..SerializeStruct$GT$15serialize_field17h5099203dc970b0e6E', symObjAddr: 0x13D30, symBinAddr: 0x13A44, symSize: 0x90 }
  - { offset: 0xA9626, size: 0x8, addend: 0x0, symName: '__ZN86_$LT$serde_json..ser..Compound$LT$W$C$F$GT$$u20$as$u20$serde..ser..SerializeStruct$GT$15serialize_field17had620bd555f18312E', symObjAddr: 0x13DC0, symBinAddr: 0x13AD4, symSize: 0x30 }
  - { offset: 0xA96EB, size: 0x8, addend: 0x0, symName: __ZN10serde_json3ser9Formatter10end_object17h3c93583157809c3bE, symObjAddr: 0x131BC, symBinAddr: 0x12ED0, symSize: 0xC }
  - { offset: 0xA9726, size: 0x8, addend: 0x0, symName: __ZN10serde_json3ser9Formatter10end_object17h3c93583157809c3bE, symObjAddr: 0x131BC, symBinAddr: 0x12ED0, symSize: 0xC }
  - { offset: 0xA9744, size: 0x8, addend: 0x0, symName: __ZN10serde_json3ser9Formatter10end_object17h3c93583157809c3bE, symObjAddr: 0x131BC, symBinAddr: 0x12ED0, symSize: 0xC }
  - { offset: 0xA9768, size: 0x8, addend: 0x0, symName: __ZN10serde_json3ser9Formatter10end_object17h3c93583157809c3bE, symObjAddr: 0x131BC, symBinAddr: 0x12ED0, symSize: 0xC }
  - { offset: 0xA9884, size: 0x8, addend: 0x0, symName: '__ZN95_$LT$$RF$mut$u20$serde_json..ser..Serializer$LT$W$C$F$GT$$u20$as$u20$serde..ser..Serializer$GT$16serialize_struct17h256b7d98c422d5fbE', symObjAddr: 0x130DC, symBinAddr: 0x12DF0, symSize: 0x5C }
  - { offset: 0xA9922, size: 0x8, addend: 0x0, symName: '__ZN95_$LT$$RF$mut$u20$serde_json..ser..Serializer$LT$W$C$F$GT$$u20$as$u20$serde..ser..Serializer$GT$13serialize_map17h589f8e421e93d055E', symObjAddr: 0x131C8, symBinAddr: 0x12EDC, symSize: 0x4C }
  - { offset: 0xA9A8B, size: 0x8, addend: 0x0, symName: '__ZN83_$LT$serde_json..ser..Compound$LT$W$C$F$GT$$u20$as$u20$serde..ser..SerializeMap$GT$3end17h096b2bf2efe5a4a7E', symObjAddr: 0x13188, symBinAddr: 0x12E9C, symSize: 0x34 }
  - { offset: 0xAAC72, size: 0x8, addend: 0x0, symName: '__ZN95_$LT$powersync_core..sync..sync_status..DownloadSyncStatus$u20$as$u20$serde..ser..Serialize$GT$9serialize17hc95f15bdf7d1dd6eE', symObjAddr: 0x12380, symBinAddr: 0x12094, symSize: 0xD5C }
  - { offset: 0xAE60B, size: 0x8, addend: 0x0, symName: __ZN14powersync_core4util12quote_string17h1a341c97dea55b43E, symObjAddr: 0x1360C, symBinAddr: 0x13320, symSize: 0x68 }
  - { offset: 0xAE6E7, size: 0x8, addend: 0x0, symName: '__ZN73_$LT$powersync_core..util..QuotedString$u20$as$u20$core..fmt..Display$GT$3fmt17h05988bba21ed8261E', symObjAddr: 0x13674, symBinAddr: 0x13388, symSize: 0x1B8 }
  - { offset: 0xAE994, size: 0x8, addend: 0x0, symName: __ZN14powersync_core4util15quote_json_path17hd214c356496a615dE, symObjAddr: 0x1382C, symBinAddr: 0x13540, symSize: 0x68 }
  - { offset: 0xAEAC0, size: 0x8, addend: 0x0, symName: __ZN14powersync_core4util16quote_identifier17hc5fa7465a7091f8dE, symObjAddr: 0x13894, symBinAddr: 0x135A8, symSize: 0x58 }
  - { offset: 0xAEB14, size: 0x8, addend: 0x0, symName: __ZN14powersync_core4util19quote_internal_name17h1790c281697f6cf4E, symObjAddr: 0x13C78, symBinAddr: 0x1398C, symSize: 0x34 }
  - { offset: 0xAEB51, size: 0x8, addend: 0x0, symName: __ZN14powersync_core4util25quote_identifier_prefixed17hbacf41a6e9bf828fE, symObjAddr: 0x13CAC, symBinAddr: 0x139C0, symSize: 0x84 }
  - { offset: 0xB012A, size: 0x8, addend: 0x0, symName: __ZN14powersync_core4sync11sync_status19SyncStatusContainer12emit_changes17h294bbd3bb25e48e6E, symObjAddr: 0x13214, symBinAddr: 0x12F28, symSize: 0x2F8 }
  - { offset: 0xB2090, size: 0x8, addend: 0x0, symName: '__ZN4core4cell16RefCell$LT$T$GT$10borrow_mut17h83b154ba9812e1cbE', symObjAddr: 0x1350C, symBinAddr: 0x13220, symSize: 0x24 }
  - { offset: 0xB20B7, size: 0x8, addend: 0x0, symName: '__ZN4core4cell16RefCell$LT$T$GT$10borrow_mut17h83b154ba9812e1cbE', symObjAddr: 0x1350C, symBinAddr: 0x13220, symSize: 0x24 }
  - { offset: 0xB20D5, size: 0x8, addend: 0x0, symName: '__ZN4core4cell16RefCell$LT$T$GT$10borrow_mut17h83b154ba9812e1cbE', symObjAddr: 0x1350C, symBinAddr: 0x13220, symSize: 0x24 }
  - { offset: 0xB20F3, size: 0x8, addend: 0x0, symName: '__ZN4core4cell16RefCell$LT$T$GT$10borrow_mut17h83b154ba9812e1cbE', symObjAddr: 0x1350C, symBinAddr: 0x13220, symSize: 0x24 }
  - { offset: 0xB227E, size: 0x8, addend: 0x0, symName: __ZN14powersync_core4sync11sync_status24ActiveStreamSubscription10from_local17he69547a5062d4049E, symObjAddr: 0x13588, symBinAddr: 0x1329C, symSize: 0x84 }
  - { offset: 0xB26E2, size: 0x8, addend: 0x0, symName: __ZN4core3str7pattern14TwoWaySearcher4next17h47b52336068f95afE, symObjAddr: 0x13B2C, symBinAddr: 0x13840, symSize: 0x14C }
  - { offset: 0xB3416, size: 0x8, addend: 0x0, symName: _OUTLINED_FUNCTION_17, symObjAddr: 0x3B1C4, symBinAddr: 0x39DC4, symSize: 0x14 }
  - { offset: 0xB342D, size: 0x8, addend: 0x0, symName: _OUTLINED_FUNCTION_24, symObjAddr: 0x3B23C, symBinAddr: 0x39E3C, symSize: 0x14 }
  - { offset: 0xB3444, size: 0x8, addend: 0x0, symName: _OUTLINED_FUNCTION_53, symObjAddr: 0x3B4A0, symBinAddr: 0x3A0A0, symSize: 0x14 }
  - { offset: 0xB345B, size: 0x8, addend: 0x0, symName: _OUTLINED_FUNCTION_62, symObjAddr: 0x3B53C, symBinAddr: 0x3A13C, symSize: 0x18 }
  - { offset: 0xB3472, size: 0x8, addend: 0x0, symName: _OUTLINED_FUNCTION_65, symObjAddr: 0x3B574, symBinAddr: 0x3A174, symSize: 0x10 }
  - { offset: 0xB3489, size: 0x8, addend: 0x0, symName: _OUTLINED_FUNCTION_70, symObjAddr: 0x3B5C8, symBinAddr: 0x3A1C8, symSize: 0x64 }
  - { offset: 0xB34A0, size: 0x8, addend: 0x0, symName: _OUTLINED_FUNCTION_80, symObjAddr: 0x3B6D0, symBinAddr: 0x3A2D0, symSize: 0x24 }
  - { offset: 0xB34B7, size: 0x8, addend: 0x0, symName: _OUTLINED_FUNCTION_83, symObjAddr: 0x3B710, symBinAddr: 0x3A310, symSize: 0xC }
  - { offset: 0xB34CE, size: 0x8, addend: 0x0, symName: _OUTLINED_FUNCTION_84, symObjAddr: 0x3B71C, symBinAddr: 0x3A31C, symSize: 0xC }
  - { offset: 0xB34E5, size: 0x8, addend: 0x0, symName: _OUTLINED_FUNCTION_102, symObjAddr: 0x3B88C, symBinAddr: 0x3A48C, symSize: 0x14 }
  - { offset: 0xB34FC, size: 0x8, addend: 0x0, symName: _OUTLINED_FUNCTION_106, symObjAddr: 0x3B8EC, symBinAddr: 0x3A4EC, symSize: 0x14 }
  - { offset: 0xB3513, size: 0x8, addend: 0x0, symName: _OUTLINED_FUNCTION_110, symObjAddr: 0x3B934, symBinAddr: 0x3A534, symSize: 0x14 }
  - { offset: 0xB352A, size: 0x8, addend: 0x0, symName: _OUTLINED_FUNCTION_117, symObjAddr: 0x3B9E4, symBinAddr: 0x3A5E4, symSize: 0x1C }
  - { offset: 0xB3541, size: 0x8, addend: 0x0, symName: _OUTLINED_FUNCTION_140, symObjAddr: 0x3BBD4, symBinAddr: 0x3A7D4, symSize: 0xC }
  - { offset: 0xB3558, size: 0x8, addend: 0x0, symName: _OUTLINED_FUNCTION_144, symObjAddr: 0x3BC0C, symBinAddr: 0x3A80C, symSize: 0x18 }
  - { offset: 0xB356F, size: 0x8, addend: 0x0, symName: _OUTLINED_FUNCTION_146, symObjAddr: 0x3BC30, symBinAddr: 0x3A830, symSize: 0x24 }
  - { offset: 0xB3586, size: 0x8, addend: 0x0, symName: _OUTLINED_FUNCTION_147, symObjAddr: 0x3BC54, symBinAddr: 0x3A854, symSize: 0x24 }
  - { offset: 0xB359D, size: 0x8, addend: 0x0, symName: _OUTLINED_FUNCTION_176, symObjAddr: 0x3BE30, symBinAddr: 0x3AA30, symSize: 0x20 }
  - { offset: 0xB35B4, size: 0x8, addend: 0x0, symName: _OUTLINED_FUNCTION_181, symObjAddr: 0x3BE90, symBinAddr: 0x3AA90, symSize: 0x20 }
  - { offset: 0xB35CB, size: 0x8, addend: 0x0, symName: _OUTLINED_FUNCTION_197, symObjAddr: 0x3BF94, symBinAddr: 0x3AB94, symSize: 0x14 }
  - { offset: 0xB35E2, size: 0x8, addend: 0x0, symName: _OUTLINED_FUNCTION_200, symObjAddr: 0x3BFC8, symBinAddr: 0x3ABC8, symSize: 0x14 }
  - { offset: 0xB35F9, size: 0x8, addend: 0x0, symName: _OUTLINED_FUNCTION_201, symObjAddr: 0x3BFDC, symBinAddr: 0x3ABDC, symSize: 0x14 }
  - { offset: 0xB3610, size: 0x8, addend: 0x0, symName: _OUTLINED_FUNCTION_203, symObjAddr: 0x3C004, symBinAddr: 0x3AC04, symSize: 0x34 }
  - { offset: 0xB3627, size: 0x8, addend: 0x0, symName: _OUTLINED_FUNCTION_239, symObjAddr: 0x3C20C, symBinAddr: 0x3AE0C, symSize: 0x10 }
  - { offset: 0xB363E, size: 0x8, addend: 0x0, symName: _OUTLINED_FUNCTION_242, symObjAddr: 0x3C238, symBinAddr: 0x3AE38, symSize: 0x1C }
  - { offset: 0xB3655, size: 0x8, addend: 0x0, symName: _OUTLINED_FUNCTION_243, symObjAddr: 0x3C254, symBinAddr: 0x3AE54, symSize: 0x1C }
  - { offset: 0xB366C, size: 0x8, addend: 0x0, symName: _OUTLINED_FUNCTION_244, symObjAddr: 0x3C270, symBinAddr: 0x3AE70, symSize: 0x1C }
  - { offset: 0xB3683, size: 0x8, addend: 0x0, symName: _OUTLINED_FUNCTION_277, symObjAddr: 0x3C43C, symBinAddr: 0x3B03C, symSize: 0x14 }
  - { offset: 0xB369A, size: 0x8, addend: 0x0, symName: _OUTLINED_FUNCTION_317, symObjAddr: 0x3C64C, symBinAddr: 0x3B24C, symSize: 0xC }
  - { offset: 0xB36B1, size: 0x8, addend: 0x0, symName: _OUTLINED_FUNCTION_329, symObjAddr: 0x3C6E8, symBinAddr: 0x3B2E8, symSize: 0x10 }
  - { offset: 0xB36C8, size: 0x8, addend: 0x0, symName: _OUTLINED_FUNCTION_331, symObjAddr: 0x3C704, symBinAddr: 0x3B304, symSize: 0x10 }
  - { offset: 0xB36DF, size: 0x8, addend: 0x0, symName: _OUTLINED_FUNCTION_336, symObjAddr: 0x3C750, symBinAddr: 0x3B350, symSize: 0x8 }
  - { offset: 0xB36F6, size: 0x8, addend: 0x0, symName: _OUTLINED_FUNCTION_353, symObjAddr: 0x3C824, symBinAddr: 0x3B424, symSize: 0x10 }
  - { offset: 0xB370D, size: 0x8, addend: 0x0, symName: _OUTLINED_FUNCTION_354, symObjAddr: 0x3C834, symBinAddr: 0x3B434, symSize: 0x10 }
  - { offset: 0xB3724, size: 0x8, addend: 0x0, symName: _OUTLINED_FUNCTION_355, symObjAddr: 0x3C844, symBinAddr: 0x3B444, symSize: 0x10 }
  - { offset: 0xB373B, size: 0x8, addend: 0x0, symName: _OUTLINED_FUNCTION_368, symObjAddr: 0x3C8D8, symBinAddr: 0x3B4D8, symSize: 0x44 }
  - { offset: 0xB3752, size: 0x8, addend: 0x0, symName: _OUTLINED_FUNCTION_376, symObjAddr: 0x3C980, symBinAddr: 0x3B580, symSize: 0x10 }
  - { offset: 0xB3769, size: 0x8, addend: 0x0, symName: _OUTLINED_FUNCTION_379, symObjAddr: 0x3C9B8, symBinAddr: 0x3B5B8, symSize: 0x18 }
  - { offset: 0xB3780, size: 0x8, addend: 0x0, symName: _OUTLINED_FUNCTION_383, symObjAddr: 0x3C9F8, symBinAddr: 0x3B5F8, symSize: 0x18 }
  - { offset: 0xB3797, size: 0x8, addend: 0x0, symName: _OUTLINED_FUNCTION_384, symObjAddr: 0x3CA10, symBinAddr: 0x3B610, symSize: 0x18 }
  - { offset: 0xB37AE, size: 0x8, addend: 0x0, symName: _OUTLINED_FUNCTION_385, symObjAddr: 0x3CA28, symBinAddr: 0x3B628, symSize: 0x18 }
  - { offset: 0xB37C5, size: 0x8, addend: 0x0, symName: _OUTLINED_FUNCTION_387, symObjAddr: 0x3CA48, symBinAddr: 0x3B648, symSize: 0x18 }
  - { offset: 0xB37DC, size: 0x8, addend: 0x0, symName: _OUTLINED_FUNCTION_395, symObjAddr: 0x3CABC, symBinAddr: 0x3B6BC, symSize: 0x18 }
  - { offset: 0xB37F3, size: 0x8, addend: 0x0, symName: _OUTLINED_FUNCTION_409, symObjAddr: 0x3CB80, symBinAddr: 0x3B780, symSize: 0x8 }
  - { offset: 0xB380A, size: 0x8, addend: 0x0, symName: _OUTLINED_FUNCTION_410, symObjAddr: 0x3CB88, symBinAddr: 0x3B788, symSize: 0x8 }
  - { offset: 0xB3821, size: 0x8, addend: 0x0, symName: _OUTLINED_FUNCTION_432, symObjAddr: 0x3CC74, symBinAddr: 0x3B874, symSize: 0x8 }
  - { offset: 0xB3838, size: 0x8, addend: 0x0, symName: _OUTLINED_FUNCTION_461, symObjAddr: 0x3CDFC, symBinAddr: 0x3B9FC, symSize: 0x1C }
  - { offset: 0xB384F, size: 0x8, addend: 0x0, symName: _OUTLINED_FUNCTION_537, symObjAddr: 0x3D2C4, symBinAddr: 0x3BEC4, symSize: 0x8 }
  - { offset: 0xB3866, size: 0x8, addend: 0x0, symName: _OUTLINED_FUNCTION_538, symObjAddr: 0x3D2CC, symBinAddr: 0x3BECC, symSize: 0x8 }
  - { offset: 0xB387D, size: 0x8, addend: 0x0, symName: _OUTLINED_FUNCTION_547, symObjAddr: 0x3D328, symBinAddr: 0x3BF28, symSize: 0x8 }
  - { offset: 0xB3894, size: 0x8, addend: 0x0, symName: _OUTLINED_FUNCTION_555, symObjAddr: 0x3D384, symBinAddr: 0x3BF84, symSize: 0x14 }
  - { offset: 0xB38AB, size: 0x8, addend: 0x0, symName: _OUTLINED_FUNCTION_557, symObjAddr: 0x3D3A4, symBinAddr: 0x3BFA4, symSize: 0xC }
  - { offset: 0xB38C2, size: 0x8, addend: 0x0, symName: _OUTLINED_FUNCTION_558, symObjAddr: 0x3D3B0, symBinAddr: 0x3BFB0, symSize: 0x14 }
  - { offset: 0xB38D9, size: 0x8, addend: 0x0, symName: _OUTLINED_FUNCTION_561, symObjAddr: 0x3D3D8, symBinAddr: 0x3BFD8, symSize: 0x14 }
  - { offset: 0xB38F0, size: 0x8, addend: 0x0, symName: _OUTLINED_FUNCTION_563, symObjAddr: 0x3D3F8, symBinAddr: 0x3BFF8, symSize: 0x14 }
  - { offset: 0xB3907, size: 0x8, addend: 0x0, symName: _OUTLINED_FUNCTION_580, symObjAddr: 0x3D4CC, symBinAddr: 0x3C0CC, symSize: 0xC }
  - { offset: 0xB391E, size: 0x8, addend: 0x0, symName: _OUTLINED_FUNCTION_584, symObjAddr: 0x3D4FC, symBinAddr: 0x3C0FC, symSize: 0x28 }
  - { offset: 0xB3935, size: 0x8, addend: 0x0, symName: _OUTLINED_FUNCTION_634, symObjAddr: 0x3D818, symBinAddr: 0x3C418, symSize: 0x24 }
  - { offset: 0xB394C, size: 0x8, addend: 0x0, symName: _OUTLINED_FUNCTION_656, symObjAddr: 0x3D954, symBinAddr: 0x3C554, symSize: 0x8 }
  - { offset: 0xB3963, size: 0x8, addend: 0x0, symName: _OUTLINED_FUNCTION_659, symObjAddr: 0x3D978, symBinAddr: 0x3C578, symSize: 0x8 }
  - { offset: 0xB397A, size: 0x8, addend: 0x0, symName: _OUTLINED_FUNCTION_725, symObjAddr: 0x3DD54, symBinAddr: 0x3C954, symSize: 0x8 }
  - { offset: 0xB3991, size: 0x8, addend: 0x0, symName: _OUTLINED_FUNCTION_740, symObjAddr: 0x3DDF0, symBinAddr: 0x3C9F0, symSize: 0x8 }
  - { offset: 0xB39A8, size: 0x8, addend: 0x0, symName: _OUTLINED_FUNCTION_748, symObjAddr: 0x3DE68, symBinAddr: 0x3CA68, symSize: 0xC }
  - { offset: 0xB39BF, size: 0x8, addend: 0x0, symName: _OUTLINED_FUNCTION_766, symObjAddr: 0x3DF78, symBinAddr: 0x3CB78, symSize: 0x10 }
  - { offset: 0xB39D6, size: 0x8, addend: 0x0, symName: _OUTLINED_FUNCTION_772, symObjAddr: 0x3DFBC, symBinAddr: 0x3CBBC, symSize: 0x10 }
  - { offset: 0xB39ED, size: 0x8, addend: 0x0, symName: _OUTLINED_FUNCTION_773, symObjAddr: 0x3DFCC, symBinAddr: 0x3CBCC, symSize: 0x8 }
  - { offset: 0xB3A04, size: 0x8, addend: 0x0, symName: _OUTLINED_FUNCTION_775, symObjAddr: 0x3DFE4, symBinAddr: 0x3CBE4, symSize: 0x8 }
  - { offset: 0xB3A1B, size: 0x8, addend: 0x0, symName: _OUTLINED_FUNCTION_776, symObjAddr: 0x3DFEC, symBinAddr: 0x3CBEC, symSize: 0x8 }
  - { offset: 0xB3A32, size: 0x8, addend: 0x0, symName: _OUTLINED_FUNCTION_780, symObjAddr: 0x3E018, symBinAddr: 0x3CC18, symSize: 0xC }
  - { offset: 0xB3A49, size: 0x8, addend: 0x0, symName: _OUTLINED_FUNCTION_814, symObjAddr: 0x3E1C0, symBinAddr: 0x3CDC0, symSize: 0x1C }
  - { offset: 0xB3A60, size: 0x8, addend: 0x0, symName: _OUTLINED_FUNCTION_845, symObjAddr: 0x3E374, symBinAddr: 0x3CF74, symSize: 0x10 }
  - { offset: 0xB3A77, size: 0x8, addend: 0x0, symName: _OUTLINED_FUNCTION_853, symObjAddr: 0x3E3F4, symBinAddr: 0x3CFF4, symSize: 0x10 }
  - { offset: 0xB3A8E, size: 0x8, addend: 0x0, symName: _OUTLINED_FUNCTION_855, symObjAddr: 0x3E414, symBinAddr: 0x3D014, symSize: 0x10 }
  - { offset: 0xB3AA5, size: 0x8, addend: 0x0, symName: _OUTLINED_FUNCTION_856, symObjAddr: 0x3E424, symBinAddr: 0x3D024, symSize: 0x10 }
  - { offset: 0xB3ABC, size: 0x8, addend: 0x0, symName: _OUTLINED_FUNCTION_857, symObjAddr: 0x3E434, symBinAddr: 0x3D034, symSize: 0x10 }
  - { offset: 0xB3AD3, size: 0x8, addend: 0x0, symName: _OUTLINED_FUNCTION_864, symObjAddr: 0x3E4A4, symBinAddr: 0x3D0A4, symSize: 0x10 }
  - { offset: 0xB3AEA, size: 0x8, addend: 0x0, symName: _OUTLINED_FUNCTION_893, symObjAddr: 0x3E69C, symBinAddr: 0x3D29C, symSize: 0xC }
  - { offset: 0xB3B01, size: 0x8, addend: 0x0, symName: _OUTLINED_FUNCTION_908, symObjAddr: 0x3E780, symBinAddr: 0x3D380, symSize: 0x18 }
  - { offset: 0xB3B18, size: 0x8, addend: 0x0, symName: _OUTLINED_FUNCTION_972, symObjAddr: 0x3EA7C, symBinAddr: 0x3D67C, symSize: 0x8 }
  - { offset: 0xB3B2F, size: 0x8, addend: 0x0, symName: _OUTLINED_FUNCTION_974, symObjAddr: 0x3EA90, symBinAddr: 0x3D690, symSize: 0x8 }
  - { offset: 0xB3B46, size: 0x8, addend: 0x0, symName: _OUTLINED_FUNCTION_984, symObjAddr: 0x3EAF0, symBinAddr: 0x3D6F0, symSize: 0xC }
  - { offset: 0xB3B5D, size: 0x8, addend: 0x0, symName: _OUTLINED_FUNCTION_987, symObjAddr: 0x3EB10, symBinAddr: 0x3D710, symSize: 0x8 }
  - { offset: 0xB3B74, size: 0x8, addend: 0x0, symName: _OUTLINED_FUNCTION_1004, symObjAddr: 0x3EBB4, symBinAddr: 0x3D7B4, symSize: 0xC }
  - { offset: 0xB3B8B, size: 0x8, addend: 0x0, symName: _OUTLINED_FUNCTION_1040, symObjAddr: 0x3ED10, symBinAddr: 0x3D910, symSize: 0x8 }
  - { offset: 0xB3BA2, size: 0x8, addend: 0x0, symName: _OUTLINED_FUNCTION_1060, symObjAddr: 0x3EDD0, symBinAddr: 0x3D9D0, symSize: 0xC }
  - { offset: 0xB3BB9, size: 0x8, addend: 0x0, symName: _OUTLINED_FUNCTION_1071, symObjAddr: 0x3EE3C, symBinAddr: 0x3DA3C, symSize: 0x8 }
  - { offset: 0xB3BD0, size: 0x8, addend: 0x0, symName: _OUTLINED_FUNCTION_1072, symObjAddr: 0x3EE44, symBinAddr: 0x3DA44, symSize: 0x8 }
  - { offset: 0xB3BE7, size: 0x8, addend: 0x0, symName: _OUTLINED_FUNCTION_1100, symObjAddr: 0x3EF50, symBinAddr: 0x3DB50, symSize: 0x8 }
  - { offset: 0xB3BFE, size: 0x8, addend: 0x0, symName: _OUTLINED_FUNCTION_1122, symObjAddr: 0x3F094, symBinAddr: 0x3DC94, symSize: 0xC }
  - { offset: 0xB3C15, size: 0x8, addend: 0x0, symName: _OUTLINED_FUNCTION_1129, symObjAddr: 0x3F108, symBinAddr: 0x3DD08, symSize: 0xC }
  - { offset: 0xB3C2C, size: 0x8, addend: 0x0, symName: _OUTLINED_FUNCTION_1148, symObjAddr: 0x3F224, symBinAddr: 0x3DE24, symSize: 0xC }
  - { offset: 0xB3C43, size: 0x8, addend: 0x0, symName: _OUTLINED_FUNCTION_1155, symObjAddr: 0x3F288, symBinAddr: 0x3DE88, symSize: 0xC }
  - { offset: 0xB3C5A, size: 0x8, addend: 0x0, symName: _OUTLINED_FUNCTION_1161, symObjAddr: 0x3F2E0, symBinAddr: 0x3DEE0, symSize: 0x14 }
  - { offset: 0xB3C71, size: 0x8, addend: 0x0, symName: _OUTLINED_FUNCTION_1162, symObjAddr: 0x3F2F4, symBinAddr: 0x3DEF4, symSize: 0xC }
  - { offset: 0xB3C88, size: 0x8, addend: 0x0, symName: _OUTLINED_FUNCTION_1175, symObjAddr: 0x3F3B0, symBinAddr: 0x3DFB0, symSize: 0x14 }
  - { offset: 0xB3C9F, size: 0x8, addend: 0x0, symName: _OUTLINED_FUNCTION_1182, symObjAddr: 0x3F41C, symBinAddr: 0x3E01C, symSize: 0x14 }
  - { offset: 0xB3CB6, size: 0x8, addend: 0x0, symName: _OUTLINED_FUNCTION_1183, symObjAddr: 0x3F430, symBinAddr: 0x3E030, symSize: 0x14 }
  - { offset: 0xB3CCD, size: 0x8, addend: 0x0, symName: _OUTLINED_FUNCTION_1187, symObjAddr: 0x3F468, symBinAddr: 0x3E068, symSize: 0xC }
  - { offset: 0xB3CE4, size: 0x8, addend: 0x0, symName: _OUTLINED_FUNCTION_1198, symObjAddr: 0x3F4FC, symBinAddr: 0x3E0FC, symSize: 0xC }
  - { offset: 0xB3CFB, size: 0x8, addend: 0x0, symName: _OUTLINED_FUNCTION_1204, symObjAddr: 0x3F544, symBinAddr: 0x3E144, symSize: 0x1C }
  - { offset: 0xB3D12, size: 0x8, addend: 0x0, symName: _OUTLINED_FUNCTION_1214, symObjAddr: 0x3F658, symBinAddr: 0x3E258, symSize: 0x1C }
  - { offset: 0x1CDB87, size: 0x8, addend: 0x0, symName: '__ZN42_$LT$$RF$T$u20$as$u20$core..fmt..Debug$GT$3fmt17had637be81b4dbbb1E', symObjAddr: 0x39EBC, symBinAddr: 0x38ABC, symSize: 0x7B8 }
  - { offset: 0x1CE6C5, size: 0x8, addend: 0x0, symName: '__ZN4core3ptr105drop_in_place$LT$core..result..Result$LT$alloc..ffi..c_str..CString$C$alloc..ffi..c_str..NulError$GT$$GT$17h16e3a446901a5941E', symObjAddr: 0x3ADA4, symBinAddr: 0x399A4, symSize: 0x28 }
  - { offset: 0x1CEB9D, size: 0x8, addend: 0x0, symName: '__ZN42_$LT$$RF$T$u20$as$u20$core..fmt..Debug$GT$3fmt17had637be81b4dbbb1E', symObjAddr: 0x39EBC, symBinAddr: 0x38ABC, symSize: 0x7B8 }
  - { offset: 0x1CEEC4, size: 0x8, addend: 0x0, symName: '__ZN95_$LT$$BP$mut$u20$sqlite3_capi..bindings..sqlite3$u20$as$u20$sqlite_nostd..nostd..Connection$GT$11commit_hook17he465201dabfaba73E', symObjAddr: 0x3AC88, symBinAddr: 0x39888, symSize: 0x20 }
  - { offset: 0x1CEF12, size: 0x8, addend: 0x0, symName: '__ZN95_$LT$$BP$mut$u20$sqlite3_capi..bindings..sqlite3$u20$as$u20$sqlite_nostd..nostd..Connection$GT$11commit_hook17he465201dabfaba73E', symObjAddr: 0x3AC88, symBinAddr: 0x39888, symSize: 0x20 }
  - { offset: 0x1CEF51, size: 0x8, addend: 0x0, symName: '__ZN95_$LT$$BP$mut$u20$sqlite3_capi..bindings..sqlite3$u20$as$u20$sqlite_nostd..nostd..Connection$GT$18create_function_v217haaac8d1d1a557de5E', symObjAddr: 0x3ACA8, symBinAddr: 0x398A8, symSize: 0xCC }
  - { offset: 0x1CF0C9, size: 0x8, addend: 0x0, symName: '__ZN95_$LT$$BP$mut$u20$sqlite3_capi..bindings..sqlite3$u20$as$u20$sqlite_nostd..nostd..Connection$GT$13rollback_hook17hc71bd6837105c686E', symObjAddr: 0x3ADCC, symBinAddr: 0x399CC, symSize: 0x20 }
  - { offset: 0x1CF117, size: 0x8, addend: 0x0, symName: '__ZN95_$LT$$BP$mut$u20$sqlite3_capi..bindings..sqlite3$u20$as$u20$sqlite_nostd..nostd..Connection$GT$13rollback_hook17hc71bd6837105c686E', symObjAddr: 0x3ADCC, symBinAddr: 0x399CC, symSize: 0x20 }
  - { offset: 0x1CF156, size: 0x8, addend: 0x0, symName: '__ZN95_$LT$$BP$mut$u20$sqlite3_capi..bindings..sqlite3$u20$as$u20$sqlite_nostd..nostd..Connection$GT$11update_hook17hee8642d567c71e6fE', symObjAddr: 0x3ADEC, symBinAddr: 0x399EC, symSize: 0x20 }
  - { offset: 0x1CF1A4, size: 0x8, addend: 0x0, symName: '__ZN95_$LT$$BP$mut$u20$sqlite3_capi..bindings..sqlite3$u20$as$u20$sqlite_nostd..nostd..Connection$GT$11update_hook17hee8642d567c71e6fE', symObjAddr: 0x3ADEC, symBinAddr: 0x399EC, symSize: 0x20 }
  - { offset: 0x1CF1E2, size: 0x8, addend: 0x0, symName: '__ZN95_$LT$$BP$mut$u20$sqlite3_capi..bindings..sqlite3$u20$as$u20$sqlite_nostd..nostd..Connection$GT$6errmsg17h14ba9204f9344c08E', symObjAddr: 0x3AE0C, symBinAddr: 0x39A0C, symSize: 0xCC }
  - { offset: 0x1CF4AB, size: 0x8, addend: 0x0, symName: '__ZN95_$LT$$BP$mut$u20$sqlite3_capi..bindings..sqlite3$u20$as$u20$sqlite_nostd..nostd..Connection$GT$14get_autocommit17hac418b9d4bae2814E', symObjAddr: 0x3AED8, symBinAddr: 0x39AD8, symSize: 0x30 }
  - { offset: 0x1CF536, size: 0x8, addend: 0x0, symName: '__ZN70_$LT$sqlite_nostd..nostd..ResultCode$u20$as$u20$core..fmt..Display$GT$3fmt17h3b0c1937a43a63a9E', symObjAddr: 0x3A674, symBinAddr: 0x39274, symSize: 0x50 }
  - { offset: 0x1CF630, size: 0x8, addend: 0x0, symName: __ZN12sqlite_nostd5nostd10convert_rc17ha5ac2dd6a23d3493E, symObjAddr: 0x3AD74, symBinAddr: 0x39974, symSize: 0x30 }
  - { offset: 0x1CF72E, size: 0x8, addend: 0x0, symName: '__ZN74_$LT$sqlite_nostd..nostd..ManagedStmt$u20$as$u20$core..ops..drop..Drop$GT$4drop17hca2e193458b3eaceE', symObjAddr: 0x3AF84, symBinAddr: 0x39B84, symSize: 0x20 }
  - { offset: 0x1CF758, size: 0x8, addend: 0x0, symName: '__ZN74_$LT$sqlite_nostd..nostd..ManagedStmt$u20$as$u20$core..ops..drop..Drop$GT$4drop17hca2e193458b3eaceE', symObjAddr: 0x3AF84, symBinAddr: 0x39B84, symSize: 0x20 }
  - { offset: 0x1CF78F, size: 0x8, addend: 0x0, symName: '__ZN94_$LT$$BP$mut$u20$sqlite3_capi..bindings..sqlite3_vtab$u20$as$u20$sqlite_nostd..nostd..VTab$GT$7set_err17hb7ab1bb334be30b8E', symObjAddr: 0x3AFA4, symBinAddr: 0x39BA4, symSize: 0x48 }
  - { offset: 0x1CF7FB, size: 0x8, addend: 0x0, symName: __ZN12sqlite_nostd5nostd12declare_vtab17h73bd8182dc21d032E, symObjAddr: 0x3AFEC, symBinAddr: 0x39BEC, symSize: 0x74 }
  - { offset: 0x1CF8C5, size: 0x8, addend: 0x0, symName: __ZN12sqlite_nostd5nostd11vtab_config17hb389eb4d1f90c05bE, symObjAddr: 0x3B060, symBinAddr: 0x39C60, symSize: 0x24 }
  - { offset: 0x1CF906, size: 0x8, addend: 0x0, symName: __ZN12sqlite_nostd5nostd11vtab_config17hb389eb4d1f90c05bE, symObjAddr: 0x3B060, symBinAddr: 0x39C60, symSize: 0x24 }
  - { offset: 0x1D030A, size: 0x8, addend: 0x0, symName: __ZN10num_traits4cast13FromPrimitive8from_i3217he1acdd0aa5368915E, symObjAddr: 0x3A6C4, symBinAddr: 0x392C4, symSize: 0x5C4 }
  - { offset: 0x1D040B, size: 0x8, addend: 0x0, symName: __ZN12sqlite_nostd5nostd11ManagedStmt5reset17h70697682b75f9b19E, symObjAddr: 0x3AF08, symBinAddr: 0x39B08, symSize: 0x28 }
  - { offset: 0x1D04C7, size: 0x8, addend: 0x0, symName: __ZN12sqlite_nostd5nostd11ManagedStmt4step17h8eca5d7be2c9b2f1E, symObjAddr: 0x3AF30, symBinAddr: 0x39B30, symSize: 0x54 }
...
